EXPORTS 
	??_R0?AV?$_Iosb@H@std@@@8 	 DATA
	??_R0?AV?$basic_filebuf@DU?$char_traits@D@std@@@std@@@8 	 DATA
	??_R0?AV?$basic_ifstream@DU?$char_traits@D@std@@@std@@@8 	 DATA
	??_R0?AV?$basic_ios@DU?$char_traits@D@std@@@std@@@8 	 DATA
	??_R0?AV?$basic_istream@DU?$char_traits@D@std@@@std@@@8 	 DATA
	??_R0?AV?$basic_istringstream@DU?$char_traits@D@std@@V?$allocator@D@2@@std@@@8 	 DATA
	??_R0?AV?$basic_ofstream@DU?$char_traits@D@std@@@std@@@8 	 DATA
	??_R0?AV?$basic_ostream@DU?$char_traits@D@std@@@std@@@8 	 DATA
	??_R0?AV?$basic_ostringstream@DU?$char_traits@D@std@@V?$allocator@D@2@@std@@@8 	 DATA
	??_R0?AV?$basic_streambuf@DU?$char_traits@D@std@@@std@@@8 	 DATA
	??_R0?AV?$basic_stringbuf@DU?$char_traits@D@std@@V?$allocator@D@2@@std@@@8 	 DATA
	??_R0?AVG4AtomicBond@@@8 	 DATA
	??_R0?AVG4CrystalExtension@@@8 	 DATA
	??_R0?AVG4CrystalUnitCell@@@8 	 DATA
	??_R0?AVG4Element@@@8 	 DATA
	??_R0?AVG4ExtDEDXTable@@@8 	 DATA
	??_R0?AVG4ExtendedMaterial@@@8 	 DATA
	??_R0?AVG4IonStoppingData@@@8 	 DATA
	??_R0?AVG4Isotope@@@8 	 DATA
	??_R0?AVG4LatticeLogical@@@8 	 DATA
	??_R0?AVG4LatticePhysical@@@8 	 DATA
	??_R0?AVG4Material@@@8 	 DATA
	??_R0?AVG4MaterialPropertiesTable@@@8 	 DATA
	??_R0?AVG4NistMessenger@@@8 	 DATA
	??_R0?AVG4OpticalSurface@@@8 	 DATA
	??_R0?AVG4SurfaceProperty@@@8 	 DATA
	??_R0?AVG4UCNMaterialPropertiesTable@@@8 	 DATA
	??_R0?AVG4UImessenger@@@8 	 DATA
	??_R0?AVG4VIonDEDXTable@@@8 	 DATA
	??_R0?AVG4VMaterialExtension@@@8 	 DATA
	??_R0?AVbad_alloc@std@@@8 	 DATA
	??_R0?AVbad_array_new_length@std@@@8 	 DATA
	??_R0?AVbad_cast@std@@@8 	 DATA
	??_R0?AVexception@std@@@8 	 DATA
	??_R0?AVios_base@std@@@8 	 DATA
	?_Psave@?$_Facetptr@V?$codecvt@DDU_Mbstatet@@@std@@@std@@2PEBVfacet@locale@2@EB 	 DATA
	?_Psave@?$_Facetptr@V?$ctype@D@std@@@std@@2PEBVfacet@locale@2@EB 	 DATA
	?_Stinit@?1??_Init@?$basic_filebuf@DU?$char_traits@D@std@@@std@@IEAAXPEAU_iobuf@@W4_Initfl@23@@Z@4U_Mbstatet@@A 	 DATA
	?dummy@?1???RHep3Vector@CLHEP@@QEAAAEANH@Z@4NA 	 DATA
	?fCumulInterval@G4SandiaTable@@0PAHA 	 DATA
	?fDensityData@G4IonisParamMat@@0PEAVG4DensityEffectData@@EA 	 DATA
	?fpInstance@G4UCNMicroRoughnessHelper@@0PEAV1@EA 	 DATA
	?instance@G4NistManager@@0PEAV1@EA 	 DATA
	?s_G4AtomicFormFactorManager@G4AtomicFormFactor@@0PEAV1@EA 	 DATA
	?theElementTable@G4Element@@0V?$vector@PEAVG4Element@@V?$allocator@PEAVG4Element@@@std@@@std@@A 	 DATA
	?theIsotopeTable@G4Isotope@@0V?$vector@PEAVG4Isotope@@V?$allocator@PEAVG4Isotope@@@std@@@std@@A 	 DATA
	?theMaterialTable@G4Material@@0V?$vector@PEAVG4Material@@V?$allocator@PEAVG4Material@@@std@@@std@@A 	 DATA
	?theSurfacePropertyTable@G4SurfaceProperty@@1V?$vector@PEAVG4SurfaceProperty@@V?$allocator@PEAVG4SurfaceProperty@@@std@@@std@@A 	 DATA
	??$?0AEBH$$Z$$V@?$pair@$$CBHN@std@@QEAA@Upiecewise_construct_t@1@V?$tuple@AEBH@1@V?$tuple@$$V@1@@Z
	??$?0AEBH$$Z$$V@?$pair@$$CBHPEAVG4PhysicsOrderedFreeVector@@@std@@QEAA@Upiecewise_construct_t@1@V?$tuple@AEBH@1@V?$tuple@$$V@1@@Z
	??$?0AEBH$$Z$$V@?$pair@$$CBHV?$vector@NV?$allocator@N@std@@@std@@@std@@QEAA@Upiecewise_construct_t@1@V?$tuple@AEBH@1@V?$tuple@$$V@1@@Z
	??$?0AEBQEAVG4Material@@$$Z$$V@?$pair@QEAVG4Material@@N@std@@QEAA@Upiecewise_construct_t@1@V?$tuple@AEBQEAVG4Material@@@1@V?$tuple@$$V@1@@Z
	??$?0AEBQEBVG4Element@@$$Z$$V@?$pair@QEBVG4Element@@PEAVG4CrystalAtomBase@@@std@@QEAA@Upiecewise_construct_t@1@V?$tuple@AEBQEBVG4Element@@@1@V?$tuple@$$V@1@@Z
	??$?0AEBU?$pair@HH@std@@$$Z$$V@?$pair@$$CBU?$pair@HH@std@@PEAVG4PhysicsVector@@@std@@QEAA@Upiecewise_construct_t@1@V?$tuple@AEBU?$pair@HH@std@@@1@V?$tuple@$$V@1@@Z
	??$?0AEBU?$pair@HVG4String@@@std@@$$Z$$V@?$pair@$$CBU?$pair@HVG4String@@@std@@PEAVG4PhysicsVector@@@std@@QEAA@Upiecewise_construct_t@1@V?$tuple@AEBU?$pair@HVG4String@@@std@@@1@V?$tuple@$$V@1@@Z
	??$?0AEBVG4String@@$$Z$$V@?$pair@$$CBVG4String@@N@std@@QEAA@Upiecewise_construct_t@1@V?$tuple@AEBVG4String@@@1@V?$tuple@$$V@1@@Z
	??$?0AEBVG4String@@$$Z$$V@?$pair@$$CBVG4String@@PEAVG4PhysicsOrderedFreeVector@@@std@@QEAA@Upiecewise_construct_t@1@V?$tuple@AEBVG4String@@@1@V?$tuple@$$V@1@@Z
	??$?0V?$tuple@AEBH@std@@V?$tuple@$$V@1@$0A@$$Z$S@?$pair@$$CBHN@std@@QEAA@AEAV?$tuple@AEBH@1@AEAV?$tuple@$$V@1@U?$integer_sequence@_K$0A@@1@U?$integer_sequence@_K$S@1@@Z
	??$?0V?$tuple@AEBH@std@@V?$tuple@$$V@1@$0A@$$Z$S@?$pair@$$CBHPEAVG4PhysicsOrderedFreeVector@@@std@@QEAA@AEAV?$tuple@AEBH@1@AEAV?$tuple@$$V@1@U?$integer_sequence@_K$0A@@1@U?$integer_sequence@_K$S@1@@Z
	??$?0V?$tuple@AEBH@std@@V?$tuple@$$V@1@$0A@$$Z$S@?$pair@$$CBHV?$vector@NV?$allocator@N@std@@@std@@@std@@QEAA@AEAV?$tuple@AEBH@1@AEAV?$tuple@$$V@1@U?$integer_sequence@_K$0A@@1@U?$integer_sequence@_K$S@1@@Z
	??$?0V?$tuple@AEBQEAVG4Material@@@std@@V?$tuple@$$V@1@$0A@$$Z$S@?$pair@QEAVG4Material@@N@std@@QEAA@AEAV?$tuple@AEBQEAVG4Material@@@1@AEAV?$tuple@$$V@1@U?$integer_sequence@_K$0A@@1@U?$integer_sequence@_K$S@1@@Z
	??$?0V?$tuple@AEBQEBVG4Element@@@std@@V?$tuple@$$V@1@$0A@$$Z$S@?$pair@QEBVG4Element@@PEAVG4CrystalAtomBase@@@std@@QEAA@AEAV?$tuple@AEBQEBVG4Element@@@1@AEAV?$tuple@$$V@1@U?$integer_sequence@_K$0A@@1@U?$integer_sequence@_K$S@1@@Z
	??$?0V?$tuple@AEBU?$pair@HH@std@@@std@@V?$tuple@$$V@1@$0A@$$Z$S@?$pair@$$CBU?$pair@HH@std@@PEAVG4PhysicsVector@@@std@@QEAA@AEAV?$tuple@AEBU?$pair@HH@std@@@1@AEAV?$tuple@$$V@1@U?$integer_sequence@_K$0A@@1@U?$integer_sequence@_K$S@1@@Z
	??$?0V?$tuple@AEBU?$pair@HVG4String@@@std@@@std@@V?$tuple@$$V@1@$0A@$$Z$S@?$pair@$$CBU?$pair@HVG4String@@@std@@PEAVG4PhysicsVector@@@std@@QEAA@AEAV?$tuple@AEBU?$pair@HVG4String@@@std@@@1@AEAV?$tuple@$$V@1@U?$integer_sequence@_K$0A@@1@U?$integer_sequence@_K$S@1@@Z
	??$?0V?$tuple@AEBVG4String@@@std@@V?$tuple@$$V@1@$0A@$$Z$S@?$pair@$$CBVG4String@@N@std@@QEAA@AEAV?$tuple@AEBVG4String@@@1@AEAV?$tuple@$$V@1@U?$integer_sequence@_K$0A@@1@U?$integer_sequence@_K$S@1@@Z
	??$?0V?$tuple@AEBVG4String@@@std@@V?$tuple@$$V@1@$0A@$$Z$S@?$pair@$$CBVG4String@@PEAVG4PhysicsOrderedFreeVector@@@std@@QEAA@AEAV?$tuple@AEBVG4String@@@1@AEAV?$tuple@$$V@1@U?$integer_sequence@_K$0A@@1@U?$integer_sequence@_K$S@1@@Z
	??$?5DU?$char_traits@D@std@@V?$allocator@D@1@@std@@YAAEAV?$basic_istream@DU?$char_traits@D@std@@@0@$$QEAV10@AEAV?$basic_string@DU?$char_traits@D@std@@V?$allocator@D@2@@0@@Z
	??$?5DU?$char_traits@D@std@@V?$allocator@D@1@@std@@YAAEAV?$basic_istream@DU?$char_traits@D@std@@@0@AEAV10@AEAV?$basic_string@DU?$char_traits@D@std@@V?$allocator@D@2@@0@@Z
	??$?6DU?$char_traits@D@std@@V?$allocator@D@1@@std@@YAAEAV?$basic_ostream@DU?$char_traits@D@std@@@0@AEAV10@AEBV?$basic_string@DU?$char_traits@D@std@@V?$allocator@D@2@@0@@Z
	??$?6DU?$char_traits@D@std@@_J@std@@YAAEAV?$basic_ostream@DU?$char_traits@D@std@@@0@AEAV10@AEBU?$_Smanip@_J@0@@Z
	??$?6U?$char_traits@D@std@@@std@@YAAEAV?$basic_ostream@DU?$char_traits@D@std@@@0@AEAV10@PEBD@Z
	??$?8DU?$char_traits@D@std@@V?$allocator@D@1@@std@@YA_NQEBDAEBV?$basic_string@DU?$char_traits@D@std@@V?$allocator@D@2@@0@@Z
	??$?HDU?$char_traits@D@std@@V?$allocator@D@1@@std@@YA?AV?$basic_string@DU?$char_traits@D@std@@V?$allocator@D@2@@0@$$QEAV10@AEBV10@@Z
	??$?HDU?$char_traits@D@std@@V?$allocator@D@1@@std@@YA?AV?$basic_string@DU?$char_traits@D@std@@V?$allocator@D@2@@0@$$QEAV10@QEBD@Z
	??$?HDU?$char_traits@D@std@@V?$allocator@D@1@@std@@YA?AV?$basic_string@DU?$char_traits@D@std@@V?$allocator@D@2@@0@AEBV10@QEBD@Z
	??$?HDU?$char_traits@D@std@@V?$allocator@D@1@@std@@YA?AV?$basic_string@DU?$char_traits@D@std@@V?$allocator@D@2@@0@QEBDAEBV10@@Z
	??$?HN@std@@YA?AV?$complex@N@0@AEBNAEBV10@@Z
	??$?KN@std@@YA?AV?$complex@N@0@AEBNAEBV10@@Z
	??$?MDU?$char_traits@D@std@@V?$allocator@D@1@@std@@YA_NAEBV?$basic_string@DU?$char_traits@D@std@@V?$allocator@D@2@@0@0@Z
	??$_Allocate@$0BA@U_Default_allocate_traits@std@@$0A@@std@@YAPEAX_K@Z
	??$_Allocate_manually_vector_aligned@U_Default_allocate_traits@std@@@std@@YAPEAX_K@Z
	??$_Construct_in_place@PEADAEBQEAD@std@@YAXAEAPEADAEBQEAD@Z
	??$_Construct_in_place@PEAU?$_List_node@U?$pair@$$CBVG4String@@V?$unique_ptr@VG4VMaterialExtension@@U?$default_delete@VG4VMaterialExtension@@@std@@@std@@@std@@PEAX@std@@AEAPEAU12@@std@@YAXAEAPEAU?$_List_node@U?$pair@$$CBVG4String@@V?$unique_ptr@VG4VMaterialExtension@@U?$default_delete@VG4VMaterialExtension@@@std@@@std@@@std@@PEAX@0@0@Z
	??$_Construct_in_place@PEAU?$_List_node@U?$pair@$$CBVG4String@@V?$unique_ptr@VG4VMaterialExtension@@U?$default_delete@VG4VMaterialExtension@@@std@@@std@@@std@@PEAX@std@@AEBQEAU12@@std@@YAXAEAPEAU?$_List_node@U?$pair@$$CBVG4String@@V?$unique_ptr@VG4VMaterialExtension@@U?$default_delete@VG4VMaterialExtension@@@std@@@std@@@std@@PEAX@0@AEBQEAU10@@Z
	??$_Construct_in_place@PEAU?$_Tree_node@U?$pair@$$CBHN@std@@PEAX@std@@AEAPEAU12@@std@@YAXAEAPEAU?$_Tree_node@U?$pair@$$CBHN@std@@PEAX@0@0@Z
	??$_Construct_in_place@PEAU?$_Tree_node@U?$pair@$$CBHN@std@@PEAX@std@@AEBQEAU12@@std@@YAXAEAPEAU?$_Tree_node@U?$pair@$$CBHN@std@@PEAX@0@AEBQEAU10@@Z
	??$_Construct_in_place@PEAU?$_Tree_node@U?$pair@$$CBHPEAVG4PhysicsOrderedFreeVector@@@std@@PEAX@std@@AEAPEAU12@@std@@YAXAEAPEAU?$_Tree_node@U?$pair@$$CBHPEAVG4PhysicsOrderedFreeVector@@@std@@PEAX@0@0@Z
	??$_Construct_in_place@PEAU?$_Tree_node@U?$pair@$$CBHPEAVG4PhysicsOrderedFreeVector@@@std@@PEAX@std@@AEBQEAU12@@std@@YAXAEAPEAU?$_Tree_node@U?$pair@$$CBHPEAVG4PhysicsOrderedFreeVector@@@std@@PEAX@0@AEBQEAU10@@Z
	??$_Construct_in_place@PEAU?$_Tree_node@U?$pair@$$CBHV?$vector@NV?$allocator@N@std@@@std@@@std@@PEAX@std@@AEAPEAU12@@std@@YAXAEAPEAU?$_Tree_node@U?$pair@$$CBHV?$vector@NV?$allocator@N@std@@@std@@@std@@PEAX@0@0@Z
	??$_Construct_in_place@PEAU?$_Tree_node@U?$pair@$$CBHV?$vector@NV?$allocator@N@std@@@std@@@std@@PEAX@std@@AEBQEAU12@@std@@YAXAEAPEAU?$_Tree_node@U?$pair@$$CBHV?$vector@NV?$allocator@N@std@@@std@@@std@@PEAX@0@AEBQEAU10@@Z
	??$_Construct_in_place@PEAU?$_Tree_node@U?$pair@$$CBU?$pair@HH@std@@PEAVG4PhysicsVector@@@std@@PEAX@std@@AEAPEAU12@@std@@YAXAEAPEAU?$_Tree_node@U?$pair@$$CBU?$pair@HH@std@@PEAVG4PhysicsVector@@@std@@PEAX@0@0@Z
	??$_Construct_in_place@PEAU?$_Tree_node@U?$pair@$$CBU?$pair@HH@std@@PEAVG4PhysicsVector@@@std@@PEAX@std@@AEBQEAU12@@std@@YAXAEAPEAU?$_Tree_node@U?$pair@$$CBU?$pair@HH@std@@PEAVG4PhysicsVector@@@std@@PEAX@0@AEBQEAU10@@Z
	??$_Construct_in_place@PEAU?$_Tree_node@U?$pair@$$CBU?$pair@HVG4String@@@std@@PEAVG4PhysicsVector@@@std@@PEAX@std@@AEAPEAU12@@std@@YAXAEAPEAU?$_Tree_node@U?$pair@$$CBU?$pair@HVG4String@@@std@@PEAVG4PhysicsVector@@@std@@PEAX@0@0@Z
	??$_Construct_in_place@PEAU?$_Tree_node@U?$pair@$$CBU?$pair@HVG4String@@@std@@PEAVG4PhysicsVector@@@std@@PEAX@std@@AEBQEAU12@@std@@YAXAEAPEAU?$_Tree_node@U?$pair@$$CBU?$pair@HVG4String@@@std@@PEAVG4PhysicsVector@@@std@@PEAX@0@AEBQEAU10@@Z
	??$_Construct_in_place@PEAU?$_Tree_node@U?$pair@$$CBVG4String@@N@std@@PEAX@std@@AEAPEAU12@@std@@YAXAEAPEAU?$_Tree_node@U?$pair@$$CBVG4String@@N@std@@PEAX@0@0@Z
	??$_Construct_in_place@PEAU?$_Tree_node@U?$pair@$$CBVG4String@@N@std@@PEAX@std@@AEBQEAU12@@std@@YAXAEAPEAU?$_Tree_node@U?$pair@$$CBVG4String@@N@std@@PEAX@0@AEBQEAU10@@Z
	??$_Construct_in_place@PEAU?$_Tree_node@U?$pair@$$CBVG4String@@PEAVG4PhysicsOrderedFreeVector@@@std@@PEAX@std@@AEAPEAU12@@std@@YAXAEAPEAU?$_Tree_node@U?$pair@$$CBVG4String@@PEAVG4PhysicsOrderedFreeVector@@@std@@PEAX@0@0@Z
	??$_Construct_in_place@PEAU?$_Tree_node@U?$pair@$$CBVG4String@@PEAVG4PhysicsOrderedFreeVector@@@std@@PEAX@std@@AEBQEAU12@@std@@YAXAEAPEAU?$_Tree_node@U?$pair@$$CBVG4String@@PEAVG4PhysicsOrderedFreeVector@@@std@@PEAX@0@AEBQEAU10@@Z
	??$_Construct_in_place@PEAU?$_Tree_node@U?$pair@QEAVG4Material@@N@std@@PEAX@std@@AEAPEAU12@@std@@YAXAEAPEAU?$_Tree_node@U?$pair@QEAVG4Material@@N@std@@PEAX@0@0@Z
	??$_Construct_in_place@PEAU?$_Tree_node@U?$pair@QEAVG4Material@@N@std@@PEAX@std@@AEBQEAU12@@std@@YAXAEAPEAU?$_Tree_node@U?$pair@QEAVG4Material@@N@std@@PEAX@0@AEBQEAU10@@Z
	??$_Construct_in_place@PEAU?$_Tree_node@U?$pair@QEBVG4Element@@PEAVG4CrystalAtomBase@@@std@@PEAX@std@@AEAPEAU12@@std@@YAXAEAPEAU?$_Tree_node@U?$pair@QEBVG4Element@@PEAVG4CrystalAtomBase@@@std@@PEAX@0@0@Z
	??$_Construct_in_place@PEAU?$_Tree_node@U?$pair@QEBVG4Element@@PEAVG4CrystalAtomBase@@@std@@PEAX@std@@AEBQEAU12@@std@@YAXAEAPEAU?$_Tree_node@U?$pair@QEBVG4Element@@PEAVG4CrystalAtomBase@@@std@@PEAX@0@AEBQEAU10@@Z
	??$_Construct_in_place@V?$_List_unchecked_iterator@V?$_List_val@U?$_List_simple_types@U?$pair@$$CBVG4String@@V?$unique_ptr@VG4VMaterialExtension@@U?$default_delete@VG4VMaterialExtension@@@std@@@std@@@std@@@std@@@std@@@std@@AEBV12@@std@@YAXAEAV?$_List_unchecked_iterator@V?$_List_val@U?$_List_simple_types@U?$pair@$$CBVG4String@@V?$unique_ptr@VG4VMaterialExtension@@U?$default_delete@VG4VMaterialExtension@@@std@@@std@@@std@@@std@@@std@@@0@AEBV10@@Z
	??$_Copy_memmove@PEAHPEAH@std@@YAPEAHPEAH00@Z
	??$_Copy_memmove@PEAIPEAI@std@@YAPEAIPEAI00@Z
	??$_Copy_memmove@PEANPEAN@std@@YAPEANPEAN00@Z
	??$_Copy_memmove@PEAPEAVG4DataVector@@PEAPEAV1@@std@@YAPEAPEAVG4DataVector@@PEAPEAV1@00@Z
	??$_Copy_memmove@PEAPEAVG4Element@@PEAPEAV1@@std@@YAPEAPEAVG4Element@@PEAPEAV1@00@Z
	??$_Copy_memmove@PEAPEAVG4Isotope@@PEAPEAV1@@std@@YAPEAPEAVG4Isotope@@PEAPEAV1@00@Z
	??$_Copy_memmove@PEAPEAVG4Material@@PEAPEAV1@@std@@YAPEAPEAVG4Material@@PEAPEAV1@00@Z
	??$_Copy_memmove@PEAPEAVG4PhysicsVector@@PEAPEAV1@@std@@YAPEAPEAVG4PhysicsVector@@PEAPEAV1@00@Z
	??$_Copy_memmove@PEAPEAVG4SurfaceProperty@@PEAPEAV1@@std@@YAPEAPEAVG4SurfaceProperty@@PEAPEAV1@00@Z
	??$_Copy_memmove@PEAW4G4State@@PEAW41@@std@@YAPEAW4G4State@@PEAW41@00@Z
	??$_Copy_memmove@PEBNPEAN@std@@YAPEANPEBN0PEAN@Z
	??$_Deallocate@$0BA@$0A@@std@@YAXPEAX_K@Z
	??$_Destroy_in_place@PEAD@std@@YAXAEAPEAD@Z
	??$_Destroy_in_place@PEAU?$_List_node@U?$pair@$$CBVG4String@@V?$unique_ptr@VG4VMaterialExtension@@U?$default_delete@VG4VMaterialExtension@@@std@@@std@@@std@@PEAX@std@@@std@@YAXAEAPEAU?$_List_node@U?$pair@$$CBVG4String@@V?$unique_ptr@VG4VMaterialExtension@@U?$default_delete@VG4VMaterialExtension@@@std@@@std@@@std@@PEAX@0@@Z
	??$_Destroy_in_place@PEAU?$_Tree_node@U?$pair@$$CBHN@std@@PEAX@std@@@std@@YAXAEAPEAU?$_Tree_node@U?$pair@$$CBHN@std@@PEAX@0@@Z
	??$_Destroy_in_place@PEAU?$_Tree_node@U?$pair@$$CBHPEAVG4PhysicsOrderedFreeVector@@@std@@PEAX@std@@@std@@YAXAEAPEAU?$_Tree_node@U?$pair@$$CBHPEAVG4PhysicsOrderedFreeVector@@@std@@PEAX@0@@Z
	??$_Destroy_in_place@PEAU?$_Tree_node@U?$pair@$$CBHV?$vector@NV?$allocator@N@std@@@std@@@std@@PEAX@std@@@std@@YAXAEAPEAU?$_Tree_node@U?$pair@$$CBHV?$vector@NV?$allocator@N@std@@@std@@@std@@PEAX@0@@Z
	??$_Destroy_in_place@PEAU?$_Tree_node@U?$pair@$$CBU?$pair@HH@std@@PEAVG4PhysicsVector@@@std@@PEAX@std@@@std@@YAXAEAPEAU?$_Tree_node@U?$pair@$$CBU?$pair@HH@std@@PEAVG4PhysicsVector@@@std@@PEAX@0@@Z
	??$_Destroy_in_place@PEAU?$_Tree_node@U?$pair@$$CBU?$pair@HVG4String@@@std@@PEAVG4PhysicsVector@@@std@@PEAX@std@@@std@@YAXAEAPEAU?$_Tree_node@U?$pair@$$CBU?$pair@HVG4String@@@std@@PEAVG4PhysicsVector@@@std@@PEAX@0@@Z
	??$_Destroy_in_place@PEAU?$_Tree_node@U?$pair@$$CBVG4String@@N@std@@PEAX@std@@@std@@YAXAEAPEAU?$_Tree_node@U?$pair@$$CBVG4String@@N@std@@PEAX@0@@Z
	??$_Destroy_in_place@PEAU?$_Tree_node@U?$pair@$$CBVG4String@@PEAVG4PhysicsOrderedFreeVector@@@std@@PEAX@std@@@std@@YAXAEAPEAU?$_Tree_node@U?$pair@$$CBVG4String@@PEAVG4PhysicsOrderedFreeVector@@@std@@PEAX@0@@Z
	??$_Destroy_in_place@PEAU?$_Tree_node@U?$pair@QEAVG4Material@@N@std@@PEAX@std@@@std@@YAXAEAPEAU?$_Tree_node@U?$pair@QEAVG4Material@@N@std@@PEAX@0@@Z
	??$_Destroy_in_place@PEAU?$_Tree_node@U?$pair@QEBVG4Element@@PEAVG4CrystalAtomBase@@@std@@PEAX@std@@@std@@YAXAEAPEAU?$_Tree_node@U?$pair@QEBVG4Element@@PEAVG4CrystalAtomBase@@@std@@PEAX@0@@Z
	??$_Destroy_range@PEAV?$_List_unchecked_iterator@V?$_List_val@U?$_List_simple_types@U?$pair@$$CBVG4String@@V?$unique_ptr@VG4VMaterialExtension@@U?$default_delete@VG4VMaterialExtension@@@std@@@std@@@std@@@std@@@std@@@std@@@std@@YAXPEAV?$_List_unchecked_iterator@V?$_List_val@U?$_List_simple_types@U?$pair@$$CBVG4String@@V?$unique_ptr@VG4VMaterialExtension@@U?$default_delete@VG4VMaterialExtension@@@std@@@std@@@std@@@std@@@std@@@0@QEAV10@@Z
	??$_Destroy_range@V?$allocator@H@std@@@std@@YAXPEAHQEAHAEAV?$allocator@H@0@@Z
	??$_Destroy_range@V?$allocator@I@std@@@std@@YAXPEAIQEAIAEAV?$allocator@I@0@@Z
	??$_Destroy_range@V?$allocator@N@std@@@std@@YAXPEANQEANAEAV?$allocator@N@0@@Z
	??$_Destroy_range@V?$allocator@PEAVG4AtomicBond@@@std@@@std@@YAXPEAPEAVG4AtomicBond@@QEAPEAV1@AEAV?$allocator@PEAVG4AtomicBond@@@0@@Z
	??$_Destroy_range@V?$allocator@PEAVG4DataVector@@@std@@@std@@YAXPEAPEAVG4DataVector@@QEAPEAV1@AEAV?$allocator@PEAVG4DataVector@@@0@@Z
	??$_Destroy_range@V?$allocator@PEAVG4Element@@@std@@@std@@YAXPEAPEAVG4Element@@QEAPEAV1@AEAV?$allocator@PEAVG4Element@@@0@@Z
	??$_Destroy_range@V?$allocator@PEAVG4Isotope@@@std@@@std@@YAXPEAPEAVG4Isotope@@QEAPEAV1@AEAV?$allocator@PEAVG4Isotope@@@0@@Z
	??$_Destroy_range@V?$allocator@PEAVG4Material@@@std@@@std@@YAXPEAPEAVG4Material@@QEAPEAV1@AEAV?$allocator@PEAVG4Material@@@0@@Z
	??$_Destroy_range@V?$allocator@PEAVG4PhysicsVector@@@std@@@std@@YAXPEAPEAVG4PhysicsVector@@QEAPEAV1@AEAV?$allocator@PEAVG4PhysicsVector@@@0@@Z
	??$_Destroy_range@V?$allocator@PEAVG4SurfaceProperty@@@std@@@std@@YAXPEAPEAVG4SurfaceProperty@@QEAPEAV1@AEAV?$allocator@PEAVG4SurfaceProperty@@@0@@Z
	??$_Destroy_range@V?$allocator@VG4String@@@std@@@std@@YAXPEAVG4String@@QEAV1@AEAV?$allocator@VG4String@@@0@@Z
	??$_Destroy_range@V?$allocator@VHep3Vector@CLHEP@@@std@@@std@@YAXPEAVHep3Vector@CLHEP@@QEAV12@AEAV?$allocator@VHep3Vector@CLHEP@@@0@@Z
	??$_Destroy_range@V?$allocator@W4G4State@@@std@@@std@@YAXPEAW4G4State@@QEAW41@AEAV?$allocator@W4G4State@@@0@@Z
	??$_Emplace_reallocate@AEBH@?$vector@HV?$allocator@H@std@@@std@@QEAAPEAHQEAHAEBH@Z
	??$_Emplace_reallocate@AEBN@?$vector@NV?$allocator@N@std@@@std@@QEAAPEANQEANAEBN@Z
	??$_Emplace_reallocate@AEBQEAVG4Element@@@?$vector@PEAVG4Element@@V?$allocator@PEAVG4Element@@@std@@@std@@QEAAPEAPEAVG4Element@@QEAPEAV2@AEBQEAV2@@Z
	??$_Emplace_reallocate@AEBQEAVG4Isotope@@@?$vector@PEAVG4Isotope@@V?$allocator@PEAVG4Isotope@@@std@@@std@@QEAAPEAPEAVG4Isotope@@QEAPEAV2@AEBQEAV2@@Z
	??$_Emplace_reallocate@AEBQEAVG4PhysicsVector@@@?$vector@PEAVG4PhysicsVector@@V?$allocator@PEAVG4PhysicsVector@@@std@@@std@@QEAAPEAPEAVG4PhysicsVector@@QEAPEAV2@AEBQEAV2@@Z
	??$_Emplace_reallocate@AEBVG4String@@@?$vector@VG4String@@V?$allocator@VG4String@@@std@@@std@@QEAAPEAVG4String@@QEAV2@AEBV2@@Z
	??$_Emplace_reallocate@AEBVHep3Vector@CLHEP@@@?$vector@VHep3Vector@CLHEP@@V?$allocator@VHep3Vector@CLHEP@@@std@@@std@@QEAAPEAVHep3Vector@CLHEP@@QEAV23@AEBV23@@Z
	??$_Emplace_reallocate@AEBW4G4State@@@?$vector@W4G4State@@V?$allocator@W4G4State@@@std@@@std@@QEAAPEAW4G4State@@QEAW42@AEBW42@@Z
	??$_Emplace_reallocate@H@?$vector@HV?$allocator@H@std@@@std@@QEAAPEAHQEAH$$QEAH@Z
	??$_Emplace_reallocate@N@?$vector@NV?$allocator@N@std@@@std@@QEAAPEANQEAN$$QEAN@Z
	??$_Emplace_reallocate@PEAVG4DataVector@@@?$vector@PEAVG4DataVector@@V?$allocator@PEAVG4DataVector@@@std@@@std@@QEAAPEAPEAVG4DataVector@@QEAPEAV2@$$QEAPEAV2@@Z
	??$_Emplace_reallocate@PEAVG4Element@@@?$vector@PEAVG4Element@@V?$allocator@PEAVG4Element@@@std@@@std@@QEAAPEAPEAVG4Element@@QEAPEAV2@$$QEAPEAV2@@Z
	??$_Emplace_reallocate@PEAVG4Isotope@@@?$vector@PEAVG4Isotope@@V?$allocator@PEAVG4Isotope@@@std@@@std@@QEAAPEAPEAVG4Isotope@@QEAPEAV2@$$QEAPEAV2@@Z
	??$_Emplace_reallocate@PEAVG4Material@@@?$vector@PEAVG4Material@@V?$allocator@PEAVG4Material@@@std@@@std@@QEAAPEAPEAVG4Material@@QEAPEAV2@$$QEAPEAV2@@Z
	??$_Emplace_reallocate@PEAVG4SurfaceProperty@@@?$vector@PEAVG4SurfaceProperty@@V?$allocator@PEAVG4SurfaceProperty@@@std@@@std@@QEAAPEAPEAVG4SurfaceProperty@@QEAPEAV2@$$QEAPEAV2@@Z
	??$_Emplace_reallocate@VG4String@@@?$vector@VG4String@@V?$allocator@VG4String@@@std@@@std@@QEAAPEAVG4String@@QEAV2@$$QEAV2@@Z
	??$_Emplace_reallocate@VHep3Vector@CLHEP@@@?$vector@VHep3Vector@CLHEP@@V?$allocator@VHep3Vector@CLHEP@@@std@@@std@@QEAAPEAVHep3Vector@CLHEP@@QEAV23@$$QEAV23@@Z
	??$_Eqrange@U?$pair@HVG4String@@@std@@@?$_Tree@V?$_Tmap_traits@U?$pair@HVG4String@@@std@@PEAVG4PhysicsVector@@U?$less@U?$pair@HVG4String@@@std@@@2@V?$allocator@U?$pair@$$CBU?$pair@HVG4String@@@std@@PEAVG4PhysicsVector@@@std@@@2@$0A@@std@@@std@@IEBA?AU?$pair@PEAU?$_Tree_node@U?$pair@$$CBU?$pair@HVG4String@@@std@@PEAVG4PhysicsVector@@@std@@PEAX@std@@PEAU12@@1@AEBU?$pair@HVG4String@@@1@@Z
	??$_Erase_tree@V?$allocator@U?$_Tree_node@U?$pair@$$CBHN@std@@PEAX@std@@@std@@@?$_Tree_val@U?$_Tree_simple_types@U?$pair@$$CBHN@std@@@std@@@std@@QEAAXAEAV?$allocator@U?$_Tree_node@U?$pair@$$CBHN@std@@PEAX@std@@@1@PEAU?$_Tree_node@U?$pair@$$CBHN@std@@PEAX@1@@Z
	??$_Erase_tree@V?$allocator@U?$_Tree_node@U?$pair@$$CBHPEAVG4PhysicsOrderedFreeVector@@@std@@PEAX@std@@@std@@@?$_Tree_val@U?$_Tree_simple_types@U?$pair@$$CBHPEAVG4PhysicsOrderedFreeVector@@@std@@@std@@@std@@QEAAXAEAV?$allocator@U?$_Tree_node@U?$pair@$$CBHPEAVG4PhysicsOrderedFreeVector@@@std@@PEAX@std@@@1@PEAU?$_Tree_node@U?$pair@$$CBHPEAVG4PhysicsOrderedFreeVector@@@std@@PEAX@1@@Z
	??$_Erase_tree@V?$allocator@U?$_Tree_node@U?$pair@$$CBHV?$vector@NV?$allocator@N@std@@@std@@@std@@PEAX@std@@@std@@@?$_Tree_val@U?$_Tree_simple_types@U?$pair@$$CBHV?$vector@NV?$allocator@N@std@@@std@@@std@@@std@@@std@@QEAAXAEAV?$allocator@U?$_Tree_node@U?$pair@$$CBHV?$vector@NV?$allocator@N@std@@@std@@@std@@PEAX@std@@@1@PEAU?$_Tree_node@U?$pair@$$CBHV?$vector@NV?$allocator@N@std@@@std@@@std@@PEAX@1@@Z
	??$_Erase_tree@V?$allocator@U?$_Tree_node@U?$pair@$$CBU?$pair@HH@std@@PEAVG4PhysicsVector@@@std@@PEAX@std@@@std@@@?$_Tree_val@U?$_Tree_simple_types@U?$pair@$$CBU?$pair@HH@std@@PEAVG4PhysicsVector@@@std@@@std@@@std@@QEAAXAEAV?$allocator@U?$_Tree_node@U?$pair@$$CBU?$pair@HH@std@@PEAVG4PhysicsVector@@@std@@PEAX@std@@@1@PEAU?$_Tree_node@U?$pair@$$CBU?$pair@HH@std@@PEAVG4PhysicsVector@@@std@@PEAX@1@@Z
	??$_Erase_tree@V?$allocator@U?$_Tree_node@U?$pair@$$CBU?$pair@HVG4String@@@std@@PEAVG4PhysicsVector@@@std@@PEAX@std@@@std@@@?$_Tree_val@U?$_Tree_simple_types@U?$pair@$$CBU?$pair@HVG4String@@@std@@PEAVG4PhysicsVector@@@std@@@std@@@std@@QEAAXAEAV?$allocator@U?$_Tree_node@U?$pair@$$CBU?$pair@HVG4String@@@std@@PEAVG4PhysicsVector@@@std@@PEAX@std@@@1@PEAU?$_Tree_node@U?$pair@$$CBU?$pair@HVG4String@@@std@@PEAVG4PhysicsVector@@@std@@PEAX@1@@Z
	??$_Erase_tree@V?$allocator@U?$_Tree_node@U?$pair@$$CBVG4String@@N@std@@PEAX@std@@@std@@@?$_Tree_val@U?$_Tree_simple_types@U?$pair@$$CBVG4String@@N@std@@@std@@@std@@QEAAXAEAV?$allocator@U?$_Tree_node@U?$pair@$$CBVG4String@@N@std@@PEAX@std@@@1@PEAU?$_Tree_node@U?$pair@$$CBVG4String@@N@std@@PEAX@1@@Z
	??$_Erase_tree@V?$allocator@U?$_Tree_node@U?$pair@$$CBVG4String@@PEAVG4PhysicsOrderedFreeVector@@@std@@PEAX@std@@@std@@@?$_Tree_val@U?$_Tree_simple_types@U?$pair@$$CBVG4String@@PEAVG4PhysicsOrderedFreeVector@@@std@@@std@@@std@@QEAAXAEAV?$allocator@U?$_Tree_node@U?$pair@$$CBVG4String@@PEAVG4PhysicsOrderedFreeVector@@@std@@PEAX@std@@@1@PEAU?$_Tree_node@U?$pair@$$CBVG4String@@PEAVG4PhysicsOrderedFreeVector@@@std@@PEAX@1@@Z
	??$_Erase_tree@V?$allocator@U?$_Tree_node@U?$pair@QEAVG4Material@@N@std@@PEAX@std@@@std@@@?$_Tree_val@U?$_Tree_simple_types@U?$pair@QEAVG4Material@@N@std@@@std@@@std@@QEAAXAEAV?$allocator@U?$_Tree_node@U?$pair@QEAVG4Material@@N@std@@PEAX@std@@@1@PEAU?$_Tree_node@U?$pair@QEAVG4Material@@N@std@@PEAX@1@@Z
	??$_Erase_tree@V?$allocator@U?$_Tree_node@U?$pair@QEBVG4Element@@PEAVG4CrystalAtomBase@@@std@@PEAX@std@@@std@@@?$_Tree_val@U?$_Tree_simple_types@U?$pair@QEBVG4Element@@PEAVG4CrystalAtomBase@@@std@@@std@@@std@@QEAAXAEAV?$allocator@U?$_Tree_node@U?$pair@QEBVG4Element@@PEAVG4CrystalAtomBase@@@std@@PEAX@std@@@1@PEAU?$_Tree_node@U?$pair@QEBVG4Element@@PEAVG4CrystalAtomBase@@@std@@PEAX@1@@Z
	??$_Fabs@N@std@@YANAEBV?$complex@N@0@PEAH@Z
	??$_Find_last@VG4String@@@?$_Hash@V?$_Umap_traits@VG4String@@V?$unique_ptr@VG4VMaterialExtension@@U?$default_delete@VG4VMaterialExtension@@@std@@@std@@V?$_Uhash_compare@VG4String@@U?$hash@V?$basic_string@DU?$char_traits@D@std@@V?$allocator@D@2@@std@@@std@@U?$equal_to@VG4String@@@3@@3@V?$allocator@U?$pair@$$CBVG4String@@V?$unique_ptr@VG4VMaterialExtension@@U?$default_delete@VG4VMaterialExtension@@@std@@@std@@@std@@@3@$0A@@std@@@std@@IEBA?AU?$_Hash_find_last_result@PEAU?$_List_node@U?$pair@$$CBVG4String@@V?$unique_ptr@VG4VMaterialExtension@@U?$default_delete@VG4VMaterialExtension@@@std@@@std@@@std@@PEAX@std@@@1@AEBVG4String@@_K@Z
	??$_Find_unchecked1@PEAVG4String@@V1@@std@@YAPEAVG4String@@PEAV1@QEAV1@AEBV1@U?$integral_constant@_N$0A@@0@@Z
	??$_Find_unchecked1@PEBVG4String@@V1@@std@@YAPEBVG4String@@PEBV1@QEBV1@AEBV1@U?$integral_constant@_N$0A@@0@@Z
	??$_Find_unchecked@PEAVG4String@@V1@@std@@YAPEAVG4String@@QEAV1@0AEBV1@@Z
	??$_Find_unchecked@PEBVG4String@@V1@@std@@YAPEBVG4String@@QEBV1@0AEBV1@@Z
	??$_Getvals@_W@?$time_get@DV?$istreambuf_iterator@DU?$char_traits@D@std@@@std@@@std@@IEAAX_WAEBV_Locinfo@1@@Z
	??$_Getvals@_W@?$time_get@_WV?$istreambuf_iterator@_WU?$char_traits@_W@std@@@std@@@std@@IEAAX_WAEBV_Locinfo@1@@Z
	??$_Hash_array_representation@D@std@@YA_KQEBD_K@Z
	??$_Idl_distance@V?$_Vb_iterator@U?$_Wrap_alloc@V?$allocator@I@std@@@std@@@std@@V12@@std@@YA_JAEBV?$_Vb_iterator@U?$_Wrap_alloc@V?$allocator@I@std@@@std@@@0@0@Z
	??$_Insert_range@PEAVHep3Vector@CLHEP@@@?$vector@VHep3Vector@CLHEP@@V?$allocator@VHep3Vector@CLHEP@@@std@@@std@@AEAAXV?$_Vector_const_iterator@V?$_Vector_val@U?$_Simple_types@VHep3Vector@CLHEP@@@std@@@std@@@1@PEAVHep3Vector@CLHEP@@1Uforward_iterator_tag@1@@Z
	??$_Insert_string@DU?$char_traits@D@std@@_K@std@@YAAEAV?$basic_ostream@DU?$char_traits@D@std@@@0@AEAV10@QEBD_K@Z
	??$_Maklocstr@D@std@@YAPEADPEBDPEADAEBU_Cvtvec@@@Z
	??$_Move_backward_unchecked@PEAVHep3Vector@CLHEP@@PEAV12@@std@@YAPEAVHep3Vector@CLHEP@@PEAV12@00@Z
	??$_Move_unchecked@PEAPEAVG4DataVector@@PEAPEAV1@@std@@YAPEAPEAVG4DataVector@@PEAPEAV1@00@Z
	??$_Move_unchecked@PEAVHep3Vector@CLHEP@@PEAV12@@std@@YAPEAVHep3Vector@CLHEP@@PEAV12@00@Z
	??$_Pocca@V?$allocator@D@std@@@std@@YAXAEAV?$allocator@D@0@AEBV10@@Z
	??$_Reallocate_grow_by@V<lambda_319d5e083f45f90dcdce5dce53cbb275>@@D@?$basic_string@DU?$char_traits@D@std@@V?$allocator@D@2@@std@@AEAAAEAV01@_KV<lambda_319d5e083f45f90dcdce5dce53cbb275>@@D@Z
	??$_Reallocate_grow_by@V<lambda_65e615be2a453ca0576c979606f46740>@@PEBD_K@?$basic_string@DU?$char_traits@D@std@@V?$allocator@D@2@@std@@AEAAAEAV01@_KV<lambda_65e615be2a453ca0576c979606f46740>@@PEBD_K@Z
	??$_Refancy@PEAVG4String@@$0A@@std@@YAPEAVG4String@@PEAV1@@Z
	??$_Resize_reallocate@I@?$vector@IV?$allocator@I@std@@@std@@AEAAX_KAEBI@Z
	??$_Resize_reallocate@N@?$vector@NV?$allocator@N@std@@@std@@AEAAX_KAEBN@Z
	??$_Resize_reallocate@U_Value_init_tag@std@@@?$vector@NV?$allocator@N@std@@@std@@AEAAX_KAEBU_Value_init_tag@1@@Z
	??$_Try_emplace@AEBVG4String@@$$V@?$map@VG4String@@NU?$less@VG4String@@@std@@V?$allocator@U?$pair@$$CBVG4String@@N@std@@@3@@std@@AEAA?AU?$pair@PEAU?$_Tree_node@U?$pair@$$CBVG4String@@N@std@@PEAX@std@@_N@1@AEBVG4String@@@Z
	??$_Try_emplace@AEBVG4String@@$$V@?$map@VG4String@@PEAVG4PhysicsOrderedFreeVector@@U?$less@VG4String@@@std@@V?$allocator@U?$pair@$$CBVG4String@@PEAVG4PhysicsOrderedFreeVector@@@std@@@4@@std@@AEAA?AU?$pair@PEAU?$_Tree_node@U?$pair@$$CBVG4String@@PEAVG4PhysicsOrderedFreeVector@@@std@@PEAX@std@@_N@1@AEBVG4String@@@Z
	??$_Ucopy@PEAVHep3Vector@CLHEP@@@?$vector@VHep3Vector@CLHEP@@V?$allocator@VHep3Vector@CLHEP@@@std@@@std@@AEAAPEAVHep3Vector@CLHEP@@PEAV23@00@Z
	??$_Unfancy_maybe_null@I@std@@YAPEAIPEAI@Z
	??$_Uninitialized_copy@PEANV?$allocator@N@std@@@std@@YAPEANQEAN0PEANAEAV?$allocator@N@0@@Z
	??$_Uninitialized_copy@PEAVG4String@@V?$allocator@VG4String@@@std@@@std@@YAPEAVG4String@@QEAV1@0PEAV1@AEAV?$allocator@VG4String@@@0@@Z
	??$_Uninitialized_copy@PEAVHep3Vector@CLHEP@@V?$allocator@VHep3Vector@CLHEP@@@std@@@std@@YAPEAVHep3Vector@CLHEP@@QEAV12@0PEAV12@AEAV?$allocator@VHep3Vector@CLHEP@@@0@@Z
	??$_Uninitialized_copy@PEBNV?$allocator@N@std@@@std@@YAPEANQEBN0PEANAEAV?$allocator@N@0@@Z
	??$_Uninitialized_fill_n@V?$allocator@I@std@@@std@@YAPEAIPEAI_KAEBIAEAV?$allocator@I@0@@Z
	??$_Uninitialized_fill_n@V?$allocator@N@std@@@std@@YAPEANPEAN_KAEBNAEAV?$allocator@N@0@@Z
	??$_Uninitialized_fill_n@V?$allocator@PEAVG4Isotope@@@std@@@std@@YAPEAPEAVG4Isotope@@PEAPEAV1@_KAEBQEAV1@AEAV?$allocator@PEAVG4Isotope@@@0@@Z
	??$_Uninitialized_move@PEAHV?$allocator@H@std@@@std@@YAPEAHQEAH0PEAHAEAV?$allocator@H@0@@Z
	??$_Uninitialized_move@PEAIV?$allocator@I@std@@@std@@YAPEAIQEAI0PEAIAEAV?$allocator@I@0@@Z
	??$_Uninitialized_move@PEANV?$allocator@N@std@@@std@@YAPEANQEAN0PEANAEAV?$allocator@N@0@@Z
	??$_Uninitialized_move@PEAPEAVG4DataVector@@V?$allocator@PEAVG4DataVector@@@std@@@std@@YAPEAPEAVG4DataVector@@QEAPEAV1@0PEAPEAV1@AEAV?$allocator@PEAVG4DataVector@@@0@@Z
	??$_Uninitialized_move@PEAPEAVG4Element@@V?$allocator@PEAVG4Element@@@std@@@std@@YAPEAPEAVG4Element@@QEAPEAV1@0PEAPEAV1@AEAV?$allocator@PEAVG4Element@@@0@@Z
	??$_Uninitialized_move@PEAPEAVG4Isotope@@V?$allocator@PEAVG4Isotope@@@std@@@std@@YAPEAPEAVG4Isotope@@QEAPEAV1@0PEAPEAV1@AEAV?$allocator@PEAVG4Isotope@@@0@@Z
	??$_Uninitialized_move@PEAPEAVG4Material@@V?$allocator@PEAVG4Material@@@std@@@std@@YAPEAPEAVG4Material@@QEAPEAV1@0PEAPEAV1@AEAV?$allocator@PEAVG4Material@@@0@@Z
	??$_Uninitialized_move@PEAPEAVG4PhysicsVector@@V?$allocator@PEAVG4PhysicsVector@@@std@@@std@@YAPEAPEAVG4PhysicsVector@@QEAPEAV1@0PEAPEAV1@AEAV?$allocator@PEAVG4PhysicsVector@@@0@@Z
	??$_Uninitialized_move@PEAPEAVG4SurfaceProperty@@V?$allocator@PEAVG4SurfaceProperty@@@std@@@std@@YAPEAPEAVG4SurfaceProperty@@QEAPEAV1@0PEAPEAV1@AEAV?$allocator@PEAVG4SurfaceProperty@@@0@@Z
	??$_Uninitialized_move@PEAVG4String@@V?$allocator@VG4String@@@std@@@std@@YAPEAVG4String@@QEAV1@0PEAV1@AEAV?$allocator@VG4String@@@0@@Z
	??$_Uninitialized_move@PEAVHep3Vector@CLHEP@@V?$allocator@VHep3Vector@CLHEP@@@std@@@std@@YAPEAVHep3Vector@CLHEP@@QEAV12@0PEAV12@AEAV?$allocator@VHep3Vector@CLHEP@@@0@@Z
	??$_Uninitialized_move@PEAW4G4State@@V?$allocator@W4G4State@@@std@@@std@@YAPEAW4G4State@@QEAW41@0PEAW41@AEAV?$allocator@W4G4State@@@0@@Z
	??$_Uninitialized_value_construct_n@V?$allocator@H@std@@@std@@YAPEAHPEAH_KAEAV?$allocator@H@0@@Z
	??$_Uninitialized_value_construct_n@V?$allocator@N@std@@@std@@YAPEANPEAN_KAEAV?$allocator@N@0@@Z
	??$_Zero_range@PEAH@std@@YAPEAHQEAH0@Z
	??$_Zero_range@PEAN@std@@YAPEANQEAN0@Z
	??$copy_backward@V?$_Vb_iterator@U?$_Wrap_alloc@V?$allocator@I@std@@@std@@@std@@V12@@std@@YA?AV?$_Vb_iterator@U?$_Wrap_alloc@V?$allocator@I@std@@@std@@@0@V10@00@Z
	??$destroy@U?$pair@$$CBVG4String@@V?$unique_ptr@VG4VMaterialExtension@@U?$default_delete@VG4VMaterialExtension@@@std@@@std@@@std@@@?$_Default_allocator_traits@V?$allocator@U?$_List_node@U?$pair@$$CBVG4String@@V?$unique_ptr@VG4VMaterialExtension@@U?$default_delete@VG4VMaterialExtension@@@std@@@std@@@std@@PEAX@std@@@std@@@std@@SAXAEAV?$allocator@U?$_List_node@U?$pair@$$CBVG4String@@V?$unique_ptr@VG4VMaterialExtension@@U?$default_delete@VG4VMaterialExtension@@@std@@@std@@@std@@PEAX@std@@@1@QEAU?$pair@$$CBVG4String@@V?$unique_ptr@VG4VMaterialExtension@@U?$default_delete@VG4VMaterialExtension@@@std@@@std@@@1@@Z
	??$emplace@U?$pair@VG4String@@V?$unique_ptr@VG4VMaterialExtension@@U?$default_delete@VG4VMaterialExtension@@@std@@@std@@@std@@@?$_Hash@V?$_Umap_traits@VG4String@@V?$unique_ptr@VG4VMaterialExtension@@U?$default_delete@VG4VMaterialExtension@@@std@@@std@@V?$_Uhash_compare@VG4String@@U?$hash@V?$basic_string@DU?$char_traits@D@std@@V?$allocator@D@2@@std@@@std@@U?$equal_to@VG4String@@@3@@3@V?$allocator@U?$pair@$$CBVG4String@@V?$unique_ptr@VG4VMaterialExtension@@U?$default_delete@VG4VMaterialExtension@@@std@@@std@@@std@@@3@$0A@@std@@@std@@QEAA?AU?$pair@V?$_List_iterator@V?$_List_val@U?$_List_simple_types@U?$pair@$$CBVG4String@@V?$unique_ptr@VG4VMaterialExtension@@U?$default_delete@VG4VMaterialExtension@@@std@@@std@@@std@@@std@@@std@@@std@@_N@1@$$QEAU?$pair@VG4String@@V?$unique_ptr@VG4VMaterialExtension@@U?$default_delete@VG4VMaterialExtension@@@std@@@std@@@1@@Z
	??$endl@DU?$char_traits@D@std@@@std@@YAAEAV?$basic_ostream@DU?$char_traits@D@std@@@0@AEAV10@@Z
	??$exchange@PEAU?$_List_node@U?$pair@$$CBVG4String@@V?$unique_ptr@VG4VMaterialExtension@@U?$default_delete@VG4VMaterialExtension@@@std@@@std@@@std@@PEAX@std@@$$T@std@@YAPEAU?$_List_node@U?$pair@$$CBVG4String@@V?$unique_ptr@VG4VMaterialExtension@@U?$default_delete@VG4VMaterialExtension@@@std@@@std@@@std@@PEAX@0@AEAPEAU10@$$QEA$$T@Z
	??$exchange@PEAU?$_Tree_node@U?$pair@$$CBHN@std@@PEAX@std@@$$T@std@@YAPEAU?$_Tree_node@U?$pair@$$CBHN@std@@PEAX@0@AEAPEAU10@$$QEA$$T@Z
	??$exchange@PEAU?$_Tree_node@U?$pair@$$CBHN@std@@PEAX@std@@AEAPEAU12@@std@@YAPEAU?$_Tree_node@U?$pair@$$CBHN@std@@PEAX@0@AEAPEAU10@0@Z
	??$exchange@PEAU?$_Tree_node@U?$pair@$$CBHPEAVG4PhysicsOrderedFreeVector@@@std@@PEAX@std@@$$T@std@@YAPEAU?$_Tree_node@U?$pair@$$CBHPEAVG4PhysicsOrderedFreeVector@@@std@@PEAX@0@AEAPEAU10@$$QEA$$T@Z
	??$exchange@PEAU?$_Tree_node@U?$pair@$$CBHPEAVG4PhysicsOrderedFreeVector@@@std@@PEAX@std@@AEAPEAU12@@std@@YAPEAU?$_Tree_node@U?$pair@$$CBHPEAVG4PhysicsOrderedFreeVector@@@std@@PEAX@0@AEAPEAU10@0@Z
	??$exchange@PEAU?$_Tree_node@U?$pair@$$CBHV?$vector@NV?$allocator@N@std@@@std@@@std@@PEAX@std@@$$T@std@@YAPEAU?$_Tree_node@U?$pair@$$CBHV?$vector@NV?$allocator@N@std@@@std@@@std@@PEAX@0@AEAPEAU10@$$QEA$$T@Z
	??$exchange@PEAU?$_Tree_node@U?$pair@$$CBHV?$vector@NV?$allocator@N@std@@@std@@@std@@PEAX@std@@AEAPEAU12@@std@@YAPEAU?$_Tree_node@U?$pair@$$CBHV?$vector@NV?$allocator@N@std@@@std@@@std@@PEAX@0@AEAPEAU10@0@Z
	??$exchange@PEAU?$_Tree_node@U?$pair@$$CBU?$pair@HH@std@@PEAVG4PhysicsVector@@@std@@PEAX@std@@$$T@std@@YAPEAU?$_Tree_node@U?$pair@$$CBU?$pair@HH@std@@PEAVG4PhysicsVector@@@std@@PEAX@0@AEAPEAU10@$$QEA$$T@Z
	??$exchange@PEAU?$_Tree_node@U?$pair@$$CBU?$pair@HH@std@@PEAVG4PhysicsVector@@@std@@PEAX@std@@AEAPEAU12@@std@@YAPEAU?$_Tree_node@U?$pair@$$CBU?$pair@HH@std@@PEAVG4PhysicsVector@@@std@@PEAX@0@AEAPEAU10@0@Z
	??$exchange@PEAU?$_Tree_node@U?$pair@$$CBU?$pair@HVG4String@@@std@@PEAVG4PhysicsVector@@@std@@PEAX@std@@$$T@std@@YAPEAU?$_Tree_node@U?$pair@$$CBU?$pair@HVG4String@@@std@@PEAVG4PhysicsVector@@@std@@PEAX@0@AEAPEAU10@$$QEA$$T@Z
	??$exchange@PEAU?$_Tree_node@U?$pair@$$CBU?$pair@HVG4String@@@std@@PEAVG4PhysicsVector@@@std@@PEAX@std@@AEAPEAU12@@std@@YAPEAU?$_Tree_node@U?$pair@$$CBU?$pair@HVG4String@@@std@@PEAVG4PhysicsVector@@@std@@PEAX@0@AEAPEAU10@0@Z
	??$exchange@PEAU?$_Tree_node@U?$pair@$$CBVG4String@@N@std@@PEAX@std@@$$T@std@@YAPEAU?$_Tree_node@U?$pair@$$CBVG4String@@N@std@@PEAX@0@AEAPEAU10@$$QEA$$T@Z
	??$exchange@PEAU?$_Tree_node@U?$pair@$$CBVG4String@@N@std@@PEAX@std@@AEAPEAU12@@std@@YAPEAU?$_Tree_node@U?$pair@$$CBVG4String@@N@std@@PEAX@0@AEAPEAU10@0@Z
	??$exchange@PEAU?$_Tree_node@U?$pair@$$CBVG4String@@PEAVG4PhysicsOrderedFreeVector@@@std@@PEAX@std@@$$T@std@@YAPEAU?$_Tree_node@U?$pair@$$CBVG4String@@PEAVG4PhysicsOrderedFreeVector@@@std@@PEAX@0@AEAPEAU10@$$QEA$$T@Z
	??$exchange@PEAU?$_Tree_node@U?$pair@$$CBVG4String@@PEAVG4PhysicsOrderedFreeVector@@@std@@PEAX@std@@AEAPEAU12@@std@@YAPEAU?$_Tree_node@U?$pair@$$CBVG4String@@PEAVG4PhysicsOrderedFreeVector@@@std@@PEAX@0@AEAPEAU10@0@Z
	??$exchange@PEAU?$_Tree_node@U?$pair@QEAVG4Material@@N@std@@PEAX@std@@$$T@std@@YAPEAU?$_Tree_node@U?$pair@QEAVG4Material@@N@std@@PEAX@0@AEAPEAU10@$$QEA$$T@Z
	??$exchange@PEAU?$_Tree_node@U?$pair@QEAVG4Material@@N@std@@PEAX@std@@AEAPEAU12@@std@@YAPEAU?$_Tree_node@U?$pair@QEAVG4Material@@N@std@@PEAX@0@AEAPEAU10@0@Z
	??$exchange@PEAU?$_Tree_node@U?$pair@QEBVG4Element@@PEAVG4CrystalAtomBase@@@std@@PEAX@std@@$$T@std@@YAPEAU?$_Tree_node@U?$pair@QEBVG4Element@@PEAVG4CrystalAtomBase@@@std@@PEAX@0@AEAPEAU10@$$QEA$$T@Z
	??$exchange@PEAU?$_Tree_node@U?$pair@QEBVG4Element@@PEAVG4CrystalAtomBase@@@std@@PEAX@std@@AEAPEAU12@@std@@YAPEAU?$_Tree_node@U?$pair@QEBVG4Element@@PEAVG4CrystalAtomBase@@@std@@PEAX@0@AEAPEAU10@0@Z
	??$exchange@PEAVG4VMaterialExtension@@PEAV1@@std@@YAPEAVG4VMaterialExtension@@AEAPEAV1@$$QEAPEAV1@@Z
	??$exchange@PEAV_Facet_base@std@@PEAV12@@std@@YAPEAV_Facet_base@0@AEAPEAV10@$$QEAPEAV10@@Z
	??$fill@PEAV?$_List_unchecked_iterator@V?$_List_val@U?$_List_simple_types@U?$pair@$$CBVG4String@@V?$unique_ptr@VG4VMaterialExtension@@U?$default_delete@VG4VMaterialExtension@@@std@@@std@@@std@@@std@@@std@@@std@@V12@@std@@YAXQEAV?$_List_unchecked_iterator@V?$_List_val@U?$_List_simple_types@U?$pair@$$CBVG4String@@V?$unique_ptr@VG4VMaterialExtension@@U?$default_delete@VG4VMaterialExtension@@@std@@@std@@@std@@@std@@@std@@@0@0AEBV10@@Z
	??$fill@V?$_Vb_iterator@U?$_Wrap_alloc@V?$allocator@I@std@@@std@@@std@@_N@std@@YAXV?$_Vb_iterator@U?$_Wrap_alloc@V?$allocator@I@std@@@std@@@0@0AEB_N@Z
	??$find@V?$_Vector_const_iterator@V?$_Vector_val@U?$_Simple_types@VG4String@@@std@@@std@@@std@@VG4String@@@std@@YA?AV?$_Vector_const_iterator@V?$_Vector_val@U?$_Simple_types@VG4String@@@std@@@std@@@0@V10@V10@AEBVG4String@@@Z
	??$find@V?$_Vector_iterator@V?$_Vector_val@U?$_Simple_types@VG4String@@@std@@@std@@@std@@VG4String@@@std@@YA?AV?$_Vector_iterator@V?$_Vector_val@U?$_Simple_types@VG4String@@@std@@@std@@@0@V10@V10@AEBVG4String@@@Z
	??$getline@DU?$char_traits@D@std@@V?$allocator@D@2@@std@@YAAEAV?$basic_istream@DU?$char_traits@D@std@@@0@$$QEAV10@AEAV?$basic_string@DU?$char_traits@D@std@@V?$allocator@D@2@@0@D@Z
	??$getline@DU?$char_traits@D@std@@V?$allocator@D@2@@std@@YAAEAV?$basic_istream@DU?$char_traits@D@std@@@0@AEAV10@AEAV?$basic_string@DU?$char_traits@D@std@@V?$allocator@D@2@@0@@Z
	??$norm@N@std@@YANAEBV?$complex@N@0@@Z
	??$sqrt@HX@@YANH@Z
	??$sqrt@N@std@@YA?AV?$complex@N@0@AEBV10@@Z
	??$swap@DX@std@@YAXAEAD0@Z
	??$uninitialized_fill@PEAV?$_List_unchecked_iterator@V?$_List_val@U?$_List_simple_types@U?$pair@$$CBVG4String@@V?$unique_ptr@VG4VMaterialExtension@@U?$default_delete@VG4VMaterialExtension@@@std@@@std@@@std@@@std@@@std@@@std@@V12@@std@@YAXQEAV?$_List_unchecked_iterator@V?$_List_val@U?$_List_simple_types@U?$pair@$$CBVG4String@@V?$unique_ptr@VG4VMaterialExtension@@U?$default_delete@VG4VMaterialExtension@@@std@@@std@@@std@@@std@@@std@@@0@0AEBV10@@Z
	??$use_facet@V?$codecvt@DDU_Mbstatet@@@std@@@std@@YAAEBV?$codecvt@DDU_Mbstatet@@@0@AEBVlocale@0@@Z
	??$use_facet@V?$ctype@D@std@@@std@@YAAEBV?$ctype@D@0@AEBVlocale@0@@Z
	??0?$basic_ifstream@DU?$char_traits@D@std@@@std@@QEAA@PEBDHH@Z
	??0?$basic_ofstream@DU?$char_traits@D@std@@@std@@QEAA@PEBDHH@Z
	??0?$basic_string@DU?$char_traits@D@std@@V?$allocator@D@2@@std@@QEAA@AEBV01@@Z
	??0?$unordered_map@VG4String@@V?$unique_ptr@VG4VMaterialExtension@@U?$default_delete@VG4VMaterialExtension@@@std@@@std@@U?$hash@V?$basic_string@DU?$char_traits@D@std@@V?$allocator@D@2@@std@@@3@U?$equal_to@VG4String@@@3@V?$allocator@U?$pair@$$CBVG4String@@V?$unique_ptr@VG4VMaterialExtension@@U?$default_delete@VG4VMaterialExtension@@@std@@@std@@@std@@@3@@std@@QEAA@XZ
	??0?$vector@HV?$allocator@H@std@@@std@@QEAA@XZ
	??0?$vector@NV?$allocator@N@std@@@std@@QEAA@V?$initializer_list@N@1@AEBV?$allocator@N@1@@Z
	??0?$vector@PEAVG4Isotope@@V?$allocator@PEAVG4Isotope@@@std@@@std@@QEAA@_KAEBQEAVG4Isotope@@AEBV?$allocator@PEAVG4Isotope@@@1@@Z
	??0?$vector@PEAVG4PhysicsVector@@V?$allocator@PEAVG4PhysicsVector@@@std@@@std@@QEAA@XZ
	??0?$vector@VG4String@@V?$allocator@VG4String@@@std@@@std@@QEAA@AEBV01@@Z
	??0G4AtomicBond@@QEAA@W4theBondType@0@PEAVG4Element@@H1H@Z
	??0G4AtomicFormFactor@@IEAA@XZ
	??0G4CrystalExtension@@QEAA@PEAVG4Material@@AEBVG4String@@@Z
	??0G4CrystalUnitCell@@QEAA@NNNNNNH@Z
	??0G4DensityEffectCalculator@@QEAA@PEBVG4Material@@H@Z
	??0G4DensityEffectData@@QEAA@XZ
	??0G4Element@@QEAA@AEAV__void__@@@Z
	??0G4Element@@QEAA@AEBVG4String@@0H@Z
	??0G4Element@@QEAA@AEBVG4String@@0NN@Z
	??0G4ElementData@@QEAA@XZ
	??0G4ExtDEDXTable@@QEAA@XZ
	??0G4ExtendedMaterial@@QEAA@AEBVG4String@@NHW4G4State@@NN@Z
	??0G4ExtendedMaterial@@QEAA@AEBVG4String@@NNNW4G4State@@NN@Z
	??0G4ExtendedMaterial@@QEAA@AEBVG4String@@NPEBV0@W4G4State@@NN@Z
	??0G4ExtendedMaterial@@QEAA@AEBVG4String@@PEBVG4Material@@@Z
	??0G4ICRU90StoppingData@@QEAA@XZ
	??0G4IonStoppingData@@QEAA@AEBVG4String@@_N@Z
	??0G4IonisParamElm@@QEAA@AEAV__void__@@@Z
	??0G4IonisParamElm@@QEAA@N@Z
	??0G4IonisParamMat@@QEAA@AEAV__void__@@@Z
	??0G4IonisParamMat@@QEAA@PEBVG4Material@@@Z
	??0G4Isotope@@AEAA@AEAV0@@Z
	??0G4Isotope@@QEAA@AEAV__void__@@@Z
	??0G4Isotope@@QEAA@AEBVG4String@@HHNH@Z
	??0G4LatticeLogical@@QEAA@XZ
	??0G4LatticePhysical@@QEAA@PEBVG4LatticeLogical@@PEBVHepRotation@CLHEP@@@Z
	??0G4Material@@QEAA@AEAV__void__@@@Z
	??0G4Material@@QEAA@AEBVG4String@@NHW4G4State@@NN@Z
	??0G4Material@@QEAA@AEBVG4String@@NNNW4G4State@@NN@Z
	??0G4Material@@QEAA@AEBVG4String@@NPEBV0@W4G4State@@NN@Z
	??0G4MaterialPropertiesTable@@QEAA@XZ
	??0G4NistElementBuilder@@QEAA@H@Z
	??0G4NistManager@@AEAA@XZ
	??0G4NistMaterialBuilder@@QEAA@PEAVG4NistElementBuilder@@H@Z
	??0G4NistMessenger@@QEAA@PEAVG4NistManager@@@Z
	??0G4OpticalSurface@@QEAA@AEBV0@@Z
	??0G4OpticalSurface@@QEAA@AEBVG4String@@W4G4OpticalSurfaceModel@@W4G4OpticalSurfaceFinish@@W4G4SurfaceType@@N@Z
	??0G4SandiaTable@@QEAA@AEAV__void__@@@Z
	??0G4SandiaTable@@QEAA@H@Z
	??0G4SandiaTable@@QEAA@PEBVG4Material@@@Z
	??0G4SandiaTable@@QEAA@XZ
	??0G4String@@QEAA@PEBD@Z
	??0G4String@@QEAA@XZ
	??0G4SurfaceProperty@@QEAA@AEBVG4String@@W4G4SurfaceType@@@Z
	??0G4SurfaceProperty@@QEAA@XZ
	??0G4UCNMaterialPropertiesTable@@QEAA@XZ
	??0G4UCNMicroRoughnessHelper@@IEAA@XZ
	??0G4VIonDEDXTable@@QEAA@XZ
	??0Hep3Vector@CLHEP@@QEAA@XZ
	??0bad_alloc@std@@QEAA@AEBV01@@Z
	??0bad_array_new_length@std@@QEAA@AEBV01@@Z
	??0bad_array_new_length@std@@QEAA@XZ
	??0bad_cast@std@@QEAA@AEBV01@@Z
	??0bad_cast@std@@QEAA@XZ
	??0exception@std@@QEAA@AEBV01@@Z
	??1?$_Alloc_construct_ptr@V?$allocator@U?$_List_node@U?$pair@$$CBVG4String@@V?$unique_ptr@VG4VMaterialExtension@@U?$default_delete@VG4VMaterialExtension@@@std@@@std@@@std@@PEAX@std@@@std@@@std@@QEAA@XZ
	??1?$_Alloc_construct_ptr@V?$allocator@U?$_Tree_node@U?$pair@$$CBHN@std@@PEAX@std@@@std@@@std@@QEAA@XZ
	??1?$_Alloc_construct_ptr@V?$allocator@U?$_Tree_node@U?$pair@$$CBHPEAVG4PhysicsOrderedFreeVector@@@std@@PEAX@std@@@std@@@std@@QEAA@XZ
	??1?$_Alloc_construct_ptr@V?$allocator@U?$_Tree_node@U?$pair@$$CBHV?$vector@NV?$allocator@N@std@@@std@@@std@@PEAX@std@@@std@@@std@@QEAA@XZ
	??1?$_Alloc_construct_ptr@V?$allocator@U?$_Tree_node@U?$pair@$$CBU?$pair@HH@std@@PEAVG4PhysicsVector@@@std@@PEAX@std@@@std@@@std@@QEAA@XZ
	??1?$_Alloc_construct_ptr@V?$allocator@U?$_Tree_node@U?$pair@$$CBU?$pair@HVG4String@@@std@@PEAVG4PhysicsVector@@@std@@PEAX@std@@@std@@@std@@QEAA@XZ
	??1?$_Alloc_construct_ptr@V?$allocator@U?$_Tree_node@U?$pair@$$CBVG4String@@N@std@@PEAX@std@@@std@@@std@@QEAA@XZ
	??1?$_Alloc_construct_ptr@V?$allocator@U?$_Tree_node@U?$pair@$$CBVG4String@@PEAVG4PhysicsOrderedFreeVector@@@std@@PEAX@std@@@std@@@std@@QEAA@XZ
	??1?$_Alloc_construct_ptr@V?$allocator@U?$_Tree_node@U?$pair@QEAVG4Material@@N@std@@PEAX@std@@@std@@@std@@QEAA@XZ
	??1?$_Alloc_construct_ptr@V?$allocator@U?$_Tree_node@U?$pair@QEBVG4Element@@PEAVG4CrystalAtomBase@@@std@@PEAX@std@@@std@@@std@@QEAA@XZ
	??1?$_Hash@V?$_Umap_traits@VG4String@@V?$unique_ptr@VG4VMaterialExtension@@U?$default_delete@VG4VMaterialExtension@@@std@@@std@@V?$_Uhash_compare@VG4String@@U?$hash@V?$basic_string@DU?$char_traits@D@std@@V?$allocator@D@2@@std@@@std@@U?$equal_to@VG4String@@@3@@3@V?$allocator@U?$pair@$$CBVG4String@@V?$unique_ptr@VG4VMaterialExtension@@U?$default_delete@VG4VMaterialExtension@@@std@@@std@@@std@@@3@$0A@@std@@@std@@QEAA@XZ
	??1?$_Hash_vec@V?$allocator@V?$_List_unchecked_iterator@V?$_List_val@U?$_List_simple_types@U?$pair@$$CBVG4String@@V?$unique_ptr@VG4VMaterialExtension@@U?$default_delete@VG4VMaterialExtension@@@std@@@std@@@std@@@std@@@std@@@std@@@std@@@std@@QEAA@XZ
	??1?$_List_node_emplace_op2@V?$allocator@U?$_List_node@U?$pair@$$CBVG4String@@V?$unique_ptr@VG4VMaterialExtension@@U?$default_delete@VG4VMaterialExtension@@@std@@@std@@@std@@PEAX@std@@@std@@@std@@QEAA@XZ
	??1?$_Tidy_guard@V?$vector@VG4String@@V?$allocator@VG4String@@@std@@@std@@@std@@QEAA@XZ
	??1?$_Tree_temp_node_alloc@V?$allocator@U?$_Tree_node@U?$pair@$$CBU?$pair@HVG4String@@@std@@PEAVG4PhysicsVector@@@std@@PEAX@std@@@std@@@std@@QEAA@XZ
	??1?$_Tree_temp_node_alloc@V?$allocator@U?$_Tree_node@U?$pair@$$CBVG4String@@N@std@@PEAX@std@@@std@@@std@@QEAA@XZ
	??1?$_Tree_temp_node_alloc@V?$allocator@U?$_Tree_node@U?$pair@$$CBVG4String@@PEAVG4PhysicsOrderedFreeVector@@@std@@PEAX@std@@@std@@@std@@QEAA@XZ
	??1?$_Uninitialized_backout_al@V?$allocator@VG4String@@@std@@@std@@QEAA@XZ
	??1?$basic_filebuf@DU?$char_traits@D@std@@@std@@UEAA@XZ
	??1?$basic_ifstream@DU?$char_traits@D@std@@@std@@UEAA@XZ
	??1?$basic_istringstream@DU?$char_traits@D@std@@V?$allocator@D@2@@std@@UEAA@XZ
	??1?$basic_ofstream@DU?$char_traits@D@std@@@std@@UEAA@XZ
	??1?$basic_ostringstream@DU?$char_traits@D@std@@V?$allocator@D@2@@std@@UEAA@XZ
	??1?$basic_string@DU?$char_traits@D@std@@V?$allocator@D@2@@std@@QEAA@XZ
	??1?$basic_stringbuf@DU?$char_traits@D@std@@V?$allocator@D@2@@std@@UEAA@XZ
	??1?$list@U?$pair@$$CBVG4String@@V?$unique_ptr@VG4VMaterialExtension@@U?$default_delete@VG4VMaterialExtension@@@std@@@std@@@std@@V?$allocator@U?$pair@$$CBVG4String@@V?$unique_ptr@VG4VMaterialExtension@@U?$default_delete@VG4VMaterialExtension@@@std@@@std@@@std@@@2@@std@@QEAA@XZ
	??1?$map@HNU?$less@H@std@@V?$allocator@U?$pair@$$CBHN@std@@@2@@std@@QEAA@XZ
	??1?$map@HPEAVG4PhysicsOrderedFreeVector@@U?$less@H@std@@V?$allocator@U?$pair@$$CBHPEAVG4PhysicsOrderedFreeVector@@@std@@@3@@std@@QEAA@XZ
	??1?$map@HV?$vector@NV?$allocator@N@std@@@std@@U?$less@H@2@V?$allocator@U?$pair@$$CBHV?$vector@NV?$allocator@N@std@@@std@@@std@@@2@@std@@QEAA@XZ
	??1?$map@PEAVG4Material@@NU?$less@PEAVG4Material@@@std@@V?$allocator@U?$pair@QEAVG4Material@@N@std@@@3@@std@@QEAA@XZ
	??1?$map@U?$pair@HH@std@@PEAVG4PhysicsVector@@U?$less@U?$pair@HH@std@@@2@V?$allocator@U?$pair@$$CBU?$pair@HH@std@@PEAVG4PhysicsVector@@@std@@@2@@std@@QEAA@XZ
	??1?$map@VG4String@@NU?$less@VG4String@@@std@@V?$allocator@U?$pair@$$CBVG4String@@N@std@@@3@@std@@QEAA@XZ
	??1?$map@VG4String@@PEAVG4PhysicsOrderedFreeVector@@U?$less@VG4String@@@std@@V?$allocator@U?$pair@$$CBVG4String@@PEAVG4PhysicsOrderedFreeVector@@@std@@@4@@std@@QEAA@XZ
	??1?$pair@HV?$vector@NV?$allocator@N@std@@@std@@@std@@QEAA@XZ
	??1?$pair@HVG4String@@@std@@QEAA@XZ
	??1?$pair@VG4String@@V?$unique_ptr@VG4VMaterialExtension@@U?$default_delete@VG4VMaterialExtension@@@std@@@std@@@std@@QEAA@XZ
	??1?$unique_ptr@VG4VMaterialExtension@@U?$default_delete@VG4VMaterialExtension@@@std@@@std@@QEAA@XZ
	??1?$unique_ptr@V_Facet_base@std@@U?$default_delete@V_Facet_base@std@@@2@@std@@QEAA@XZ
	??1?$vector@HV?$allocator@H@std@@@std@@QEAA@XZ
	??1?$vector@NV?$allocator@N@std@@@std@@QEAA@XZ
	??1?$vector@PEAVG4Element@@V?$allocator@PEAVG4Element@@@std@@@std@@QEAA@XZ
	??1?$vector@PEAVG4Isotope@@V?$allocator@PEAVG4Isotope@@@std@@@std@@QEAA@XZ
	??1?$vector@PEAVG4Material@@V?$allocator@PEAVG4Material@@@std@@@std@@QEAA@XZ
	??1?$vector@PEAVG4PhysicsVector@@V?$allocator@PEAVG4PhysicsVector@@@std@@@std@@QEAA@XZ
	??1?$vector@VG4String@@V?$allocator@VG4String@@@std@@@std@@QEAA@XZ
	??1?$vector@VHep3Vector@CLHEP@@V?$allocator@VHep3Vector@CLHEP@@@std@@@std@@QEAA@XZ
	??1?$vector@W4G4State@@V?$allocator@W4G4State@@@std@@@std@@QEAA@XZ
	??1?$vector@_NV?$allocator@_N@std@@@std@@QEAA@XZ
	??1G4AtomicBond@@UEAA@XZ
	??1G4CrystalExtension@@UEAA@XZ
	??1G4CrystalUnitCell@@UEAA@XZ
	??1G4DensityEffectCalculator@@QEAA@XZ
	??1G4DensityEffectData@@QEAA@XZ
	??1G4Element@@UEAA@XZ
	??1G4ElementData@@QEAA@XZ
	??1G4ExtDEDXTable@@UEAA@XZ
	??1G4ExtendedMaterial@@UEAA@XZ
	??1G4ICRU90StoppingData@@QEAA@XZ
	??1G4IonStoppingData@@UEAA@XZ
	??1G4IonisParamElm@@QEAA@XZ
	??1G4IonisParamMat@@QEAA@XZ
	??1G4Isotope@@UEAA@XZ
	??1G4LatticeLogical@@UEAA@XZ
	??1G4LatticePhysical@@UEAA@XZ
	??1G4Material@@UEAA@XZ
	??1G4MaterialPropertiesTable@@UEAA@XZ
	??1G4NistElementBuilder@@QEAA@XZ
	??1G4NistManager@@QEAA@XZ
	??1G4NistMaterialBuilder@@QEAA@XZ
	??1G4NistMessenger@@UEAA@XZ
	??1G4OpticalSurface@@UEAA@XZ
	??1G4SandiaTable@@QEAA@XZ
	??1G4String@@QEAA@XZ
	??1G4SurfaceProperty@@UEAA@XZ
	??1G4UCNMaterialPropertiesTable@@UEAA@XZ
	??1G4UCNMicroRoughnessHelper@@IEAA@XZ
	??1G4VIonDEDXTable@@UEAA@XZ
	??1G4VMaterialExtension@@UEAA@XZ
	??1Hep3Vector@CLHEP@@QEAA@XZ
	??1_Sentry_base@?$basic_istream@DU?$char_traits@D@std@@@std@@QEAA@XZ
	??1_Sentry_base@?$basic_ostream@DU?$char_traits@D@std@@@std@@QEAA@XZ
	??1bad_array_new_length@std@@UEAA@XZ
	??1bad_cast@std@@UEAA@XZ
	??1exception@std@@UEAA@XZ
	??1locale@std@@QEAA@XZ
	??1sentry@?$basic_istream@DU?$char_traits@D@std@@@std@@QEAA@XZ
	??1sentry@?$basic_ostream@DU?$char_traits@D@std@@@std@@QEAA@XZ
	??4G4Isotope@@AEAAAEAV0@AEBV0@@Z
	??4G4OpticalSurface@@QEAAAEAV0@AEBV0@@Z
	??4G4String@@QEAAAEAV0@PEBD@Z
	??6@YAAEAV?$basic_ostream@DU?$char_traits@D@std@@@std@@AEAV01@AEBVG4Element@@@Z
	??6@YAAEAV?$basic_ostream@DU?$char_traits@D@std@@@std@@AEAV01@AEBVG4Isotope@@@Z
	??6@YAAEAV?$basic_ostream@DU?$char_traits@D@std@@@std@@AEAV01@AEBVG4Material@@@Z
	??6@YAAEAV?$basic_ostream@DU?$char_traits@D@std@@@std@@AEAV01@PEBVG4Element@@@Z
	??6@YAAEAV?$basic_ostream@DU?$char_traits@D@std@@@std@@AEAV01@PEBVG4Isotope@@@Z
	??6@YAAEAV?$basic_ostream@DU?$char_traits@D@std@@@std@@AEAV01@PEBVG4Material@@@Z
	??6@YAAEAV?$basic_ostream@DU?$char_traits@D@std@@@std@@AEAV01@V?$vector@PEAVG4Element@@V?$allocator@PEAVG4Element@@@std@@@1@@Z
	??6@YAAEAV?$basic_ostream@DU?$char_traits@D@std@@@std@@AEAV01@V?$vector@PEAVG4Isotope@@V?$allocator@PEAVG4Isotope@@@std@@@1@@Z
	??6@YAAEAV?$basic_ostream@DU?$char_traits@D@std@@@std@@AEAV01@V?$vector@PEAVG4Material@@V?$allocator@PEAVG4Material@@@std@@@1@@Z
	??8G4Isotope@@QEBA_NAEBV0@@Z
	??8G4OpticalSurface@@QEBA_NAEBV0@@Z
	??9G4Isotope@@QEBA_NAEBV0@@Z
	??9G4OpticalSurface@@QEBA_NAEBV0@@Z
	??A?$map@HPEAVG4PhysicsOrderedFreeVector@@U?$less@H@std@@V?$allocator@U?$pair@$$CBHPEAVG4PhysicsOrderedFreeVector@@@std@@@3@@std@@QEAAAEAPEAVG4PhysicsOrderedFreeVector@@AEBH@Z
	??R?$less@VG4String@@@std@@QEBA_NAEBVG4String@@0@Z
	??_D?$basic_ifstream@DU?$char_traits@D@std@@@std@@QEAAXXZ
	??_D?$basic_istringstream@DU?$char_traits@D@std@@V?$allocator@D@2@@std@@QEAAXXZ
	??_D?$basic_ofstream@DU?$char_traits@D@std@@@std@@QEAAXXZ
	??_D?$basic_ostringstream@DU?$char_traits@D@std@@V?$allocator@D@2@@std@@QEAAXXZ
	?AddComponent@G4ElementData@@QEAAXHHPEAVG4PhysicsVector@@@Z
	?AddConstProperty@G4MaterialPropertiesTable@@QEAAXPEBDN@Z
	?AddData@G4ICRU90StoppingData@@AEAAPEAVG4LPhysicsFreeVector@@HPEBNPEBM@Z
	?AddElement@G4Material@@QEAAXPEAVG4Element@@H@Z
	?AddElement@G4Material@@QEAAXPEAVG4Element@@N@Z
	?AddElement@G4NistElementBuilder@@AEAAXAEBVG4String@@HHAEBHAEBN22@Z
	?AddElementByAtomCount@G4NistMaterialBuilder@@AEAAXAEBVG4String@@H@Z
	?AddElementByAtomCount@G4NistMaterialBuilder@@AEAAXHH@Z
	?AddElementByWeightFraction@G4NistMaterialBuilder@@AEAAXAEBVG4String@@N@Z
	?AddElementByWeightFraction@G4NistMaterialBuilder@@AEAAXHN@Z
	?AddEntry@G4MaterialPropertiesTable@@QEAAXPEBDNN@Z
	?AddGas@G4NistMaterialBuilder@@AEAAXAEBVG4String@@NN@Z
	?AddIsotope@G4Element@@QEAAXPEAVG4Isotope@@N@Z
	?AddMaterial@G4DensityEffectData@@AEAAXPEANAEBVG4String@@@Z
	?AddMaterial@G4Material@@QEAAXPEAV1@N@Z
	?AddMaterial@G4NistMaterialBuilder@@AEAAXAEBVG4String@@NHNHW4G4State@@_N@Z
	?AddNaturalIsotopes@G4Element@@AEAAXXZ
	?AddPhysicsVector@G4ExtDEDXTable@@QEAA_NPEAVG4PhysicsVector@@HAEBVG4String@@H@Z
	?AddPhysicsVector@G4IonStoppingData@@QEAA_NPEAVG4PhysicsVector@@HAEBVG4String@@@Z
	?AddPhysicsVector@G4IonStoppingData@@QEAA_NPEAVG4PhysicsVector@@HH@Z
	?AddProperty@G4MaterialPropertiesTable@@QEAAPEAVG4PhysicsOrderedFreeVector@@PEBDPEAN1H@Z
	?AddProperty@G4MaterialPropertiesTable@@QEAAXPEBDPEAVG4PhysicsOrderedFreeVector@@@Z
	?BioChemicalMaterials@G4NistMaterialBuilder@@AEAAXXZ
	?BuildElement@G4NistElementBuilder@@AEAAPEAVG4Element@@H@Z
	?BuildMaterial@G4NistMaterialBuilder@@AEAAPEAVG4Material@@H@Z
	?BuildMaterialWithNewDensity@G4NistManager@@QEAAPEAVG4Material@@AEBVG4String@@0NNN@Z
	?BuildNistMaterial@G4NistMaterialBuilder@@AEAAPEAVG4Material@@AEBVG4String@@_N@Z
	?BuildPhysicsVector@G4ExtDEDXTable@@UEAA_NHAEBVG4String@@@Z
	?BuildPhysicsVector@G4ExtDEDXTable@@UEAA_NHH@Z
	?BuildPhysicsVector@G4IonStoppingData@@UEAA_NHAEBVG4String@@@Z
	?BuildPhysicsVector@G4IonStoppingData@@UEAA_NHH@Z
	?CalculateGROUPVEL@G4MaterialPropertiesTable@@AEAAPEAVG4PhysicsOrderedFreeVector@@XZ
	?CleanSurfacePropertyTable@G4SurfaceProperty@@SAXXZ
	?ClearTable@G4ExtDEDXTable@@QEAAXXZ
	?ClearTable@G4IonStoppingData@@QEAAXXZ
	?ComputeCellVolume@G4CrystalUnitCell@@QEAANXZ
	?ComputeCoulombFactor@G4Element@@AEAAXXZ
	?ComputeDensityCorrection@G4DensityEffectCalculator@@QEAANN@Z
	?ComputeDensityEffectOnFly@G4IonisParamMat@@QEAAX_N@Z
	?ComputeDensityEffectOnFly@G4Material@@QEAAX_N@Z
	?ComputeDensityEffectParameters@G4IonisParamMat@@AEAAXXZ
	?ComputeDerivedQuantities@G4Element@@AEAAXXZ
	?ComputeDerivedQuantities@G4Material@@AEAAXXZ
	?ComputeFluctModel@G4IonisParamMat@@AEAAXXZ
	?ComputeIonParameters@G4IonisParamMat@@AEAAXXZ
	?ComputeLradTsaiFactor@G4Element@@AEAAXXZ
	?ComputeMatSandiaMatrix@G4SandiaTable@@AEAAXXZ
	?ComputeMatSandiaMatrixPAI@G4SandiaTable@@AEAAXXZ
	?ComputeMatTable@G4SandiaTable@@AEAAXXZ
	?ComputeMeanParameters@G4IonisParamMat@@AEAAXXZ
	?ComputeMicroRoughnessTables@G4UCNMaterialPropertiesTable@@QEAAXXZ
	?ComputeNuclearInterLength@G4Material@@AEAAXXZ
	?ComputeRadiationLength@G4Material@@AEAAXXZ
	?ComputeStructureFactor@G4CrystalExtension@@QEAA?AV?$complex@N@std@@NHHH@Z
	?ComputeStructureFactorGeometrical@G4CrystalExtension@@QEAA?AV?$complex@N@std@@HHH@Z
	?ConditionsValid@G4UCNMaterialPropertiesTable@@QEAA_NNNN@Z
	?ConstPropertyExists@G4MaterialPropertiesTable@@QEBA_NPEBD@Z
	?ConstructNewGasMaterial@G4NistMaterialBuilder@@QEAAPEAVG4Material@@AEBVG4String@@0NN_N@Z
	?ConstructNewIdealGasMaterial@G4NistMaterialBuilder@@QEAAPEAVG4Material@@AEBVG4String@@AEBV?$vector@VG4String@@V?$allocator@VG4String@@@std@@@std@@AEBV?$vector@HV?$allocator@H@std@@@5@_NNN@Z
	?ConstructNewMaterial@G4NistMaterialBuilder@@QEAAPEAVG4Material@@AEBVG4String@@AEBV?$vector@VG4String@@V?$allocator@VG4String@@@std@@@std@@AEBV?$vector@HV?$allocator@H@std@@@5@N_NW4G4State@@NN@Z
	?ConstructNewMaterial@G4NistMaterialBuilder@@QEAAPEAVG4Material@@AEBVG4String@@AEBV?$vector@VG4String@@V?$allocator@VG4String@@@std@@@std@@AEBV?$vector@NV?$allocator@N@std@@@5@N_NW4G4State@@NN@Z
	?CopyPointersOfBaseMaterial@G4Material@@AEAAXXZ
	?CreatePhysicsVector@G4ExtDEDXTable@@AEAAPEAVG4PhysicsVector@@H@Z
	?DEll@G4DensityEffectCalculator@@AEAANN@Z
	?DFRho@G4DensityEffectCalculator@@AEAANN@Z
	?DeltaOnceSolved@G4DensityEffectCalculator@@AEAANN@Z
	?DensityCorrection@G4IonisParamMat@@QEAANN@Z
	?Dump@G4LatticeLogical@@QEBAXAEAV?$basic_ostream@DU?$char_traits@D@std@@@std@@@Z
	?DumpData@G4DensityEffectData@@QEBAXXZ
	?DumpElm@G4NistMaterialBuilder@@AEBAXH@Z
	?DumpInfo@G4OpticalSurface@@QEBAXXZ
	?DumpMap@G4ExtDEDXTable@@QEAAXXZ
	?DumpMap@G4IonStoppingData@@QEAAXXZ
	?DumpMap@G4LatticeLogical@@QEBAXAEAV?$basic_ostream@DU?$char_traits@D@std@@@std@@HAEBVG4String@@@Z
	?DumpMix@G4NistMaterialBuilder@@AEBAXH@Z
	?DumpTable@G4MaterialPropertiesTable@@QEAAXXZ
	?DumpTableInfo@G4SurfaceProperty@@SAXXZ
	?Dump_NMap@G4LatticeLogical@@QEBAXAEAV?$basic_ostream@DU?$char_traits@D@std@@@std@@HAEBVG4String@@@Z
	?Ell@G4DensityEffectCalculator@@AEAANN@Z
	?FRho@G4DensityEffectCalculator@@AEAANN@Z
	?FermiDeltaCalculation@G4DensityEffectCalculator@@AEAANN@Z
	?FillAmorphous@G4CrystalUnitCell@@AEBA_NQEAY05N@Z
	?FillAtomicPos@G4CrystalUnitCell@@QEAA_NAEAVHep3Vector@CLHEP@@AEAV?$vector@VHep3Vector@CLHEP@@V?$allocator@VHep3Vector@CLHEP@@@std@@@std@@@Z
	?FillAtomicUnitPos@G4CrystalUnitCell@@QEAA_NAEAVHep3Vector@CLHEP@@AEAV?$vector@VHep3Vector@CLHEP@@V?$allocator@VHep3Vector@CLHEP@@@std@@@std@@@Z
	?FillCubic@G4CrystalUnitCell@@AEBA_NQEAY05N@Z
	?FillData@G4ICRU90StoppingData@@AEAAXXZ
	?FillElReduced@G4CrystalUnitCell@@QEAA_NQEAY05N@Z
	?FillHexagonal@G4CrystalUnitCell@@AEBA_NQEAY05N@Z
	?FillMonoclinic@G4CrystalUnitCell@@AEBA_NQEAY05N@Z
	?FillOrthorhombic@G4CrystalUnitCell@@AEBA_NQEAY05N@Z
	?FillRhombohedral@G4CrystalUnitCell@@AEBA_NQEAY05N@Z
	?FillTetragonal@G4CrystalUnitCell@@AEBA_NQEAY05N@Z
	?FillTriclinic@G4CrystalUnitCell@@AEBA_NQEAY05N@Z
	?FindAtomicNumberElement@G4ExtDEDXTable@@AEAAHPEAVG4PhysicsVector@@@Z
	?FindMaterial@G4NistMaterialBuilder@@QEBAPEAVG4Material@@AEBVG4String@@@Z
	?FindMeanExcitationEnergy@G4IonisParamMat@@QEBANPEBVG4Material@@@Z
	?FindOrBuildElement@G4NistElementBuilder@@QEAAPEAVG4Element@@AEBVG4String@@_N@Z
	?FindOrBuildElement@G4NistElementBuilder@@QEAAPEAVG4Element@@H_N@Z
	?FindOrBuildMaterial@G4NistMaterialBuilder@@QEAAPEAVG4Material@@AEBVG4String@@_N1@Z
	?FindOrBuildSimpleMaterial@G4NistMaterialBuilder@@QEAAPEAVG4Material@@H_N@Z
	?Fmu@G4UCNMicroRoughnessHelper@@QEBANNNNNNNN@Z
	?FmuS@G4UCNMicroRoughnessHelper@@QEBANNNNNNNNNN@Z
	?GetA@G4Material@@QEBANXZ
	?GetAtomBase@G4CrystalExtension@@QEAAPEAVG4CrystalAtomBase@@PEBVG4Element@@@Z
	?GetAtomPos@G4CrystalExtension@@QEAA_NAEAV?$vector@VHep3Vector@CLHEP@@V?$allocator@VHep3Vector@CLHEP@@@std@@@std@@@Z
	?GetAtomPos@G4CrystalExtension@@QEAA_NPEBVG4Element@@AEAV?$vector@VHep3Vector@CLHEP@@V?$allocator@VHep3Vector@CLHEP@@@std@@@std@@@Z
	?GetAtomicMassAmu@G4NistElementBuilder@@QEBANAEBVG4String@@@Z
	?GetAtomicShell@G4Element@@QEBANH@Z
	?GetBasis@G4CrystalUnitCell@@QEBAAEBVHep3Vector@CLHEP@@H@Z
	?GetBindingEnergy@G4AtomicShells@@SANHH@Z
	?GetBindingEnergy@G4AtomicShells_XDB_EADL@@SANHH@Z
	?GetConstProperty@G4MaterialPropertiesTable@@QEBANH@Z
	?GetConstProperty@G4MaterialPropertiesTable@@QEBANPEBD@Z
	?GetConstPropertyIndex@G4MaterialPropertiesTable@@QEBAHAEBVG4String@@_N@Z
	?GetDEDX@G4ExtDEDXTable@@QEAANNHAEBVG4String@@@Z
	?GetDEDX@G4ExtDEDXTable@@QEAANNHH@Z
	?GetDEDX@G4IonStoppingData@@QEAANNHAEBVG4String@@@Z
	?GetDEDX@G4IonStoppingData@@QEAANNHH@Z
	?GetDensityEffectData@G4IonisParamMat@@SAPEAVG4DensityEffectData@@XZ
	?GetElectronicDEDXforAlpha@G4ICRU90StoppingData@@QEBANPEBVG4Material@@N@Z
	?GetElectronicDEDXforProton@G4ICRU90StoppingData@@QEBANPEBVG4Material@@N@Z
	?GetElement@G4Element@@SAPEAV1@VG4String@@_N@Z
	?GetElementIndex@G4DensityEffectData@@QEBAHHW4G4State@@@Z
	?GetElementTable@G4Element@@SAPEAV?$vector@PEAVG4Element@@V?$allocator@PEAVG4Element@@@std@@@std@@XZ
	?GetICRU90StoppingData@G4NistManager@@QEAAPEAVG4ICRU90StoppingData@@XZ
	?GetIndex@G4DensityEffectData@@QEBAHAEBVG4String@@@Z
	?GetInmax@G4OpticalSurface@@QEBAHXZ
	?GetInstance@G4UCNMicroRoughnessHelper@@SAPEAV1@XZ
	?GetIntCosAng@G4CrystalUnitCell@@QEAANHHHHHH@Z
	?GetIntSp2@G4CrystalUnitCell@@QEAANHHH@Z
	?GetIsotope@G4Isotope@@SAPEAV1@AEBVG4String@@_N@Z
	?GetIsotopeTable@G4Isotope@@SAPEBV?$vector@PEAVG4Isotope@@V?$allocator@PEAVG4Isotope@@@std@@@std@@XZ
	?GetLUTbins@G4OpticalSurface@@QEBAHXZ
	?GetLatticeSystem@G4CrystalUnitCell@@AEAA?AW4theLatticeSystemType@@H@Z
	?GetMRIntProbability@G4UCNMaterialPropertiesTable@@QEAANNN@Z
	?GetMRIntTransProbability@G4UCNMaterialPropertiesTable@@QEAANNN@Z
	?GetMRMaxProbability@G4UCNMaterialPropertiesTable@@QEAANNN@Z
	?GetMRMaxTransProbability@G4UCNMaterialPropertiesTable@@QEAANNN@Z
	?GetMRProbability@G4UCNMaterialPropertiesTable@@QEAANNNNNN@Z
	?GetMRTransProbability@G4UCNMaterialPropertiesTable@@QEAANNNNNN@Z
	?GetMatNbOfIntervals@G4SandiaTable@@QEBAHXZ
	?GetMaterial@G4Material@@SAPEAV1@AEBVG4String@@_N@Z
	?GetMaterial@G4Material@@SAPEAV1@NNN@Z
	?GetMaterial@G4Material@@SAPEAV1@_KN@Z
	?GetMaterialConstPropertyNames@G4MaterialPropertiesTable@@QEBA?AV?$vector@VG4String@@V?$allocator@VG4String@@@std@@@std@@XZ
	?GetMaterialPropertyNames@G4MaterialPropertiesTable@@QEBA?AV?$vector@VG4String@@V?$allocator@VG4String@@@std@@@std@@XZ
	?GetMaterialTable@G4Material@@SAPEAV?$vector@PEAVG4Material@@V?$allocator@PEAVG4Material@@@std@@@std@@XZ
	?GetMaxInterval@G4SandiaTable@@QEBAHXZ
	?GetMicroRoughnessTable@G4UCNMaterialPropertiesTable@@QEAAPEANXZ
	?GetMicroRoughnessTransTable@G4UCNMaterialPropertiesTable@@QEAAPEANXZ
	?GetNbOfShellElectrons@G4Element@@QEBAHH@Z
	?GetNumberOfElectrons@G4AtomicShells@@SAHHH@Z
	?GetNumberOfElectrons@G4AtomicShells_XDB_EADL@@SAHHH@Z
	?GetNumberOfElements@G4Element@@SA_KXZ
	?GetNumberOfFreeElectrons@G4AtomicShells@@SAHHN@Z
	?GetNumberOfFreeElectrons@G4AtomicShells_XDB_EADL@@SAHHN@Z
	?GetNumberOfIsotopes@G4Isotope@@SA_KXZ
	?GetNumberOfMaterials@G4Material@@SA_KXZ
	?GetNumberOfShells@G4AtomicShells@@SAHH@Z
	?GetNumberOfShells@G4AtomicShells_XDB_EADL@@SAHH@Z
	?GetNumberOfSurfaceProperties@G4SurfaceProperty@@SA_KXZ
	?GetPhiIndexMax@G4OpticalSurface@@QEBAHXZ
	?GetPhotoAbsorpCof@G4SandiaTable@@QEBANHH@Z
	?GetPhysicsVector@G4ExtDEDXTable@@UEAAPEAVG4PhysicsVector@@HAEBVG4String@@@Z
	?GetPhysicsVector@G4ExtDEDXTable@@UEAAPEAVG4PhysicsVector@@HH@Z
	?GetPhysicsVector@G4IonStoppingData@@UEAAPEAVG4PhysicsVector@@HAEBVG4String@@@Z
	?GetPhysicsVector@G4IonStoppingData@@UEAAPEAVG4PhysicsVector@@HH@Z
	?GetPointerToCof@G4SandiaTable@@AEAAPEAPEANXZ
	?GetPos@G4CrystalAtomBase@@QEAA?AV?$vector@VHep3Vector@CLHEP@@V?$allocator@VHep3Vector@CLHEP@@@std@@@std@@XZ
	?GetPropertiesCMap@G4MaterialPropertiesTable@@QEAAPEAV?$map@VG4String@@NU?$less@VG4String@@@std@@V?$allocator@U?$pair@$$CBVG4String@@N@std@@@3@@std@@XZ
	?GetPropertiesMap@G4MaterialPropertiesTable@@QEAAPEAV?$map@VG4String@@PEAVG4PhysicsOrderedFreeVector@@U?$less@VG4String@@@std@@V?$allocator@U?$pair@$$CBVG4String@@PEAVG4PhysicsOrderedFreeVector@@@std@@@4@@std@@XZ
	?GetProperty@G4MaterialPropertiesTable@@QEAAPEAVG4PhysicsOrderedFreeVector@@H_N@Z
	?GetProperty@G4MaterialPropertiesTable@@QEAAPEAVG4PhysicsOrderedFreeVector@@PEBD_N@Z
	?GetPropertyIndex@G4MaterialPropertiesTable@@QEBAHAEBVG4String@@_N@Z
	?GetRecBasis@G4CrystalUnitCell@@QEBAAEBVHep3Vector@CLHEP@@H@Z
	?GetRecIntSp2@G4CrystalUnitCell@@QEAANHHH@Z
	?GetRecUnitBasis@G4CrystalUnitCell@@QEBAAEBVHep3Vector@CLHEP@@H@Z
	?GetRefMax@G4OpticalSurface@@QEBAHXZ
	?GetSandiaCofForMaterial@G4SandiaTable@@QEBANHH@Z
	?GetSandiaCofForMaterial@G4SandiaTable@@QEBAPEBNN@Z
	?GetSandiaCofPerAtom@G4SandiaTable@@QEBAXHNAEAV?$vector@NV?$allocator@N@std@@@std@@@Z
	?GetSandiaCofWater@G4SandiaTable@@QEBAXNAEAV?$vector@NV?$allocator@N@std@@@std@@@Z
	?GetSandiaMatTable@G4SandiaTable@@QEBANHH@Z
	?GetSandiaMatTablePAI@G4SandiaTable@@QEBANHH@Z
	?GetSandiaPerAtom@G4SandiaTable@@AEBANHHH@Z
	?GetSurfacePropertyTable@G4SurfaceProperty@@SAPEBV?$vector@PEAVG4SurfaceProperty@@V?$allocator@PEAVG4SurfaceProperty@@@std@@@std@@XZ
	?GetThetaIndexMax@G4OpticalSurface@@QEBAHXZ
	?GetTotalBindingEnergy@G4AtomicShells@@SANH@Z
	?GetTotalBindingEnergy@G4AtomicShells_XDB_EADL@@SANH@Z
	?GetUnitBasis@G4CrystalUnitCell@@QEBAAEBVHep3Vector@CLHEP@@H@Z
	?GetUnitBasisTrigonal@G4CrystalUnitCell@@QEAA?AVHep3Vector@CLHEP@@XZ
	?GetWaterCofForMaterial@G4SandiaTable@@QEBANHH@Z
	?GetWaterEnergyLimit@G4SandiaTable@@QEBANXZ
	?GetZ@G4Material@@QEBANXZ
	?GetZ@G4NistElementBuilder@@QEBAHAEBVG4String@@@Z
	?GetZtoA@G4SandiaTable@@SANH@Z
	?HepAndNuclearMaterials@G4NistMaterialBuilder@@AEAAXXZ
	?InitMicroRoughnessTables@G4UCNMaterialPropertiesTable@@QEAAXXZ
	?Initialise@G4ICRU90StoppingData@@QEAAXXZ
	?Initialise@G4NistElementBuilder@@AEAAXXZ
	?Initialise@G4NistMaterialBuilder@@AEAAXXZ
	?InitialiseForComponent@G4ElementData@@QEAAXHH@Z
	?InitialiseForElement@G4ElementData@@QEAAXHPEAVG4Physics2DVector@@@Z
	?InitialiseForElement@G4ElementData@@QEAAXHPEAVG4PhysicsVector@@@Z
	?Initialize@G4DensityEffectData@@AEAAXXZ
	?Initialize@G4SandiaTable@@QEAAXPEBVG4Material@@@Z
	?InitializePointers@G4Element@@AEAAXXZ
	?InitializePointers@G4Material@@AEAAXXZ
	?InsertCoefficients@G4AtomicFormFactor@@AEAAXHV?$vector@NV?$allocator@N@std@@@std@@@Z
	?Instance@G4NistManager@@SAPEAV1@XZ
	?IntIminus@G4UCNMicroRoughnessHelper@@QEBANNNNHHNNPEANN@Z
	?IntIplus@G4UCNMicroRoughnessHelper@@QEBANNNNHHNNPEANN@Z
	?IsApplicable@G4ExtDEDXTable@@UEAA_NHAEBVG4String@@@Z
	?IsApplicable@G4ExtDEDXTable@@UEAA_NHH@Z
	?IsApplicable@G4IonStoppingData@@UEAA_NHAEBVG4String@@@Z
	?IsApplicable@G4IonStoppingData@@UEAA_NHH@Z
	?IsExtended@G4ExtendedMaterial@@UEBA_NXZ
	?IsExtended@G4Material@@UEBA_NXZ
	?ListBioChemicalMaterials@G4NistMaterialBuilder@@QEBAXXZ
	?ListHepMaterials@G4NistMaterialBuilder@@QEBAXXZ
	?ListMaterials@G4NistMaterialBuilder@@QEBAXAEBVG4String@@@Z
	?ListNistCompoundMaterials@G4NistMaterialBuilder@@QEBAXXZ
	?ListNistSimpleMaterials@G4NistMaterialBuilder@@QEBAXXZ
	?ListSpaceMaterials@G4NistMaterialBuilder@@QEBAXXZ
	?LoadMap@G4LatticeLogical@@QEAA_NHHHVG4String@@@Z
	?LoadMicroRoughnessTables@G4UCNMaterialPropertiesTable@@QEAAXPEAN000@Z
	?Load_NMap@G4LatticeLogical@@QEAA_NHHHVG4String@@@Z
	?MapKtoV@G4LatticeLogical@@UEBANHAEBVHep3Vector@CLHEP@@@Z
	?MapKtoV@G4LatticePhysical@@QEBANHVHep3Vector@CLHEP@@@Z
	?MapKtoVDir@G4LatticeLogical@@UEBA?AVHep3Vector@CLHEP@@HAEBV23@@Z
	?MapKtoVDir@G4LatticePhysical@@QEBA?AVHep3Vector@CLHEP@@HV23@@Z
	?Newton@G4DensityEffectCalculator@@AEAANN_N@Z
	?NistCompoundMaterials2@G4NistMaterialBuilder@@AEAAXXZ
	?NistCompoundMaterials@G4NistMaterialBuilder@@AEAAXXZ
	?NistSimpleMaterials@G4NistMaterialBuilder@@AEAAXXZ
	?Print@G4CrystalExtension@@UEBAXXZ
	?Print@G4ExtendedMaterial@@QEBAXAEAV?$basic_ostream@DU?$char_traits@D@std@@@std@@@Z
	?PrintData@G4DensityEffectData@@QEBAXAEBVG4String@@@Z
	?PrintElement@G4NistElementBuilder@@QEBAXH@Z
	?PrintElement@G4NistManager@@QEBAXAEBVG4String@@@Z
	?PrintErrorShell@G4AtomicShells@@CAHHHAEBVG4String@@@Z
	?PrintErrorShell@G4AtomicShells_XDB_EADL@@CAHHHAEBVG4String@@@Z
	?PrintErrorV@G4SandiaTable@@CAXAEBVG4String@@@Z
	?PrintErrorZ@G4AtomicShells@@CAHHAEBVG4String@@@Z
	?PrintErrorZ@G4AtomicShells_XDB_EADL@@CAHHAEBVG4String@@@Z
	?PrintErrorZ@G4SandiaTable@@CAHHAEBVG4String@@@Z
	?PrintG4Element@G4NistManager@@QEBAXAEBVG4String@@@Z
	?PrintG4Material@G4NistManager@@QEBAXAEBVG4String@@@Z
	?ProbIminus@G4UCNMicroRoughnessHelper@@QEBANNNNNNNNN@Z
	?ProbIplus@G4UCNMicroRoughnessHelper@@QEBANNNNNNNNN@Z
	?ReadDichroicFile@G4OpticalSurface@@QEAAXXZ
	?ReadLUTDAVISFile@G4OpticalSurface@@QEAAXXZ
	?ReadLUTFile@G4OpticalSurface@@QEAAXXZ
	?ReadReflectivityLUTFile@G4OpticalSurface@@QEAAXXZ
	?ReflectElReduced@G4CrystalUnitCell@@AEBA_NQEAY05N@Z
	?RegisterExtension@G4ExtendedMaterial@@QEAAXV?$unique_ptr@VG4VMaterialExtension@@U?$default_delete@VG4VMaterialExtension@@@std@@@std@@@Z
	?RemovePhysicsVector@G4ExtDEDXTable@@QEAA_NHAEBVG4String@@@Z
	?RemovePhysicsVector@G4IonStoppingData@@QEAA_NHAEBVG4String@@@Z
	?RemovePhysicsVector@G4IonStoppingData@@QEAA_NHH@Z
	?RetrieveExtension@G4ExtendedMaterial@@QEAAPEAVG4VMaterialExtension@@AEBVG4String@@@Z
	?RetrievePhysicsTable@G4ExtDEDXTable@@QEAA_NAEBVG4String@@@Z
	?RotateToGlobal@G4LatticePhysical@@QEBA?AVHep3Vector@CLHEP@@AEBV23@@Z
	?RotateToLocal@G4LatticePhysical@@QEBA?AVHep3Vector@CLHEP@@AEBV23@@Z
	?S2@G4UCNMicroRoughnessHelper@@QEBANNN@Z
	?SS2@G4UCNMicroRoughnessHelper@@QEBANNN@Z
	?SandiaIntervals@G4SandiaTable@@QEAAHQEAHH@Z
	?SandiaMixing@G4SandiaTable@@QEAAHQEAHPEBNHH@Z
	?SandiaSort@G4SandiaTable@@AEAAXPEAPEANH@Z
	?SandiaSwap@G4SandiaTable@@AEAAXPEAPEANHH@Z
	?SetChemicalFormula@G4Material@@QEAAXAEBVG4String@@@Z
	?SetCpq@G4CrystalExtension@@QEAAXHHN@Z
	?SetDensityEffectCalculatorFlag@G4NistManager@@QEAAXAEBVG4String@@_N@Z
	?SetDensityEffectCalculatorFlag@G4NistManager@@QEAAXPEAVG4Material@@_N@Z
	?SetDensityEffectParameters@G4IonisParamMat@@QEAAXNNNNNN@Z
	?SetDensityEffectParameters@G4IonisParamMat@@QEAAXPEBVG4Material@@@Z
	?SetElReduced@G4CrystalExtension@@QEAAXAEAY155$$CBN@Z
	?SetFinish@G4OpticalSurface@@QEAAXW4G4OpticalSurfaceFinish@@@Z
	?SetFreeElectronDensity@G4Material@@QEAAXN@Z
	?SetGROUPVEL@G4MaterialPropertiesTable@@AEAAPEAVG4PhysicsOrderedFreeVector@@XZ
	?SetGuidance@G4UIcommand@@QEAAXPEBD@Z
	?SetLatticeOrientation@G4LatticePhysical@@QEAAXNN@Z
	?SetMRMaxProbability@G4UCNMaterialPropertiesTable@@QEAAXNNN@Z
	?SetMRMaxTransProbability@G4UCNMaterialPropertiesTable@@QEAAXNNN@Z
	?SetMaterialPropertiesTable@G4Material@@QEAAXPEAVG4MaterialPropertiesTable@@@Z
	?SetMeanExcitationEnergy@G4IonisParamMat@@QEAAXN@Z
	?SetMicroRoughnessParameters@G4UCNMaterialPropertiesTable@@QEAAXNNHHNNNNHHN@Z
	?SetMillerOrientation@G4LatticePhysical@@QEAAXHHH@Z
	?SetNewValue@G4NistMessenger@@UEAAXPEAVG4UIcommand@@VG4String@@@Z
	?SetPhysicalOrientation@G4LatticePhysical@@QEAAXPEBVHepRotation@CLHEP@@@Z
	?SetType@G4OpticalSurface@@QEAAXAEBW4G4SurfaceType@@@Z
	?SetVerbose@G4NistManager@@QEAAXH@Z
	?SetVerbose@G4NistMaterialBuilder@@QEAAXH@Z
	?SpaceMaterials@G4NistMaterialBuilder@@AEAAXXZ
	?StorePhysicsTable@G4ExtDEDXTable@@QEAA_NAEBVG4String@@@Z
	?TransConditionsValid@G4UCNMaterialPropertiesTable@@QEAA_NNNN@Z
	?_Assign_grow@?$_Hash_vec@V?$allocator@V?$_List_unchecked_iterator@V?$_List_val@U?$_List_simple_types@U?$pair@$$CBVG4String@@V?$unique_ptr@VG4VMaterialExtension@@U?$default_delete@VG4VMaterialExtension@@@std@@@std@@@std@@@std@@@std@@@std@@@std@@@std@@QEAAX_KV?$_List_unchecked_iterator@V?$_List_val@U?$_List_simple_types@U?$pair@$$CBVG4String@@V?$unique_ptr@VG4VMaterialExtension@@U?$default_delete@VG4VMaterialExtension@@@std@@@std@@@std@@@std@@@std@@@2@@Z
	?_Become_small@?$basic_string@DU?$char_traits@D@std@@V?$allocator@D@2@@std@@AEAAXXZ
	?_Change_array@?$vector@HV?$allocator@H@std@@@std@@AEAAXQEAH_K1@Z
	?_Change_array@?$vector@NV?$allocator@N@std@@@std@@AEAAXQEAN_K1@Z
	?_Change_array@?$vector@PEAVG4Element@@V?$allocator@PEAVG4Element@@@std@@@std@@AEAAXQEAPEAVG4Element@@_K1@Z
	?_Change_array@?$vector@PEAVG4PhysicsVector@@V?$allocator@PEAVG4PhysicsVector@@@std@@@std@@AEAAXQEAPEAVG4PhysicsVector@@_K1@Z
	?_Change_array@?$vector@VG4String@@V?$allocator@VG4String@@@std@@@std@@AEAAXQEAVG4String@@_K1@Z
	?_Change_array@?$vector@VHep3Vector@CLHEP@@V?$allocator@VHep3Vector@CLHEP@@@std@@@std@@AEAAXQEAVHep3Vector@CLHEP@@_K1@Z
	?_Destroy@?$vector@VG4String@@V?$allocator@VG4String@@@std@@@std@@AEAAXPEAVG4String@@0@Z
	?_Endwrite@?$basic_filebuf@DU?$char_traits@D@std@@@std@@IEAA_NXZ
	?_Extract@?$_Tree_val@U?$_Tree_simple_types@U?$pair@$$CBHN@std@@@std@@@std@@QEAAPEAU?$_Tree_node@U?$pair@$$CBHN@std@@PEAX@2@V?$_Tree_unchecked_const_iterator@V?$_Tree_val@U?$_Tree_simple_types@U?$pair@$$CBHN@std@@@std@@@std@@U_Iterator_base0@2@@2@@Z
	?_Extract@?$_Tree_val@U?$_Tree_simple_types@U?$pair@$$CBU?$pair@HH@std@@PEAVG4PhysicsVector@@@std@@@std@@@std@@QEAAPEAU?$_Tree_node@U?$pair@$$CBU?$pair@HH@std@@PEAVG4PhysicsVector@@@std@@PEAX@2@V?$_Tree_unchecked_const_iterator@V?$_Tree_val@U?$_Tree_simple_types@U?$pair@$$CBU?$pair@HH@std@@PEAVG4PhysicsVector@@@std@@@std@@@std@@U_Iterator_base0@2@@2@@Z
	?_Extract@?$_Tree_val@U?$_Tree_simple_types@U?$pair@$$CBU?$pair@HVG4String@@@std@@PEAVG4PhysicsVector@@@std@@@std@@@std@@QEAAPEAU?$_Tree_node@U?$pair@$$CBU?$pair@HVG4String@@@std@@PEAVG4PhysicsVector@@@std@@PEAX@2@V?$_Tree_unchecked_const_iterator@V?$_Tree_val@U?$_Tree_simple_types@U?$pair@$$CBU?$pair@HVG4String@@@std@@PEAVG4PhysicsVector@@@std@@@std@@@std@@U_Iterator_base0@2@@2@@Z
	?_Forced_rehash@?$_Hash@V?$_Umap_traits@VG4String@@V?$unique_ptr@VG4VMaterialExtension@@U?$default_delete@VG4VMaterialExtension@@@std@@@std@@V?$_Uhash_compare@VG4String@@U?$hash@V?$basic_string@DU?$char_traits@D@std@@V?$allocator@D@2@@std@@@std@@U?$equal_to@VG4String@@@3@@3@V?$allocator@U?$pair@$$CBVG4String@@V?$unique_ptr@VG4VMaterialExtension@@U?$default_delete@VG4VMaterialExtension@@@std@@@std@@@std@@@3@$0A@@std@@@std@@IEAAX_K@Z
	?_Getal@?$vector@HV?$allocator@H@std@@@std@@AEAAAEAV?$allocator@H@2@XZ
	?_Getal@?$vector@IV?$allocator@I@std@@@std@@AEAAAEAV?$allocator@I@2@XZ
	?_Getal@?$vector@NV?$allocator@N@std@@@std@@AEAAAEAV?$allocator@N@2@XZ
	?_Getal@?$vector@PEAVG4Element@@V?$allocator@PEAVG4Element@@@std@@@std@@AEAAAEAV?$allocator@PEAVG4Element@@@2@XZ
	?_Getal@?$vector@PEAVG4PhysicsVector@@V?$allocator@PEAVG4PhysicsVector@@@std@@@std@@AEAAAEAV?$allocator@PEAVG4PhysicsVector@@@2@XZ
	?_Getal@?$vector@VHep3Vector@CLHEP@@V?$allocator@VHep3Vector@CLHEP@@@std@@@std@@AEAAAEAV?$allocator@VHep3Vector@CLHEP@@@2@XZ
	?_Insert_node@?$_Tree_val@U?$_Tree_simple_types@U?$pair@$$CBHN@std@@@std@@@std@@QEAAPEAU?$_Tree_node@U?$pair@$$CBHN@std@@PEAX@2@U?$_Tree_id@PEAU?$_Tree_node@U?$pair@$$CBHN@std@@PEAX@std@@@2@QEAU32@@Z
	?_Insert_node@?$_Tree_val@U?$_Tree_simple_types@U?$pair@$$CBHPEAVG4PhysicsOrderedFreeVector@@@std@@@std@@@std@@QEAAPEAU?$_Tree_node@U?$pair@$$CBHPEAVG4PhysicsOrderedFreeVector@@@std@@PEAX@2@U?$_Tree_id@PEAU?$_Tree_node@U?$pair@$$CBHPEAVG4PhysicsOrderedFreeVector@@@std@@PEAX@std@@@2@QEAU32@@Z
	?_Insert_node@?$_Tree_val@U?$_Tree_simple_types@U?$pair@$$CBHV?$vector@NV?$allocator@N@std@@@std@@@std@@@std@@@std@@QEAAPEAU?$_Tree_node@U?$pair@$$CBHV?$vector@NV?$allocator@N@std@@@std@@@std@@PEAX@2@U?$_Tree_id@PEAU?$_Tree_node@U?$pair@$$CBHV?$vector@NV?$allocator@N@std@@@std@@@std@@PEAX@std@@@2@QEAU32@@Z
	?_Insert_node@?$_Tree_val@U?$_Tree_simple_types@U?$pair@$$CBU?$pair@HH@std@@PEAVG4PhysicsVector@@@std@@@std@@@std@@QEAAPEAU?$_Tree_node@U?$pair@$$CBU?$pair@HH@std@@PEAVG4PhysicsVector@@@std@@PEAX@2@U?$_Tree_id@PEAU?$_Tree_node@U?$pair@$$CBU?$pair@HH@std@@PEAVG4PhysicsVector@@@std@@PEAX@std@@@2@QEAU32@@Z
	?_Insert_node@?$_Tree_val@U?$_Tree_simple_types@U?$pair@$$CBU?$pair@HVG4String@@@std@@PEAVG4PhysicsVector@@@std@@@std@@@std@@QEAAPEAU?$_Tree_node@U?$pair@$$CBU?$pair@HVG4String@@@std@@PEAVG4PhysicsVector@@@std@@PEAX@2@U?$_Tree_id@PEAU?$_Tree_node@U?$pair@$$CBU?$pair@HVG4String@@@std@@PEAVG4PhysicsVector@@@std@@PEAX@std@@@2@QEAU32@@Z
	?_Insert_node@?$_Tree_val@U?$_Tree_simple_types@U?$pair@$$CBVG4String@@N@std@@@std@@@std@@QEAAPEAU?$_Tree_node@U?$pair@$$CBVG4String@@N@std@@PEAX@2@U?$_Tree_id@PEAU?$_Tree_node@U?$pair@$$CBVG4String@@N@std@@PEAX@std@@@2@QEAU32@@Z
	?_Insert_node@?$_Tree_val@U?$_Tree_simple_types@U?$pair@$$CBVG4String@@PEAVG4PhysicsOrderedFreeVector@@@std@@@std@@@std@@QEAAPEAU?$_Tree_node@U?$pair@$$CBVG4String@@PEAVG4PhysicsOrderedFreeVector@@@std@@PEAX@2@U?$_Tree_id@PEAU?$_Tree_node@U?$pair@$$CBVG4String@@PEAVG4PhysicsOrderedFreeVector@@@std@@PEAX@std@@@2@QEAU32@@Z
	?_Insert_node@?$_Tree_val@U?$_Tree_simple_types@U?$pair@QEAVG4Material@@N@std@@@std@@@std@@QEAAPEAU?$_Tree_node@U?$pair@QEAVG4Material@@N@std@@PEAX@2@U?$_Tree_id@PEAU?$_Tree_node@U?$pair@QEAVG4Material@@N@std@@PEAX@std@@@2@QEAU32@@Z
	?_Insert_node@?$_Tree_val@U?$_Tree_simple_types@U?$pair@QEBVG4Element@@PEAVG4CrystalAtomBase@@@std@@@std@@@std@@QEAAPEAU?$_Tree_node@U?$pair@QEBVG4Element@@PEAVG4CrystalAtomBase@@@std@@PEAX@2@U?$_Tree_id@PEAU?$_Tree_node@U?$pair@QEBVG4Element@@PEAVG4CrystalAtomBase@@@std@@PEAX@std@@@2@QEAU32@@Z
	?_Insert_x@?$vector@_NV?$allocator@_N@std@@@std@@QEAA_KV?$_Vb_const_iterator@U?$_Wrap_alloc@V?$allocator@I@std@@@std@@@2@_K@Z
	?_Lock@?$basic_filebuf@DU?$char_traits@D@std@@@std@@UEAAXXZ
	?_Lrotate@?$_Tree_val@U?$_Tree_simple_types@U?$pair@$$CBHN@std@@@std@@@std@@QEAAXPEAU?$_Tree_node@U?$pair@$$CBHN@std@@PEAX@2@@Z
	?_Lrotate@?$_Tree_val@U?$_Tree_simple_types@U?$pair@$$CBU?$pair@HH@std@@PEAVG4PhysicsVector@@@std@@@std@@@std@@QEAAXPEAU?$_Tree_node@U?$pair@$$CBU?$pair@HH@std@@PEAVG4PhysicsVector@@@std@@PEAX@2@@Z
	?_Lrotate@?$_Tree_val@U?$_Tree_simple_types@U?$pair@$$CBU?$pair@HVG4String@@@std@@PEAVG4PhysicsVector@@@std@@@std@@@std@@QEAAXPEAU?$_Tree_node@U?$pair@$$CBU?$pair@HVG4String@@@std@@PEAVG4PhysicsVector@@@std@@PEAX@2@@Z
	?_Maklocwcs@std@@YAPEA_WPEB_W@Z
	?_Reallocate_exactly@?$vector@HV?$allocator@H@std@@@std@@AEAAX_K@Z
	?_Reallocate_exactly@?$vector@PEAVG4Element@@V?$allocator@PEAVG4Element@@@std@@@std@@AEAAX_K@Z
	?_Reallocate_exactly@?$vector@PEAVG4PhysicsVector@@V?$allocator@PEAVG4PhysicsVector@@@std@@@std@@AEAAX_K@Z
	?_Reset_back@?$basic_filebuf@DU?$char_traits@D@std@@@std@@AEAAXXZ
	?_Rrotate@?$_Tree_val@U?$_Tree_simple_types@U?$pair@$$CBHN@std@@@std@@@std@@QEAAXPEAU?$_Tree_node@U?$pair@$$CBHN@std@@PEAX@2@@Z
	?_Rrotate@?$_Tree_val@U?$_Tree_simple_types@U?$pair@$$CBU?$pair@HH@std@@PEAVG4PhysicsVector@@@std@@@std@@@std@@QEAAXPEAU?$_Tree_node@U?$pair@$$CBU?$pair@HH@std@@PEAVG4PhysicsVector@@@std@@PEAX@2@@Z
	?_Rrotate@?$_Tree_val@U?$_Tree_simple_types@U?$pair@$$CBU?$pair@HVG4String@@@std@@PEAVG4PhysicsVector@@@std@@@std@@@std@@QEAAXPEAU?$_Tree_node@U?$pair@$$CBU?$pair@HVG4String@@@std@@PEAVG4PhysicsVector@@@std@@PEAX@2@@Z
	?_Throw_bad_array_new_length@std@@YAXXZ
	?_Throw_bad_cast@std@@YAXXZ
	?_Throw_tree_length_error@std@@YAXXZ
	?_Tidy@?$vector@VG4String@@V?$allocator@VG4String@@@std@@@std@@AEAAXXZ
	?_Tidy@?$vector@VHep3Vector@CLHEP@@V?$allocator@VHep3Vector@CLHEP@@@std@@@std@@AEAAXXZ
	?_Umove@?$vector@VHep3Vector@CLHEP@@V?$allocator@VHep3Vector@CLHEP@@@std@@@std@@AEAAPEAVHep3Vector@CLHEP@@PEAV34@00@Z
	?_Unlock@?$basic_filebuf@DU?$char_traits@D@std@@@std@@UEAAXXZ
	?_Xlen@?$basic_string@DU?$char_traits@D@std@@V?$allocator@D@2@@std@@CAXXZ
	?_Xlen@?$vector@_NV?$allocator@_N@std@@@std@@QEBAXXZ
	?_Xlength@?$vector@HV?$allocator@H@std@@@std@@CAXXZ
	?_Xlength@?$vector@IV?$allocator@I@std@@@std@@CAXXZ
	?_Xlength@?$vector@NV?$allocator@N@std@@@std@@CAXXZ
	?_Xlength@?$vector@PEAVG4DataVector@@V?$allocator@PEAVG4DataVector@@@std@@@std@@CAXXZ
	?_Xlength@?$vector@PEAVG4Element@@V?$allocator@PEAVG4Element@@@std@@@std@@CAXXZ
	?_Xlength@?$vector@PEAVG4Isotope@@V?$allocator@PEAVG4Isotope@@@std@@@std@@CAXXZ
	?_Xlength@?$vector@PEAVG4Material@@V?$allocator@PEAVG4Material@@@std@@@std@@CAXXZ
	?_Xlength@?$vector@PEAVG4PhysicsVector@@V?$allocator@PEAVG4PhysicsVector@@@std@@@std@@CAXXZ
	?_Xlength@?$vector@PEAVG4SurfaceProperty@@V?$allocator@PEAVG4SurfaceProperty@@@std@@@std@@CAXXZ
	?_Xlength@?$vector@VG4String@@V?$allocator@VG4String@@@std@@@std@@CAXXZ
	?_Xlength@?$vector@VHep3Vector@CLHEP@@V?$allocator@VHep3Vector@CLHEP@@@std@@@std@@CAXXZ
	?_Xlength@?$vector@W4G4State@@V?$allocator@W4G4State@@@std@@@std@@CAXXZ
	?allocate@?$allocator@D@std@@QEAAPEAD_K@Z
	?allocate@?$allocator@H@std@@QEAAPEAH_K@Z
	?allocate@?$allocator@I@std@@QEAAPEAI_K@Z
	?allocate@?$allocator@N@std@@QEAAPEAN_K@Z
	?allocate@?$allocator@PEAVG4Element@@@std@@QEAAPEAPEAVG4Element@@_K@Z
	?allocate@?$allocator@PEAVG4PhysicsVector@@@std@@QEAAPEAPEAVG4PhysicsVector@@_K@Z
	?allocate@?$allocator@VG4String@@@std@@QEAAPEAVG4String@@_K@Z
	?allocate@?$allocator@VHep3Vector@CLHEP@@@std@@QEAAPEAVHep3Vector@CLHEP@@_K@Z
	?append@?$basic_string@DU?$char_traits@D@std@@V?$allocator@D@2@@std@@QEAAAEAV12@QEBD_K@Z
	?assign@?$basic_string@DU?$char_traits@D@std@@V?$allocator@D@2@@std@@QEAAAEAV12@QEBD@Z
	?assign@?$basic_string@DU?$char_traits@D@std@@V?$allocator@D@2@@std@@QEAAAEAV12@QEBD_K@Z
	?clear@?$_Tree@V?$_Tmap_traits@HNU?$less@H@std@@V?$allocator@U?$pair@$$CBHN@std@@@2@$0A@@std@@@std@@QEAAXXZ
	?clear@?$_Tree@V?$_Tmap_traits@HPEAVG4PhysicsOrderedFreeVector@@U?$less@H@std@@V?$allocator@U?$pair@$$CBHPEAVG4PhysicsOrderedFreeVector@@@std@@@3@$0A@@std@@@std@@QEAAXXZ
	?clear@?$_Tree@V?$_Tmap_traits@U?$pair@HH@std@@PEAVG4PhysicsVector@@U?$less@U?$pair@HH@std@@@2@V?$allocator@U?$pair@$$CBU?$pair@HH@std@@PEAVG4PhysicsVector@@@std@@@2@$0A@@std@@@std@@QEAAXXZ
	?clearAndDestroy@G4OrderedTable@@QEAAXXZ
	?close@?$basic_filebuf@DU?$char_traits@D@std@@@std@@QEAAPEAV12@XZ
	?deallocate@?$allocator@D@std@@QEAAXQEAD_K@Z
	?deallocate@?$allocator@H@std@@QEAAXQEAH_K@Z
	?deallocate@?$allocator@I@std@@QEAAXQEAI_K@Z
	?deallocate@?$allocator@N@std@@QEAAXQEAN_K@Z
	?deallocate@?$allocator@PEAVG4DataVector@@@std@@QEAAXQEAPEAVG4DataVector@@_K@Z
	?deallocate@?$allocator@PEAVG4Element@@@std@@QEAAXQEAPEAVG4Element@@_K@Z
	?deallocate@?$allocator@PEAVG4Isotope@@@std@@QEAAXQEAPEAVG4Isotope@@_K@Z
	?deallocate@?$allocator@PEAVG4Material@@@std@@QEAAXQEAPEAVG4Material@@_K@Z
	?deallocate@?$allocator@PEAVG4PhysicsVector@@@std@@QEAAXQEAPEAVG4PhysicsVector@@_K@Z
	?deallocate@?$allocator@PEAVG4SurfaceProperty@@@std@@QEAAXQEAPEAVG4SurfaceProperty@@_K@Z
	?deallocate@?$allocator@VG4String@@@std@@QEAAXQEAVG4String@@_K@Z
	?deallocate@?$allocator@VHep3Vector@CLHEP@@@std@@QEAAXQEAVHep3Vector@CLHEP@@_K@Z
	?deallocate@?$allocator@W4G4State@@@std@@QEAAXQEAW4G4State@@_K@Z
	?erase@?$_Tree@V?$_Tmap_traits@HNU?$less@H@std@@V?$allocator@U?$pair@$$CBHN@std@@@2@$0A@@std@@@std@@QEAA_KAEBH@Z
	?erase@?$_Tree@V?$_Tmap_traits@U?$pair@HH@std@@PEAVG4PhysicsVector@@U?$less@U?$pair@HH@std@@@2@V?$allocator@U?$pair@$$CBU?$pair@HH@std@@PEAVG4PhysicsVector@@@std@@@2@$0A@@std@@@std@@QEAA_KAEBU?$pair@HH@2@@Z
	?erase@?$_Tree@V?$_Tmap_traits@U?$pair@HVG4String@@@std@@PEAVG4PhysicsVector@@U?$less@U?$pair@HVG4String@@@std@@@2@V?$allocator@U?$pair@$$CBU?$pair@HVG4String@@@std@@PEAVG4PhysicsVector@@@std@@@2@$0A@@std@@@std@@QEAA_KAEBU?$pair@HVG4String@@@2@@Z
	?getTheta@Hep3Vector@CLHEP@@QEBANXZ
	?imbue@?$basic_filebuf@DU?$char_traits@D@std@@@std@@MEAAXAEBVlocale@2@@Z
	?open@?$basic_filebuf@DU?$char_traits@D@std@@@std@@QEAAPEAV12@PEBDHH@Z
	?overflow@?$basic_filebuf@DU?$char_traits@D@std@@@std@@MEAAHH@Z
	?overflow@?$basic_stringbuf@DU?$char_traits@D@std@@V?$allocator@D@2@@std@@MEAAHH@Z
	?pbackfail@?$basic_filebuf@DU?$char_traits@D@std@@@std@@MEAAHH@Z
	?pbackfail@?$basic_stringbuf@DU?$char_traits@D@std@@V?$allocator@D@2@@std@@MEAAHH@Z
	?powZ@G4Pow@@QEBANHN@Z
	?push_back@?$vector@VG4String@@V?$allocator@VG4String@@@std@@@std@@QEAAX$$QEAVG4String@@@Z
	?push_back@?$vector@VG4String@@V?$allocator@VG4String@@@std@@@std@@QEAAXAEBVG4String@@@Z
	?push_back@?$vector@_NV?$allocator@_N@std@@@std@@QEAAXAEB_N@Z
	?reserve@?$basic_string@DU?$char_traits@D@std@@V?$allocator@D@2@@std@@QEAAX_K@Z
	?resize@?$vector@NV?$allocator@N@std@@@std@@QEAAX_K@Z
	?right@std@@YAAEAVios_base@1@AEAV21@@Z
	?seekoff@?$basic_filebuf@DU?$char_traits@D@std@@@std@@MEAA?AV?$fpos@U_Mbstatet@@@2@_JHH@Z
	?seekoff@?$basic_stringbuf@DU?$char_traits@D@std@@V?$allocator@D@2@@std@@MEAA?AV?$fpos@U_Mbstatet@@@2@_JHH@Z
	?seekpos@?$basic_filebuf@DU?$char_traits@D@std@@@std@@MEAA?AV?$fpos@U_Mbstatet@@@2@V32@H@Z
	?seekpos@?$basic_stringbuf@DU?$char_traits@D@std@@V?$allocator@D@2@@std@@MEAA?AV?$fpos@U_Mbstatet@@@2@V32@H@Z
	?setbuf@?$basic_filebuf@DU?$char_traits@D@std@@@std@@MEAAPEAV?$basic_streambuf@DU?$char_traits@D@std@@@2@PEAD_J@Z
	?sync@?$basic_filebuf@DU?$char_traits@D@std@@@std@@MEAAHXZ
	?uflow@?$basic_filebuf@DU?$char_traits@D@std@@@std@@MEAAHXZ
	?underflow@?$basic_filebuf@DU?$char_traits@D@std@@@std@@MEAAHXZ
	?underflow@?$basic_stringbuf@DU?$char_traits@D@std@@V?$allocator@D@2@@std@@MEAAHXZ
	?unit@Hep3Vector@CLHEP@@QEBA?AV12@XZ
	?what@exception@std@@UEBAPEBDXZ
	?xsgetn@?$basic_filebuf@DU?$char_traits@D@std@@@std@@MEAA_JPEAD_J@Z
	?xsputn@?$basic_filebuf@DU?$char_traits@D@std@@@std@@MEAA_JPEBD_J@Z
