EXPORTS 
	??_R0?AV?$_Iosb@H@std@@@8 	 DATA
	??_R0?AV?$basic_filebuf@DU?$char_traits@D@std@@@std@@@8 	 DATA
	??_R0?AV?$basic_ifstream@DU?$char_traits@D@std@@@std@@@8 	 DATA
	??_R0?AV?$basic_ios@DU?$char_traits@D@std@@@std@@@8 	 DATA
	??_R0?AV?$basic_istream@DU?$char_traits@D@std@@@std@@@8 	 DATA
	??_R0?AV?$basic_istringstream@DU?$char_traits@D@std@@V?$allocator@D@2@@std@@@8 	 DATA
	??_R0?AV?$basic_ofstream@DU?$char_traits@D@std@@@std@@@8 	 DATA
	??_R0?AV?$basic_ostream@DU?$char_traits@D@std@@@std@@@8 	 DATA
	??_R0?AV?$basic_ostringstream@DU?$char_traits@D@std@@V?$allocator@D@2@@std@@@8 	 DATA
	??_R0?AV?$basic_streambuf@DU?$char_traits@D@std@@@std@@@8 	 DATA
	??_R0?AV?$basic_stringbuf@DU?$char_traits@D@std@@V?$allocator@D@2@@std@@@8 	 DATA
	??_R0?AVG4BooleanSolid@@@8 	 DATA
	??_R0?AVG4Box@@@8 	 DATA
	??_R0?AVG4Cons@@@8 	 DATA
	??_R0?AVG4DCIOcatalog@@@8 	 DATA
	??_R0?AVG4DisplacedSolid@@@8 	 DATA
	??_R0?AVG4Ellipsoid@@@8 	 DATA
	??_R0?AVG4EllipticalCone@@@8 	 DATA
	??_R0?AVG4EllipticalTube@@@8 	 DATA
	??_R0?AVG4GenericPolycone@@@8 	 DATA
	??_R0?AVG4HCIOcatalog@@@8 	 DATA
	??_R0?AVG4Hype@@@8 	 DATA
	??_R0?AVG4MCTEvent@@@8 	 DATA
	??_R0?AVG4MCTGenEvent@@@8 	 DATA
	??_R0?AVG4MCTSimParticle@@@8 	 DATA
	??_R0?AVG4Orb@@@8 	 DATA
	??_R0?AVG4Para@@@8 	 DATA
	??_R0?AVG4PersistencyCenterMessenger@@@8 	 DATA
	??_R0?AVG4PersistencyManager@@@8 	 DATA
	??_R0?AVG4Polycone@@@8 	 DATA
	??_R0?AVG4Polyhedra@@@8 	 DATA
	??_R0?AVG4ReflectedSolid@@@8 	 DATA
	??_R0?AVG4Sphere@@@8 	 DATA
	??_R0?AVG4Torus@@@8 	 DATA
	??_R0?AVG4Trap@@@8 	 DATA
	??_R0?AVG4Trd@@@8 	 DATA
	??_R0?AVG4Tubs@@@8 	 DATA
	??_R0?AVG4TwistedBox@@@8 	 DATA
	??_R0?AVG4TwistedTrap@@@8 	 DATA
	??_R0?AVG4TwistedTrd@@@8 	 DATA
	??_R0?AVG4TwistedTubs@@@8 	 DATA
	??_R0?AVG4UImessenger@@@8 	 DATA
	??_R0?AVG4VDCIOentry@@@8 	 DATA
	??_R0?AVG4VHCIOentry@@@8 	 DATA
	??_R0?AVG4VMCTruthIO@@@8 	 DATA
	??_R0?AVG4VPDigitIO@@@8 	 DATA
	??_R0?AVG4VPDigitsCollectionIO@@@8 	 DATA
	??_R0?AVG4VPEventIO@@@8 	 DATA
	??_R0?AVG4VPHitIO@@@8 	 DATA
	??_R0?AVG4VPHitsCollectionIO@@@8 	 DATA
	??_R0?AVG4VPVParameterisation@@@8 	 DATA
	??_R0?AVG4VPersistencyManager@@@8 	 DATA
	??_R0?AVG4VSolid@@@8 	 DATA
	??_R0?AVG4tgbDetectorBuilder@@@8 	 DATA
	??_R0?AVG4tgbMaterial@@@8 	 DATA
	??_R0?AVG4tgbMaterialMixture@@@8 	 DATA
	??_R0?AVG4tgbMaterialMixtureByNoAtoms@@@8 	 DATA
	??_R0?AVG4tgbMaterialMixtureByVolume@@@8 	 DATA
	??_R0?AVG4tgbMaterialMixtureByWeight@@@8 	 DATA
	??_R0?AVG4tgbMaterialSimple@@@8 	 DATA
	??_R0?AVG4tgbPlaceParamCircle@@@8 	 DATA
	??_R0?AVG4tgbPlaceParamLinear@@@8 	 DATA
	??_R0?AVG4tgbPlaceParamSquare@@@8 	 DATA
	??_R0?AVG4tgbPlaceParameterisation@@@8 	 DATA
	??_R0?AVG4tgrElement@@@8 	 DATA
	??_R0?AVG4tgrElementFromIsotopes@@@8 	 DATA
	??_R0?AVG4tgrElementSimple@@@8 	 DATA
	??_R0?AVG4tgrFileReader@@@8 	 DATA
	??_R0?AVG4tgrLineProcessor@@@8 	 DATA
	??_R0?AVG4tgrMaterial@@@8 	 DATA
	??_R0?AVG4tgrMaterialMixture@@@8 	 DATA
	??_R0?AVG4tgrMaterialSimple@@@8 	 DATA
	??_R0?AVG4tgrMessenger@@@8 	 DATA
	??_R0?AVG4tgrPlace@@@8 	 DATA
	??_R0?AVG4tgrPlaceDivRep@@@8 	 DATA
	??_R0?AVG4tgrPlaceParameterisation@@@8 	 DATA
	??_R0?AVG4tgrPlaceSimple@@@8 	 DATA
	??_R0?AVG4tgrSolid@@@8 	 DATA
	??_R0?AVG4tgrSolidBoolean@@@8 	 DATA
	??_R0?AVG4tgrVolume@@@8 	 DATA
	??_R0?AVG4tgrVolumeAssembly@@@8 	 DATA
	??_R0?AVG4tgrVolumeDivision@@@8 	 DATA
	??_R0?AVbad_alloc@std@@@8 	 DATA
	??_R0?AVbad_array_new_length@std@@@8 	 DATA
	??_R0?AVbad_cast@std@@@8 	 DATA
	??_R0?AVexception@std@@@8 	 DATA
	??_R0?AVios_base@std@@@8 	 DATA
	?_Psave@?$_Facetptr@V?$codecvt@DDU_Mbstatet@@@std@@@std@@2PEBVfacet@locale@2@EB 	 DATA
	?_Psave@?$_Facetptr@V?$ctype@D@std@@@std@@2PEBVfacet@locale@2@EB 	 DATA
	?_Stinit@?1??_Init@?$basic_filebuf@DU?$char_traits@D@std@@@std@@IEAAXPEAU_iobuf@@W4_Initfl@23@@Z@4U_Mbstatet@@A 	 DATA
	?f_G4VPDigitIO@G4VPDigitIO@@1PEAV1@EA 	 DATA
	?f_G4VPHitIO@G4VPHitIO@@1PEAV1@EA 	 DATA
	?f_thePointer@G4DCIOcatalog@@0PEAV1@EA 	 DATA
	?f_thePointer@G4HCIOcatalog@@0PEAV1@EA 	 DATA
	?f_thePointer@G4PersistencyCenter@@0PEAV1@EA 	 DATA
	?theEvaluator@G4tgrUtils@@0PEAVG4tgrEvaluator@@EA 	 DATA
	?theInstance@G4tgbGeometryDumper@@0PEAV1@EA 	 DATA
	?theInstance@G4tgbMaterialMgr@@0PEAV1@EA 	 DATA
	?theInstance@G4tgbRotationMatrixMgr@@0PEAV1@EA 	 DATA
	?theInstance@G4tgbVolumeMgr@@0PEAV1@EA 	 DATA
	?theInstance@G4tgrFileReader@@0PEAV1@EA 	 DATA
	?theInstance@G4tgrMaterialFactory@@0PEAV1@EA 	 DATA
	?theInstance@G4tgrParameterMgr@@0PEAV1@EA 	 DATA
	?theInstance@G4tgrRotationMatrixFactory@@0PEAV1@EA 	 DATA
	?theInstance@G4tgrVolumeMgr@@0PEAV1@EA 	 DATA
	?theInstances@G4tgrFileIn@@0PEAV?$vector@PEAVG4tgrFileIn@@V?$allocator@PEAVG4tgrFileIn@@@std@@@std@@EA 	 DATA
	?theVerboseLevel@G4tgrMessenger@@0HA 	 DATA
	??$?0$$QEAH$$Z$$V@?$pair@$$CBHV?$basic_string@DU?$char_traits@D@std@@V?$allocator@D@2@@std@@@std@@QEAA@Upiecewise_construct_t@1@V?$tuple@$$QEAH@1@V?$tuple@$$V@1@@Z
	??$?0$$QEAPEAVG4LogicalVolume@@$$Z$$V@?$pair@QEAVG4LogicalVolume@@PEAV1@@std@@QEAA@Upiecewise_construct_t@1@V?$tuple@$$QEAPEAVG4LogicalVolume@@@1@V?$tuple@$$V@1@@Z
	??$?0$$QEAV?$basic_string@DU?$char_traits@D@std@@V?$allocator@D@2@@std@@$$Z$$V@?$pair@$$CBV?$basic_string@DU?$char_traits@D@std@@V?$allocator@D@2@@std@@PEAVG4PersistencyManager@@@std@@QEAA@Upiecewise_construct_t@1@V?$tuple@$$QEAV?$basic_string@DU?$char_traits@D@std@@V?$allocator@D@2@@std@@@1@V?$tuple@$$V@1@@Z
	??$?0$$QEAV?$basic_string@DU?$char_traits@D@std@@V?$allocator@D@2@@std@@$$Z$$V@?$pair@$$CBV?$basic_string@DU?$char_traits@D@std@@V?$allocator@D@2@@std@@PEAVG4VDCIOentry@@@std@@QEAA@Upiecewise_construct_t@1@V?$tuple@$$QEAV?$basic_string@DU?$char_traits@D@std@@V?$allocator@D@2@@std@@@1@V?$tuple@$$V@1@@Z
	??$?0$$QEAV?$basic_string@DU?$char_traits@D@std@@V?$allocator@D@2@@std@@$$Z$$V@?$pair@$$CBV?$basic_string@DU?$char_traits@D@std@@V?$allocator@D@2@@std@@PEAVG4VHCIOentry@@@std@@QEAA@Upiecewise_construct_t@1@V?$tuple@$$QEAV?$basic_string@DU?$char_traits@D@std@@V?$allocator@D@2@@std@@@1@V?$tuple@$$V@1@@Z
	??$?0$$QEAV?$basic_string@DU?$char_traits@D@std@@V?$allocator@D@2@@std@@$$Z$$V@?$pair@$$CBV?$basic_string@DU?$char_traits@D@std@@V?$allocator@D@2@@std@@PEAVG4VPDigitsCollectionIO@@@std@@QEAA@Upiecewise_construct_t@1@V?$tuple@$$QEAV?$basic_string@DU?$char_traits@D@std@@V?$allocator@D@2@@std@@@1@V?$tuple@$$V@1@@Z
	??$?0$$QEAV?$basic_string@DU?$char_traits@D@std@@V?$allocator@D@2@@std@@$$Z$$V@?$pair@$$CBV?$basic_string@DU?$char_traits@D@std@@V?$allocator@D@2@@std@@PEAVG4VPHitsCollectionIO@@@std@@QEAA@Upiecewise_construct_t@1@V?$tuple@$$QEAV?$basic_string@DU?$char_traits@D@std@@V?$allocator@D@2@@std@@@1@V?$tuple@$$V@1@@Z
	??$?0$$QEAV?$basic_string@DU?$char_traits@D@std@@V?$allocator@D@2@@std@@$$Z$$V@?$pair@$$CBV?$basic_string@DU?$char_traits@D@std@@V?$allocator@D@2@@std@@W4StoreMode@@@std@@QEAA@Upiecewise_construct_t@1@V?$tuple@$$QEAV?$basic_string@DU?$char_traits@D@std@@V?$allocator@D@2@@std@@@1@V?$tuple@$$V@1@@Z
	??$?0$$QEAV?$basic_string@DU?$char_traits@D@std@@V?$allocator@D@2@@std@@$$Z$$V@?$pair@$$CBV?$basic_string@DU?$char_traits@D@std@@V?$allocator@D@2@@std@@_N@std@@QEAA@Upiecewise_construct_t@1@V?$tuple@$$QEAV?$basic_string@DU?$char_traits@D@std@@V?$allocator@D@2@@std@@@1@V?$tuple@$$V@1@@Z
	??$?0$$QEAVG4String@@$$Z$$V@?$pair@$$CBVG4String@@PEAVG4tgbRotationMatrix@@@std@@QEAA@Upiecewise_construct_t@1@V?$tuple@$$QEAVG4String@@@1@V?$tuple@$$V@1@@Z
	??$?0$$QEAVG4String@@$$Z$$V@?$pair@$$CBVG4String@@V?$set@HU?$less@H@std@@V?$allocator@H@2@@std@@@std@@QEAA@Upiecewise_construct_t@1@V?$tuple@$$QEAVG4String@@@1@V?$tuple@$$V@1@@Z
	??$?0AEBV?$basic_string@DU?$char_traits@D@std@@V?$allocator@D@2@@std@@$$Z$$V@?$pair@$$CBV?$basic_string@DU?$char_traits@D@std@@V?$allocator@D@2@@std@@PEAVG4PersistencyManager@@@std@@QEAA@Upiecewise_construct_t@1@V?$tuple@AEBV?$basic_string@DU?$char_traits@D@std@@V?$allocator@D@2@@std@@@1@V?$tuple@$$V@1@@Z
	??$?0AEBV?$basic_string@DU?$char_traits@D@std@@V?$allocator@D@2@@std@@$$Z$$V@?$pair@$$CBV?$basic_string@DU?$char_traits@D@std@@V?$allocator@D@2@@std@@PEAVG4VDCIOentry@@@std@@QEAA@Upiecewise_construct_t@1@V?$tuple@AEBV?$basic_string@DU?$char_traits@D@std@@V?$allocator@D@2@@std@@@1@V?$tuple@$$V@1@@Z
	??$?0AEBV?$basic_string@DU?$char_traits@D@std@@V?$allocator@D@2@@std@@$$Z$$V@?$pair@$$CBV?$basic_string@DU?$char_traits@D@std@@V?$allocator@D@2@@std@@PEAVG4VHCIOentry@@@std@@QEAA@Upiecewise_construct_t@1@V?$tuple@AEBV?$basic_string@DU?$char_traits@D@std@@V?$allocator@D@2@@std@@@1@V?$tuple@$$V@1@@Z
	??$?0AEBV?$basic_string@DU?$char_traits@D@std@@V?$allocator@D@2@@std@@$$Z$$V@?$pair@$$CBV?$basic_string@DU?$char_traits@D@std@@V?$allocator@D@2@@std@@PEAVG4VPDigitsCollectionIO@@@std@@QEAA@Upiecewise_construct_t@1@V?$tuple@AEBV?$basic_string@DU?$char_traits@D@std@@V?$allocator@D@2@@std@@@1@V?$tuple@$$V@1@@Z
	??$?0AEBV?$basic_string@DU?$char_traits@D@std@@V?$allocator@D@2@@std@@$$Z$$V@?$pair@$$CBV?$basic_string@DU?$char_traits@D@std@@V?$allocator@D@2@@std@@PEAVG4VPHitsCollectionIO@@@std@@QEAA@Upiecewise_construct_t@1@V?$tuple@AEBV?$basic_string@DU?$char_traits@D@std@@V?$allocator@D@2@@std@@@1@V?$tuple@$$V@1@@Z
	??$?0AEBV?$basic_string@DU?$char_traits@D@std@@V?$allocator@D@2@@std@@$$Z$$V@?$pair@$$CBV?$basic_string@DU?$char_traits@D@std@@V?$allocator@D@2@@std@@V12@@std@@QEAA@Upiecewise_construct_t@1@V?$tuple@AEBV?$basic_string@DU?$char_traits@D@std@@V?$allocator@D@2@@std@@@1@V?$tuple@$$V@1@@Z
	??$?0AEBV?$basic_string@DU?$char_traits@D@std@@V?$allocator@D@2@@std@@$$Z$$V@?$pair@$$CBV?$basic_string@DU?$char_traits@D@std@@V?$allocator@D@2@@std@@W4StoreMode@@@std@@QEAA@Upiecewise_construct_t@1@V?$tuple@AEBV?$basic_string@DU?$char_traits@D@std@@V?$allocator@D@2@@std@@@1@V?$tuple@$$V@1@@Z
	??$?0AEBV?$basic_string@DU?$char_traits@D@std@@V?$allocator@D@2@@std@@$$Z$$V@?$pair@$$CBV?$basic_string@DU?$char_traits@D@std@@V?$allocator@D@2@@std@@_N@std@@QEAA@Upiecewise_construct_t@1@V?$tuple@AEBV?$basic_string@DU?$char_traits@D@std@@V?$allocator@D@2@@std@@@1@V?$tuple@$$V@1@@Z
	??$?0AEBVG4String@@$$Z$$V@?$pair@$$CBVG4String@@PEAVG4Element@@@std@@QEAA@Upiecewise_construct_t@1@V?$tuple@AEBVG4String@@@1@V?$tuple@$$V@1@@Z
	??$?0AEBVG4String@@$$Z$$V@?$pair@$$CBVG4String@@PEAVG4Isotope@@@std@@QEAA@Upiecewise_construct_t@1@V?$tuple@AEBVG4String@@@1@V?$tuple@$$V@1@@Z
	??$?0AEBVG4String@@$$Z$$V@?$pair@$$CBVG4String@@PEAVG4LogicalVolume@@@std@@QEAA@Upiecewise_construct_t@1@V?$tuple@AEBVG4String@@@1@V?$tuple@$$V@1@@Z
	??$?0AEBVG4String@@$$Z$$V@?$pair@$$CBVG4String@@PEAVG4Material@@@std@@QEAA@Upiecewise_construct_t@1@V?$tuple@AEBVG4String@@@1@V?$tuple@$$V@1@@Z
	??$?0AEBVG4String@@$$Z$$V@?$pair@$$CBVG4String@@PEAVG4VPhysicalVolume@@@std@@QEAA@Upiecewise_construct_t@1@V?$tuple@AEBVG4String@@@1@V?$tuple@$$V@1@@Z
	??$?0AEBVG4String@@$$Z$$V@?$pair@$$CBVG4String@@PEAVG4VSolid@@@std@@QEAA@Upiecewise_construct_t@1@V?$tuple@AEBVG4String@@@1@V?$tuple@$$V@1@@Z
	??$?0AEBVG4String@@$$Z$$V@?$pair@$$CBVG4String@@PEAVG4tgbElement@@@std@@QEAA@Upiecewise_construct_t@1@V?$tuple@AEBVG4String@@@1@V?$tuple@$$V@1@@Z
	??$?0AEBVG4String@@$$Z$$V@?$pair@$$CBVG4String@@PEAVG4tgbIsotope@@@std@@QEAA@Upiecewise_construct_t@1@V?$tuple@AEBVG4String@@@1@V?$tuple@$$V@1@@Z
	??$?0AEBVG4String@@$$Z$$V@?$pair@$$CBVG4String@@PEAVG4tgbMaterial@@@std@@QEAA@Upiecewise_construct_t@1@V?$tuple@AEBVG4String@@@1@V?$tuple@$$V@1@@Z
	??$?0AEBVG4String@@$$Z$$V@?$pair@$$CBVG4String@@PEAVG4tgrElement@@@std@@QEAA@Upiecewise_construct_t@1@V?$tuple@AEBVG4String@@@1@V?$tuple@$$V@1@@Z
	??$?0AEBVG4String@@$$Z$$V@?$pair@$$CBVG4String@@PEAVG4tgrIsotope@@@std@@QEAA@Upiecewise_construct_t@1@V?$tuple@AEBVG4String@@@1@V?$tuple@$$V@1@@Z
	??$?0AEBVG4String@@$$Z$$V@?$pair@$$CBVG4String@@PEAVG4tgrMaterial@@@std@@QEAA@Upiecewise_construct_t@1@V?$tuple@AEBVG4String@@@1@V?$tuple@$$V@1@@Z
	??$?0AEBVG4String@@$$Z$$V@?$pair@$$CBVG4String@@PEAVG4tgrRotationMatrix@@@std@@QEAA@Upiecewise_construct_t@1@V?$tuple@AEBVG4String@@@1@V?$tuple@$$V@1@@Z
	??$?0AEBVG4String@@$$Z$$V@?$pair@$$CBVG4String@@PEAVHepRotation@CLHEP@@@std@@QEAA@Upiecewise_construct_t@1@V?$tuple@AEBVG4String@@@1@V?$tuple@$$V@1@@Z
	??$?0AEBVG4String@@$$Z$$V@?$pair@$$CBVG4String@@V1@@std@@QEAA@Upiecewise_construct_t@1@V?$tuple@AEBVG4String@@@1@V?$tuple@$$V@1@@Z
	??$?0V?$tuple@$$QEAH@std@@V?$tuple@$$V@1@$0A@$$Z$S@?$pair@$$CBHV?$basic_string@DU?$char_traits@D@std@@V?$allocator@D@2@@std@@@std@@QEAA@AEAV?$tuple@$$QEAH@1@AEAV?$tuple@$$V@1@U?$integer_sequence@_K$0A@@1@U?$integer_sequence@_K$S@1@@Z
	??$?0V?$tuple@$$QEAPEAVG4LogicalVolume@@@std@@V?$tuple@$$V@1@$0A@$$Z$S@?$pair@QEAVG4LogicalVolume@@PEAV1@@std@@QEAA@AEAV?$tuple@$$QEAPEAVG4LogicalVolume@@@1@AEAV?$tuple@$$V@1@U?$integer_sequence@_K$0A@@1@U?$integer_sequence@_K$S@1@@Z
	??$?0V?$tuple@$$QEAV?$basic_string@DU?$char_traits@D@std@@V?$allocator@D@2@@std@@@std@@V?$tuple@$$V@1@$0A@$$Z$S@?$pair@$$CBV?$basic_string@DU?$char_traits@D@std@@V?$allocator@D@2@@std@@PEAVG4PersistencyManager@@@std@@QEAA@AEAV?$tuple@$$QEAV?$basic_string@DU?$char_traits@D@std@@V?$allocator@D@2@@std@@@1@AEAV?$tuple@$$V@1@U?$integer_sequence@_K$0A@@1@U?$integer_sequence@_K$S@1@@Z
	??$?0V?$tuple@$$QEAV?$basic_string@DU?$char_traits@D@std@@V?$allocator@D@2@@std@@@std@@V?$tuple@$$V@1@$0A@$$Z$S@?$pair@$$CBV?$basic_string@DU?$char_traits@D@std@@V?$allocator@D@2@@std@@PEAVG4VDCIOentry@@@std@@QEAA@AEAV?$tuple@$$QEAV?$basic_string@DU?$char_traits@D@std@@V?$allocator@D@2@@std@@@1@AEAV?$tuple@$$V@1@U?$integer_sequence@_K$0A@@1@U?$integer_sequence@_K$S@1@@Z
	??$?0V?$tuple@$$QEAV?$basic_string@DU?$char_traits@D@std@@V?$allocator@D@2@@std@@@std@@V?$tuple@$$V@1@$0A@$$Z$S@?$pair@$$CBV?$basic_string@DU?$char_traits@D@std@@V?$allocator@D@2@@std@@PEAVG4VHCIOentry@@@std@@QEAA@AEAV?$tuple@$$QEAV?$basic_string@DU?$char_traits@D@std@@V?$allocator@D@2@@std@@@1@AEAV?$tuple@$$V@1@U?$integer_sequence@_K$0A@@1@U?$integer_sequence@_K$S@1@@Z
	??$?0V?$tuple@$$QEAV?$basic_string@DU?$char_traits@D@std@@V?$allocator@D@2@@std@@@std@@V?$tuple@$$V@1@$0A@$$Z$S@?$pair@$$CBV?$basic_string@DU?$char_traits@D@std@@V?$allocator@D@2@@std@@PEAVG4VPDigitsCollectionIO@@@std@@QEAA@AEAV?$tuple@$$QEAV?$basic_string@DU?$char_traits@D@std@@V?$allocator@D@2@@std@@@1@AEAV?$tuple@$$V@1@U?$integer_sequence@_K$0A@@1@U?$integer_sequence@_K$S@1@@Z
	??$?0V?$tuple@$$QEAV?$basic_string@DU?$char_traits@D@std@@V?$allocator@D@2@@std@@@std@@V?$tuple@$$V@1@$0A@$$Z$S@?$pair@$$CBV?$basic_string@DU?$char_traits@D@std@@V?$allocator@D@2@@std@@PEAVG4VPHitsCollectionIO@@@std@@QEAA@AEAV?$tuple@$$QEAV?$basic_string@DU?$char_traits@D@std@@V?$allocator@D@2@@std@@@1@AEAV?$tuple@$$V@1@U?$integer_sequence@_K$0A@@1@U?$integer_sequence@_K$S@1@@Z
	??$?0V?$tuple@$$QEAV?$basic_string@DU?$char_traits@D@std@@V?$allocator@D@2@@std@@@std@@V?$tuple@$$V@1@$0A@$$Z$S@?$pair@$$CBV?$basic_string@DU?$char_traits@D@std@@V?$allocator@D@2@@std@@W4StoreMode@@@std@@QEAA@AEAV?$tuple@$$QEAV?$basic_string@DU?$char_traits@D@std@@V?$allocator@D@2@@std@@@1@AEAV?$tuple@$$V@1@U?$integer_sequence@_K$0A@@1@U?$integer_sequence@_K$S@1@@Z
	??$?0V?$tuple@$$QEAV?$basic_string@DU?$char_traits@D@std@@V?$allocator@D@2@@std@@@std@@V?$tuple@$$V@1@$0A@$$Z$S@?$pair@$$CBV?$basic_string@DU?$char_traits@D@std@@V?$allocator@D@2@@std@@_N@std@@QEAA@AEAV?$tuple@$$QEAV?$basic_string@DU?$char_traits@D@std@@V?$allocator@D@2@@std@@@1@AEAV?$tuple@$$V@1@U?$integer_sequence@_K$0A@@1@U?$integer_sequence@_K$S@1@@Z
	??$?0V?$tuple@$$QEAVG4String@@@std@@V?$tuple@$$V@1@$0A@$$Z$S@?$pair@$$CBVG4String@@PEAVG4tgbRotationMatrix@@@std@@QEAA@AEAV?$tuple@$$QEAVG4String@@@1@AEAV?$tuple@$$V@1@U?$integer_sequence@_K$0A@@1@U?$integer_sequence@_K$S@1@@Z
	??$?0V?$tuple@$$QEAVG4String@@@std@@V?$tuple@$$V@1@$0A@$$Z$S@?$pair@$$CBVG4String@@V?$set@HU?$less@H@std@@V?$allocator@H@2@@std@@@std@@QEAA@AEAV?$tuple@$$QEAVG4String@@@1@AEAV?$tuple@$$V@1@U?$integer_sequence@_K$0A@@1@U?$integer_sequence@_K$S@1@@Z
	??$?0V?$tuple@AEBV?$basic_string@DU?$char_traits@D@std@@V?$allocator@D@2@@std@@@std@@V?$tuple@$$V@1@$0A@$$Z$S@?$pair@$$CBV?$basic_string@DU?$char_traits@D@std@@V?$allocator@D@2@@std@@PEAVG4PersistencyManager@@@std@@QEAA@AEAV?$tuple@AEBV?$basic_string@DU?$char_traits@D@std@@V?$allocator@D@2@@std@@@1@AEAV?$tuple@$$V@1@U?$integer_sequence@_K$0A@@1@U?$integer_sequence@_K$S@1@@Z
	??$?0V?$tuple@AEBV?$basic_string@DU?$char_traits@D@std@@V?$allocator@D@2@@std@@@std@@V?$tuple@$$V@1@$0A@$$Z$S@?$pair@$$CBV?$basic_string@DU?$char_traits@D@std@@V?$allocator@D@2@@std@@PEAVG4VDCIOentry@@@std@@QEAA@AEAV?$tuple@AEBV?$basic_string@DU?$char_traits@D@std@@V?$allocator@D@2@@std@@@1@AEAV?$tuple@$$V@1@U?$integer_sequence@_K$0A@@1@U?$integer_sequence@_K$S@1@@Z
	??$?0V?$tuple@AEBV?$basic_string@DU?$char_traits@D@std@@V?$allocator@D@2@@std@@@std@@V?$tuple@$$V@1@$0A@$$Z$S@?$pair@$$CBV?$basic_string@DU?$char_traits@D@std@@V?$allocator@D@2@@std@@PEAVG4VHCIOentry@@@std@@QEAA@AEAV?$tuple@AEBV?$basic_string@DU?$char_traits@D@std@@V?$allocator@D@2@@std@@@1@AEAV?$tuple@$$V@1@U?$integer_sequence@_K$0A@@1@U?$integer_sequence@_K$S@1@@Z
	??$?0V?$tuple@AEBV?$basic_string@DU?$char_traits@D@std@@V?$allocator@D@2@@std@@@std@@V?$tuple@$$V@1@$0A@$$Z$S@?$pair@$$CBV?$basic_string@DU?$char_traits@D@std@@V?$allocator@D@2@@std@@PEAVG4VPDigitsCollectionIO@@@std@@QEAA@AEAV?$tuple@AEBV?$basic_string@DU?$char_traits@D@std@@V?$allocator@D@2@@std@@@1@AEAV?$tuple@$$V@1@U?$integer_sequence@_K$0A@@1@U?$integer_sequence@_K$S@1@@Z
	??$?0V?$tuple@AEBV?$basic_string@DU?$char_traits@D@std@@V?$allocator@D@2@@std@@@std@@V?$tuple@$$V@1@$0A@$$Z$S@?$pair@$$CBV?$basic_string@DU?$char_traits@D@std@@V?$allocator@D@2@@std@@PEAVG4VPHitsCollectionIO@@@std@@QEAA@AEAV?$tuple@AEBV?$basic_string@DU?$char_traits@D@std@@V?$allocator@D@2@@std@@@1@AEAV?$tuple@$$V@1@U?$integer_sequence@_K$0A@@1@U?$integer_sequence@_K$S@1@@Z
	??$?0V?$tuple@AEBV?$basic_string@DU?$char_traits@D@std@@V?$allocator@D@2@@std@@@std@@V?$tuple@$$V@1@$0A@$$Z$S@?$pair@$$CBV?$basic_string@DU?$char_traits@D@std@@V?$allocator@D@2@@std@@V12@@std@@QEAA@AEAV?$tuple@AEBV?$basic_string@DU?$char_traits@D@std@@V?$allocator@D@2@@std@@@1@AEAV?$tuple@$$V@1@U?$integer_sequence@_K$0A@@1@U?$integer_sequence@_K$S@1@@Z
	??$?0V?$tuple@AEBV?$basic_string@DU?$char_traits@D@std@@V?$allocator@D@2@@std@@@std@@V?$tuple@$$V@1@$0A@$$Z$S@?$pair@$$CBV?$basic_string@DU?$char_traits@D@std@@V?$allocator@D@2@@std@@W4StoreMode@@@std@@QEAA@AEAV?$tuple@AEBV?$basic_string@DU?$char_traits@D@std@@V?$allocator@D@2@@std@@@1@AEAV?$tuple@$$V@1@U?$integer_sequence@_K$0A@@1@U?$integer_sequence@_K$S@1@@Z
	??$?0V?$tuple@AEBV?$basic_string@DU?$char_traits@D@std@@V?$allocator@D@2@@std@@@std@@V?$tuple@$$V@1@$0A@$$Z$S@?$pair@$$CBV?$basic_string@DU?$char_traits@D@std@@V?$allocator@D@2@@std@@_N@std@@QEAA@AEAV?$tuple@AEBV?$basic_string@DU?$char_traits@D@std@@V?$allocator@D@2@@std@@@1@AEAV?$tuple@$$V@1@U?$integer_sequence@_K$0A@@1@U?$integer_sequence@_K$S@1@@Z
	??$?0V?$tuple@AEBVG4String@@@std@@V?$tuple@$$V@1@$0A@$$Z$S@?$pair@$$CBVG4String@@PEAVG4Element@@@std@@QEAA@AEAV?$tuple@AEBVG4String@@@1@AEAV?$tuple@$$V@1@U?$integer_sequence@_K$0A@@1@U?$integer_sequence@_K$S@1@@Z
	??$?0V?$tuple@AEBVG4String@@@std@@V?$tuple@$$V@1@$0A@$$Z$S@?$pair@$$CBVG4String@@PEAVG4Isotope@@@std@@QEAA@AEAV?$tuple@AEBVG4String@@@1@AEAV?$tuple@$$V@1@U?$integer_sequence@_K$0A@@1@U?$integer_sequence@_K$S@1@@Z
	??$?0V?$tuple@AEBVG4String@@@std@@V?$tuple@$$V@1@$0A@$$Z$S@?$pair@$$CBVG4String@@PEAVG4LogicalVolume@@@std@@QEAA@AEAV?$tuple@AEBVG4String@@@1@AEAV?$tuple@$$V@1@U?$integer_sequence@_K$0A@@1@U?$integer_sequence@_K$S@1@@Z
	??$?0V?$tuple@AEBVG4String@@@std@@V?$tuple@$$V@1@$0A@$$Z$S@?$pair@$$CBVG4String@@PEAVG4Material@@@std@@QEAA@AEAV?$tuple@AEBVG4String@@@1@AEAV?$tuple@$$V@1@U?$integer_sequence@_K$0A@@1@U?$integer_sequence@_K$S@1@@Z
	??$?0V?$tuple@AEBVG4String@@@std@@V?$tuple@$$V@1@$0A@$$Z$S@?$pair@$$CBVG4String@@PEAVG4VPhysicalVolume@@@std@@QEAA@AEAV?$tuple@AEBVG4String@@@1@AEAV?$tuple@$$V@1@U?$integer_sequence@_K$0A@@1@U?$integer_sequence@_K$S@1@@Z
	??$?0V?$tuple@AEBVG4String@@@std@@V?$tuple@$$V@1@$0A@$$Z$S@?$pair@$$CBVG4String@@PEAVG4VSolid@@@std@@QEAA@AEAV?$tuple@AEBVG4String@@@1@AEAV?$tuple@$$V@1@U?$integer_sequence@_K$0A@@1@U?$integer_sequence@_K$S@1@@Z
	??$?0V?$tuple@AEBVG4String@@@std@@V?$tuple@$$V@1@$0A@$$Z$S@?$pair@$$CBVG4String@@PEAVG4tgbElement@@@std@@QEAA@AEAV?$tuple@AEBVG4String@@@1@AEAV?$tuple@$$V@1@U?$integer_sequence@_K$0A@@1@U?$integer_sequence@_K$S@1@@Z
	??$?0V?$tuple@AEBVG4String@@@std@@V?$tuple@$$V@1@$0A@$$Z$S@?$pair@$$CBVG4String@@PEAVG4tgbIsotope@@@std@@QEAA@AEAV?$tuple@AEBVG4String@@@1@AEAV?$tuple@$$V@1@U?$integer_sequence@_K$0A@@1@U?$integer_sequence@_K$S@1@@Z
	??$?0V?$tuple@AEBVG4String@@@std@@V?$tuple@$$V@1@$0A@$$Z$S@?$pair@$$CBVG4String@@PEAVG4tgbMaterial@@@std@@QEAA@AEAV?$tuple@AEBVG4String@@@1@AEAV?$tuple@$$V@1@U?$integer_sequence@_K$0A@@1@U?$integer_sequence@_K$S@1@@Z
	??$?0V?$tuple@AEBVG4String@@@std@@V?$tuple@$$V@1@$0A@$$Z$S@?$pair@$$CBVG4String@@PEAVG4tgrElement@@@std@@QEAA@AEAV?$tuple@AEBVG4String@@@1@AEAV?$tuple@$$V@1@U?$integer_sequence@_K$0A@@1@U?$integer_sequence@_K$S@1@@Z
	??$?0V?$tuple@AEBVG4String@@@std@@V?$tuple@$$V@1@$0A@$$Z$S@?$pair@$$CBVG4String@@PEAVG4tgrIsotope@@@std@@QEAA@AEAV?$tuple@AEBVG4String@@@1@AEAV?$tuple@$$V@1@U?$integer_sequence@_K$0A@@1@U?$integer_sequence@_K$S@1@@Z
	??$?0V?$tuple@AEBVG4String@@@std@@V?$tuple@$$V@1@$0A@$$Z$S@?$pair@$$CBVG4String@@PEAVG4tgrMaterial@@@std@@QEAA@AEAV?$tuple@AEBVG4String@@@1@AEAV?$tuple@$$V@1@U?$integer_sequence@_K$0A@@1@U?$integer_sequence@_K$S@1@@Z
	??$?0V?$tuple@AEBVG4String@@@std@@V?$tuple@$$V@1@$0A@$$Z$S@?$pair@$$CBVG4String@@PEAVG4tgrRotationMatrix@@@std@@QEAA@AEAV?$tuple@AEBVG4String@@@1@AEAV?$tuple@$$V@1@U?$integer_sequence@_K$0A@@1@U?$integer_sequence@_K$S@1@@Z
	??$?0V?$tuple@AEBVG4String@@@std@@V?$tuple@$$V@1@$0A@$$Z$S@?$pair@$$CBVG4String@@PEAVHepRotation@CLHEP@@@std@@QEAA@AEAV?$tuple@AEBVG4String@@@1@AEAV?$tuple@$$V@1@U?$integer_sequence@_K$0A@@1@U?$integer_sequence@_K$S@1@@Z
	??$?0V?$tuple@AEBVG4String@@@std@@V?$tuple@$$V@1@$0A@$$Z$S@?$pair@$$CBVG4String@@V1@@std@@QEAA@AEAV?$tuple@AEBVG4String@@@1@AEAV?$tuple@$$V@1@U?$integer_sequence@_K$0A@@1@U?$integer_sequence@_K$S@1@@Z
	??$?5DU?$char_traits@D@std@@V?$allocator@D@1@@std@@YAAEAV?$basic_istream@DU?$char_traits@D@std@@@0@$$QEAV10@AEAV?$basic_string@DU?$char_traits@D@std@@V?$allocator@D@2@@0@@Z
	??$?5DU?$char_traits@D@std@@V?$allocator@D@1@@std@@YAAEAV?$basic_istream@DU?$char_traits@D@std@@@0@AEAV10@AEAV?$basic_string@DU?$char_traits@D@std@@V?$allocator@D@2@@0@@Z
	??$?6DU?$char_traits@D@std@@V?$allocator@D@1@@std@@YAAEAV?$basic_ostream@DU?$char_traits@D@std@@@0@AEAV10@AEBV?$basic_string@DU?$char_traits@D@std@@V?$allocator@D@2@@0@@Z
	??$?6DU?$char_traits@D@std@@_J@std@@YAAEAV?$basic_ostream@DU?$char_traits@D@std@@@0@AEAV10@AEBU?$_Smanip@_J@0@@Z
	??$?6U?$char_traits@D@std@@@std@@YAAEAV?$basic_ostream@DU?$char_traits@D@std@@@0@AEAV10@D@Z
	??$?6U?$char_traits@D@std@@@std@@YAAEAV?$basic_ostream@DU?$char_traits@D@std@@@0@AEAV10@PEBD@Z
	??$?8DU?$char_traits@D@std@@V?$allocator@D@1@@std@@YA_NAEBV?$basic_string@DU?$char_traits@D@std@@V?$allocator@D@2@@0@0@Z
	??$?8DU?$char_traits@D@std@@V?$allocator@D@1@@std@@YA_NAEBV?$basic_string@DU?$char_traits@D@std@@V?$allocator@D@2@@0@QEBD@Z
	??$?9DU?$char_traits@D@std@@V?$allocator@D@1@@std@@YA_NAEBV?$basic_string@DU?$char_traits@D@std@@V?$allocator@D@2@@0@QEBD@Z
	??$?HDU?$char_traits@D@std@@V?$allocator@D@1@@std@@YA?AV?$basic_string@DU?$char_traits@D@std@@V?$allocator@D@2@@0@$$QEAV10@0@Z
	??$?HDU?$char_traits@D@std@@V?$allocator@D@1@@std@@YA?AV?$basic_string@DU?$char_traits@D@std@@V?$allocator@D@2@@0@$$QEAV10@AEBV10@@Z
	??$?HDU?$char_traits@D@std@@V?$allocator@D@1@@std@@YA?AV?$basic_string@DU?$char_traits@D@std@@V?$allocator@D@2@@0@$$QEAV10@QEBD@Z
	??$?HDU?$char_traits@D@std@@V?$allocator@D@1@@std@@YA?AV?$basic_string@DU?$char_traits@D@std@@V?$allocator@D@2@@0@AEBV10@$$QEAV10@@Z
	??$?HDU?$char_traits@D@std@@V?$allocator@D@1@@std@@YA?AV?$basic_string@DU?$char_traits@D@std@@V?$allocator@D@2@@0@AEBV10@0@Z
	??$?HDU?$char_traits@D@std@@V?$allocator@D@1@@std@@YA?AV?$basic_string@DU?$char_traits@D@std@@V?$allocator@D@2@@0@AEBV10@QEBD@Z
	??$?HDU?$char_traits@D@std@@V?$allocator@D@1@@std@@YA?AV?$basic_string@DU?$char_traits@D@std@@V?$allocator@D@2@@0@QEBD$$QEAV10@@Z
	??$?HDU?$char_traits@D@std@@V?$allocator@D@1@@std@@YA?AV?$basic_string@DU?$char_traits@D@std@@V?$allocator@D@2@@0@QEBDAEBV10@@Z
	??$?MDU?$char_traits@D@std@@V?$allocator@D@1@@std@@YA_NAEBV?$basic_string@DU?$char_traits@D@std@@V?$allocator@D@2@@0@0@Z
	??$GetObjectName@VG4Element@@@G4tgbGeometryDumper@@AEAA?AVG4String@@PEAVG4Element@@V?$map@VG4String@@PEAVG4Element@@U?$less@VG4String@@@std@@V?$allocator@U?$pair@$$CBVG4String@@PEAVG4Element@@@std@@@4@@std@@@Z
	??$GetObjectName@VG4Isotope@@@G4tgbGeometryDumper@@AEAA?AVG4String@@PEAVG4Isotope@@V?$map@VG4String@@PEAVG4Isotope@@U?$less@VG4String@@@std@@V?$allocator@U?$pair@$$CBVG4String@@PEAVG4Isotope@@@std@@@4@@std@@@Z
	??$GetObjectName@VG4LogicalVolume@@@G4tgbGeometryDumper@@AEAA?AVG4String@@PEAVG4LogicalVolume@@V?$map@VG4String@@PEAVG4LogicalVolume@@U?$less@VG4String@@@std@@V?$allocator@U?$pair@$$CBVG4String@@PEAVG4LogicalVolume@@@std@@@4@@std@@@Z
	??$GetObjectName@VG4Material@@@G4tgbGeometryDumper@@AEAA?AVG4String@@PEAVG4Material@@V?$map@VG4String@@PEAVG4Material@@U?$less@VG4String@@@std@@V?$allocator@U?$pair@$$CBVG4String@@PEAVG4Material@@@std@@@4@@std@@@Z
	??$GetObjectName@VG4VSolid@@@G4tgbGeometryDumper@@AEAA?AVG4String@@PEAVG4VSolid@@V?$map@VG4String@@PEAVG4VSolid@@U?$less@VG4String@@@std@@V?$allocator@U?$pair@$$CBVG4String@@PEAVG4VSolid@@@std@@@4@@std@@@Z
	??$_Allocate@$0BA@U_Default_allocate_traits@std@@$0A@@std@@YAPEAX_K@Z
	??$_Allocate_manually_vector_aligned@U_Default_allocate_traits@std@@@std@@YAPEAX_K@Z
	??$_Assign_range@PEAVG4String@@@?$vector@VG4String@@V?$allocator@VG4String@@@std@@@std@@AEAAXPEAVG4String@@0Uforward_iterator_tag@1@@Z
	??$_Construct_in_place@PEADAEBQEAD@std@@YAXAEAPEADAEBQEAD@Z
	??$_Construct_in_place@PEAU?$_Tree_node@HPEAX@std@@AEAPEAU12@@std@@YAXAEAPEAU?$_Tree_node@HPEAX@0@0@Z
	??$_Construct_in_place@PEAU?$_Tree_node@HPEAX@std@@AEBQEAU12@@std@@YAXAEAPEAU?$_Tree_node@HPEAX@0@AEBQEAU10@@Z
	??$_Construct_in_place@PEAU?$_Tree_node@U?$pair@$$CBHPEAVG4MCTSimParticle@@@std@@PEAX@std@@AEAPEAU12@@std@@YAXAEAPEAU?$_Tree_node@U?$pair@$$CBHPEAVG4MCTSimParticle@@@std@@PEAX@0@0@Z
	??$_Construct_in_place@PEAU?$_Tree_node@U?$pair@$$CBHPEAVG4MCTSimParticle@@@std@@PEAX@std@@AEBQEAU12@@std@@YAXAEAPEAU?$_Tree_node@U?$pair@$$CBHPEAVG4MCTSimParticle@@@std@@PEAX@0@AEBQEAU10@@Z
	??$_Construct_in_place@PEAU?$_Tree_node@U?$pair@$$CBHV?$basic_string@DU?$char_traits@D@std@@V?$allocator@D@2@@std@@@std@@PEAX@std@@AEAPEAU12@@std@@YAXAEAPEAU?$_Tree_node@U?$pair@$$CBHV?$basic_string@DU?$char_traits@D@std@@V?$allocator@D@2@@std@@@std@@PEAX@0@0@Z
	??$_Construct_in_place@PEAU?$_Tree_node@U?$pair@$$CBHV?$basic_string@DU?$char_traits@D@std@@V?$allocator@D@2@@std@@@std@@PEAX@std@@AEBQEAU12@@std@@YAXAEAPEAU?$_Tree_node@U?$pair@$$CBHV?$basic_string@DU?$char_traits@D@std@@V?$allocator@D@2@@std@@@std@@PEAX@0@AEBQEAU10@@Z
	??$_Construct_in_place@PEAU?$_Tree_node@U?$pair@$$CBU?$pair@PEAXPEAX@std@@PEAVG4MCTSimParticle@@@std@@PEAX@std@@AEAPEAU12@@std@@YAXAEAPEAU?$_Tree_node@U?$pair@$$CBU?$pair@PEAXPEAX@std@@PEAVG4MCTSimParticle@@@std@@PEAX@0@0@Z
	??$_Construct_in_place@PEAU?$_Tree_node@U?$pair@$$CBU?$pair@PEAXPEAX@std@@PEAVG4MCTSimParticle@@@std@@PEAX@std@@AEBQEAU12@@std@@YAXAEAPEAU?$_Tree_node@U?$pair@$$CBU?$pair@PEAXPEAX@std@@PEAVG4MCTSimParticle@@@std@@PEAX@0@AEBQEAU10@@Z
	??$_Construct_in_place@PEAU?$_Tree_node@U?$pair@$$CBV?$basic_string@DU?$char_traits@D@std@@V?$allocator@D@2@@std@@PEAVG4PersistencyManager@@@std@@PEAX@std@@AEAPEAU12@@std@@YAXAEAPEAU?$_Tree_node@U?$pair@$$CBV?$basic_string@DU?$char_traits@D@std@@V?$allocator@D@2@@std@@PEAVG4PersistencyManager@@@std@@PEAX@0@0@Z
	??$_Construct_in_place@PEAU?$_Tree_node@U?$pair@$$CBV?$basic_string@DU?$char_traits@D@std@@V?$allocator@D@2@@std@@PEAVG4PersistencyManager@@@std@@PEAX@std@@AEBQEAU12@@std@@YAXAEAPEAU?$_Tree_node@U?$pair@$$CBV?$basic_string@DU?$char_traits@D@std@@V?$allocator@D@2@@std@@PEAVG4PersistencyManager@@@std@@PEAX@0@AEBQEAU10@@Z
	??$_Construct_in_place@PEAU?$_Tree_node@U?$pair@$$CBV?$basic_string@DU?$char_traits@D@std@@V?$allocator@D@2@@std@@PEAVG4VDCIOentry@@@std@@PEAX@std@@AEAPEAU12@@std@@YAXAEAPEAU?$_Tree_node@U?$pair@$$CBV?$basic_string@DU?$char_traits@D@std@@V?$allocator@D@2@@std@@PEAVG4VDCIOentry@@@std@@PEAX@0@0@Z
	??$_Construct_in_place@PEAU?$_Tree_node@U?$pair@$$CBV?$basic_string@DU?$char_traits@D@std@@V?$allocator@D@2@@std@@PEAVG4VDCIOentry@@@std@@PEAX@std@@AEBQEAU12@@std@@YAXAEAPEAU?$_Tree_node@U?$pair@$$CBV?$basic_string@DU?$char_traits@D@std@@V?$allocator@D@2@@std@@PEAVG4VDCIOentry@@@std@@PEAX@0@AEBQEAU10@@Z
	??$_Construct_in_place@PEAU?$_Tree_node@U?$pair@$$CBV?$basic_string@DU?$char_traits@D@std@@V?$allocator@D@2@@std@@PEAVG4VHCIOentry@@@std@@PEAX@std@@AEAPEAU12@@std@@YAXAEAPEAU?$_Tree_node@U?$pair@$$CBV?$basic_string@DU?$char_traits@D@std@@V?$allocator@D@2@@std@@PEAVG4VHCIOentry@@@std@@PEAX@0@0@Z
	??$_Construct_in_place@PEAU?$_Tree_node@U?$pair@$$CBV?$basic_string@DU?$char_traits@D@std@@V?$allocator@D@2@@std@@PEAVG4VHCIOentry@@@std@@PEAX@std@@AEBQEAU12@@std@@YAXAEAPEAU?$_Tree_node@U?$pair@$$CBV?$basic_string@DU?$char_traits@D@std@@V?$allocator@D@2@@std@@PEAVG4VHCIOentry@@@std@@PEAX@0@AEBQEAU10@@Z
	??$_Construct_in_place@PEAU?$_Tree_node@U?$pair@$$CBV?$basic_string@DU?$char_traits@D@std@@V?$allocator@D@2@@std@@PEAVG4VPDigitsCollectionIO@@@std@@PEAX@std@@AEAPEAU12@@std@@YAXAEAPEAU?$_Tree_node@U?$pair@$$CBV?$basic_string@DU?$char_traits@D@std@@V?$allocator@D@2@@std@@PEAVG4VPDigitsCollectionIO@@@std@@PEAX@0@0@Z
	??$_Construct_in_place@PEAU?$_Tree_node@U?$pair@$$CBV?$basic_string@DU?$char_traits@D@std@@V?$allocator@D@2@@std@@PEAVG4VPDigitsCollectionIO@@@std@@PEAX@std@@AEBQEAU12@@std@@YAXAEAPEAU?$_Tree_node@U?$pair@$$CBV?$basic_string@DU?$char_traits@D@std@@V?$allocator@D@2@@std@@PEAVG4VPDigitsCollectionIO@@@std@@PEAX@0@AEBQEAU10@@Z
	??$_Construct_in_place@PEAU?$_Tree_node@U?$pair@$$CBV?$basic_string@DU?$char_traits@D@std@@V?$allocator@D@2@@std@@PEAVG4VPHitsCollectionIO@@@std@@PEAX@std@@AEAPEAU12@@std@@YAXAEAPEAU?$_Tree_node@U?$pair@$$CBV?$basic_string@DU?$char_traits@D@std@@V?$allocator@D@2@@std@@PEAVG4VPHitsCollectionIO@@@std@@PEAX@0@0@Z
	??$_Construct_in_place@PEAU?$_Tree_node@U?$pair@$$CBV?$basic_string@DU?$char_traits@D@std@@V?$allocator@D@2@@std@@PEAVG4VPHitsCollectionIO@@@std@@PEAX@std@@AEBQEAU12@@std@@YAXAEAPEAU?$_Tree_node@U?$pair@$$CBV?$basic_string@DU?$char_traits@D@std@@V?$allocator@D@2@@std@@PEAVG4VPHitsCollectionIO@@@std@@PEAX@0@AEBQEAU10@@Z
	??$_Construct_in_place@PEAU?$_Tree_node@U?$pair@$$CBV?$basic_string@DU?$char_traits@D@std@@V?$allocator@D@2@@std@@V12@@std@@PEAX@std@@AEAPEAU12@@std@@YAXAEAPEAU?$_Tree_node@U?$pair@$$CBV?$basic_string@DU?$char_traits@D@std@@V?$allocator@D@2@@std@@V12@@std@@PEAX@0@0@Z
	??$_Construct_in_place@PEAU?$_Tree_node@U?$pair@$$CBV?$basic_string@DU?$char_traits@D@std@@V?$allocator@D@2@@std@@V12@@std@@PEAX@std@@AEBQEAU12@@std@@YAXAEAPEAU?$_Tree_node@U?$pair@$$CBV?$basic_string@DU?$char_traits@D@std@@V?$allocator@D@2@@std@@V12@@std@@PEAX@0@AEBQEAU10@@Z
	??$_Construct_in_place@PEAU?$_Tree_node@U?$pair@$$CBV?$basic_string@DU?$char_traits@D@std@@V?$allocator@D@2@@std@@W4StoreMode@@@std@@PEAX@std@@AEAPEAU12@@std@@YAXAEAPEAU?$_Tree_node@U?$pair@$$CBV?$basic_string@DU?$char_traits@D@std@@V?$allocator@D@2@@std@@W4StoreMode@@@std@@PEAX@0@0@Z
	??$_Construct_in_place@PEAU?$_Tree_node@U?$pair@$$CBV?$basic_string@DU?$char_traits@D@std@@V?$allocator@D@2@@std@@W4StoreMode@@@std@@PEAX@std@@AEBQEAU12@@std@@YAXAEAPEAU?$_Tree_node@U?$pair@$$CBV?$basic_string@DU?$char_traits@D@std@@V?$allocator@D@2@@std@@W4StoreMode@@@std@@PEAX@0@AEBQEAU10@@Z
	??$_Construct_in_place@PEAU?$_Tree_node@U?$pair@$$CBV?$basic_string@DU?$char_traits@D@std@@V?$allocator@D@2@@std@@_N@std@@PEAX@std@@AEAPEAU12@@std@@YAXAEAPEAU?$_Tree_node@U?$pair@$$CBV?$basic_string@DU?$char_traits@D@std@@V?$allocator@D@2@@std@@_N@std@@PEAX@0@0@Z
	??$_Construct_in_place@PEAU?$_Tree_node@U?$pair@$$CBV?$basic_string@DU?$char_traits@D@std@@V?$allocator@D@2@@std@@_N@std@@PEAX@std@@AEBQEAU12@@std@@YAXAEAPEAU?$_Tree_node@U?$pair@$$CBV?$basic_string@DU?$char_traits@D@std@@V?$allocator@D@2@@std@@_N@std@@PEAX@0@AEBQEAU10@@Z
	??$_Construct_in_place@PEAU?$_Tree_node@U?$pair@$$CBVG4String@@PEAVG4Element@@@std@@PEAX@std@@AEAPEAU12@@std@@YAXAEAPEAU?$_Tree_node@U?$pair@$$CBVG4String@@PEAVG4Element@@@std@@PEAX@0@0@Z
	??$_Construct_in_place@PEAU?$_Tree_node@U?$pair@$$CBVG4String@@PEAVG4Element@@@std@@PEAX@std@@AEBQEAU12@@std@@YAXAEAPEAU?$_Tree_node@U?$pair@$$CBVG4String@@PEAVG4Element@@@std@@PEAX@0@AEBQEAU10@@Z
	??$_Construct_in_place@PEAU?$_Tree_node@U?$pair@$$CBVG4String@@PEAVG4Isotope@@@std@@PEAX@std@@AEAPEAU12@@std@@YAXAEAPEAU?$_Tree_node@U?$pair@$$CBVG4String@@PEAVG4Isotope@@@std@@PEAX@0@0@Z
	??$_Construct_in_place@PEAU?$_Tree_node@U?$pair@$$CBVG4String@@PEAVG4Isotope@@@std@@PEAX@std@@AEBQEAU12@@std@@YAXAEAPEAU?$_Tree_node@U?$pair@$$CBVG4String@@PEAVG4Isotope@@@std@@PEAX@0@AEBQEAU10@@Z
	??$_Construct_in_place@PEAU?$_Tree_node@U?$pair@$$CBVG4String@@PEAVG4LogicalVolume@@@std@@PEAX@std@@AEAPEAU12@@std@@YAXAEAPEAU?$_Tree_node@U?$pair@$$CBVG4String@@PEAVG4LogicalVolume@@@std@@PEAX@0@0@Z
	??$_Construct_in_place@PEAU?$_Tree_node@U?$pair@$$CBVG4String@@PEAVG4LogicalVolume@@@std@@PEAX@std@@AEBQEAU12@@std@@YAXAEAPEAU?$_Tree_node@U?$pair@$$CBVG4String@@PEAVG4LogicalVolume@@@std@@PEAX@0@AEBQEAU10@@Z
	??$_Construct_in_place@PEAU?$_Tree_node@U?$pair@$$CBVG4String@@PEAVG4Material@@@std@@PEAX@std@@AEAPEAU12@@std@@YAXAEAPEAU?$_Tree_node@U?$pair@$$CBVG4String@@PEAVG4Material@@@std@@PEAX@0@0@Z
	??$_Construct_in_place@PEAU?$_Tree_node@U?$pair@$$CBVG4String@@PEAVG4Material@@@std@@PEAX@std@@AEBQEAU12@@std@@YAXAEAPEAU?$_Tree_node@U?$pair@$$CBVG4String@@PEAVG4Material@@@std@@PEAX@0@AEBQEAU10@@Z
	??$_Construct_in_place@PEAU?$_Tree_node@U?$pair@$$CBVG4String@@PEAVG4VPhysicalVolume@@@std@@PEAX@std@@AEAPEAU12@@std@@YAXAEAPEAU?$_Tree_node@U?$pair@$$CBVG4String@@PEAVG4VPhysicalVolume@@@std@@PEAX@0@0@Z
	??$_Construct_in_place@PEAU?$_Tree_node@U?$pair@$$CBVG4String@@PEAVG4VPhysicalVolume@@@std@@PEAX@std@@AEBQEAU12@@std@@YAXAEAPEAU?$_Tree_node@U?$pair@$$CBVG4String@@PEAVG4VPhysicalVolume@@@std@@PEAX@0@AEBQEAU10@@Z
	??$_Construct_in_place@PEAU?$_Tree_node@U?$pair@$$CBVG4String@@PEAVG4VSolid@@@std@@PEAX@std@@AEAPEAU12@@std@@YAXAEAPEAU?$_Tree_node@U?$pair@$$CBVG4String@@PEAVG4VSolid@@@std@@PEAX@0@0@Z
	??$_Construct_in_place@PEAU?$_Tree_node@U?$pair@$$CBVG4String@@PEAVG4VSolid@@@std@@PEAX@std@@AEBQEAU12@@std@@YAXAEAPEAU?$_Tree_node@U?$pair@$$CBVG4String@@PEAVG4VSolid@@@std@@PEAX@0@AEBQEAU10@@Z
	??$_Construct_in_place@PEAU?$_Tree_node@U?$pair@$$CBVG4String@@PEAVG4tgbElement@@@std@@PEAX@std@@AEAPEAU12@@std@@YAXAEAPEAU?$_Tree_node@U?$pair@$$CBVG4String@@PEAVG4tgbElement@@@std@@PEAX@0@0@Z
	??$_Construct_in_place@PEAU?$_Tree_node@U?$pair@$$CBVG4String@@PEAVG4tgbElement@@@std@@PEAX@std@@AEBQEAU12@@std@@YAXAEAPEAU?$_Tree_node@U?$pair@$$CBVG4String@@PEAVG4tgbElement@@@std@@PEAX@0@AEBQEAU10@@Z
	??$_Construct_in_place@PEAU?$_Tree_node@U?$pair@$$CBVG4String@@PEAVG4tgbIsotope@@@std@@PEAX@std@@AEAPEAU12@@std@@YAXAEAPEAU?$_Tree_node@U?$pair@$$CBVG4String@@PEAVG4tgbIsotope@@@std@@PEAX@0@0@Z
	??$_Construct_in_place@PEAU?$_Tree_node@U?$pair@$$CBVG4String@@PEAVG4tgbIsotope@@@std@@PEAX@std@@AEBQEAU12@@std@@YAXAEAPEAU?$_Tree_node@U?$pair@$$CBVG4String@@PEAVG4tgbIsotope@@@std@@PEAX@0@AEBQEAU10@@Z
	??$_Construct_in_place@PEAU?$_Tree_node@U?$pair@$$CBVG4String@@PEAVG4tgbMaterial@@@std@@PEAX@std@@AEAPEAU12@@std@@YAXAEAPEAU?$_Tree_node@U?$pair@$$CBVG4String@@PEAVG4tgbMaterial@@@std@@PEAX@0@0@Z
	??$_Construct_in_place@PEAU?$_Tree_node@U?$pair@$$CBVG4String@@PEAVG4tgbMaterial@@@std@@PEAX@std@@AEBQEAU12@@std@@YAXAEAPEAU?$_Tree_node@U?$pair@$$CBVG4String@@PEAVG4tgbMaterial@@@std@@PEAX@0@AEBQEAU10@@Z
	??$_Construct_in_place@PEAU?$_Tree_node@U?$pair@$$CBVG4String@@PEAVG4tgbRotationMatrix@@@std@@PEAX@std@@AEAPEAU12@@std@@YAXAEAPEAU?$_Tree_node@U?$pair@$$CBVG4String@@PEAVG4tgbRotationMatrix@@@std@@PEAX@0@0@Z
	??$_Construct_in_place@PEAU?$_Tree_node@U?$pair@$$CBVG4String@@PEAVG4tgbRotationMatrix@@@std@@PEAX@std@@AEBQEAU12@@std@@YAXAEAPEAU?$_Tree_node@U?$pair@$$CBVG4String@@PEAVG4tgbRotationMatrix@@@std@@PEAX@0@AEBQEAU10@@Z
	??$_Construct_in_place@PEAU?$_Tree_node@U?$pair@$$CBVG4String@@PEAVG4tgbVolume@@@std@@PEAX@std@@AEAPEAU12@@std@@YAXAEAPEAU?$_Tree_node@U?$pair@$$CBVG4String@@PEAVG4tgbVolume@@@std@@PEAX@0@0@Z
	??$_Construct_in_place@PEAU?$_Tree_node@U?$pair@$$CBVG4String@@PEAVG4tgbVolume@@@std@@PEAX@std@@AEBQEAU12@@std@@YAXAEAPEAU?$_Tree_node@U?$pair@$$CBVG4String@@PEAVG4tgbVolume@@@std@@PEAX@0@AEBQEAU10@@Z
	??$_Construct_in_place@PEAU?$_Tree_node@U?$pair@$$CBVG4String@@PEAVG4tgrElement@@@std@@PEAX@std@@AEAPEAU12@@std@@YAXAEAPEAU?$_Tree_node@U?$pair@$$CBVG4String@@PEAVG4tgrElement@@@std@@PEAX@0@0@Z
	??$_Construct_in_place@PEAU?$_Tree_node@U?$pair@$$CBVG4String@@PEAVG4tgrElement@@@std@@PEAX@std@@AEBQEAU12@@std@@YAXAEAPEAU?$_Tree_node@U?$pair@$$CBVG4String@@PEAVG4tgrElement@@@std@@PEAX@0@AEBQEAU10@@Z
	??$_Construct_in_place@PEAU?$_Tree_node@U?$pair@$$CBVG4String@@PEAVG4tgrIsotope@@@std@@PEAX@std@@AEAPEAU12@@std@@YAXAEAPEAU?$_Tree_node@U?$pair@$$CBVG4String@@PEAVG4tgrIsotope@@@std@@PEAX@0@0@Z
	??$_Construct_in_place@PEAU?$_Tree_node@U?$pair@$$CBVG4String@@PEAVG4tgrIsotope@@@std@@PEAX@std@@AEBQEAU12@@std@@YAXAEAPEAU?$_Tree_node@U?$pair@$$CBVG4String@@PEAVG4tgrIsotope@@@std@@PEAX@0@AEBQEAU10@@Z
	??$_Construct_in_place@PEAU?$_Tree_node@U?$pair@$$CBVG4String@@PEAVG4tgrMaterial@@@std@@PEAX@std@@AEAPEAU12@@std@@YAXAEAPEAU?$_Tree_node@U?$pair@$$CBVG4String@@PEAVG4tgrMaterial@@@std@@PEAX@0@0@Z
	??$_Construct_in_place@PEAU?$_Tree_node@U?$pair@$$CBVG4String@@PEAVG4tgrMaterial@@@std@@PEAX@std@@AEBQEAU12@@std@@YAXAEAPEAU?$_Tree_node@U?$pair@$$CBVG4String@@PEAVG4tgrMaterial@@@std@@PEAX@0@AEBQEAU10@@Z
	??$_Construct_in_place@PEAU?$_Tree_node@U?$pair@$$CBVG4String@@PEAVG4tgrRotationMatrix@@@std@@PEAX@std@@AEAPEAU12@@std@@YAXAEAPEAU?$_Tree_node@U?$pair@$$CBVG4String@@PEAVG4tgrRotationMatrix@@@std@@PEAX@0@0@Z
	??$_Construct_in_place@PEAU?$_Tree_node@U?$pair@$$CBVG4String@@PEAVG4tgrRotationMatrix@@@std@@PEAX@std@@AEBQEAU12@@std@@YAXAEAPEAU?$_Tree_node@U?$pair@$$CBVG4String@@PEAVG4tgrRotationMatrix@@@std@@PEAX@0@AEBQEAU10@@Z
	??$_Construct_in_place@PEAU?$_Tree_node@U?$pair@$$CBVG4String@@PEAVG4tgrSolid@@@std@@PEAX@std@@AEAPEAU12@@std@@YAXAEAPEAU?$_Tree_node@U?$pair@$$CBVG4String@@PEAVG4tgrSolid@@@std@@PEAX@0@0@Z
	??$_Construct_in_place@PEAU?$_Tree_node@U?$pair@$$CBVG4String@@PEAVG4tgrSolid@@@std@@PEAX@std@@AEBQEAU12@@std@@YAXAEAPEAU?$_Tree_node@U?$pair@$$CBVG4String@@PEAVG4tgrSolid@@@std@@PEAX@0@AEBQEAU10@@Z
	??$_Construct_in_place@PEAU?$_Tree_node@U?$pair@$$CBVG4String@@PEAVG4tgrVolume@@@std@@PEAX@std@@AEAPEAU12@@std@@YAXAEAPEAU?$_Tree_node@U?$pair@$$CBVG4String@@PEAVG4tgrVolume@@@std@@PEAX@0@0@Z
	??$_Construct_in_place@PEAU?$_Tree_node@U?$pair@$$CBVG4String@@PEAVG4tgrVolume@@@std@@PEAX@std@@AEBQEAU12@@std@@YAXAEAPEAU?$_Tree_node@U?$pair@$$CBVG4String@@PEAVG4tgrVolume@@@std@@PEAX@0@AEBQEAU10@@Z
	??$_Construct_in_place@PEAU?$_Tree_node@U?$pair@$$CBVG4String@@PEAVHepRotation@CLHEP@@@std@@PEAX@std@@AEAPEAU12@@std@@YAXAEAPEAU?$_Tree_node@U?$pair@$$CBVG4String@@PEAVHepRotation@CLHEP@@@std@@PEAX@0@0@Z
	??$_Construct_in_place@PEAU?$_Tree_node@U?$pair@$$CBVG4String@@PEAVHepRotation@CLHEP@@@std@@PEAX@std@@AEBQEAU12@@std@@YAXAEAPEAU?$_Tree_node@U?$pair@$$CBVG4String@@PEAVHepRotation@CLHEP@@@std@@PEAX@0@AEBQEAU10@@Z
	??$_Construct_in_place@PEAU?$_Tree_node@U?$pair@$$CBVG4String@@PEBVG4tgrPlace@@@std@@PEAX@std@@AEAPEAU12@@std@@YAXAEAPEAU?$_Tree_node@U?$pair@$$CBVG4String@@PEBVG4tgrPlace@@@std@@PEAX@0@0@Z
	??$_Construct_in_place@PEAU?$_Tree_node@U?$pair@$$CBVG4String@@PEBVG4tgrPlace@@@std@@PEAX@std@@AEBQEAU12@@std@@YAXAEAPEAU?$_Tree_node@U?$pair@$$CBVG4String@@PEBVG4tgrPlace@@@std@@PEAX@0@AEBQEAU10@@Z
	??$_Construct_in_place@PEAU?$_Tree_node@U?$pair@$$CBVG4String@@V1@@std@@PEAX@std@@AEAPEAU12@@std@@YAXAEAPEAU?$_Tree_node@U?$pair@$$CBVG4String@@V1@@std@@PEAX@0@0@Z
	??$_Construct_in_place@PEAU?$_Tree_node@U?$pair@$$CBVG4String@@V1@@std@@PEAX@std@@AEBQEAU12@@std@@YAXAEAPEAU?$_Tree_node@U?$pair@$$CBVG4String@@V1@@std@@PEAX@0@AEBQEAU10@@Z
	??$_Construct_in_place@PEAU?$_Tree_node@U?$pair@$$CBVG4String@@V?$set@HU?$less@H@std@@V?$allocator@H@2@@std@@@std@@PEAX@std@@AEAPEAU12@@std@@YAXAEAPEAU?$_Tree_node@U?$pair@$$CBVG4String@@V?$set@HU?$less@H@std@@V?$allocator@H@2@@std@@@std@@PEAX@0@0@Z
	??$_Construct_in_place@PEAU?$_Tree_node@U?$pair@$$CBVG4String@@V?$set@HU?$less@H@std@@V?$allocator@H@2@@std@@@std@@PEAX@std@@AEBQEAU12@@std@@YAXAEAPEAU?$_Tree_node@U?$pair@$$CBVG4String@@V?$set@HU?$less@H@std@@V?$allocator@H@2@@std@@@std@@PEAX@0@AEBQEAU10@@Z
	??$_Construct_in_place@PEAU?$_Tree_node@U?$pair@QEAVG4LogicalVolume@@PEAV1@@std@@PEAX@std@@AEAPEAU12@@std@@YAXAEAPEAU?$_Tree_node@U?$pair@QEAVG4LogicalVolume@@PEAV1@@std@@PEAX@0@0@Z
	??$_Construct_in_place@PEAU?$_Tree_node@U?$pair@QEAVG4LogicalVolume@@PEAV1@@std@@PEAX@std@@AEBQEAU12@@std@@YAXAEAPEAU?$_Tree_node@U?$pair@QEAVG4LogicalVolume@@PEAV1@@std@@PEAX@0@AEBQEAU10@@Z
	??$_Construct_in_place@PEAU?$_Tree_node@U?$pair@QEAVG4MCTSimParticle@@U?$pair@PEAXPEAX@std@@@std@@PEAX@std@@AEAPEAU12@@std@@YAXAEAPEAU?$_Tree_node@U?$pair@QEAVG4MCTSimParticle@@U?$pair@PEAXPEAX@std@@@std@@PEAX@0@0@Z
	??$_Construct_in_place@PEAU?$_Tree_node@U?$pair@QEAVG4MCTSimParticle@@U?$pair@PEAXPEAX@std@@@std@@PEAX@std@@AEBQEAU12@@std@@YAXAEAPEAU?$_Tree_node@U?$pair@QEAVG4MCTSimParticle@@U?$pair@PEAXPEAX@std@@@std@@PEAX@0@AEBQEAU10@@Z
	??$_Construct_in_place@PEAU?$_Tree_node@U?$pair@QEAVG4VPhysicalVolume@@PEAV1@@std@@PEAX@std@@AEBQEAU12@@std@@YAXAEAPEAU?$_Tree_node@U?$pair@QEAVG4VPhysicalVolume@@PEAV1@@std@@PEAX@0@AEBQEAU10@@Z
	??$_Copy@U_Copy_tag@?$_Tree@V?$_Tset_traits@HU?$less@H@std@@V?$allocator@H@2@$0A@@std@@@std@@@?$_Tree@V?$_Tset_traits@HU?$less@H@std@@V?$allocator@H@2@$0A@@std@@@std@@IEAAXAEBV01@U_Copy_tag@01@@Z
	??$_Copy_memmove@PEAHPEAH@std@@YAPEAHPEAH00@Z
	??$_Copy_memmove@PEANPEAN@std@@YAPEANPEAN00@Z
	??$_Copy_memmove@PEAPEAV?$basic_ifstream@DU?$char_traits@D@std@@@std@@PEAPEAV12@@std@@YAPEAPEAV?$basic_ifstream@DU?$char_traits@D@std@@@0@PEAPEAV10@00@Z
	??$_Copy_memmove@PEAPEAV?$vector@NV?$allocator@N@std@@@std@@PEAPEAV12@@std@@YAPEAPEAV?$vector@NV?$allocator@N@std@@@0@PEAPEAV10@00@Z
	??$_Copy_memmove@PEAPEAVG4MCTSimParticle@@PEAPEAV1@@std@@YAPEAPEAVG4MCTSimParticle@@PEAPEAV1@00@Z
	??$_Copy_memmove@PEAPEAVG4MCTSimVertex@@PEAPEAV1@@std@@YAPEAPEAVG4MCTSimVertex@@PEAPEAV1@00@Z
	??$_Copy_memmove@PEAPEAVG4UIcmdWithAString@@PEAPEAV1@@std@@YAPEAPEAVG4UIcmdWithAString@@PEAPEAV1@00@Z
	??$_Copy_memmove@PEAPEAVG4VPhysicalVolume@@PEAPEAV1@@std@@YAPEAPEAVG4VPhysicalVolume@@PEAPEAV1@00@Z
	??$_Copy_memmove@PEAPEAVG4tgrElement@@PEAPEAV1@@std@@YAPEAPEAVG4tgrElement@@PEAPEAV1@00@Z
	??$_Copy_memmove@PEAPEAVG4tgrFileIn@@PEAPEAV1@@std@@YAPEAPEAVG4tgrFileIn@@PEAPEAV1@00@Z
	??$_Copy_memmove@PEAPEAVG4tgrIsotope@@PEAPEAV1@@std@@YAPEAPEAVG4tgrIsotope@@PEAPEAV1@00@Z
	??$_Copy_memmove@PEAPEAVG4tgrMaterial@@PEAPEAV1@@std@@YAPEAPEAVG4tgrMaterial@@PEAPEAV1@00@Z
	??$_Copy_memmove@PEAPEAVG4tgrPlace@@PEAPEAV1@@std@@YAPEAPEAVG4tgrPlace@@PEAPEAV1@00@Z
	??$_Copy_memmove@PEAPEAVG4tgrRotationMatrix@@PEAPEAV1@@std@@YAPEAPEAVG4tgrRotationMatrix@@PEAPEAV1@00@Z
	??$_Copy_memmove@PEAPEAVG4tgrVolume@@PEAPEAV1@@std@@YAPEAPEAVG4tgrVolume@@PEAPEAV1@00@Z
	??$_Copy_memmove@PEAPEAXPEAPEAX@std@@YAPEAPEAXPEAPEAX00@Z
	??$_Copy_memmove@PEAPEBVG4tgrSolid@@PEAPEBV1@@std@@YAPEAPEBVG4tgrSolid@@PEAPEBV1@00@Z
	??$_Copy_nodes@U_Copy_tag@?$_Tree@V?$_Tmap_traits@VG4String@@PEAVG4Element@@U?$less@VG4String@@@std@@V?$allocator@U?$pair@$$CBVG4String@@PEAVG4Element@@@std@@@4@$0A@@std@@@std@@@?$_Tree@V?$_Tmap_traits@VG4String@@PEAVG4Element@@U?$less@VG4String@@@std@@V?$allocator@U?$pair@$$CBVG4String@@PEAVG4Element@@@std@@@4@$0A@@std@@@std@@IEAAPEAU?$_Tree_node@U?$pair@$$CBVG4String@@PEAVG4Element@@@std@@PEAX@1@PEAU21@0U_Copy_tag@01@@Z
	??$_Copy_nodes@U_Copy_tag@?$_Tree@V?$_Tmap_traits@VG4String@@PEAVG4Isotope@@U?$less@VG4String@@@std@@V?$allocator@U?$pair@$$CBVG4String@@PEAVG4Isotope@@@std@@@4@$0A@@std@@@std@@@?$_Tree@V?$_Tmap_traits@VG4String@@PEAVG4Isotope@@U?$less@VG4String@@@std@@V?$allocator@U?$pair@$$CBVG4String@@PEAVG4Isotope@@@std@@@4@$0A@@std@@@std@@IEAAPEAU?$_Tree_node@U?$pair@$$CBVG4String@@PEAVG4Isotope@@@std@@PEAX@1@PEAU21@0U_Copy_tag@01@@Z
	??$_Copy_nodes@U_Copy_tag@?$_Tree@V?$_Tmap_traits@VG4String@@PEAVG4LogicalVolume@@U?$less@VG4String@@@std@@V?$allocator@U?$pair@$$CBVG4String@@PEAVG4LogicalVolume@@@std@@@4@$0A@@std@@@std@@@?$_Tree@V?$_Tmap_traits@VG4String@@PEAVG4LogicalVolume@@U?$less@VG4String@@@std@@V?$allocator@U?$pair@$$CBVG4String@@PEAVG4LogicalVolume@@@std@@@4@$0A@@std@@@std@@IEAAPEAU?$_Tree_node@U?$pair@$$CBVG4String@@PEAVG4LogicalVolume@@@std@@PEAX@1@PEAU21@0U_Copy_tag@01@@Z
	??$_Copy_nodes@U_Copy_tag@?$_Tree@V?$_Tmap_traits@VG4String@@PEAVG4Material@@U?$less@VG4String@@@std@@V?$allocator@U?$pair@$$CBVG4String@@PEAVG4Material@@@std@@@4@$0A@@std@@@std@@@?$_Tree@V?$_Tmap_traits@VG4String@@PEAVG4Material@@U?$less@VG4String@@@std@@V?$allocator@U?$pair@$$CBVG4String@@PEAVG4Material@@@std@@@4@$0A@@std@@@std@@IEAAPEAU?$_Tree_node@U?$pair@$$CBVG4String@@PEAVG4Material@@@std@@PEAX@1@PEAU21@0U_Copy_tag@01@@Z
	??$_Copy_nodes@U_Copy_tag@?$_Tree@V?$_Tmap_traits@VG4String@@PEAVG4VSolid@@U?$less@VG4String@@@std@@V?$allocator@U?$pair@$$CBVG4String@@PEAVG4VSolid@@@std@@@4@$0A@@std@@@std@@@?$_Tree@V?$_Tmap_traits@VG4String@@PEAVG4VSolid@@U?$less@VG4String@@@std@@V?$allocator@U?$pair@$$CBVG4String@@PEAVG4VSolid@@@std@@@4@$0A@@std@@@std@@IEAAPEAU?$_Tree_node@U?$pair@$$CBVG4String@@PEAVG4VSolid@@@std@@PEAX@1@PEAU21@0U_Copy_tag@01@@Z
	??$_Copy_nodes@U_Copy_tag@?$_Tree@V?$_Tmap_traits@VG4String@@PEAVG4tgrElement@@U?$less@VG4String@@@std@@V?$allocator@U?$pair@$$CBVG4String@@PEAVG4tgrElement@@@std@@@4@$0A@@std@@@std@@@?$_Tree@V?$_Tmap_traits@VG4String@@PEAVG4tgrElement@@U?$less@VG4String@@@std@@V?$allocator@U?$pair@$$CBVG4String@@PEAVG4tgrElement@@@std@@@4@$0A@@std@@@std@@IEAAPEAU?$_Tree_node@U?$pair@$$CBVG4String@@PEAVG4tgrElement@@@std@@PEAX@1@PEAU21@0U_Copy_tag@01@@Z
	??$_Copy_nodes@U_Copy_tag@?$_Tree@V?$_Tmap_traits@VG4String@@PEAVG4tgrIsotope@@U?$less@VG4String@@@std@@V?$allocator@U?$pair@$$CBVG4String@@PEAVG4tgrIsotope@@@std@@@4@$0A@@std@@@std@@@?$_Tree@V?$_Tmap_traits@VG4String@@PEAVG4tgrIsotope@@U?$less@VG4String@@@std@@V?$allocator@U?$pair@$$CBVG4String@@PEAVG4tgrIsotope@@@std@@@4@$0A@@std@@@std@@IEAAPEAU?$_Tree_node@U?$pair@$$CBVG4String@@PEAVG4tgrIsotope@@@std@@PEAX@1@PEAU21@0U_Copy_tag@01@@Z
	??$_Copy_nodes@U_Copy_tag@?$_Tree@V?$_Tmap_traits@VG4String@@PEAVG4tgrMaterial@@U?$less@VG4String@@@std@@V?$allocator@U?$pair@$$CBVG4String@@PEAVG4tgrMaterial@@@std@@@4@$0A@@std@@@std@@@?$_Tree@V?$_Tmap_traits@VG4String@@PEAVG4tgrMaterial@@U?$less@VG4String@@@std@@V?$allocator@U?$pair@$$CBVG4String@@PEAVG4tgrMaterial@@@std@@@4@$0A@@std@@@std@@IEAAPEAU?$_Tree_node@U?$pair@$$CBVG4String@@PEAVG4tgrMaterial@@@std@@PEAX@1@PEAU21@0U_Copy_tag@01@@Z
	??$_Copy_nodes@U_Copy_tag@?$_Tree@V?$_Tmap_traits@VG4String@@PEAVG4tgrRotationMatrix@@U?$less@VG4String@@@std@@V?$allocator@U?$pair@$$CBVG4String@@PEAVG4tgrRotationMatrix@@@std@@@4@$0A@@std@@@std@@@?$_Tree@V?$_Tmap_traits@VG4String@@PEAVG4tgrRotationMatrix@@U?$less@VG4String@@@std@@V?$allocator@U?$pair@$$CBVG4String@@PEAVG4tgrRotationMatrix@@@std@@@4@$0A@@std@@@std@@IEAAPEAU?$_Tree_node@U?$pair@$$CBVG4String@@PEAVG4tgrRotationMatrix@@@std@@PEAX@1@PEAU21@0U_Copy_tag@01@@Z
	??$_Copy_nodes@U_Copy_tag@?$_Tree@V?$_Tmap_traits@VG4String@@PEAVG4tgrVolume@@U?$less@VG4String@@@std@@V?$allocator@U?$pair@$$CBVG4String@@PEAVG4tgrVolume@@@std@@@4@$0A@@std@@@std@@@?$_Tree@V?$_Tmap_traits@VG4String@@PEAVG4tgrVolume@@U?$less@VG4String@@@std@@V?$allocator@U?$pair@$$CBVG4String@@PEAVG4tgrVolume@@@std@@@4@$0A@@std@@@std@@IEAAPEAU?$_Tree_node@U?$pair@$$CBVG4String@@PEAVG4tgrVolume@@@std@@PEAX@1@PEAU21@0U_Copy_tag@01@@Z
	??$_Copy_nodes@U_Copy_tag@?$_Tree@V?$_Tset_traits@HU?$less@H@std@@V?$allocator@H@2@$0A@@std@@@std@@@?$_Tree@V?$_Tset_traits@HU?$less@H@std@@V?$allocator@H@2@$0A@@std@@@std@@IEAAPEAU?$_Tree_node@HPEAX@1@PEAU21@0U_Copy_tag@01@@Z
	??$_Copy_unchecked@PEAVG4String@@PEAV1@@std@@YAPEAVG4String@@PEAV1@00@Z
	??$_Deallocate@$0BA@$0A@@std@@YAXPEAX_K@Z
	??$_Destroy_in_place@PEAD@std@@YAXAEAPEAD@Z
	??$_Destroy_in_place@PEAU?$_Tree_node@HPEAX@std@@@std@@YAXAEAPEAU?$_Tree_node@HPEAX@0@@Z
	??$_Destroy_in_place@PEAU?$_Tree_node@U?$pair@$$CBHPEAVG4MCTSimParticle@@@std@@PEAX@std@@@std@@YAXAEAPEAU?$_Tree_node@U?$pair@$$CBHPEAVG4MCTSimParticle@@@std@@PEAX@0@@Z
	??$_Destroy_in_place@PEAU?$_Tree_node@U?$pair@$$CBHV?$basic_string@DU?$char_traits@D@std@@V?$allocator@D@2@@std@@@std@@PEAX@std@@@std@@YAXAEAPEAU?$_Tree_node@U?$pair@$$CBHV?$basic_string@DU?$char_traits@D@std@@V?$allocator@D@2@@std@@@std@@PEAX@0@@Z
	??$_Destroy_in_place@PEAU?$_Tree_node@U?$pair@$$CBU?$pair@PEAXPEAX@std@@PEAVG4MCTSimParticle@@@std@@PEAX@std@@@std@@YAXAEAPEAU?$_Tree_node@U?$pair@$$CBU?$pair@PEAXPEAX@std@@PEAVG4MCTSimParticle@@@std@@PEAX@0@@Z
	??$_Destroy_in_place@PEAU?$_Tree_node@U?$pair@$$CBV?$basic_string@DU?$char_traits@D@std@@V?$allocator@D@2@@std@@PEAVG4PersistencyManager@@@std@@PEAX@std@@@std@@YAXAEAPEAU?$_Tree_node@U?$pair@$$CBV?$basic_string@DU?$char_traits@D@std@@V?$allocator@D@2@@std@@PEAVG4PersistencyManager@@@std@@PEAX@0@@Z
	??$_Destroy_in_place@PEAU?$_Tree_node@U?$pair@$$CBV?$basic_string@DU?$char_traits@D@std@@V?$allocator@D@2@@std@@PEAVG4VDCIOentry@@@std@@PEAX@std@@@std@@YAXAEAPEAU?$_Tree_node@U?$pair@$$CBV?$basic_string@DU?$char_traits@D@std@@V?$allocator@D@2@@std@@PEAVG4VDCIOentry@@@std@@PEAX@0@@Z
	??$_Destroy_in_place@PEAU?$_Tree_node@U?$pair@$$CBV?$basic_string@DU?$char_traits@D@std@@V?$allocator@D@2@@std@@PEAVG4VHCIOentry@@@std@@PEAX@std@@@std@@YAXAEAPEAU?$_Tree_node@U?$pair@$$CBV?$basic_string@DU?$char_traits@D@std@@V?$allocator@D@2@@std@@PEAVG4VHCIOentry@@@std@@PEAX@0@@Z
	??$_Destroy_in_place@PEAU?$_Tree_node@U?$pair@$$CBV?$basic_string@DU?$char_traits@D@std@@V?$allocator@D@2@@std@@PEAVG4VPDigitsCollectionIO@@@std@@PEAX@std@@@std@@YAXAEAPEAU?$_Tree_node@U?$pair@$$CBV?$basic_string@DU?$char_traits@D@std@@V?$allocator@D@2@@std@@PEAVG4VPDigitsCollectionIO@@@std@@PEAX@0@@Z
	??$_Destroy_in_place@PEAU?$_Tree_node@U?$pair@$$CBV?$basic_string@DU?$char_traits@D@std@@V?$allocator@D@2@@std@@PEAVG4VPHitsCollectionIO@@@std@@PEAX@std@@@std@@YAXAEAPEAU?$_Tree_node@U?$pair@$$CBV?$basic_string@DU?$char_traits@D@std@@V?$allocator@D@2@@std@@PEAVG4VPHitsCollectionIO@@@std@@PEAX@0@@Z
	??$_Destroy_in_place@PEAU?$_Tree_node@U?$pair@$$CBV?$basic_string@DU?$char_traits@D@std@@V?$allocator@D@2@@std@@V12@@std@@PEAX@std@@@std@@YAXAEAPEAU?$_Tree_node@U?$pair@$$CBV?$basic_string@DU?$char_traits@D@std@@V?$allocator@D@2@@std@@V12@@std@@PEAX@0@@Z
	??$_Destroy_in_place@PEAU?$_Tree_node@U?$pair@$$CBV?$basic_string@DU?$char_traits@D@std@@V?$allocator@D@2@@std@@W4StoreMode@@@std@@PEAX@std@@@std@@YAXAEAPEAU?$_Tree_node@U?$pair@$$CBV?$basic_string@DU?$char_traits@D@std@@V?$allocator@D@2@@std@@W4StoreMode@@@std@@PEAX@0@@Z
	??$_Destroy_in_place@PEAU?$_Tree_node@U?$pair@$$CBV?$basic_string@DU?$char_traits@D@std@@V?$allocator@D@2@@std@@_N@std@@PEAX@std@@@std@@YAXAEAPEAU?$_Tree_node@U?$pair@$$CBV?$basic_string@DU?$char_traits@D@std@@V?$allocator@D@2@@std@@_N@std@@PEAX@0@@Z
	??$_Destroy_in_place@PEAU?$_Tree_node@U?$pair@$$CBVG4String@@PEAVG4Element@@@std@@PEAX@std@@@std@@YAXAEAPEAU?$_Tree_node@U?$pair@$$CBVG4String@@PEAVG4Element@@@std@@PEAX@0@@Z
	??$_Destroy_in_place@PEAU?$_Tree_node@U?$pair@$$CBVG4String@@PEAVG4Isotope@@@std@@PEAX@std@@@std@@YAXAEAPEAU?$_Tree_node@U?$pair@$$CBVG4String@@PEAVG4Isotope@@@std@@PEAX@0@@Z
	??$_Destroy_in_place@PEAU?$_Tree_node@U?$pair@$$CBVG4String@@PEAVG4LogicalVolume@@@std@@PEAX@std@@@std@@YAXAEAPEAU?$_Tree_node@U?$pair@$$CBVG4String@@PEAVG4LogicalVolume@@@std@@PEAX@0@@Z
	??$_Destroy_in_place@PEAU?$_Tree_node@U?$pair@$$CBVG4String@@PEAVG4Material@@@std@@PEAX@std@@@std@@YAXAEAPEAU?$_Tree_node@U?$pair@$$CBVG4String@@PEAVG4Material@@@std@@PEAX@0@@Z
	??$_Destroy_in_place@PEAU?$_Tree_node@U?$pair@$$CBVG4String@@PEAVG4VPhysicalVolume@@@std@@PEAX@std@@@std@@YAXAEAPEAU?$_Tree_node@U?$pair@$$CBVG4String@@PEAVG4VPhysicalVolume@@@std@@PEAX@0@@Z
	??$_Destroy_in_place@PEAU?$_Tree_node@U?$pair@$$CBVG4String@@PEAVG4VSolid@@@std@@PEAX@std@@@std@@YAXAEAPEAU?$_Tree_node@U?$pair@$$CBVG4String@@PEAVG4VSolid@@@std@@PEAX@0@@Z
	??$_Destroy_in_place@PEAU?$_Tree_node@U?$pair@$$CBVG4String@@PEAVG4tgbElement@@@std@@PEAX@std@@@std@@YAXAEAPEAU?$_Tree_node@U?$pair@$$CBVG4String@@PEAVG4tgbElement@@@std@@PEAX@0@@Z
	??$_Destroy_in_place@PEAU?$_Tree_node@U?$pair@$$CBVG4String@@PEAVG4tgbIsotope@@@std@@PEAX@std@@@std@@YAXAEAPEAU?$_Tree_node@U?$pair@$$CBVG4String@@PEAVG4tgbIsotope@@@std@@PEAX@0@@Z
	??$_Destroy_in_place@PEAU?$_Tree_node@U?$pair@$$CBVG4String@@PEAVG4tgbMaterial@@@std@@PEAX@std@@@std@@YAXAEAPEAU?$_Tree_node@U?$pair@$$CBVG4String@@PEAVG4tgbMaterial@@@std@@PEAX@0@@Z
	??$_Destroy_in_place@PEAU?$_Tree_node@U?$pair@$$CBVG4String@@PEAVG4tgbRotationMatrix@@@std@@PEAX@std@@@std@@YAXAEAPEAU?$_Tree_node@U?$pair@$$CBVG4String@@PEAVG4tgbRotationMatrix@@@std@@PEAX@0@@Z
	??$_Destroy_in_place@PEAU?$_Tree_node@U?$pair@$$CBVG4String@@PEAVG4tgbVolume@@@std@@PEAX@std@@@std@@YAXAEAPEAU?$_Tree_node@U?$pair@$$CBVG4String@@PEAVG4tgbVolume@@@std@@PEAX@0@@Z
	??$_Destroy_in_place@PEAU?$_Tree_node@U?$pair@$$CBVG4String@@PEAVG4tgrElement@@@std@@PEAX@std@@@std@@YAXAEAPEAU?$_Tree_node@U?$pair@$$CBVG4String@@PEAVG4tgrElement@@@std@@PEAX@0@@Z
	??$_Destroy_in_place@PEAU?$_Tree_node@U?$pair@$$CBVG4String@@PEAVG4tgrIsotope@@@std@@PEAX@std@@@std@@YAXAEAPEAU?$_Tree_node@U?$pair@$$CBVG4String@@PEAVG4tgrIsotope@@@std@@PEAX@0@@Z
	??$_Destroy_in_place@PEAU?$_Tree_node@U?$pair@$$CBVG4String@@PEAVG4tgrMaterial@@@std@@PEAX@std@@@std@@YAXAEAPEAU?$_Tree_node@U?$pair@$$CBVG4String@@PEAVG4tgrMaterial@@@std@@PEAX@0@@Z
	??$_Destroy_in_place@PEAU?$_Tree_node@U?$pair@$$CBVG4String@@PEAVG4tgrRotationMatrix@@@std@@PEAX@std@@@std@@YAXAEAPEAU?$_Tree_node@U?$pair@$$CBVG4String@@PEAVG4tgrRotationMatrix@@@std@@PEAX@0@@Z
	??$_Destroy_in_place@PEAU?$_Tree_node@U?$pair@$$CBVG4String@@PEAVG4tgrSolid@@@std@@PEAX@std@@@std@@YAXAEAPEAU?$_Tree_node@U?$pair@$$CBVG4String@@PEAVG4tgrSolid@@@std@@PEAX@0@@Z
	??$_Destroy_in_place@PEAU?$_Tree_node@U?$pair@$$CBVG4String@@PEAVG4tgrVolume@@@std@@PEAX@std@@@std@@YAXAEAPEAU?$_Tree_node@U?$pair@$$CBVG4String@@PEAVG4tgrVolume@@@std@@PEAX@0@@Z
	??$_Destroy_in_place@PEAU?$_Tree_node@U?$pair@$$CBVG4String@@PEAVHepRotation@CLHEP@@@std@@PEAX@std@@@std@@YAXAEAPEAU?$_Tree_node@U?$pair@$$CBVG4String@@PEAVHepRotation@CLHEP@@@std@@PEAX@0@@Z
	??$_Destroy_in_place@PEAU?$_Tree_node@U?$pair@$$CBVG4String@@PEBVG4tgrPlace@@@std@@PEAX@std@@@std@@YAXAEAPEAU?$_Tree_node@U?$pair@$$CBVG4String@@PEBVG4tgrPlace@@@std@@PEAX@0@@Z
	??$_Destroy_in_place@PEAU?$_Tree_node@U?$pair@$$CBVG4String@@V1@@std@@PEAX@std@@@std@@YAXAEAPEAU?$_Tree_node@U?$pair@$$CBVG4String@@V1@@std@@PEAX@0@@Z
	??$_Destroy_in_place@PEAU?$_Tree_node@U?$pair@$$CBVG4String@@V?$set@HU?$less@H@std@@V?$allocator@H@2@@std@@@std@@PEAX@std@@@std@@YAXAEAPEAU?$_Tree_node@U?$pair@$$CBVG4String@@V?$set@HU?$less@H@std@@V?$allocator@H@2@@std@@@std@@PEAX@0@@Z
	??$_Destroy_in_place@PEAU?$_Tree_node@U?$pair@QEAVG4LogicalVolume@@PEAV1@@std@@PEAX@std@@@std@@YAXAEAPEAU?$_Tree_node@U?$pair@QEAVG4LogicalVolume@@PEAV1@@std@@PEAX@0@@Z
	??$_Destroy_in_place@PEAU?$_Tree_node@U?$pair@QEAVG4MCTSimParticle@@U?$pair@PEAXPEAX@std@@@std@@PEAX@std@@@std@@YAXAEAPEAU?$_Tree_node@U?$pair@QEAVG4MCTSimParticle@@U?$pair@PEAXPEAX@std@@@std@@PEAX@0@@Z
	??$_Destroy_in_place@PEAU?$_Tree_node@U?$pair@QEAVG4VPhysicalVolume@@PEAV1@@std@@PEAX@std@@@std@@YAXAEAPEAU?$_Tree_node@U?$pair@QEAVG4VPhysicalVolume@@PEAV1@@std@@PEAX@0@@Z
	??$_Destroy_range@V?$allocator@H@std@@@std@@YAXPEAHQEAHAEAV?$allocator@H@0@@Z
	??$_Destroy_range@V?$allocator@N@std@@@std@@YAXPEANQEANAEAV?$allocator@N@0@@Z
	??$_Destroy_range@V?$allocator@PEAV?$basic_ifstream@DU?$char_traits@D@std@@@std@@@std@@@std@@YAXPEAPEAV?$basic_ifstream@DU?$char_traits@D@std@@@0@QEAPEAV10@AEAV?$allocator@PEAV?$basic_ifstream@DU?$char_traits@D@std@@@std@@@0@@Z
	??$_Destroy_range@V?$allocator@PEAV?$vector@NV?$allocator@N@std@@@std@@@std@@@std@@YAXPEAPEAV?$vector@NV?$allocator@N@std@@@0@QEAPEAV10@AEAV?$allocator@PEAV?$vector@NV?$allocator@N@std@@@std@@@0@@Z
	??$_Destroy_range@V?$allocator@PEAVG4MCTSimParticle@@@std@@@std@@YAXPEAPEAVG4MCTSimParticle@@QEAPEAV1@AEAV?$allocator@PEAVG4MCTSimParticle@@@0@@Z
	??$_Destroy_range@V?$allocator@PEAVG4MCTSimVertex@@@std@@@std@@YAXPEAPEAVG4MCTSimVertex@@QEAPEAV1@AEAV?$allocator@PEAVG4MCTSimVertex@@@0@@Z
	??$_Destroy_range@V?$allocator@PEAVG4UIcmdWithAString@@@std@@@std@@YAXPEAPEAVG4UIcmdWithAString@@QEAPEAV1@AEAV?$allocator@PEAVG4UIcmdWithAString@@@0@@Z
	??$_Destroy_range@V?$allocator@PEAVG4VPhysicalVolume@@@std@@@std@@YAXPEAPEAVG4VPhysicalVolume@@QEAPEAV1@AEAV?$allocator@PEAVG4VPhysicalVolume@@@0@@Z
	??$_Destroy_range@V?$allocator@PEAVG4tgrElement@@@std@@@std@@YAXPEAPEAVG4tgrElement@@QEAPEAV1@AEAV?$allocator@PEAVG4tgrElement@@@0@@Z
	??$_Destroy_range@V?$allocator@PEAVG4tgrFileIn@@@std@@@std@@YAXPEAPEAVG4tgrFileIn@@QEAPEAV1@AEAV?$allocator@PEAVG4tgrFileIn@@@0@@Z
	??$_Destroy_range@V?$allocator@PEAVG4tgrIsotope@@@std@@@std@@YAXPEAPEAVG4tgrIsotope@@QEAPEAV1@AEAV?$allocator@PEAVG4tgrIsotope@@@0@@Z
	??$_Destroy_range@V?$allocator@PEAVG4tgrMaterial@@@std@@@std@@YAXPEAPEAVG4tgrMaterial@@QEAPEAV1@AEAV?$allocator@PEAVG4tgrMaterial@@@0@@Z
	??$_Destroy_range@V?$allocator@PEAVG4tgrPlace@@@std@@@std@@YAXPEAPEAVG4tgrPlace@@QEAPEAV1@AEAV?$allocator@PEAVG4tgrPlace@@@0@@Z
	??$_Destroy_range@V?$allocator@PEAVG4tgrRotationMatrix@@@std@@@std@@YAXPEAPEAVG4tgrRotationMatrix@@QEAPEAV1@AEAV?$allocator@PEAVG4tgrRotationMatrix@@@0@@Z
	??$_Destroy_range@V?$allocator@PEAVG4tgrVolume@@@std@@@std@@YAXPEAPEAVG4tgrVolume@@QEAPEAV1@AEAV?$allocator@PEAVG4tgrVolume@@@0@@Z
	??$_Destroy_range@V?$allocator@PEAX@std@@@std@@YAXPEAPEAXQEAPEAXAEAV?$allocator@PEAX@0@@Z
	??$_Destroy_range@V?$allocator@PEBVG4tgrSolid@@@std@@@std@@YAXPEAPEBVG4tgrSolid@@QEAPEBV1@AEAV?$allocator@PEBVG4tgrSolid@@@0@@Z
	??$_Destroy_range@V?$allocator@U?$pair@_K_K@std@@@std@@@std@@YAXPEAU?$pair@_K_K@0@QEAU10@AEAV?$allocator@U?$pair@_K_K@std@@@0@@Z
	??$_Destroy_range@V?$allocator@UZSection@G4ExtrudedSolid@@@std@@@std@@YAXPEAUZSection@G4ExtrudedSolid@@QEAU12@AEAV?$allocator@UZSection@G4ExtrudedSolid@@@0@@Z
	??$_Destroy_range@V?$allocator@V?$basic_string@DU?$char_traits@D@std@@V?$allocator@D@2@@std@@@std@@@std@@YAXPEAV?$basic_string@DU?$char_traits@D@std@@V?$allocator@D@2@@0@QEAV10@AEAV?$allocator@V?$basic_string@DU?$char_traits@D@std@@V?$allocator@D@2@@std@@@0@@Z
	??$_Destroy_range@V?$allocator@VG4String@@@std@@@std@@YAXPEAVG4String@@QEAV1@AEAV?$allocator@VG4String@@@0@@Z
	??$_Destroy_range@V?$allocator@VHep2Vector@CLHEP@@@std@@@std@@YAXPEAVHep2Vector@CLHEP@@QEAV12@AEAV?$allocator@VHep2Vector@CLHEP@@@0@@Z
	??$_Destroy_range@V?$allocator@VHep3Vector@CLHEP@@@std@@@std@@YAXPEAVHep3Vector@CLHEP@@QEAV12@AEAV?$allocator@VHep3Vector@CLHEP@@@0@@Z
	??$_Emplace_reallocate@AEBN@?$vector@NV?$allocator@N@std@@@std@@QEAAPEANQEANAEBN@Z
	??$_Emplace_reallocate@AEBQEAV?$basic_ifstream@DU?$char_traits@D@std@@@std@@@?$vector@PEAV?$basic_ifstream@DU?$char_traits@D@std@@@std@@V?$allocator@PEAV?$basic_ifstream@DU?$char_traits@D@std@@@std@@@2@@std@@QEAAPEAPEAV?$basic_ifstream@DU?$char_traits@D@std@@@1@QEAPEAV21@AEBQEAV21@@Z
	??$_Emplace_reallocate@AEBQEAV?$vector@NV?$allocator@N@std@@@std@@@?$vector@PEAV?$vector@NV?$allocator@N@std@@@std@@V?$allocator@PEAV?$vector@NV?$allocator@N@std@@@std@@@2@@std@@QEAAPEAPEAV?$vector@NV?$allocator@N@std@@@1@QEAPEAV21@AEBQEAV21@@Z
	??$_Emplace_reallocate@AEBQEAVG4MCTSimParticle@@@?$vector@PEAVG4MCTSimParticle@@V?$allocator@PEAVG4MCTSimParticle@@@std@@@std@@QEAAPEAPEAVG4MCTSimParticle@@QEAPEAV2@AEBQEAV2@@Z
	??$_Emplace_reallocate@AEBQEAVG4MCTSimVertex@@@?$vector@PEAVG4MCTSimVertex@@V?$allocator@PEAVG4MCTSimVertex@@@std@@@std@@QEAAPEAPEAVG4MCTSimVertex@@QEAPEAV2@AEBQEAV2@@Z
	??$_Emplace_reallocate@AEBQEAVG4VPhysicalVolume@@@?$vector@PEAVG4VPhysicalVolume@@V?$allocator@PEAVG4VPhysicalVolume@@@std@@@std@@QEAAPEAPEAVG4VPhysicalVolume@@QEAPEAV2@AEBQEAV2@@Z
	??$_Emplace_reallocate@AEBQEAVG4tgrElement@@@?$vector@PEAVG4tgrElement@@V?$allocator@PEAVG4tgrElement@@@std@@@std@@QEAAPEAPEAVG4tgrElement@@QEAPEAV2@AEBQEAV2@@Z
	??$_Emplace_reallocate@AEBQEAVG4tgrFileIn@@@?$vector@PEAVG4tgrFileIn@@V?$allocator@PEAVG4tgrFileIn@@@std@@@std@@QEAAPEAPEAVG4tgrFileIn@@QEAPEAV2@AEBQEAV2@@Z
	??$_Emplace_reallocate@AEBQEAVG4tgrIsotope@@@?$vector@PEAVG4tgrIsotope@@V?$allocator@PEAVG4tgrIsotope@@@std@@@std@@QEAAPEAPEAVG4tgrIsotope@@QEAPEAV2@AEBQEAV2@@Z
	??$_Emplace_reallocate@AEBQEAVG4tgrMaterial@@@?$vector@PEAVG4tgrMaterial@@V?$allocator@PEAVG4tgrMaterial@@@std@@@std@@QEAAPEAPEAVG4tgrMaterial@@QEAPEAV2@AEBQEAV2@@Z
	??$_Emplace_reallocate@AEBQEAVG4tgrPlace@@@?$vector@PEAVG4tgrPlace@@V?$allocator@PEAVG4tgrPlace@@@std@@@std@@QEAAPEAPEAVG4tgrPlace@@QEAPEAV2@AEBQEAV2@@Z
	??$_Emplace_reallocate@AEBQEAVG4tgrRotationMatrix@@@?$vector@PEAVG4tgrRotationMatrix@@V?$allocator@PEAVG4tgrRotationMatrix@@@std@@@std@@QEAAPEAPEAVG4tgrRotationMatrix@@QEAPEAV2@AEBQEAV2@@Z
	??$_Emplace_reallocate@AEBQEAVG4tgrVolume@@@?$vector@PEAVG4tgrVolume@@V?$allocator@PEAVG4tgrVolume@@@std@@@std@@QEAAPEAPEAVG4tgrVolume@@QEAPEAV2@AEBQEAV2@@Z
	??$_Emplace_reallocate@AEBQEBVG4tgrSolid@@@?$vector@PEBVG4tgrSolid@@V?$allocator@PEBVG4tgrSolid@@@std@@@std@@QEAAPEAPEBVG4tgrSolid@@QEAPEBV2@AEBQEBV2@@Z
	??$_Emplace_reallocate@AEBVG4String@@@?$vector@VG4String@@V?$allocator@VG4String@@@std@@@std@@QEAAPEAVG4String@@QEAV2@AEBV2@@Z
	??$_Emplace_reallocate@H@?$vector@HV?$allocator@H@std@@@std@@QEAAPEAHQEAH$$QEAH@Z
	??$_Emplace_reallocate@N@?$vector@NV?$allocator@N@std@@@std@@QEAAPEANQEAN$$QEAN@Z
	??$_Emplace_reallocate@PEAVG4UIcmdWithAString@@@?$vector@PEAVG4UIcmdWithAString@@V?$allocator@PEAVG4UIcmdWithAString@@@std@@@std@@QEAAPEAPEAVG4UIcmdWithAString@@QEAPEAV2@$$QEAPEAV2@@Z
	??$_Emplace_reallocate@PEAX@?$vector@PEAXV?$allocator@PEAX@std@@@std@@QEAAPEAPEAXQEAPEAX$$QEAPEAX@Z
	??$_Emplace_reallocate@U?$pair@_K_K@std@@@?$vector@U?$pair@_K_K@std@@V?$allocator@U?$pair@_K_K@std@@@2@@std@@QEAAPEAU?$pair@_K_K@1@QEAU21@$$QEAU21@@Z
	??$_Emplace_reallocate@UZSection@G4ExtrudedSolid@@@?$vector@UZSection@G4ExtrudedSolid@@V?$allocator@UZSection@G4ExtrudedSolid@@@std@@@std@@QEAAPEAUZSection@G4ExtrudedSolid@@QEAU23@$$QEAU23@@Z
	??$_Emplace_reallocate@V?$basic_string@DU?$char_traits@D@std@@V?$allocator@D@2@@std@@@?$vector@V?$basic_string@DU?$char_traits@D@std@@V?$allocator@D@2@@std@@V?$allocator@V?$basic_string@DU?$char_traits@D@std@@V?$allocator@D@2@@std@@@2@@std@@QEAAPEAV?$basic_string@DU?$char_traits@D@std@@V?$allocator@D@2@@1@QEAV21@$$QEAV21@@Z
	??$_Emplace_reallocate@VG4String@@@?$vector@VG4String@@V?$allocator@VG4String@@@std@@@std@@QEAAPEAVG4String@@QEAV2@$$QEAV2@@Z
	??$_Emplace_reallocate@VHep2Vector@CLHEP@@@?$vector@VHep2Vector@CLHEP@@V?$allocator@VHep2Vector@CLHEP@@@std@@@std@@QEAAPEAVHep2Vector@CLHEP@@QEAV23@$$QEAV23@@Z
	??$_Emplace_reallocate@VHep3Vector@CLHEP@@@?$vector@VHep3Vector@CLHEP@@V?$allocator@VHep3Vector@CLHEP@@@std@@@std@@QEAAPEAVHep3Vector@CLHEP@@QEAV23@$$QEAV23@@Z
	??$_Eqrange@VG4String@@@?$_Tree@V?$_Tmap_traits@VG4String@@PEAVG4VSolid@@U?$less@VG4String@@@std@@V?$allocator@U?$pair@$$CBVG4String@@PEAVG4VSolid@@@std@@@4@$00@std@@@std@@IEBA?AU?$pair@PEAU?$_Tree_node@U?$pair@$$CBVG4String@@PEAVG4VSolid@@@std@@PEAX@std@@PEAU12@@1@AEBVG4String@@@Z
	??$_Eqrange@VG4String@@@?$_Tree@V?$_Tmap_traits@VG4String@@PEBVG4tgrPlace@@U?$less@VG4String@@@std@@V?$allocator@U?$pair@$$CBVG4String@@PEBVG4tgrPlace@@@std@@@4@$00@std@@@std@@IEBA?AU?$pair@PEAU?$_Tree_node@U?$pair@$$CBVG4String@@PEBVG4tgrPlace@@@std@@PEAX@std@@PEAU12@@1@AEBVG4String@@@Z
	??$_Erase_head@V?$allocator@U?$_Tree_node@HPEAX@std@@@std@@@?$_Tree_val@U?$_Tree_simple_types@H@std@@@std@@QEAAXAEAV?$allocator@U?$_Tree_node@HPEAX@std@@@1@@Z
	??$_Erase_tree@V?$allocator@U?$_Tree_node@HPEAX@std@@@std@@@?$_Tree_val@U?$_Tree_simple_types@H@std@@@std@@QEAAXAEAV?$allocator@U?$_Tree_node@HPEAX@std@@@1@PEAU?$_Tree_node@HPEAX@1@@Z
	??$_Erase_tree@V?$allocator@U?$_Tree_node@U?$pair@$$CBHPEAVG4MCTSimParticle@@@std@@PEAX@std@@@std@@@?$_Tree_val@U?$_Tree_simple_types@U?$pair@$$CBHPEAVG4MCTSimParticle@@@std@@@std@@@std@@QEAAXAEAV?$allocator@U?$_Tree_node@U?$pair@$$CBHPEAVG4MCTSimParticle@@@std@@PEAX@std@@@1@PEAU?$_Tree_node@U?$pair@$$CBHPEAVG4MCTSimParticle@@@std@@PEAX@1@@Z
	??$_Erase_tree@V?$allocator@U?$_Tree_node@U?$pair@$$CBHV?$basic_string@DU?$char_traits@D@std@@V?$allocator@D@2@@std@@@std@@PEAX@std@@@std@@@?$_Tree_val@U?$_Tree_simple_types@U?$pair@$$CBHV?$basic_string@DU?$char_traits@D@std@@V?$allocator@D@2@@std@@@std@@@std@@@std@@QEAAXAEAV?$allocator@U?$_Tree_node@U?$pair@$$CBHV?$basic_string@DU?$char_traits@D@std@@V?$allocator@D@2@@std@@@std@@PEAX@std@@@1@PEAU?$_Tree_node@U?$pair@$$CBHV?$basic_string@DU?$char_traits@D@std@@V?$allocator@D@2@@std@@@std@@PEAX@1@@Z
	??$_Erase_tree@V?$allocator@U?$_Tree_node@U?$pair@$$CBU?$pair@PEAXPEAX@std@@PEAVG4MCTSimParticle@@@std@@PEAX@std@@@std@@@?$_Tree_val@U?$_Tree_simple_types@U?$pair@$$CBU?$pair@PEAXPEAX@std@@PEAVG4MCTSimParticle@@@std@@@std@@@std@@QEAAXAEAV?$allocator@U?$_Tree_node@U?$pair@$$CBU?$pair@PEAXPEAX@std@@PEAVG4MCTSimParticle@@@std@@PEAX@std@@@1@PEAU?$_Tree_node@U?$pair@$$CBU?$pair@PEAXPEAX@std@@PEAVG4MCTSimParticle@@@std@@PEAX@1@@Z
	??$_Erase_tree@V?$allocator@U?$_Tree_node@U?$pair@$$CBV?$basic_string@DU?$char_traits@D@std@@V?$allocator@D@2@@std@@PEAVG4PersistencyManager@@@std@@PEAX@std@@@std@@@?$_Tree_val@U?$_Tree_simple_types@U?$pair@$$CBV?$basic_string@DU?$char_traits@D@std@@V?$allocator@D@2@@std@@PEAVG4PersistencyManager@@@std@@@std@@@std@@QEAAXAEAV?$allocator@U?$_Tree_node@U?$pair@$$CBV?$basic_string@DU?$char_traits@D@std@@V?$allocator@D@2@@std@@PEAVG4PersistencyManager@@@std@@PEAX@std@@@1@PEAU?$_Tree_node@U?$pair@$$CBV?$basic_string@DU?$char_traits@D@std@@V?$allocator@D@2@@std@@PEAVG4PersistencyManager@@@std@@PEAX@1@@Z
	??$_Erase_tree@V?$allocator@U?$_Tree_node@U?$pair@$$CBV?$basic_string@DU?$char_traits@D@std@@V?$allocator@D@2@@std@@PEAVG4VDCIOentry@@@std@@PEAX@std@@@std@@@?$_Tree_val@U?$_Tree_simple_types@U?$pair@$$CBV?$basic_string@DU?$char_traits@D@std@@V?$allocator@D@2@@std@@PEAVG4VDCIOentry@@@std@@@std@@@std@@QEAAXAEAV?$allocator@U?$_Tree_node@U?$pair@$$CBV?$basic_string@DU?$char_traits@D@std@@V?$allocator@D@2@@std@@PEAVG4VDCIOentry@@@std@@PEAX@std@@@1@PEAU?$_Tree_node@U?$pair@$$CBV?$basic_string@DU?$char_traits@D@std@@V?$allocator@D@2@@std@@PEAVG4VDCIOentry@@@std@@PEAX@1@@Z
	??$_Erase_tree@V?$allocator@U?$_Tree_node@U?$pair@$$CBV?$basic_string@DU?$char_traits@D@std@@V?$allocator@D@2@@std@@PEAVG4VHCIOentry@@@std@@PEAX@std@@@std@@@?$_Tree_val@U?$_Tree_simple_types@U?$pair@$$CBV?$basic_string@DU?$char_traits@D@std@@V?$allocator@D@2@@std@@PEAVG4VHCIOentry@@@std@@@std@@@std@@QEAAXAEAV?$allocator@U?$_Tree_node@U?$pair@$$CBV?$basic_string@DU?$char_traits@D@std@@V?$allocator@D@2@@std@@PEAVG4VHCIOentry@@@std@@PEAX@std@@@1@PEAU?$_Tree_node@U?$pair@$$CBV?$basic_string@DU?$char_traits@D@std@@V?$allocator@D@2@@std@@PEAVG4VHCIOentry@@@std@@PEAX@1@@Z
	??$_Erase_tree@V?$allocator@U?$_Tree_node@U?$pair@$$CBV?$basic_string@DU?$char_traits@D@std@@V?$allocator@D@2@@std@@PEAVG4VPDigitsCollectionIO@@@std@@PEAX@std@@@std@@@?$_Tree_val@U?$_Tree_simple_types@U?$pair@$$CBV?$basic_string@DU?$char_traits@D@std@@V?$allocator@D@2@@std@@PEAVG4VPDigitsCollectionIO@@@std@@@std@@@std@@QEAAXAEAV?$allocator@U?$_Tree_node@U?$pair@$$CBV?$basic_string@DU?$char_traits@D@std@@V?$allocator@D@2@@std@@PEAVG4VPDigitsCollectionIO@@@std@@PEAX@std@@@1@PEAU?$_Tree_node@U?$pair@$$CBV?$basic_string@DU?$char_traits@D@std@@V?$allocator@D@2@@std@@PEAVG4VPDigitsCollectionIO@@@std@@PEAX@1@@Z
	??$_Erase_tree@V?$allocator@U?$_Tree_node@U?$pair@$$CBV?$basic_string@DU?$char_traits@D@std@@V?$allocator@D@2@@std@@PEAVG4VPHitsCollectionIO@@@std@@PEAX@std@@@std@@@?$_Tree_val@U?$_Tree_simple_types@U?$pair@$$CBV?$basic_string@DU?$char_traits@D@std@@V?$allocator@D@2@@std@@PEAVG4VPHitsCollectionIO@@@std@@@std@@@std@@QEAAXAEAV?$allocator@U?$_Tree_node@U?$pair@$$CBV?$basic_string@DU?$char_traits@D@std@@V?$allocator@D@2@@std@@PEAVG4VPHitsCollectionIO@@@std@@PEAX@std@@@1@PEAU?$_Tree_node@U?$pair@$$CBV?$basic_string@DU?$char_traits@D@std@@V?$allocator@D@2@@std@@PEAVG4VPHitsCollectionIO@@@std@@PEAX@1@@Z
	??$_Erase_tree@V?$allocator@U?$_Tree_node@U?$pair@$$CBV?$basic_string@DU?$char_traits@D@std@@V?$allocator@D@2@@std@@V12@@std@@PEAX@std@@@std@@@?$_Tree_val@U?$_Tree_simple_types@U?$pair@$$CBV?$basic_string@DU?$char_traits@D@std@@V?$allocator@D@2@@std@@V12@@std@@@std@@@std@@QEAAXAEAV?$allocator@U?$_Tree_node@U?$pair@$$CBV?$basic_string@DU?$char_traits@D@std@@V?$allocator@D@2@@std@@V12@@std@@PEAX@std@@@1@PEAU?$_Tree_node@U?$pair@$$CBV?$basic_string@DU?$char_traits@D@std@@V?$allocator@D@2@@std@@V12@@std@@PEAX@1@@Z
	??$_Erase_tree@V?$allocator@U?$_Tree_node@U?$pair@$$CBV?$basic_string@DU?$char_traits@D@std@@V?$allocator@D@2@@std@@W4StoreMode@@@std@@PEAX@std@@@std@@@?$_Tree_val@U?$_Tree_simple_types@U?$pair@$$CBV?$basic_string@DU?$char_traits@D@std@@V?$allocator@D@2@@std@@W4StoreMode@@@std@@@std@@@std@@QEAAXAEAV?$allocator@U?$_Tree_node@U?$pair@$$CBV?$basic_string@DU?$char_traits@D@std@@V?$allocator@D@2@@std@@W4StoreMode@@@std@@PEAX@std@@@1@PEAU?$_Tree_node@U?$pair@$$CBV?$basic_string@DU?$char_traits@D@std@@V?$allocator@D@2@@std@@W4StoreMode@@@std@@PEAX@1@@Z
	??$_Erase_tree@V?$allocator@U?$_Tree_node@U?$pair@$$CBV?$basic_string@DU?$char_traits@D@std@@V?$allocator@D@2@@std@@_N@std@@PEAX@std@@@std@@@?$_Tree_val@U?$_Tree_simple_types@U?$pair@$$CBV?$basic_string@DU?$char_traits@D@std@@V?$allocator@D@2@@std@@_N@std@@@std@@@std@@QEAAXAEAV?$allocator@U?$_Tree_node@U?$pair@$$CBV?$basic_string@DU?$char_traits@D@std@@V?$allocator@D@2@@std@@_N@std@@PEAX@std@@@1@PEAU?$_Tree_node@U?$pair@$$CBV?$basic_string@DU?$char_traits@D@std@@V?$allocator@D@2@@std@@_N@std@@PEAX@1@@Z
	??$_Erase_tree@V?$allocator@U?$_Tree_node@U?$pair@$$CBVG4String@@PEAVG4Element@@@std@@PEAX@std@@@std@@@?$_Tree_val@U?$_Tree_simple_types@U?$pair@$$CBVG4String@@PEAVG4Element@@@std@@@std@@@std@@QEAAXAEAV?$allocator@U?$_Tree_node@U?$pair@$$CBVG4String@@PEAVG4Element@@@std@@PEAX@std@@@1@PEAU?$_Tree_node@U?$pair@$$CBVG4String@@PEAVG4Element@@@std@@PEAX@1@@Z
	??$_Erase_tree@V?$allocator@U?$_Tree_node@U?$pair@$$CBVG4String@@PEAVG4Isotope@@@std@@PEAX@std@@@std@@@?$_Tree_val@U?$_Tree_simple_types@U?$pair@$$CBVG4String@@PEAVG4Isotope@@@std@@@std@@@std@@QEAAXAEAV?$allocator@U?$_Tree_node@U?$pair@$$CBVG4String@@PEAVG4Isotope@@@std@@PEAX@std@@@1@PEAU?$_Tree_node@U?$pair@$$CBVG4String@@PEAVG4Isotope@@@std@@PEAX@1@@Z
	??$_Erase_tree@V?$allocator@U?$_Tree_node@U?$pair@$$CBVG4String@@PEAVG4LogicalVolume@@@std@@PEAX@std@@@std@@@?$_Tree_val@U?$_Tree_simple_types@U?$pair@$$CBVG4String@@PEAVG4LogicalVolume@@@std@@@std@@@std@@QEAAXAEAV?$allocator@U?$_Tree_node@U?$pair@$$CBVG4String@@PEAVG4LogicalVolume@@@std@@PEAX@std@@@1@PEAU?$_Tree_node@U?$pair@$$CBVG4String@@PEAVG4LogicalVolume@@@std@@PEAX@1@@Z
	??$_Erase_tree@V?$allocator@U?$_Tree_node@U?$pair@$$CBVG4String@@PEAVG4Material@@@std@@PEAX@std@@@std@@@?$_Tree_val@U?$_Tree_simple_types@U?$pair@$$CBVG4String@@PEAVG4Material@@@std@@@std@@@std@@QEAAXAEAV?$allocator@U?$_Tree_node@U?$pair@$$CBVG4String@@PEAVG4Material@@@std@@PEAX@std@@@1@PEAU?$_Tree_node@U?$pair@$$CBVG4String@@PEAVG4Material@@@std@@PEAX@1@@Z
	??$_Erase_tree@V?$allocator@U?$_Tree_node@U?$pair@$$CBVG4String@@PEAVG4VPhysicalVolume@@@std@@PEAX@std@@@std@@@?$_Tree_val@U?$_Tree_simple_types@U?$pair@$$CBVG4String@@PEAVG4VPhysicalVolume@@@std@@@std@@@std@@QEAAXAEAV?$allocator@U?$_Tree_node@U?$pair@$$CBVG4String@@PEAVG4VPhysicalVolume@@@std@@PEAX@std@@@1@PEAU?$_Tree_node@U?$pair@$$CBVG4String@@PEAVG4VPhysicalVolume@@@std@@PEAX@1@@Z
	??$_Erase_tree@V?$allocator@U?$_Tree_node@U?$pair@$$CBVG4String@@PEAVG4VSolid@@@std@@PEAX@std@@@std@@@?$_Tree_val@U?$_Tree_simple_types@U?$pair@$$CBVG4String@@PEAVG4VSolid@@@std@@@std@@@std@@QEAAXAEAV?$allocator@U?$_Tree_node@U?$pair@$$CBVG4String@@PEAVG4VSolid@@@std@@PEAX@std@@@1@PEAU?$_Tree_node@U?$pair@$$CBVG4String@@PEAVG4VSolid@@@std@@PEAX@1@@Z
	??$_Erase_tree@V?$allocator@U?$_Tree_node@U?$pair@$$CBVG4String@@PEAVG4tgbElement@@@std@@PEAX@std@@@std@@@?$_Tree_val@U?$_Tree_simple_types@U?$pair@$$CBVG4String@@PEAVG4tgbElement@@@std@@@std@@@std@@QEAAXAEAV?$allocator@U?$_Tree_node@U?$pair@$$CBVG4String@@PEAVG4tgbElement@@@std@@PEAX@std@@@1@PEAU?$_Tree_node@U?$pair@$$CBVG4String@@PEAVG4tgbElement@@@std@@PEAX@1@@Z
	??$_Erase_tree@V?$allocator@U?$_Tree_node@U?$pair@$$CBVG4String@@PEAVG4tgbIsotope@@@std@@PEAX@std@@@std@@@?$_Tree_val@U?$_Tree_simple_types@U?$pair@$$CBVG4String@@PEAVG4tgbIsotope@@@std@@@std@@@std@@QEAAXAEAV?$allocator@U?$_Tree_node@U?$pair@$$CBVG4String@@PEAVG4tgbIsotope@@@std@@PEAX@std@@@1@PEAU?$_Tree_node@U?$pair@$$CBVG4String@@PEAVG4tgbIsotope@@@std@@PEAX@1@@Z
	??$_Erase_tree@V?$allocator@U?$_Tree_node@U?$pair@$$CBVG4String@@PEAVG4tgbMaterial@@@std@@PEAX@std@@@std@@@?$_Tree_val@U?$_Tree_simple_types@U?$pair@$$CBVG4String@@PEAVG4tgbMaterial@@@std@@@std@@@std@@QEAAXAEAV?$allocator@U?$_Tree_node@U?$pair@$$CBVG4String@@PEAVG4tgbMaterial@@@std@@PEAX@std@@@1@PEAU?$_Tree_node@U?$pair@$$CBVG4String@@PEAVG4tgbMaterial@@@std@@PEAX@1@@Z
	??$_Erase_tree@V?$allocator@U?$_Tree_node@U?$pair@$$CBVG4String@@PEAVG4tgbRotationMatrix@@@std@@PEAX@std@@@std@@@?$_Tree_val@U?$_Tree_simple_types@U?$pair@$$CBVG4String@@PEAVG4tgbRotationMatrix@@@std@@@std@@@std@@QEAAXAEAV?$allocator@U?$_Tree_node@U?$pair@$$CBVG4String@@PEAVG4tgbRotationMatrix@@@std@@PEAX@std@@@1@PEAU?$_Tree_node@U?$pair@$$CBVG4String@@PEAVG4tgbRotationMatrix@@@std@@PEAX@1@@Z
	??$_Erase_tree@V?$allocator@U?$_Tree_node@U?$pair@$$CBVG4String@@PEAVG4tgbVolume@@@std@@PEAX@std@@@std@@@?$_Tree_val@U?$_Tree_simple_types@U?$pair@$$CBVG4String@@PEAVG4tgbVolume@@@std@@@std@@@std@@QEAAXAEAV?$allocator@U?$_Tree_node@U?$pair@$$CBVG4String@@PEAVG4tgbVolume@@@std@@PEAX@std@@@1@PEAU?$_Tree_node@U?$pair@$$CBVG4String@@PEAVG4tgbVolume@@@std@@PEAX@1@@Z
	??$_Erase_tree@V?$allocator@U?$_Tree_node@U?$pair@$$CBVG4String@@PEAVG4tgrElement@@@std@@PEAX@std@@@std@@@?$_Tree_val@U?$_Tree_simple_types@U?$pair@$$CBVG4String@@PEAVG4tgrElement@@@std@@@std@@@std@@QEAAXAEAV?$allocator@U?$_Tree_node@U?$pair@$$CBVG4String@@PEAVG4tgrElement@@@std@@PEAX@std@@@1@PEAU?$_Tree_node@U?$pair@$$CBVG4String@@PEAVG4tgrElement@@@std@@PEAX@1@@Z
	??$_Erase_tree@V?$allocator@U?$_Tree_node@U?$pair@$$CBVG4String@@PEAVG4tgrIsotope@@@std@@PEAX@std@@@std@@@?$_Tree_val@U?$_Tree_simple_types@U?$pair@$$CBVG4String@@PEAVG4tgrIsotope@@@std@@@std@@@std@@QEAAXAEAV?$allocator@U?$_Tree_node@U?$pair@$$CBVG4String@@PEAVG4tgrIsotope@@@std@@PEAX@std@@@1@PEAU?$_Tree_node@U?$pair@$$CBVG4String@@PEAVG4tgrIsotope@@@std@@PEAX@1@@Z
	??$_Erase_tree@V?$allocator@U?$_Tree_node@U?$pair@$$CBVG4String@@PEAVG4tgrMaterial@@@std@@PEAX@std@@@std@@@?$_Tree_val@U?$_Tree_simple_types@U?$pair@$$CBVG4String@@PEAVG4tgrMaterial@@@std@@@std@@@std@@QEAAXAEAV?$allocator@U?$_Tree_node@U?$pair@$$CBVG4String@@PEAVG4tgrMaterial@@@std@@PEAX@std@@@1@PEAU?$_Tree_node@U?$pair@$$CBVG4String@@PEAVG4tgrMaterial@@@std@@PEAX@1@@Z
	??$_Erase_tree@V?$allocator@U?$_Tree_node@U?$pair@$$CBVG4String@@PEAVG4tgrRotationMatrix@@@std@@PEAX@std@@@std@@@?$_Tree_val@U?$_Tree_simple_types@U?$pair@$$CBVG4String@@PEAVG4tgrRotationMatrix@@@std@@@std@@@std@@QEAAXAEAV?$allocator@U?$_Tree_node@U?$pair@$$CBVG4String@@PEAVG4tgrRotationMatrix@@@std@@PEAX@std@@@1@PEAU?$_Tree_node@U?$pair@$$CBVG4String@@PEAVG4tgrRotationMatrix@@@std@@PEAX@1@@Z
	??$_Erase_tree@V?$allocator@U?$_Tree_node@U?$pair@$$CBVG4String@@PEAVG4tgrSolid@@@std@@PEAX@std@@@std@@@?$_Tree_val@U?$_Tree_simple_types@U?$pair@$$CBVG4String@@PEAVG4tgrSolid@@@std@@@std@@@std@@QEAAXAEAV?$allocator@U?$_Tree_node@U?$pair@$$CBVG4String@@PEAVG4tgrSolid@@@std@@PEAX@std@@@1@PEAU?$_Tree_node@U?$pair@$$CBVG4String@@PEAVG4tgrSolid@@@std@@PEAX@1@@Z
	??$_Erase_tree@V?$allocator@U?$_Tree_node@U?$pair@$$CBVG4String@@PEAVG4tgrVolume@@@std@@PEAX@std@@@std@@@?$_Tree_val@U?$_Tree_simple_types@U?$pair@$$CBVG4String@@PEAVG4tgrVolume@@@std@@@std@@@std@@QEAAXAEAV?$allocator@U?$_Tree_node@U?$pair@$$CBVG4String@@PEAVG4tgrVolume@@@std@@PEAX@std@@@1@PEAU?$_Tree_node@U?$pair@$$CBVG4String@@PEAVG4tgrVolume@@@std@@PEAX@1@@Z
	??$_Erase_tree@V?$allocator@U?$_Tree_node@U?$pair@$$CBVG4String@@PEAVHepRotation@CLHEP@@@std@@PEAX@std@@@std@@@?$_Tree_val@U?$_Tree_simple_types@U?$pair@$$CBVG4String@@PEAVHepRotation@CLHEP@@@std@@@std@@@std@@QEAAXAEAV?$allocator@U?$_Tree_node@U?$pair@$$CBVG4String@@PEAVHepRotation@CLHEP@@@std@@PEAX@std@@@1@PEAU?$_Tree_node@U?$pair@$$CBVG4String@@PEAVHepRotation@CLHEP@@@std@@PEAX@1@@Z
	??$_Erase_tree@V?$allocator@U?$_Tree_node@U?$pair@$$CBVG4String@@PEBVG4tgrPlace@@@std@@PEAX@std@@@std@@@?$_Tree_val@U?$_Tree_simple_types@U?$pair@$$CBVG4String@@PEBVG4tgrPlace@@@std@@@std@@@std@@QEAAXAEAV?$allocator@U?$_Tree_node@U?$pair@$$CBVG4String@@PEBVG4tgrPlace@@@std@@PEAX@std@@@1@PEAU?$_Tree_node@U?$pair@$$CBVG4String@@PEBVG4tgrPlace@@@std@@PEAX@1@@Z
	??$_Erase_tree@V?$allocator@U?$_Tree_node@U?$pair@$$CBVG4String@@V1@@std@@PEAX@std@@@std@@@?$_Tree_val@U?$_Tree_simple_types@U?$pair@$$CBVG4String@@V1@@std@@@std@@@std@@QEAAXAEAV?$allocator@U?$_Tree_node@U?$pair@$$CBVG4String@@V1@@std@@PEAX@std@@@1@PEAU?$_Tree_node@U?$pair@$$CBVG4String@@V1@@std@@PEAX@1@@Z
	??$_Erase_tree@V?$allocator@U?$_Tree_node@U?$pair@$$CBVG4String@@V?$set@HU?$less@H@std@@V?$allocator@H@2@@std@@@std@@PEAX@std@@@std@@@?$_Tree_val@U?$_Tree_simple_types@U?$pair@$$CBVG4String@@V?$set@HU?$less@H@std@@V?$allocator@H@2@@std@@@std@@@std@@@std@@QEAAXAEAV?$allocator@U?$_Tree_node@U?$pair@$$CBVG4String@@V?$set@HU?$less@H@std@@V?$allocator@H@2@@std@@@std@@PEAX@std@@@1@PEAU?$_Tree_node@U?$pair@$$CBVG4String@@V?$set@HU?$less@H@std@@V?$allocator@H@2@@std@@@std@@PEAX@1@@Z
	??$_Erase_tree@V?$allocator@U?$_Tree_node@U?$pair@QEAVG4LogicalVolume@@PEAV1@@std@@PEAX@std@@@std@@@?$_Tree_val@U?$_Tree_simple_types@U?$pair@QEAVG4LogicalVolume@@PEAV1@@std@@@std@@@std@@QEAAXAEAV?$allocator@U?$_Tree_node@U?$pair@QEAVG4LogicalVolume@@PEAV1@@std@@PEAX@std@@@1@PEAU?$_Tree_node@U?$pair@QEAVG4LogicalVolume@@PEAV1@@std@@PEAX@1@@Z
	??$_Erase_tree@V?$allocator@U?$_Tree_node@U?$pair@QEAVG4MCTSimParticle@@U?$pair@PEAXPEAX@std@@@std@@PEAX@std@@@std@@@?$_Tree_val@U?$_Tree_simple_types@U?$pair@QEAVG4MCTSimParticle@@U?$pair@PEAXPEAX@std@@@std@@@std@@@std@@QEAAXAEAV?$allocator@U?$_Tree_node@U?$pair@QEAVG4MCTSimParticle@@U?$pair@PEAXPEAX@std@@@std@@PEAX@std@@@1@PEAU?$_Tree_node@U?$pair@QEAVG4MCTSimParticle@@U?$pair@PEAXPEAX@std@@@std@@PEAX@1@@Z
	??$_Erase_tree@V?$allocator@U?$_Tree_node@U?$pair@QEAVG4VPhysicalVolume@@PEAV1@@std@@PEAX@std@@@std@@@?$_Tree_val@U?$_Tree_simple_types@U?$pair@QEAVG4VPhysicalVolume@@PEAV1@@std@@@std@@@std@@QEAAXAEAV?$allocator@U?$_Tree_node@U?$pair@QEAVG4VPhysicalVolume@@PEAV1@@std@@PEAX@std@@@1@PEAU?$_Tree_node@U?$pair@QEAVG4VPhysicalVolume@@PEAV1@@std@@PEAX@1@@Z
	??$_Erase_tree_and_orphan@V?$allocator@U?$_Tree_node@HPEAX@std@@@std@@@?$_Tree_val@U?$_Tree_simple_types@H@std@@@std@@QEAAXAEAV?$allocator@U?$_Tree_node@HPEAX@std@@@1@PEAU?$_Tree_node@HPEAX@1@@Z
	??$_Erase_tree_and_orphan@V?$allocator@U?$_Tree_node@U?$pair@$$CBVG4String@@PEAVG4Element@@@std@@PEAX@std@@@std@@@?$_Tree_val@U?$_Tree_simple_types@U?$pair@$$CBVG4String@@PEAVG4Element@@@std@@@std@@@std@@QEAAXAEAV?$allocator@U?$_Tree_node@U?$pair@$$CBVG4String@@PEAVG4Element@@@std@@PEAX@std@@@1@PEAU?$_Tree_node@U?$pair@$$CBVG4String@@PEAVG4Element@@@std@@PEAX@1@@Z
	??$_Erase_tree_and_orphan@V?$allocator@U?$_Tree_node@U?$pair@$$CBVG4String@@PEAVG4Isotope@@@std@@PEAX@std@@@std@@@?$_Tree_val@U?$_Tree_simple_types@U?$pair@$$CBVG4String@@PEAVG4Isotope@@@std@@@std@@@std@@QEAAXAEAV?$allocator@U?$_Tree_node@U?$pair@$$CBVG4String@@PEAVG4Isotope@@@std@@PEAX@std@@@1@PEAU?$_Tree_node@U?$pair@$$CBVG4String@@PEAVG4Isotope@@@std@@PEAX@1@@Z
	??$_Erase_tree_and_orphan@V?$allocator@U?$_Tree_node@U?$pair@$$CBVG4String@@PEAVG4LogicalVolume@@@std@@PEAX@std@@@std@@@?$_Tree_val@U?$_Tree_simple_types@U?$pair@$$CBVG4String@@PEAVG4LogicalVolume@@@std@@@std@@@std@@QEAAXAEAV?$allocator@U?$_Tree_node@U?$pair@$$CBVG4String@@PEAVG4LogicalVolume@@@std@@PEAX@std@@@1@PEAU?$_Tree_node@U?$pair@$$CBVG4String@@PEAVG4LogicalVolume@@@std@@PEAX@1@@Z
	??$_Erase_tree_and_orphan@V?$allocator@U?$_Tree_node@U?$pair@$$CBVG4String@@PEAVG4Material@@@std@@PEAX@std@@@std@@@?$_Tree_val@U?$_Tree_simple_types@U?$pair@$$CBVG4String@@PEAVG4Material@@@std@@@std@@@std@@QEAAXAEAV?$allocator@U?$_Tree_node@U?$pair@$$CBVG4String@@PEAVG4Material@@@std@@PEAX@std@@@1@PEAU?$_Tree_node@U?$pair@$$CBVG4String@@PEAVG4Material@@@std@@PEAX@1@@Z
	??$_Erase_tree_and_orphan@V?$allocator@U?$_Tree_node@U?$pair@$$CBVG4String@@PEAVG4VSolid@@@std@@PEAX@std@@@std@@@?$_Tree_val@U?$_Tree_simple_types@U?$pair@$$CBVG4String@@PEAVG4VSolid@@@std@@@std@@@std@@QEAAXAEAV?$allocator@U?$_Tree_node@U?$pair@$$CBVG4String@@PEAVG4VSolid@@@std@@PEAX@std@@@1@PEAU?$_Tree_node@U?$pair@$$CBVG4String@@PEAVG4VSolid@@@std@@PEAX@1@@Z
	??$_Erase_tree_and_orphan@V?$allocator@U?$_Tree_node@U?$pair@$$CBVG4String@@PEAVG4tgrElement@@@std@@PEAX@std@@@std@@@?$_Tree_val@U?$_Tree_simple_types@U?$pair@$$CBVG4String@@PEAVG4tgrElement@@@std@@@std@@@std@@QEAAXAEAV?$allocator@U?$_Tree_node@U?$pair@$$CBVG4String@@PEAVG4tgrElement@@@std@@PEAX@std@@@1@PEAU?$_Tree_node@U?$pair@$$CBVG4String@@PEAVG4tgrElement@@@std@@PEAX@1@@Z
	??$_Erase_tree_and_orphan@V?$allocator@U?$_Tree_node@U?$pair@$$CBVG4String@@PEAVG4tgrIsotope@@@std@@PEAX@std@@@std@@@?$_Tree_val@U?$_Tree_simple_types@U?$pair@$$CBVG4String@@PEAVG4tgrIsotope@@@std@@@std@@@std@@QEAAXAEAV?$allocator@U?$_Tree_node@U?$pair@$$CBVG4String@@PEAVG4tgrIsotope@@@std@@PEAX@std@@@1@PEAU?$_Tree_node@U?$pair@$$CBVG4String@@PEAVG4tgrIsotope@@@std@@PEAX@1@@Z
	??$_Erase_tree_and_orphan@V?$allocator@U?$_Tree_node@U?$pair@$$CBVG4String@@PEAVG4tgrMaterial@@@std@@PEAX@std@@@std@@@?$_Tree_val@U?$_Tree_simple_types@U?$pair@$$CBVG4String@@PEAVG4tgrMaterial@@@std@@@std@@@std@@QEAAXAEAV?$allocator@U?$_Tree_node@U?$pair@$$CBVG4String@@PEAVG4tgrMaterial@@@std@@PEAX@std@@@1@PEAU?$_Tree_node@U?$pair@$$CBVG4String@@PEAVG4tgrMaterial@@@std@@PEAX@1@@Z
	??$_Erase_tree_and_orphan@V?$allocator@U?$_Tree_node@U?$pair@$$CBVG4String@@PEAVG4tgrRotationMatrix@@@std@@PEAX@std@@@std@@@?$_Tree_val@U?$_Tree_simple_types@U?$pair@$$CBVG4String@@PEAVG4tgrRotationMatrix@@@std@@@std@@@std@@QEAAXAEAV?$allocator@U?$_Tree_node@U?$pair@$$CBVG4String@@PEAVG4tgrRotationMatrix@@@std@@PEAX@std@@@1@PEAU?$_Tree_node@U?$pair@$$CBVG4String@@PEAVG4tgrRotationMatrix@@@std@@PEAX@1@@Z
	??$_Erase_tree_and_orphan@V?$allocator@U?$_Tree_node@U?$pair@$$CBVG4String@@PEAVG4tgrVolume@@@std@@PEAX@std@@@std@@@?$_Tree_val@U?$_Tree_simple_types@U?$pair@$$CBVG4String@@PEAVG4tgrVolume@@@std@@@std@@@std@@QEAAXAEAV?$allocator@U?$_Tree_node@U?$pair@$$CBVG4String@@PEAVG4tgrVolume@@@std@@PEAX@std@@@1@PEAU?$_Tree_node@U?$pair@$$CBVG4String@@PEAVG4tgrVolume@@@std@@PEAX@1@@Z
	??$_Find_lower_bound@V?$basic_string@DU?$char_traits@D@std@@V?$allocator@D@2@@std@@@?$_Tree@V?$_Tmap_traits@V?$basic_string@DU?$char_traits@D@std@@V?$allocator@D@2@@std@@PEAVG4PersistencyManager@@U?$less@V?$basic_string@DU?$char_traits@D@std@@V?$allocator@D@2@@std@@@2@V?$allocator@U?$pair@$$CBV?$basic_string@DU?$char_traits@D@std@@V?$allocator@D@2@@std@@PEAVG4PersistencyManager@@@std@@@2@$0A@@std@@@std@@IEBA?AU?$_Tree_find_result@PEAU?$_Tree_node@U?$pair@$$CBV?$basic_string@DU?$char_traits@D@std@@V?$allocator@D@2@@std@@PEAVG4PersistencyManager@@@std@@PEAX@std@@@1@AEBV?$basic_string@DU?$char_traits@D@std@@V?$allocator@D@2@@1@@Z
	??$_Find_lower_bound@V?$basic_string@DU?$char_traits@D@std@@V?$allocator@D@2@@std@@@?$_Tree@V?$_Tmap_traits@V?$basic_string@DU?$char_traits@D@std@@V?$allocator@D@2@@std@@PEAVG4VDCIOentry@@U?$less@V?$basic_string@DU?$char_traits@D@std@@V?$allocator@D@2@@std@@@2@V?$allocator@U?$pair@$$CBV?$basic_string@DU?$char_traits@D@std@@V?$allocator@D@2@@std@@PEAVG4VDCIOentry@@@std@@@2@$0A@@std@@@std@@IEBA?AU?$_Tree_find_result@PEAU?$_Tree_node@U?$pair@$$CBV?$basic_string@DU?$char_traits@D@std@@V?$allocator@D@2@@std@@PEAVG4VDCIOentry@@@std@@PEAX@std@@@1@AEBV?$basic_string@DU?$char_traits@D@std@@V?$allocator@D@2@@1@@Z
	??$_Find_lower_bound@V?$basic_string@DU?$char_traits@D@std@@V?$allocator@D@2@@std@@@?$_Tree@V?$_Tmap_traits@V?$basic_string@DU?$char_traits@D@std@@V?$allocator@D@2@@std@@PEAVG4VHCIOentry@@U?$less@V?$basic_string@DU?$char_traits@D@std@@V?$allocator@D@2@@std@@@2@V?$allocator@U?$pair@$$CBV?$basic_string@DU?$char_traits@D@std@@V?$allocator@D@2@@std@@PEAVG4VHCIOentry@@@std@@@2@$0A@@std@@@std@@IEBA?AU?$_Tree_find_result@PEAU?$_Tree_node@U?$pair@$$CBV?$basic_string@DU?$char_traits@D@std@@V?$allocator@D@2@@std@@PEAVG4VHCIOentry@@@std@@PEAX@std@@@1@AEBV?$basic_string@DU?$char_traits@D@std@@V?$allocator@D@2@@1@@Z
	??$_Find_lower_bound@V?$basic_string@DU?$char_traits@D@std@@V?$allocator@D@2@@std@@@?$_Tree@V?$_Tmap_traits@V?$basic_string@DU?$char_traits@D@std@@V?$allocator@D@2@@std@@PEAVG4VPDigitsCollectionIO@@U?$less@V?$basic_string@DU?$char_traits@D@std@@V?$allocator@D@2@@std@@@2@V?$allocator@U?$pair@$$CBV?$basic_string@DU?$char_traits@D@std@@V?$allocator@D@2@@std@@PEAVG4VPDigitsCollectionIO@@@std@@@2@$0A@@std@@@std@@IEBA?AU?$_Tree_find_result@PEAU?$_Tree_node@U?$pair@$$CBV?$basic_string@DU?$char_traits@D@std@@V?$allocator@D@2@@std@@PEAVG4VPDigitsCollectionIO@@@std@@PEAX@std@@@1@AEBV?$basic_string@DU?$char_traits@D@std@@V?$allocator@D@2@@1@@Z
	??$_Find_lower_bound@V?$basic_string@DU?$char_traits@D@std@@V?$allocator@D@2@@std@@@?$_Tree@V?$_Tmap_traits@V?$basic_string@DU?$char_traits@D@std@@V?$allocator@D@2@@std@@PEAVG4VPHitsCollectionIO@@U?$less@V?$basic_string@DU?$char_traits@D@std@@V?$allocator@D@2@@std@@@2@V?$allocator@U?$pair@$$CBV?$basic_string@DU?$char_traits@D@std@@V?$allocator@D@2@@std@@PEAVG4VPHitsCollectionIO@@@std@@@2@$0A@@std@@@std@@IEBA?AU?$_Tree_find_result@PEAU?$_Tree_node@U?$pair@$$CBV?$basic_string@DU?$char_traits@D@std@@V?$allocator@D@2@@std@@PEAVG4VPHitsCollectionIO@@@std@@PEAX@std@@@1@AEBV?$basic_string@DU?$char_traits@D@std@@V?$allocator@D@2@@1@@Z
	??$_Find_lower_bound@V?$basic_string@DU?$char_traits@D@std@@V?$allocator@D@2@@std@@@?$_Tree@V?$_Tmap_traits@V?$basic_string@DU?$char_traits@D@std@@V?$allocator@D@2@@std@@V12@U?$less@V?$basic_string@DU?$char_traits@D@std@@V?$allocator@D@2@@std@@@2@V?$allocator@U?$pair@$$CBV?$basic_string@DU?$char_traits@D@std@@V?$allocator@D@2@@std@@V12@@std@@@2@$0A@@std@@@std@@IEBA?AU?$_Tree_find_result@PEAU?$_Tree_node@U?$pair@$$CBV?$basic_string@DU?$char_traits@D@std@@V?$allocator@D@2@@std@@V12@@std@@PEAX@std@@@1@AEBV?$basic_string@DU?$char_traits@D@std@@V?$allocator@D@2@@1@@Z
	??$_Find_lower_bound@V?$basic_string@DU?$char_traits@D@std@@V?$allocator@D@2@@std@@@?$_Tree@V?$_Tmap_traits@V?$basic_string@DU?$char_traits@D@std@@V?$allocator@D@2@@std@@W4StoreMode@@U?$less@V?$basic_string@DU?$char_traits@D@std@@V?$allocator@D@2@@std@@@2@V?$allocator@U?$pair@$$CBV?$basic_string@DU?$char_traits@D@std@@V?$allocator@D@2@@std@@W4StoreMode@@@std@@@2@$0A@@std@@@std@@IEBA?AU?$_Tree_find_result@PEAU?$_Tree_node@U?$pair@$$CBV?$basic_string@DU?$char_traits@D@std@@V?$allocator@D@2@@std@@W4StoreMode@@@std@@PEAX@std@@@1@AEBV?$basic_string@DU?$char_traits@D@std@@V?$allocator@D@2@@1@@Z
	??$_Find_lower_bound@V?$basic_string@DU?$char_traits@D@std@@V?$allocator@D@2@@std@@@?$_Tree@V?$_Tmap_traits@V?$basic_string@DU?$char_traits@D@std@@V?$allocator@D@2@@std@@_NU?$less@V?$basic_string@DU?$char_traits@D@std@@V?$allocator@D@2@@std@@@2@V?$allocator@U?$pair@$$CBV?$basic_string@DU?$char_traits@D@std@@V?$allocator@D@2@@std@@_N@std@@@2@$0A@@std@@@std@@IEBA?AU?$_Tree_find_result@PEAU?$_Tree_node@U?$pair@$$CBV?$basic_string@DU?$char_traits@D@std@@V?$allocator@D@2@@std@@_N@std@@PEAX@std@@@1@AEBV?$basic_string@DU?$char_traits@D@std@@V?$allocator@D@2@@1@@Z
	??$_Find_lower_bound@VG4String@@@?$_Tree@V?$_Tmap_traits@VG4String@@PEAVG4Element@@U?$less@VG4String@@@std@@V?$allocator@U?$pair@$$CBVG4String@@PEAVG4Element@@@std@@@4@$0A@@std@@@std@@IEBA?AU?$_Tree_find_result@PEAU?$_Tree_node@U?$pair@$$CBVG4String@@PEAVG4Element@@@std@@PEAX@std@@@1@AEBVG4String@@@Z
	??$_Find_lower_bound@VG4String@@@?$_Tree@V?$_Tmap_traits@VG4String@@PEAVG4Isotope@@U?$less@VG4String@@@std@@V?$allocator@U?$pair@$$CBVG4String@@PEAVG4Isotope@@@std@@@4@$0A@@std@@@std@@IEBA?AU?$_Tree_find_result@PEAU?$_Tree_node@U?$pair@$$CBVG4String@@PEAVG4Isotope@@@std@@PEAX@std@@@1@AEBVG4String@@@Z
	??$_Find_lower_bound@VG4String@@@?$_Tree@V?$_Tmap_traits@VG4String@@PEAVG4LogicalVolume@@U?$less@VG4String@@@std@@V?$allocator@U?$pair@$$CBVG4String@@PEAVG4LogicalVolume@@@std@@@4@$0A@@std@@@std@@IEBA?AU?$_Tree_find_result@PEAU?$_Tree_node@U?$pair@$$CBVG4String@@PEAVG4LogicalVolume@@@std@@PEAX@std@@@1@AEBVG4String@@@Z
	??$_Find_lower_bound@VG4String@@@?$_Tree@V?$_Tmap_traits@VG4String@@PEAVG4Material@@U?$less@VG4String@@@std@@V?$allocator@U?$pair@$$CBVG4String@@PEAVG4Material@@@std@@@4@$0A@@std@@@std@@IEBA?AU?$_Tree_find_result@PEAU?$_Tree_node@U?$pair@$$CBVG4String@@PEAVG4Material@@@std@@PEAX@std@@@1@AEBVG4String@@@Z
	??$_Find_lower_bound@VG4String@@@?$_Tree@V?$_Tmap_traits@VG4String@@PEAVG4VPhysicalVolume@@U?$less@VG4String@@@std@@V?$allocator@U?$pair@$$CBVG4String@@PEAVG4VPhysicalVolume@@@std@@@4@$0A@@std@@@std@@IEBA?AU?$_Tree_find_result@PEAU?$_Tree_node@U?$pair@$$CBVG4String@@PEAVG4VPhysicalVolume@@@std@@PEAX@std@@@1@AEBVG4String@@@Z
	??$_Find_lower_bound@VG4String@@@?$_Tree@V?$_Tmap_traits@VG4String@@PEAVG4VSolid@@U?$less@VG4String@@@std@@V?$allocator@U?$pair@$$CBVG4String@@PEAVG4VSolid@@@std@@@4@$0A@@std@@@std@@IEBA?AU?$_Tree_find_result@PEAU?$_Tree_node@U?$pair@$$CBVG4String@@PEAVG4VSolid@@@std@@PEAX@std@@@1@AEBVG4String@@@Z
	??$_Find_lower_bound@VG4String@@@?$_Tree@V?$_Tmap_traits@VG4String@@PEAVG4tgbElement@@U?$less@VG4String@@@std@@V?$allocator@U?$pair@$$CBVG4String@@PEAVG4tgbElement@@@std@@@4@$0A@@std@@@std@@IEBA?AU?$_Tree_find_result@PEAU?$_Tree_node@U?$pair@$$CBVG4String@@PEAVG4tgbElement@@@std@@PEAX@std@@@1@AEBVG4String@@@Z
	??$_Find_lower_bound@VG4String@@@?$_Tree@V?$_Tmap_traits@VG4String@@PEAVG4tgbIsotope@@U?$less@VG4String@@@std@@V?$allocator@U?$pair@$$CBVG4String@@PEAVG4tgbIsotope@@@std@@@4@$0A@@std@@@std@@IEBA?AU?$_Tree_find_result@PEAU?$_Tree_node@U?$pair@$$CBVG4String@@PEAVG4tgbIsotope@@@std@@PEAX@std@@@1@AEBVG4String@@@Z
	??$_Find_lower_bound@VG4String@@@?$_Tree@V?$_Tmap_traits@VG4String@@PEAVG4tgbMaterial@@U?$less@VG4String@@@std@@V?$allocator@U?$pair@$$CBVG4String@@PEAVG4tgbMaterial@@@std@@@4@$0A@@std@@@std@@IEBA?AU?$_Tree_find_result@PEAU?$_Tree_node@U?$pair@$$CBVG4String@@PEAVG4tgbMaterial@@@std@@PEAX@std@@@1@AEBVG4String@@@Z
	??$_Find_lower_bound@VG4String@@@?$_Tree@V?$_Tmap_traits@VG4String@@PEAVG4tgbRotationMatrix@@U?$less@VG4String@@@std@@V?$allocator@U?$pair@$$CBVG4String@@PEAVG4tgbRotationMatrix@@@std@@@4@$0A@@std@@@std@@IEBA?AU?$_Tree_find_result@PEAU?$_Tree_node@U?$pair@$$CBVG4String@@PEAVG4tgbRotationMatrix@@@std@@PEAX@std@@@1@AEBVG4String@@@Z
	??$_Find_lower_bound@VG4String@@@?$_Tree@V?$_Tmap_traits@VG4String@@PEAVG4tgbVolume@@U?$less@VG4String@@@std@@V?$allocator@U?$pair@$$CBVG4String@@PEAVG4tgbVolume@@@std@@@4@$0A@@std@@@std@@IEBA?AU?$_Tree_find_result@PEAU?$_Tree_node@U?$pair@$$CBVG4String@@PEAVG4tgbVolume@@@std@@PEAX@std@@@1@AEBVG4String@@@Z
	??$_Find_lower_bound@VG4String@@@?$_Tree@V?$_Tmap_traits@VG4String@@PEAVG4tgrElement@@U?$less@VG4String@@@std@@V?$allocator@U?$pair@$$CBVG4String@@PEAVG4tgrElement@@@std@@@4@$0A@@std@@@std@@IEBA?AU?$_Tree_find_result@PEAU?$_Tree_node@U?$pair@$$CBVG4String@@PEAVG4tgrElement@@@std@@PEAX@std@@@1@AEBVG4String@@@Z
	??$_Find_lower_bound@VG4String@@@?$_Tree@V?$_Tmap_traits@VG4String@@PEAVG4tgrIsotope@@U?$less@VG4String@@@std@@V?$allocator@U?$pair@$$CBVG4String@@PEAVG4tgrIsotope@@@std@@@4@$0A@@std@@@std@@IEBA?AU?$_Tree_find_result@PEAU?$_Tree_node@U?$pair@$$CBVG4String@@PEAVG4tgrIsotope@@@std@@PEAX@std@@@1@AEBVG4String@@@Z
	??$_Find_lower_bound@VG4String@@@?$_Tree@V?$_Tmap_traits@VG4String@@PEAVG4tgrMaterial@@U?$less@VG4String@@@std@@V?$allocator@U?$pair@$$CBVG4String@@PEAVG4tgrMaterial@@@std@@@4@$0A@@std@@@std@@IEBA?AU?$_Tree_find_result@PEAU?$_Tree_node@U?$pair@$$CBVG4String@@PEAVG4tgrMaterial@@@std@@PEAX@std@@@1@AEBVG4String@@@Z
	??$_Find_lower_bound@VG4String@@@?$_Tree@V?$_Tmap_traits@VG4String@@PEAVG4tgrRotationMatrix@@U?$less@VG4String@@@std@@V?$allocator@U?$pair@$$CBVG4String@@PEAVG4tgrRotationMatrix@@@std@@@4@$0A@@std@@@std@@IEBA?AU?$_Tree_find_result@PEAU?$_Tree_node@U?$pair@$$CBVG4String@@PEAVG4tgrRotationMatrix@@@std@@PEAX@std@@@1@AEBVG4String@@@Z
	??$_Find_lower_bound@VG4String@@@?$_Tree@V?$_Tmap_traits@VG4String@@PEAVG4tgrSolid@@U?$less@VG4String@@@std@@V?$allocator@U?$pair@$$CBVG4String@@PEAVG4tgrSolid@@@std@@@4@$0A@@std@@@std@@IEBA?AU?$_Tree_find_result@PEAU?$_Tree_node@U?$pair@$$CBVG4String@@PEAVG4tgrSolid@@@std@@PEAX@std@@@1@AEBVG4String@@@Z
	??$_Find_lower_bound@VG4String@@@?$_Tree@V?$_Tmap_traits@VG4String@@PEAVG4tgrVolume@@U?$less@VG4String@@@std@@V?$allocator@U?$pair@$$CBVG4String@@PEAVG4tgrVolume@@@std@@@4@$0A@@std@@@std@@IEBA?AU?$_Tree_find_result@PEAU?$_Tree_node@U?$pair@$$CBVG4String@@PEAVG4tgrVolume@@@std@@PEAX@std@@@1@AEBVG4String@@@Z
	??$_Find_lower_bound@VG4String@@@?$_Tree@V?$_Tmap_traits@VG4String@@V1@U?$less@VG4String@@@std@@V?$allocator@U?$pair@$$CBVG4String@@V1@@std@@@3@$0A@@std@@@std@@IEBA?AU?$_Tree_find_result@PEAU?$_Tree_node@U?$pair@$$CBVG4String@@V1@@std@@PEAX@std@@@1@AEBVG4String@@@Z
	??$_Find_lower_bound@VG4String@@@?$_Tree@V?$_Tmap_traits@VG4String@@V?$set@HU?$less@H@std@@V?$allocator@H@2@@std@@U?$less@VG4String@@@3@V?$allocator@U?$pair@$$CBVG4String@@V?$set@HU?$less@H@std@@V?$allocator@H@2@@std@@@std@@@3@$0A@@std@@@std@@IEBA?AU?$_Tree_find_result@PEAU?$_Tree_node@U?$pair@$$CBVG4String@@V?$set@HU?$less@H@std@@V?$allocator@H@2@@std@@@std@@PEAX@std@@@1@AEBVG4String@@@Z
	??$_Freenode@V?$allocator@U?$_Tree_node@U?$pair@$$CBVG4String@@PEAVG4tgrSolid@@@std@@PEAX@std@@@std@@@?$_Tree_node@U?$pair@$$CBVG4String@@PEAVG4tgrSolid@@@std@@PEAX@std@@SAXAEAV?$allocator@U?$_Tree_node@U?$pair@$$CBVG4String@@PEAVG4tgrSolid@@@std@@PEAX@std@@@1@PEAU01@@Z
	??$_Freenode@V?$allocator@U?$_Tree_node@U?$pair@$$CBVG4String@@PEAVG4tgrVolume@@@std@@PEAX@std@@@std@@@?$_Tree_node@U?$pair@$$CBVG4String@@PEAVG4tgrVolume@@@std@@PEAX@std@@SAXAEAV?$allocator@U?$_Tree_node@U?$pair@$$CBVG4String@@PEAVG4tgrVolume@@@std@@PEAX@std@@@1@PEAU01@@Z
	??$_Getvals@_W@?$time_get@DV?$istreambuf_iterator@DU?$char_traits@D@std@@@std@@@std@@IEAAX_WAEBV_Locinfo@1@@Z
	??$_Getvals@_W@?$time_get@_WV?$istreambuf_iterator@_WU?$char_traits@_W@std@@@std@@@std@@IEAAX_WAEBV_Locinfo@1@@Z
	??$_Insert_range@PEAVG4String@@@?$vector@VG4String@@V?$allocator@VG4String@@@std@@@std@@AEAAXV?$_Vector_const_iterator@V?$_Vector_val@U?$_Simple_types@VG4String@@@std@@@std@@@1@PEAVG4String@@1Uforward_iterator_tag@1@@Z
	??$_Insert_string@DU?$char_traits@D@std@@_K@std@@YAAEAV?$basic_ostream@DU?$char_traits@D@std@@@0@AEAV10@QEBD_K@Z
	??$_Maklocstr@D@std@@YAPEADPEBDPEADAEBU_Cvtvec@@@Z
	??$_Move_backward_unchecked@PEAVG4String@@PEAV1@@std@@YAPEAVG4String@@PEAV1@00@Z
	??$_Move_unchecked@PEAPEAVG4tgrVolume@@PEAPEAV1@@std@@YAPEAPEAVG4tgrVolume@@PEAPEAV1@00@Z
	??$_Move_unchecked@PEAVG4String@@PEAV1@@std@@YAPEAVG4String@@PEAV1@00@Z
	??$_Pocca@V?$allocator@D@std@@@std@@YAXAEAV?$allocator@D@0@AEBV10@@Z
	??$_Pocca@V?$allocator@N@std@@@std@@YAXAEAV?$allocator@N@0@AEBV10@@Z
	??$_Pocca@V?$allocator@PEAVG4tgrPlace@@@std@@@std@@YAXAEAV?$allocator@PEAVG4tgrPlace@@@0@AEBV10@@Z
	??$_Pocca@V?$allocator@U?$_Tree_node@HPEAX@std@@@std@@@std@@YAXAEAV?$allocator@U?$_Tree_node@HPEAX@std@@@0@AEBV10@@Z
	??$_Pocca@V?$allocator@VG4String@@@std@@@std@@YAXAEAV?$allocator@VG4String@@@0@AEBV10@@Z
	??$_Pocma@V?$allocator@D@std@@@std@@YAXAEAV?$allocator@D@0@0@Z
	??$_Pocma@V?$allocator@N@std@@@std@@YAXAEAV?$allocator@N@0@0@Z
	??$_Reallocate_grow_by@V<lambda_319d5e083f45f90dcdce5dce53cbb275>@@D@?$basic_string@DU?$char_traits@D@std@@V?$allocator@D@2@@std@@AEAAAEAV01@_KV<lambda_319d5e083f45f90dcdce5dce53cbb275>@@D@Z
	??$_Reallocate_grow_by@V<lambda_65e615be2a453ca0576c979606f46740>@@PEBD_K@?$basic_string@DU?$char_traits@D@std@@V?$allocator@D@2@@std@@AEAAAEAV01@_KV<lambda_65e615be2a453ca0576c979606f46740>@@PEBD_K@Z
	??$_Reallocate_grow_by@V<lambda_f3a66ab6a0570788f31503db83886f49>@@_KPEBD_K@?$basic_string@DU?$char_traits@D@std@@V?$allocator@D@2@@std@@AEAAAEAV01@_KV<lambda_f3a66ab6a0570788f31503db83886f49>@@_KPEBD2@Z
	??$_Refancy@PEAN$0A@@std@@YAPEANPEAN@Z
	??$_Refancy@PEAPEAVG4tgrPlace@@$0A@@std@@YAPEAPEAVG4tgrPlace@@PEAPEAV1@@Z
	??$_Traits_compare@U?$char_traits@D@std@@@std@@YAHQEBD_K01@Z
	??$_Traits_find@U?$char_traits@D@std@@@std@@YA_KQEBD_K101@Z
	??$_Try_emplace@AEBVG4String@@$$V@?$map@VG4String@@PEAVHepRotation@CLHEP@@U?$less@VG4String@@@std@@V?$allocator@U?$pair@$$CBVG4String@@PEAVHepRotation@CLHEP@@@std@@@5@@std@@AEAA?AU?$pair@PEAU?$_Tree_node@U?$pair@$$CBVG4String@@PEAVHepRotation@CLHEP@@@std@@PEAX@std@@_N@1@AEBVG4String@@@Z
	??$_Uninitialized_copy@PEAHV?$allocator@H@std@@@std@@YAPEAHQEAH0PEAHAEAV?$allocator@H@0@@Z
	??$_Uninitialized_copy@PEANV?$allocator@N@std@@@std@@YAPEANQEAN0PEANAEAV?$allocator@N@0@@Z
	??$_Uninitialized_copy@PEAPEAV?$basic_ifstream@DU?$char_traits@D@std@@@std@@V?$allocator@PEAV?$basic_ifstream@DU?$char_traits@D@std@@@std@@@2@@std@@YAPEAPEAV?$basic_ifstream@DU?$char_traits@D@std@@@0@QEAPEAV10@0PEAPEAV10@AEAV?$allocator@PEAV?$basic_ifstream@DU?$char_traits@D@std@@@std@@@0@@Z
	??$_Uninitialized_copy@PEAPEAV?$vector@NV?$allocator@N@std@@@std@@V?$allocator@PEAV?$vector@NV?$allocator@N@std@@@std@@@2@@std@@YAPEAPEAV?$vector@NV?$allocator@N@std@@@0@QEAPEAV10@0PEAPEAV10@AEAV?$allocator@PEAV?$vector@NV?$allocator@N@std@@@std@@@0@@Z
	??$_Uninitialized_copy@PEAPEAVG4tgrPlace@@V?$allocator@PEAVG4tgrPlace@@@std@@@std@@YAPEAPEAVG4tgrPlace@@QEAPEAV1@0PEAPEAV1@AEAV?$allocator@PEAVG4tgrPlace@@@0@@Z
	??$_Uninitialized_copy@PEAPEAVG4tgrRotationMatrix@@V?$allocator@PEAVG4tgrRotationMatrix@@@std@@@std@@YAPEAPEAVG4tgrRotationMatrix@@QEAPEAV1@0PEAPEAV1@AEAV?$allocator@PEAVG4tgrRotationMatrix@@@0@@Z
	??$_Uninitialized_copy@PEAVG4String@@V?$allocator@VG4String@@@std@@@std@@YAPEAVG4String@@QEAV1@0PEAV1@AEAV?$allocator@VG4String@@@0@@Z
	??$_Uninitialized_move@PEAHV?$allocator@H@std@@@std@@YAPEAHQEAH0PEAHAEAV?$allocator@H@0@@Z
	??$_Uninitialized_move@PEANV?$allocator@N@std@@@std@@YAPEANQEAN0PEANAEAV?$allocator@N@0@@Z
	??$_Uninitialized_move@PEAPEAV?$basic_ifstream@DU?$char_traits@D@std@@@std@@V?$allocator@PEAV?$basic_ifstream@DU?$char_traits@D@std@@@std@@@2@@std@@YAPEAPEAV?$basic_ifstream@DU?$char_traits@D@std@@@0@QEAPEAV10@0PEAPEAV10@AEAV?$allocator@PEAV?$basic_ifstream@DU?$char_traits@D@std@@@std@@@0@@Z
	??$_Uninitialized_move@PEAPEAV?$vector@NV?$allocator@N@std@@@std@@V?$allocator@PEAV?$vector@NV?$allocator@N@std@@@std@@@2@@std@@YAPEAPEAV?$vector@NV?$allocator@N@std@@@0@QEAPEAV10@0PEAPEAV10@AEAV?$allocator@PEAV?$vector@NV?$allocator@N@std@@@std@@@0@@Z
	??$_Uninitialized_move@PEAPEAVG4MCTSimParticle@@V?$allocator@PEAVG4MCTSimParticle@@@std@@@std@@YAPEAPEAVG4MCTSimParticle@@QEAPEAV1@0PEAPEAV1@AEAV?$allocator@PEAVG4MCTSimParticle@@@0@@Z
	??$_Uninitialized_move@PEAPEAVG4MCTSimVertex@@V?$allocator@PEAVG4MCTSimVertex@@@std@@@std@@YAPEAPEAVG4MCTSimVertex@@QEAPEAV1@0PEAPEAV1@AEAV?$allocator@PEAVG4MCTSimVertex@@@0@@Z
	??$_Uninitialized_move@PEAPEAVG4UIcmdWithAString@@V?$allocator@PEAVG4UIcmdWithAString@@@std@@@std@@YAPEAPEAVG4UIcmdWithAString@@QEAPEAV1@0PEAPEAV1@AEAV?$allocator@PEAVG4UIcmdWithAString@@@0@@Z
	??$_Uninitialized_move@PEAPEAVG4VPhysicalVolume@@V?$allocator@PEAVG4VPhysicalVolume@@@std@@@std@@YAPEAPEAVG4VPhysicalVolume@@QEAPEAV1@0PEAPEAV1@AEAV?$allocator@PEAVG4VPhysicalVolume@@@0@@Z
	??$_Uninitialized_move@PEAPEAVG4tgrElement@@V?$allocator@PEAVG4tgrElement@@@std@@@std@@YAPEAPEAVG4tgrElement@@QEAPEAV1@0PEAPEAV1@AEAV?$allocator@PEAVG4tgrElement@@@0@@Z
	??$_Uninitialized_move@PEAPEAVG4tgrFileIn@@V?$allocator@PEAVG4tgrFileIn@@@std@@@std@@YAPEAPEAVG4tgrFileIn@@QEAPEAV1@0PEAPEAV1@AEAV?$allocator@PEAVG4tgrFileIn@@@0@@Z
	??$_Uninitialized_move@PEAPEAVG4tgrIsotope@@V?$allocator@PEAVG4tgrIsotope@@@std@@@std@@YAPEAPEAVG4tgrIsotope@@QEAPEAV1@0PEAPEAV1@AEAV?$allocator@PEAVG4tgrIsotope@@@0@@Z
	??$_Uninitialized_move@PEAPEAVG4tgrMaterial@@V?$allocator@PEAVG4tgrMaterial@@@std@@@std@@YAPEAPEAVG4tgrMaterial@@QEAPEAV1@0PEAPEAV1@AEAV?$allocator@PEAVG4tgrMaterial@@@0@@Z
	??$_Uninitialized_move@PEAPEAVG4tgrPlace@@V?$allocator@PEAVG4tgrPlace@@@std@@@std@@YAPEAPEAVG4tgrPlace@@QEAPEAV1@0PEAPEAV1@AEAV?$allocator@PEAVG4tgrPlace@@@0@@Z
	??$_Uninitialized_move@PEAPEAVG4tgrRotationMatrix@@V?$allocator@PEAVG4tgrRotationMatrix@@@std@@@std@@YAPEAPEAVG4tgrRotationMatrix@@QEAPEAV1@0PEAPEAV1@AEAV?$allocator@PEAVG4tgrRotationMatrix@@@0@@Z
	??$_Uninitialized_move@PEAPEAVG4tgrVolume@@V?$allocator@PEAVG4tgrVolume@@@std@@@std@@YAPEAPEAVG4tgrVolume@@QEAPEAV1@0PEAPEAV1@AEAV?$allocator@PEAVG4tgrVolume@@@0@@Z
	??$_Uninitialized_move@PEAPEAXV?$allocator@PEAX@std@@@std@@YAPEAPEAXQEAPEAX0PEAPEAXAEAV?$allocator@PEAX@0@@Z
	??$_Uninitialized_move@PEAPEBVG4tgrSolid@@V?$allocator@PEBVG4tgrSolid@@@std@@@std@@YAPEAPEBVG4tgrSolid@@QEAPEBV1@0PEAPEBV1@AEAV?$allocator@PEBVG4tgrSolid@@@0@@Z
	??$_Uninitialized_move@PEAU?$pair@_K_K@std@@V?$allocator@U?$pair@_K_K@std@@@2@@std@@YAPEAU?$pair@_K_K@0@QEAU10@0PEAU10@AEAV?$allocator@U?$pair@_K_K@std@@@0@@Z
	??$_Uninitialized_move@PEAUZSection@G4ExtrudedSolid@@V?$allocator@UZSection@G4ExtrudedSolid@@@std@@@std@@YAPEAUZSection@G4ExtrudedSolid@@QEAU12@0PEAU12@AEAV?$allocator@UZSection@G4ExtrudedSolid@@@0@@Z
	??$_Uninitialized_move@PEAV?$basic_string@DU?$char_traits@D@std@@V?$allocator@D@2@@std@@V?$allocator@V?$basic_string@DU?$char_traits@D@std@@V?$allocator@D@2@@std@@@2@@std@@YAPEAV?$basic_string@DU?$char_traits@D@std@@V?$allocator@D@2@@0@QEAV10@0PEAV10@AEAV?$allocator@V?$basic_string@DU?$char_traits@D@std@@V?$allocator@D@2@@std@@@0@@Z
	??$_Uninitialized_move@PEAVG4String@@V?$allocator@VG4String@@@std@@@std@@YAPEAVG4String@@QEAV1@0PEAV1@AEAV?$allocator@VG4String@@@0@@Z
	??$_Uninitialized_move@PEAVHep2Vector@CLHEP@@V?$allocator@VHep2Vector@CLHEP@@@std@@@std@@YAPEAVHep2Vector@CLHEP@@QEAV12@0PEAV12@AEAV?$allocator@VHep2Vector@CLHEP@@@0@@Z
	??$_Uninitialized_move@PEAVHep3Vector@CLHEP@@V?$allocator@VHep3Vector@CLHEP@@@std@@@std@@YAPEAVHep3Vector@CLHEP@@QEAV12@0PEAV12@AEAV?$allocator@VHep3Vector@CLHEP@@@0@@Z
	??$endl@DU?$char_traits@D@std@@@std@@YAAEAV?$basic_ostream@DU?$char_traits@D@std@@@0@AEAV10@@Z
	??$exchange@PEAU?$_Tree_node@HPEAX@std@@$$T@std@@YAPEAU?$_Tree_node@HPEAX@0@AEAPEAU10@$$QEA$$T@Z
	??$exchange@PEAU?$_Tree_node@HPEAX@std@@AEAPEAU12@@std@@YAPEAU?$_Tree_node@HPEAX@0@AEAPEAU10@0@Z
	??$exchange@PEAU?$_Tree_node@U?$pair@$$CBHPEAVG4MCTSimParticle@@@std@@PEAX@std@@$$T@std@@YAPEAU?$_Tree_node@U?$pair@$$CBHPEAVG4MCTSimParticle@@@std@@PEAX@0@AEAPEAU10@$$QEA$$T@Z
	??$exchange@PEAU?$_Tree_node@U?$pair@$$CBHPEAVG4MCTSimParticle@@@std@@PEAX@std@@AEAPEAU12@@std@@YAPEAU?$_Tree_node@U?$pair@$$CBHPEAVG4MCTSimParticle@@@std@@PEAX@0@AEAPEAU10@0@Z
	??$exchange@PEAU?$_Tree_node@U?$pair@$$CBHV?$basic_string@DU?$char_traits@D@std@@V?$allocator@D@2@@std@@@std@@PEAX@std@@$$T@std@@YAPEAU?$_Tree_node@U?$pair@$$CBHV?$basic_string@DU?$char_traits@D@std@@V?$allocator@D@2@@std@@@std@@PEAX@0@AEAPEAU10@$$QEA$$T@Z
	??$exchange@PEAU?$_Tree_node@U?$pair@$$CBHV?$basic_string@DU?$char_traits@D@std@@V?$allocator@D@2@@std@@@std@@PEAX@std@@AEAPEAU12@@std@@YAPEAU?$_Tree_node@U?$pair@$$CBHV?$basic_string@DU?$char_traits@D@std@@V?$allocator@D@2@@std@@@std@@PEAX@0@AEAPEAU10@0@Z
	??$exchange@PEAU?$_Tree_node@U?$pair@$$CBU?$pair@PEAXPEAX@std@@PEAVG4MCTSimParticle@@@std@@PEAX@std@@$$T@std@@YAPEAU?$_Tree_node@U?$pair@$$CBU?$pair@PEAXPEAX@std@@PEAVG4MCTSimParticle@@@std@@PEAX@0@AEAPEAU10@$$QEA$$T@Z
	??$exchange@PEAU?$_Tree_node@U?$pair@$$CBU?$pair@PEAXPEAX@std@@PEAVG4MCTSimParticle@@@std@@PEAX@std@@AEAPEAU12@@std@@YAPEAU?$_Tree_node@U?$pair@$$CBU?$pair@PEAXPEAX@std@@PEAVG4MCTSimParticle@@@std@@PEAX@0@AEAPEAU10@0@Z
	??$exchange@PEAU?$_Tree_node@U?$pair@$$CBV?$basic_string@DU?$char_traits@D@std@@V?$allocator@D@2@@std@@PEAVG4PersistencyManager@@@std@@PEAX@std@@$$T@std@@YAPEAU?$_Tree_node@U?$pair@$$CBV?$basic_string@DU?$char_traits@D@std@@V?$allocator@D@2@@std@@PEAVG4PersistencyManager@@@std@@PEAX@0@AEAPEAU10@$$QEA$$T@Z
	??$exchange@PEAU?$_Tree_node@U?$pair@$$CBV?$basic_string@DU?$char_traits@D@std@@V?$allocator@D@2@@std@@PEAVG4PersistencyManager@@@std@@PEAX@std@@AEAPEAU12@@std@@YAPEAU?$_Tree_node@U?$pair@$$CBV?$basic_string@DU?$char_traits@D@std@@V?$allocator@D@2@@std@@PEAVG4PersistencyManager@@@std@@PEAX@0@AEAPEAU10@0@Z
	??$exchange@PEAU?$_Tree_node@U?$pair@$$CBV?$basic_string@DU?$char_traits@D@std@@V?$allocator@D@2@@std@@PEAVG4VDCIOentry@@@std@@PEAX@std@@$$T@std@@YAPEAU?$_Tree_node@U?$pair@$$CBV?$basic_string@DU?$char_traits@D@std@@V?$allocator@D@2@@std@@PEAVG4VDCIOentry@@@std@@PEAX@0@AEAPEAU10@$$QEA$$T@Z
	??$exchange@PEAU?$_Tree_node@U?$pair@$$CBV?$basic_string@DU?$char_traits@D@std@@V?$allocator@D@2@@std@@PEAVG4VDCIOentry@@@std@@PEAX@std@@AEAPEAU12@@std@@YAPEAU?$_Tree_node@U?$pair@$$CBV?$basic_string@DU?$char_traits@D@std@@V?$allocator@D@2@@std@@PEAVG4VDCIOentry@@@std@@PEAX@0@AEAPEAU10@0@Z
	??$exchange@PEAU?$_Tree_node@U?$pair@$$CBV?$basic_string@DU?$char_traits@D@std@@V?$allocator@D@2@@std@@PEAVG4VHCIOentry@@@std@@PEAX@std@@$$T@std@@YAPEAU?$_Tree_node@U?$pair@$$CBV?$basic_string@DU?$char_traits@D@std@@V?$allocator@D@2@@std@@PEAVG4VHCIOentry@@@std@@PEAX@0@AEAPEAU10@$$QEA$$T@Z
	??$exchange@PEAU?$_Tree_node@U?$pair@$$CBV?$basic_string@DU?$char_traits@D@std@@V?$allocator@D@2@@std@@PEAVG4VHCIOentry@@@std@@PEAX@std@@AEAPEAU12@@std@@YAPEAU?$_Tree_node@U?$pair@$$CBV?$basic_string@DU?$char_traits@D@std@@V?$allocator@D@2@@std@@PEAVG4VHCIOentry@@@std@@PEAX@0@AEAPEAU10@0@Z
	??$exchange@PEAU?$_Tree_node@U?$pair@$$CBV?$basic_string@DU?$char_traits@D@std@@V?$allocator@D@2@@std@@PEAVG4VPDigitsCollectionIO@@@std@@PEAX@std@@$$T@std@@YAPEAU?$_Tree_node@U?$pair@$$CBV?$basic_string@DU?$char_traits@D@std@@V?$allocator@D@2@@std@@PEAVG4VPDigitsCollectionIO@@@std@@PEAX@0@AEAPEAU10@$$QEA$$T@Z
	??$exchange@PEAU?$_Tree_node@U?$pair@$$CBV?$basic_string@DU?$char_traits@D@std@@V?$allocator@D@2@@std@@PEAVG4VPDigitsCollectionIO@@@std@@PEAX@std@@AEAPEAU12@@std@@YAPEAU?$_Tree_node@U?$pair@$$CBV?$basic_string@DU?$char_traits@D@std@@V?$allocator@D@2@@std@@PEAVG4VPDigitsCollectionIO@@@std@@PEAX@0@AEAPEAU10@0@Z
	??$exchange@PEAU?$_Tree_node@U?$pair@$$CBV?$basic_string@DU?$char_traits@D@std@@V?$allocator@D@2@@std@@PEAVG4VPHitsCollectionIO@@@std@@PEAX@std@@$$T@std@@YAPEAU?$_Tree_node@U?$pair@$$CBV?$basic_string@DU?$char_traits@D@std@@V?$allocator@D@2@@std@@PEAVG4VPHitsCollectionIO@@@std@@PEAX@0@AEAPEAU10@$$QEA$$T@Z
	??$exchange@PEAU?$_Tree_node@U?$pair@$$CBV?$basic_string@DU?$char_traits@D@std@@V?$allocator@D@2@@std@@PEAVG4VPHitsCollectionIO@@@std@@PEAX@std@@AEAPEAU12@@std@@YAPEAU?$_Tree_node@U?$pair@$$CBV?$basic_string@DU?$char_traits@D@std@@V?$allocator@D@2@@std@@PEAVG4VPHitsCollectionIO@@@std@@PEAX@0@AEAPEAU10@0@Z
	??$exchange@PEAU?$_Tree_node@U?$pair@$$CBV?$basic_string@DU?$char_traits@D@std@@V?$allocator@D@2@@std@@V12@@std@@PEAX@std@@$$T@std@@YAPEAU?$_Tree_node@U?$pair@$$CBV?$basic_string@DU?$char_traits@D@std@@V?$allocator@D@2@@std@@V12@@std@@PEAX@0@AEAPEAU10@$$QEA$$T@Z
	??$exchange@PEAU?$_Tree_node@U?$pair@$$CBV?$basic_string@DU?$char_traits@D@std@@V?$allocator@D@2@@std@@V12@@std@@PEAX@std@@AEAPEAU12@@std@@YAPEAU?$_Tree_node@U?$pair@$$CBV?$basic_string@DU?$char_traits@D@std@@V?$allocator@D@2@@std@@V12@@std@@PEAX@0@AEAPEAU10@0@Z
	??$exchange@PEAU?$_Tree_node@U?$pair@$$CBV?$basic_string@DU?$char_traits@D@std@@V?$allocator@D@2@@std@@W4StoreMode@@@std@@PEAX@std@@$$T@std@@YAPEAU?$_Tree_node@U?$pair@$$CBV?$basic_string@DU?$char_traits@D@std@@V?$allocator@D@2@@std@@W4StoreMode@@@std@@PEAX@0@AEAPEAU10@$$QEA$$T@Z
	??$exchange@PEAU?$_Tree_node@U?$pair@$$CBV?$basic_string@DU?$char_traits@D@std@@V?$allocator@D@2@@std@@W4StoreMode@@@std@@PEAX@std@@AEAPEAU12@@std@@YAPEAU?$_Tree_node@U?$pair@$$CBV?$basic_string@DU?$char_traits@D@std@@V?$allocator@D@2@@std@@W4StoreMode@@@std@@PEAX@0@AEAPEAU10@0@Z
	??$exchange@PEAU?$_Tree_node@U?$pair@$$CBV?$basic_string@DU?$char_traits@D@std@@V?$allocator@D@2@@std@@_N@std@@PEAX@std@@$$T@std@@YAPEAU?$_Tree_node@U?$pair@$$CBV?$basic_string@DU?$char_traits@D@std@@V?$allocator@D@2@@std@@_N@std@@PEAX@0@AEAPEAU10@$$QEA$$T@Z
	??$exchange@PEAU?$_Tree_node@U?$pair@$$CBV?$basic_string@DU?$char_traits@D@std@@V?$allocator@D@2@@std@@_N@std@@PEAX@std@@AEAPEAU12@@std@@YAPEAU?$_Tree_node@U?$pair@$$CBV?$basic_string@DU?$char_traits@D@std@@V?$allocator@D@2@@std@@_N@std@@PEAX@0@AEAPEAU10@0@Z
	??$exchange@PEAU?$_Tree_node@U?$pair@$$CBVG4String@@PEAVG4Element@@@std@@PEAX@std@@$$T@std@@YAPEAU?$_Tree_node@U?$pair@$$CBVG4String@@PEAVG4Element@@@std@@PEAX@0@AEAPEAU10@$$QEA$$T@Z
	??$exchange@PEAU?$_Tree_node@U?$pair@$$CBVG4String@@PEAVG4Element@@@std@@PEAX@std@@AEAPEAU12@@std@@YAPEAU?$_Tree_node@U?$pair@$$CBVG4String@@PEAVG4Element@@@std@@PEAX@0@AEAPEAU10@0@Z
	??$exchange@PEAU?$_Tree_node@U?$pair@$$CBVG4String@@PEAVG4Isotope@@@std@@PEAX@std@@$$T@std@@YAPEAU?$_Tree_node@U?$pair@$$CBVG4String@@PEAVG4Isotope@@@std@@PEAX@0@AEAPEAU10@$$QEA$$T@Z
	??$exchange@PEAU?$_Tree_node@U?$pair@$$CBVG4String@@PEAVG4Isotope@@@std@@PEAX@std@@AEAPEAU12@@std@@YAPEAU?$_Tree_node@U?$pair@$$CBVG4String@@PEAVG4Isotope@@@std@@PEAX@0@AEAPEAU10@0@Z
	??$exchange@PEAU?$_Tree_node@U?$pair@$$CBVG4String@@PEAVG4LogicalVolume@@@std@@PEAX@std@@$$T@std@@YAPEAU?$_Tree_node@U?$pair@$$CBVG4String@@PEAVG4LogicalVolume@@@std@@PEAX@0@AEAPEAU10@$$QEA$$T@Z
	??$exchange@PEAU?$_Tree_node@U?$pair@$$CBVG4String@@PEAVG4LogicalVolume@@@std@@PEAX@std@@AEAPEAU12@@std@@YAPEAU?$_Tree_node@U?$pair@$$CBVG4String@@PEAVG4LogicalVolume@@@std@@PEAX@0@AEAPEAU10@0@Z
	??$exchange@PEAU?$_Tree_node@U?$pair@$$CBVG4String@@PEAVG4Material@@@std@@PEAX@std@@$$T@std@@YAPEAU?$_Tree_node@U?$pair@$$CBVG4String@@PEAVG4Material@@@std@@PEAX@0@AEAPEAU10@$$QEA$$T@Z
	??$exchange@PEAU?$_Tree_node@U?$pair@$$CBVG4String@@PEAVG4Material@@@std@@PEAX@std@@AEAPEAU12@@std@@YAPEAU?$_Tree_node@U?$pair@$$CBVG4String@@PEAVG4Material@@@std@@PEAX@0@AEAPEAU10@0@Z
	??$exchange@PEAU?$_Tree_node@U?$pair@$$CBVG4String@@PEAVG4VPhysicalVolume@@@std@@PEAX@std@@$$T@std@@YAPEAU?$_Tree_node@U?$pair@$$CBVG4String@@PEAVG4VPhysicalVolume@@@std@@PEAX@0@AEAPEAU10@$$QEA$$T@Z
	??$exchange@PEAU?$_Tree_node@U?$pair@$$CBVG4String@@PEAVG4VPhysicalVolume@@@std@@PEAX@std@@AEAPEAU12@@std@@YAPEAU?$_Tree_node@U?$pair@$$CBVG4String@@PEAVG4VPhysicalVolume@@@std@@PEAX@0@AEAPEAU10@0@Z
	??$exchange@PEAU?$_Tree_node@U?$pair@$$CBVG4String@@PEAVG4VSolid@@@std@@PEAX@std@@$$T@std@@YAPEAU?$_Tree_node@U?$pair@$$CBVG4String@@PEAVG4VSolid@@@std@@PEAX@0@AEAPEAU10@$$QEA$$T@Z
	??$exchange@PEAU?$_Tree_node@U?$pair@$$CBVG4String@@PEAVG4VSolid@@@std@@PEAX@std@@AEAPEAU12@@std@@YAPEAU?$_Tree_node@U?$pair@$$CBVG4String@@PEAVG4VSolid@@@std@@PEAX@0@AEAPEAU10@0@Z
	??$exchange@PEAU?$_Tree_node@U?$pair@$$CBVG4String@@PEAVG4tgbElement@@@std@@PEAX@std@@$$T@std@@YAPEAU?$_Tree_node@U?$pair@$$CBVG4String@@PEAVG4tgbElement@@@std@@PEAX@0@AEAPEAU10@$$QEA$$T@Z
	??$exchange@PEAU?$_Tree_node@U?$pair@$$CBVG4String@@PEAVG4tgbElement@@@std@@PEAX@std@@AEAPEAU12@@std@@YAPEAU?$_Tree_node@U?$pair@$$CBVG4String@@PEAVG4tgbElement@@@std@@PEAX@0@AEAPEAU10@0@Z
	??$exchange@PEAU?$_Tree_node@U?$pair@$$CBVG4String@@PEAVG4tgbIsotope@@@std@@PEAX@std@@$$T@std@@YAPEAU?$_Tree_node@U?$pair@$$CBVG4String@@PEAVG4tgbIsotope@@@std@@PEAX@0@AEAPEAU10@$$QEA$$T@Z
	??$exchange@PEAU?$_Tree_node@U?$pair@$$CBVG4String@@PEAVG4tgbIsotope@@@std@@PEAX@std@@AEAPEAU12@@std@@YAPEAU?$_Tree_node@U?$pair@$$CBVG4String@@PEAVG4tgbIsotope@@@std@@PEAX@0@AEAPEAU10@0@Z
	??$exchange@PEAU?$_Tree_node@U?$pair@$$CBVG4String@@PEAVG4tgbMaterial@@@std@@PEAX@std@@$$T@std@@YAPEAU?$_Tree_node@U?$pair@$$CBVG4String@@PEAVG4tgbMaterial@@@std@@PEAX@0@AEAPEAU10@$$QEA$$T@Z
	??$exchange@PEAU?$_Tree_node@U?$pair@$$CBVG4String@@PEAVG4tgbMaterial@@@std@@PEAX@std@@AEAPEAU12@@std@@YAPEAU?$_Tree_node@U?$pair@$$CBVG4String@@PEAVG4tgbMaterial@@@std@@PEAX@0@AEAPEAU10@0@Z
	??$exchange@PEAU?$_Tree_node@U?$pair@$$CBVG4String@@PEAVG4tgbRotationMatrix@@@std@@PEAX@std@@$$T@std@@YAPEAU?$_Tree_node@U?$pair@$$CBVG4String@@PEAVG4tgbRotationMatrix@@@std@@PEAX@0@AEAPEAU10@$$QEA$$T@Z
	??$exchange@PEAU?$_Tree_node@U?$pair@$$CBVG4String@@PEAVG4tgbRotationMatrix@@@std@@PEAX@std@@AEAPEAU12@@std@@YAPEAU?$_Tree_node@U?$pair@$$CBVG4String@@PEAVG4tgbRotationMatrix@@@std@@PEAX@0@AEAPEAU10@0@Z
	??$exchange@PEAU?$_Tree_node@U?$pair@$$CBVG4String@@PEAVG4tgbVolume@@@std@@PEAX@std@@$$T@std@@YAPEAU?$_Tree_node@U?$pair@$$CBVG4String@@PEAVG4tgbVolume@@@std@@PEAX@0@AEAPEAU10@$$QEA$$T@Z
	??$exchange@PEAU?$_Tree_node@U?$pair@$$CBVG4String@@PEAVG4tgbVolume@@@std@@PEAX@std@@AEAPEAU12@@std@@YAPEAU?$_Tree_node@U?$pair@$$CBVG4String@@PEAVG4tgbVolume@@@std@@PEAX@0@AEAPEAU10@0@Z
	??$exchange@PEAU?$_Tree_node@U?$pair@$$CBVG4String@@PEAVG4tgrElement@@@std@@PEAX@std@@$$T@std@@YAPEAU?$_Tree_node@U?$pair@$$CBVG4String@@PEAVG4tgrElement@@@std@@PEAX@0@AEAPEAU10@$$QEA$$T@Z
	??$exchange@PEAU?$_Tree_node@U?$pair@$$CBVG4String@@PEAVG4tgrElement@@@std@@PEAX@std@@AEAPEAU12@@std@@YAPEAU?$_Tree_node@U?$pair@$$CBVG4String@@PEAVG4tgrElement@@@std@@PEAX@0@AEAPEAU10@0@Z
	??$exchange@PEAU?$_Tree_node@U?$pair@$$CBVG4String@@PEAVG4tgrIsotope@@@std@@PEAX@std@@$$T@std@@YAPEAU?$_Tree_node@U?$pair@$$CBVG4String@@PEAVG4tgrIsotope@@@std@@PEAX@0@AEAPEAU10@$$QEA$$T@Z
	??$exchange@PEAU?$_Tree_node@U?$pair@$$CBVG4String@@PEAVG4tgrIsotope@@@std@@PEAX@std@@AEAPEAU12@@std@@YAPEAU?$_Tree_node@U?$pair@$$CBVG4String@@PEAVG4tgrIsotope@@@std@@PEAX@0@AEAPEAU10@0@Z
	??$exchange@PEAU?$_Tree_node@U?$pair@$$CBVG4String@@PEAVG4tgrMaterial@@@std@@PEAX@std@@$$T@std@@YAPEAU?$_Tree_node@U?$pair@$$CBVG4String@@PEAVG4tgrMaterial@@@std@@PEAX@0@AEAPEAU10@$$QEA$$T@Z
	??$exchange@PEAU?$_Tree_node@U?$pair@$$CBVG4String@@PEAVG4tgrMaterial@@@std@@PEAX@std@@AEAPEAU12@@std@@YAPEAU?$_Tree_node@U?$pair@$$CBVG4String@@PEAVG4tgrMaterial@@@std@@PEAX@0@AEAPEAU10@0@Z
	??$exchange@PEAU?$_Tree_node@U?$pair@$$CBVG4String@@PEAVG4tgrRotationMatrix@@@std@@PEAX@std@@$$T@std@@YAPEAU?$_Tree_node@U?$pair@$$CBVG4String@@PEAVG4tgrRotationMatrix@@@std@@PEAX@0@AEAPEAU10@$$QEA$$T@Z
	??$exchange@PEAU?$_Tree_node@U?$pair@$$CBVG4String@@PEAVG4tgrRotationMatrix@@@std@@PEAX@std@@AEAPEAU12@@std@@YAPEAU?$_Tree_node@U?$pair@$$CBVG4String@@PEAVG4tgrRotationMatrix@@@std@@PEAX@0@AEAPEAU10@0@Z
	??$exchange@PEAU?$_Tree_node@U?$pair@$$CBVG4String@@PEAVG4tgrSolid@@@std@@PEAX@std@@$$T@std@@YAPEAU?$_Tree_node@U?$pair@$$CBVG4String@@PEAVG4tgrSolid@@@std@@PEAX@0@AEAPEAU10@$$QEA$$T@Z
	??$exchange@PEAU?$_Tree_node@U?$pair@$$CBVG4String@@PEAVG4tgrSolid@@@std@@PEAX@std@@AEAPEAU12@@std@@YAPEAU?$_Tree_node@U?$pair@$$CBVG4String@@PEAVG4tgrSolid@@@std@@PEAX@0@AEAPEAU10@0@Z
	??$exchange@PEAU?$_Tree_node@U?$pair@$$CBVG4String@@PEAVG4tgrVolume@@@std@@PEAX@std@@$$T@std@@YAPEAU?$_Tree_node@U?$pair@$$CBVG4String@@PEAVG4tgrVolume@@@std@@PEAX@0@AEAPEAU10@$$QEA$$T@Z
	??$exchange@PEAU?$_Tree_node@U?$pair@$$CBVG4String@@PEAVG4tgrVolume@@@std@@PEAX@std@@AEAPEAU12@@std@@YAPEAU?$_Tree_node@U?$pair@$$CBVG4String@@PEAVG4tgrVolume@@@std@@PEAX@0@AEAPEAU10@0@Z
	??$exchange@PEAU?$_Tree_node@U?$pair@$$CBVG4String@@PEAVHepRotation@CLHEP@@@std@@PEAX@std@@$$T@std@@YAPEAU?$_Tree_node@U?$pair@$$CBVG4String@@PEAVHepRotation@CLHEP@@@std@@PEAX@0@AEAPEAU10@$$QEA$$T@Z
	??$exchange@PEAU?$_Tree_node@U?$pair@$$CBVG4String@@PEAVHepRotation@CLHEP@@@std@@PEAX@std@@AEAPEAU12@@std@@YAPEAU?$_Tree_node@U?$pair@$$CBVG4String@@PEAVHepRotation@CLHEP@@@std@@PEAX@0@AEAPEAU10@0@Z
	??$exchange@PEAU?$_Tree_node@U?$pair@$$CBVG4String@@PEBVG4tgrPlace@@@std@@PEAX@std@@$$T@std@@YAPEAU?$_Tree_node@U?$pair@$$CBVG4String@@PEBVG4tgrPlace@@@std@@PEAX@0@AEAPEAU10@$$QEA$$T@Z
	??$exchange@PEAU?$_Tree_node@U?$pair@$$CBVG4String@@PEBVG4tgrPlace@@@std@@PEAX@std@@AEAPEAU12@@std@@YAPEAU?$_Tree_node@U?$pair@$$CBVG4String@@PEBVG4tgrPlace@@@std@@PEAX@0@AEAPEAU10@0@Z
	??$exchange@PEAU?$_Tree_node@U?$pair@$$CBVG4String@@V1@@std@@PEAX@std@@$$T@std@@YAPEAU?$_Tree_node@U?$pair@$$CBVG4String@@V1@@std@@PEAX@0@AEAPEAU10@$$QEA$$T@Z
	??$exchange@PEAU?$_Tree_node@U?$pair@$$CBVG4String@@V1@@std@@PEAX@std@@AEAPEAU12@@std@@YAPEAU?$_Tree_node@U?$pair@$$CBVG4String@@V1@@std@@PEAX@0@AEAPEAU10@0@Z
	??$exchange@PEAU?$_Tree_node@U?$pair@$$CBVG4String@@V?$set@HU?$less@H@std@@V?$allocator@H@2@@std@@@std@@PEAX@std@@$$T@std@@YAPEAU?$_Tree_node@U?$pair@$$CBVG4String@@V?$set@HU?$less@H@std@@V?$allocator@H@2@@std@@@std@@PEAX@0@AEAPEAU10@$$QEA$$T@Z
	??$exchange@PEAU?$_Tree_node@U?$pair@$$CBVG4String@@V?$set@HU?$less@H@std@@V?$allocator@H@2@@std@@@std@@PEAX@std@@AEAPEAU12@@std@@YAPEAU?$_Tree_node@U?$pair@$$CBVG4String@@V?$set@HU?$less@H@std@@V?$allocator@H@2@@std@@@std@@PEAX@0@AEAPEAU10@0@Z
	??$exchange@PEAU?$_Tree_node@U?$pair@QEAVG4LogicalVolume@@PEAV1@@std@@PEAX@std@@$$T@std@@YAPEAU?$_Tree_node@U?$pair@QEAVG4LogicalVolume@@PEAV1@@std@@PEAX@0@AEAPEAU10@$$QEA$$T@Z
	??$exchange@PEAU?$_Tree_node@U?$pair@QEAVG4LogicalVolume@@PEAV1@@std@@PEAX@std@@AEAPEAU12@@std@@YAPEAU?$_Tree_node@U?$pair@QEAVG4LogicalVolume@@PEAV1@@std@@PEAX@0@AEAPEAU10@0@Z
	??$exchange@PEAU?$_Tree_node@U?$pair@QEAVG4MCTSimParticle@@U?$pair@PEAXPEAX@std@@@std@@PEAX@std@@$$T@std@@YAPEAU?$_Tree_node@U?$pair@QEAVG4MCTSimParticle@@U?$pair@PEAXPEAX@std@@@std@@PEAX@0@AEAPEAU10@$$QEA$$T@Z
	??$exchange@PEAU?$_Tree_node@U?$pair@QEAVG4MCTSimParticle@@U?$pair@PEAXPEAX@std@@@std@@PEAX@std@@AEAPEAU12@@std@@YAPEAU?$_Tree_node@U?$pair@QEAVG4MCTSimParticle@@U?$pair@PEAXPEAX@std@@@std@@PEAX@0@AEAPEAU10@0@Z
	??$exchange@PEAU?$_Tree_node@U?$pair@QEAVG4VPhysicalVolume@@PEAV1@@std@@PEAX@std@@AEAPEAU12@@std@@YAPEAU?$_Tree_node@U?$pair@QEAVG4VPhysicalVolume@@PEAV1@@std@@PEAX@0@AEAPEAU10@0@Z
	??$exchange@PEAV_Facet_base@std@@PEAV12@@std@@YAPEAV_Facet_base@0@AEAPEAV10@$$QEAPEAV10@@Z
	??$insert@$0A@$0A@@?$_Tree@V?$_Tset_traits@HU?$less@H@std@@V?$allocator@H@2@$0A@@std@@@std@@QEAA?AU?$pair@V?$_Tree_const_iterator@V?$_Tree_val@U?$_Tree_simple_types@H@std@@@std@@@std@@_N@1@$$QEAH@Z
	??$swap@DX@std@@YAXAEAD0@Z
	??$use_facet@V?$codecvt@DDU_Mbstatet@@@std@@@std@@YAAEBV?$codecvt@DDU_Mbstatet@@@0@AEBVlocale@0@@Z
	??$use_facet@V?$ctype@D@std@@@std@@YAAEBV?$ctype@D@0@AEBVlocale@0@@Z
	??0?$basic_ifstream@DU?$char_traits@D@std@@@std@@QEAA@PEBDHH@Z
	??0?$basic_ofstream@DU?$char_traits@D@std@@@std@@QEAA@PEBDHH@Z
	??0?$basic_string@DU?$char_traits@D@std@@V?$allocator@D@2@@std@@QEAA@AEBV01@@Z
	??0?$basic_string@DU?$char_traits@D@std@@V?$allocator@D@2@@std@@QEAA@QEBD@Z
	??0?$map@VG4String@@PEAVG4Element@@U?$less@VG4String@@@std@@V?$allocator@U?$pair@$$CBVG4String@@PEAVG4Element@@@std@@@4@@std@@QEAA@AEBV01@@Z
	??0?$map@VG4String@@PEAVG4Isotope@@U?$less@VG4String@@@std@@V?$allocator@U?$pair@$$CBVG4String@@PEAVG4Isotope@@@std@@@4@@std@@QEAA@AEBV01@@Z
	??0?$map@VG4String@@PEAVG4VSolid@@U?$less@VG4String@@@std@@V?$allocator@U?$pair@$$CBVG4String@@PEAVG4VSolid@@@std@@@4@@std@@QEAA@AEBV01@@Z
	??0G4DCIOcatalog@@QEAA@XZ
	??0G4HCIOcatalog@@QEAA@XZ
	??0G4MCTEvent@@QEAA@XZ
	??0G4MCTGenEvent@@QEAA@XZ
	??0G4MCTSimEvent@@QEAA@XZ
	??0G4MCTSimParticle@@QEAA@V?$basic_string@DU?$char_traits@D@std@@V?$allocator@D@2@@std@@HHHAEBVHepLorentzVector@CLHEP@@@Z
	??0G4MCTSimParticle@@QEAA@V?$basic_string@DU?$char_traits@D@std@@V?$allocator@D@2@@std@@HHHAEBVHepLorentzVector@CLHEP@@PEBVG4MCTSimVertex@@@Z
	??0G4MCTSimParticle@@QEAA@XZ
	??0G4MCTSimVertex@@QEAA@AEBVHep3Vector@CLHEP@@N@Z
	??0G4MCTSimVertex@@QEAA@AEBVHep3Vector@CLHEP@@NV?$basic_string@DU?$char_traits@D@std@@V?$allocator@D@2@@std@@H1@Z
	??0G4MCTSimVertex@@QEAA@XZ
	??0G4PersistencyCenter@@AEAA@XZ
	??0G4PersistencyCenterMessenger@@QEAA@PEAVG4PersistencyCenter@@@Z
	??0G4PersistencyManager@@QEAA@PEAVG4PersistencyCenter@@V?$basic_string@DU?$char_traits@D@std@@V?$allocator@D@2@@std@@@Z
	??0G4Pevent@@QEAA@PEAVG4MCTEvent@@PEAVG4Event@@@Z
	??0G4String@@QEAA@PEBD@Z
	??0G4VDCIOentry@@QEAA@V?$basic_string@DU?$char_traits@D@std@@V?$allocator@D@2@@std@@@Z
	??0G4VHCIOentry@@QEAA@V?$basic_string@DU?$char_traits@D@std@@V?$allocator@D@2@@std@@@Z
	??0G4VMCTruthIO@@QEAA@XZ
	??0G4VPDigitIO@@QEAA@XZ
	??0G4VPDigitsCollectionIO@@QEAA@V?$basic_string@DU?$char_traits@D@std@@V?$allocator@D@2@@std@@0@Z
	??0G4VPEventIO@@QEAA@XZ
	??0G4VPHitIO@@QEAA@XZ
	??0G4VPHitsCollectionIO@@QEAA@V?$basic_string@DU?$char_traits@D@std@@V?$allocator@D@2@@std@@0@Z
	??0G4tgbDetectorBuilder@@QEAA@XZ
	??0G4tgbDetectorConstruction@@QEAA@XZ
	??0G4tgbElement@@QEAA@PEAVG4tgrElement@@@Z
	??0G4tgbGeometryDumper@@AEAA@XZ
	??0G4tgbIsotope@@QEAA@PEAVG4tgrIsotope@@@Z
	??0G4tgbIsotope@@QEAA@XZ
	??0G4tgbMaterial@@QEAA@PEAVG4tgrMaterial@@@Z
	??0G4tgbMaterial@@QEAA@XZ
	??0G4tgbMaterialMgr@@AEAA@XZ
	??0G4tgbMaterialMixture@@QEAA@XZ
	??0G4tgbMaterialMixtureByNoAtoms@@QEAA@PEAVG4tgrMaterial@@@Z
	??0G4tgbMaterialMixtureByNoAtoms@@QEAA@XZ
	??0G4tgbMaterialMixtureByVolume@@QEAA@PEAVG4tgrMaterial@@@Z
	??0G4tgbMaterialMixtureByVolume@@QEAA@XZ
	??0G4tgbMaterialMixtureByWeight@@QEAA@PEAVG4tgrMaterial@@@Z
	??0G4tgbMaterialMixtureByWeight@@QEAA@XZ
	??0G4tgbMaterialSimple@@QEAA@PEAVG4tgrMaterial@@@Z
	??0G4tgbMaterialSimple@@QEAA@XZ
	??0G4tgbPlaceParamCircle@@QEAA@PEAVG4tgrPlaceParameterisation@@@Z
	??0G4tgbPlaceParamLinear@@QEAA@PEAVG4tgrPlaceParameterisation@@@Z
	??0G4tgbPlaceParamSquare@@QEAA@PEAVG4tgrPlaceParameterisation@@@Z
	??0G4tgbPlaceParameterisation@@QEAA@PEAVG4tgrPlaceParameterisation@@@Z
	??0G4tgbRotationMatrix@@QEAA@PEAVG4tgrRotationMatrix@@@Z
	??0G4tgbRotationMatrix@@QEAA@XZ
	??0G4tgbRotationMatrixMgr@@AEAA@XZ
	??0G4tgbVolume@@QEAA@PEAVG4tgrVolume@@@Z
	??0G4tgbVolume@@QEAA@XZ
	??0G4tgbVolumeMgr@@QEAA@XZ
	??0G4tgrElement@@QEAA@XZ
	??0G4tgrElementFromIsotopes@@QEAA@AEBV?$vector@VG4String@@V?$allocator@VG4String@@@std@@@std@@@Z
	??0G4tgrElementFromIsotopes@@QEAA@XZ
	??0G4tgrElementSimple@@QEAA@AEBV?$vector@VG4String@@V?$allocator@VG4String@@@std@@@std@@@Z
	??0G4tgrElementSimple@@QEAA@XZ
	??0G4tgrEvaluator@@QEAA@XZ
	??0G4tgrFileIn@@QEAA@AEBV0@@Z
	??0G4tgrFileIn@@QEAA@XZ
	??0G4tgrFileReader@@IEAA@XZ
	??0G4tgrIsotope@@QEAA@AEBV?$vector@VG4String@@V?$allocator@VG4String@@@std@@@std@@@Z
	??0G4tgrIsotope@@QEAA@XZ
	??0G4tgrLineProcessor@@QEAA@XZ
	??0G4tgrMaterial@@QEAA@XZ
	??0G4tgrMaterialFactory@@AEAA@XZ
	??0G4tgrMaterialMixture@@QEAA@AEBVG4String@@AEBV?$vector@VG4String@@V?$allocator@VG4String@@@std@@@std@@@Z
	??0G4tgrMaterialMixture@@QEAA@XZ
	??0G4tgrMaterialSimple@@QEAA@AEBVG4String@@AEBV?$vector@VG4String@@V?$allocator@VG4String@@@std@@@std@@@Z
	??0G4tgrMaterialSimple@@QEAA@XZ
	??0G4tgrMessenger@@QEAA@XZ
	??0G4tgrParameterMgr@@AEAA@XZ
	??0G4tgrPlace@@QEAA@XZ
	??0G4tgrPlaceDivRep@@QEAA@AEBV?$vector@VG4String@@V?$allocator@VG4String@@@std@@@std@@@Z
	??0G4tgrPlaceDivRep@@QEAA@XZ
	??0G4tgrPlaceParameterisation@@QEAA@AEBV?$vector@VG4String@@V?$allocator@VG4String@@@std@@@std@@@Z
	??0G4tgrPlaceParameterisation@@QEAA@XZ
	??0G4tgrPlaceSimple@@QEAA@AEBV?$vector@VG4String@@V?$allocator@VG4String@@@std@@@std@@@Z
	??0G4tgrPlaceSimple@@QEAA@XZ
	??0G4tgrRotationMatrix@@QEAA@AEBV?$vector@VG4String@@V?$allocator@VG4String@@@std@@@std@@@Z
	??0G4tgrRotationMatrix@@QEAA@XZ
	??0G4tgrRotationMatrixFactory@@AEAA@XZ
	??0G4tgrSolid@@QEAA@AEBV?$vector@VG4String@@V?$allocator@VG4String@@@std@@@std@@@Z
	??0G4tgrSolid@@QEAA@XZ
	??0G4tgrSolidBoolean@@QEAA@AEBV?$vector@VG4String@@V?$allocator@VG4String@@@std@@@std@@@Z
	??0G4tgrUtils@@QEAA@XZ
	??0G4tgrVolume@@QEAA@AEBV0@@Z
	??0G4tgrVolume@@QEAA@AEBV?$vector@VG4String@@V?$allocator@VG4String@@@std@@@std@@@Z
	??0G4tgrVolume@@QEAA@XZ
	??0G4tgrVolumeAssembly@@QEAA@AEBV?$vector@VG4String@@V?$allocator@VG4String@@@std@@@std@@@Z
	??0G4tgrVolumeAssembly@@QEAA@XZ
	??0G4tgrVolumeDivision@@QEAA@AEBV?$vector@VG4String@@V?$allocator@VG4String@@@std@@@std@@@Z
	??0G4tgrVolumeMgr@@AEAA@XZ
	??0ZSection@G4ExtrudedSolid@@QEAA@NAEBVHep2Vector@CLHEP@@N@Z
	??0bad_alloc@std@@QEAA@AEBV01@@Z
	??0bad_array_new_length@std@@QEAA@AEBV01@@Z
	??0bad_array_new_length@std@@QEAA@XZ
	??0bad_cast@std@@QEAA@AEBV01@@Z
	??0bad_cast@std@@QEAA@XZ
	??0exception@std@@QEAA@AEBV01@@Z
	??1?$_Alloc_construct_ptr@V?$allocator@U?$_Tree_node@HPEAX@std@@@std@@@std@@QEAA@XZ
	??1?$_Alloc_construct_ptr@V?$allocator@U?$_Tree_node@U?$pair@$$CBHPEAVG4MCTSimParticle@@@std@@PEAX@std@@@std@@@std@@QEAA@XZ
	??1?$_Alloc_construct_ptr@V?$allocator@U?$_Tree_node@U?$pair@$$CBHV?$basic_string@DU?$char_traits@D@std@@V?$allocator@D@2@@std@@@std@@PEAX@std@@@std@@@std@@QEAA@XZ
	??1?$_Alloc_construct_ptr@V?$allocator@U?$_Tree_node@U?$pair@$$CBU?$pair@PEAXPEAX@std@@PEAVG4MCTSimParticle@@@std@@PEAX@std@@@std@@@std@@QEAA@XZ
	??1?$_Alloc_construct_ptr@V?$allocator@U?$_Tree_node@U?$pair@$$CBV?$basic_string@DU?$char_traits@D@std@@V?$allocator@D@2@@std@@PEAVG4PersistencyManager@@@std@@PEAX@std@@@std@@@std@@QEAA@XZ
	??1?$_Alloc_construct_ptr@V?$allocator@U?$_Tree_node@U?$pair@$$CBV?$basic_string@DU?$char_traits@D@std@@V?$allocator@D@2@@std@@PEAVG4VDCIOentry@@@std@@PEAX@std@@@std@@@std@@QEAA@XZ
	??1?$_Alloc_construct_ptr@V?$allocator@U?$_Tree_node@U?$pair@$$CBV?$basic_string@DU?$char_traits@D@std@@V?$allocator@D@2@@std@@PEAVG4VHCIOentry@@@std@@PEAX@std@@@std@@@std@@QEAA@XZ
	??1?$_Alloc_construct_ptr@V?$allocator@U?$_Tree_node@U?$pair@$$CBV?$basic_string@DU?$char_traits@D@std@@V?$allocator@D@2@@std@@PEAVG4VPDigitsCollectionIO@@@std@@PEAX@std@@@std@@@std@@QEAA@XZ
	??1?$_Alloc_construct_ptr@V?$allocator@U?$_Tree_node@U?$pair@$$CBV?$basic_string@DU?$char_traits@D@std@@V?$allocator@D@2@@std@@PEAVG4VPHitsCollectionIO@@@std@@PEAX@std@@@std@@@std@@QEAA@XZ
	??1?$_Alloc_construct_ptr@V?$allocator@U?$_Tree_node@U?$pair@$$CBV?$basic_string@DU?$char_traits@D@std@@V?$allocator@D@2@@std@@V12@@std@@PEAX@std@@@std@@@std@@QEAA@XZ
	??1?$_Alloc_construct_ptr@V?$allocator@U?$_Tree_node@U?$pair@$$CBV?$basic_string@DU?$char_traits@D@std@@V?$allocator@D@2@@std@@W4StoreMode@@@std@@PEAX@std@@@std@@@std@@QEAA@XZ
	??1?$_Alloc_construct_ptr@V?$allocator@U?$_Tree_node@U?$pair@$$CBV?$basic_string@DU?$char_traits@D@std@@V?$allocator@D@2@@std@@_N@std@@PEAX@std@@@std@@@std@@QEAA@XZ
	??1?$_Alloc_construct_ptr@V?$allocator@U?$_Tree_node@U?$pair@$$CBVG4String@@PEAVG4Element@@@std@@PEAX@std@@@std@@@std@@QEAA@XZ
	??1?$_Alloc_construct_ptr@V?$allocator@U?$_Tree_node@U?$pair@$$CBVG4String@@PEAVG4Isotope@@@std@@PEAX@std@@@std@@@std@@QEAA@XZ
	??1?$_Alloc_construct_ptr@V?$allocator@U?$_Tree_node@U?$pair@$$CBVG4String@@PEAVG4LogicalVolume@@@std@@PEAX@std@@@std@@@std@@QEAA@XZ
	??1?$_Alloc_construct_ptr@V?$allocator@U?$_Tree_node@U?$pair@$$CBVG4String@@PEAVG4Material@@@std@@PEAX@std@@@std@@@std@@QEAA@XZ
	??1?$_Alloc_construct_ptr@V?$allocator@U?$_Tree_node@U?$pair@$$CBVG4String@@PEAVG4VPhysicalVolume@@@std@@PEAX@std@@@std@@@std@@QEAA@XZ
	??1?$_Alloc_construct_ptr@V?$allocator@U?$_Tree_node@U?$pair@$$CBVG4String@@PEAVG4VSolid@@@std@@PEAX@std@@@std@@@std@@QEAA@XZ
	??1?$_Alloc_construct_ptr@V?$allocator@U?$_Tree_node@U?$pair@$$CBVG4String@@PEAVG4tgbElement@@@std@@PEAX@std@@@std@@@std@@QEAA@XZ
	??1?$_Alloc_construct_ptr@V?$allocator@U?$_Tree_node@U?$pair@$$CBVG4String@@PEAVG4tgbIsotope@@@std@@PEAX@std@@@std@@@std@@QEAA@XZ
	??1?$_Alloc_construct_ptr@V?$allocator@U?$_Tree_node@U?$pair@$$CBVG4String@@PEAVG4tgbMaterial@@@std@@PEAX@std@@@std@@@std@@QEAA@XZ
	??1?$_Alloc_construct_ptr@V?$allocator@U?$_Tree_node@U?$pair@$$CBVG4String@@PEAVG4tgbRotationMatrix@@@std@@PEAX@std@@@std@@@std@@QEAA@XZ
	??1?$_Alloc_construct_ptr@V?$allocator@U?$_Tree_node@U?$pair@$$CBVG4String@@PEAVG4tgbVolume@@@std@@PEAX@std@@@std@@@std@@QEAA@XZ
	??1?$_Alloc_construct_ptr@V?$allocator@U?$_Tree_node@U?$pair@$$CBVG4String@@PEAVG4tgrElement@@@std@@PEAX@std@@@std@@@std@@QEAA@XZ
	??1?$_Alloc_construct_ptr@V?$allocator@U?$_Tree_node@U?$pair@$$CBVG4String@@PEAVG4tgrIsotope@@@std@@PEAX@std@@@std@@@std@@QEAA@XZ
	??1?$_Alloc_construct_ptr@V?$allocator@U?$_Tree_node@U?$pair@$$CBVG4String@@PEAVG4tgrMaterial@@@std@@PEAX@std@@@std@@@std@@QEAA@XZ
	??1?$_Alloc_construct_ptr@V?$allocator@U?$_Tree_node@U?$pair@$$CBVG4String@@PEAVG4tgrRotationMatrix@@@std@@PEAX@std@@@std@@@std@@QEAA@XZ
	??1?$_Alloc_construct_ptr@V?$allocator@U?$_Tree_node@U?$pair@$$CBVG4String@@PEAVG4tgrSolid@@@std@@PEAX@std@@@std@@@std@@QEAA@XZ
	??1?$_Alloc_construct_ptr@V?$allocator@U?$_Tree_node@U?$pair@$$CBVG4String@@PEAVG4tgrVolume@@@std@@PEAX@std@@@std@@@std@@QEAA@XZ
	??1?$_Alloc_construct_ptr@V?$allocator@U?$_Tree_node@U?$pair@$$CBVG4String@@PEAVHepRotation@CLHEP@@@std@@PEAX@std@@@std@@@std@@QEAA@XZ
	??1?$_Alloc_construct_ptr@V?$allocator@U?$_Tree_node@U?$pair@$$CBVG4String@@PEBVG4tgrPlace@@@std@@PEAX@std@@@std@@@std@@QEAA@XZ
	??1?$_Alloc_construct_ptr@V?$allocator@U?$_Tree_node@U?$pair@$$CBVG4String@@V1@@std@@PEAX@std@@@std@@@std@@QEAA@XZ
	??1?$_Alloc_construct_ptr@V?$allocator@U?$_Tree_node@U?$pair@$$CBVG4String@@V?$set@HU?$less@H@std@@V?$allocator@H@2@@std@@@std@@PEAX@std@@@std@@@std@@QEAA@XZ
	??1?$_Alloc_construct_ptr@V?$allocator@U?$_Tree_node@U?$pair@QEAVG4LogicalVolume@@PEAV1@@std@@PEAX@std@@@std@@@std@@QEAA@XZ
	??1?$_Alloc_construct_ptr@V?$allocator@U?$_Tree_node@U?$pair@QEAVG4MCTSimParticle@@U?$pair@PEAXPEAX@std@@@std@@PEAX@std@@@std@@@std@@QEAA@XZ
	??1?$_Tidy_guard@V?$vector@VG4String@@V?$allocator@VG4String@@@std@@@std@@@std@@QEAA@XZ
	??1?$_Tree@V?$_Tmap_traits@VG4String@@V1@U?$less@VG4String@@@std@@V?$allocator@U?$pair@$$CBVG4String@@V1@@std@@@3@$0A@@std@@@std@@QEAA@XZ
	??1?$_Tree_head_scoped_ptr@V?$allocator@U?$_Tree_node@HPEAX@std@@@std@@V?$_Tree_val@U?$_Tree_simple_types@H@std@@@2@@std@@QEAA@XZ
	??1?$_Tree_head_scoped_ptr@V?$allocator@U?$_Tree_node@U?$pair@$$CBVG4String@@PEAVG4Element@@@std@@PEAX@std@@@std@@V?$_Tree_val@U?$_Tree_simple_types@U?$pair@$$CBVG4String@@PEAVG4Element@@@std@@@std@@@2@@std@@QEAA@XZ
	??1?$_Tree_head_scoped_ptr@V?$allocator@U?$_Tree_node@U?$pair@$$CBVG4String@@PEAVG4Isotope@@@std@@PEAX@std@@@std@@V?$_Tree_val@U?$_Tree_simple_types@U?$pair@$$CBVG4String@@PEAVG4Isotope@@@std@@@std@@@2@@std@@QEAA@XZ
	??1?$_Tree_head_scoped_ptr@V?$allocator@U?$_Tree_node@U?$pair@$$CBVG4String@@PEAVG4LogicalVolume@@@std@@PEAX@std@@@std@@V?$_Tree_val@U?$_Tree_simple_types@U?$pair@$$CBVG4String@@PEAVG4LogicalVolume@@@std@@@std@@@2@@std@@QEAA@XZ
	??1?$_Tree_head_scoped_ptr@V?$allocator@U?$_Tree_node@U?$pair@$$CBVG4String@@PEAVG4Material@@@std@@PEAX@std@@@std@@V?$_Tree_val@U?$_Tree_simple_types@U?$pair@$$CBVG4String@@PEAVG4Material@@@std@@@std@@@2@@std@@QEAA@XZ
	??1?$_Tree_head_scoped_ptr@V?$allocator@U?$_Tree_node@U?$pair@$$CBVG4String@@PEAVG4VSolid@@@std@@PEAX@std@@@std@@V?$_Tree_val@U?$_Tree_simple_types@U?$pair@$$CBVG4String@@PEAVG4VSolid@@@std@@@std@@@2@@std@@QEAA@XZ
	??1?$_Tree_head_scoped_ptr@V?$allocator@U?$_Tree_node@U?$pair@$$CBVG4String@@PEAVG4tgrElement@@@std@@PEAX@std@@@std@@V?$_Tree_val@U?$_Tree_simple_types@U?$pair@$$CBVG4String@@PEAVG4tgrElement@@@std@@@std@@@2@@std@@QEAA@XZ
	??1?$_Tree_head_scoped_ptr@V?$allocator@U?$_Tree_node@U?$pair@$$CBVG4String@@PEAVG4tgrIsotope@@@std@@PEAX@std@@@std@@V?$_Tree_val@U?$_Tree_simple_types@U?$pair@$$CBVG4String@@PEAVG4tgrIsotope@@@std@@@std@@@2@@std@@QEAA@XZ
	??1?$_Tree_head_scoped_ptr@V?$allocator@U?$_Tree_node@U?$pair@$$CBVG4String@@PEAVG4tgrMaterial@@@std@@PEAX@std@@@std@@V?$_Tree_val@U?$_Tree_simple_types@U?$pair@$$CBVG4String@@PEAVG4tgrMaterial@@@std@@@std@@@2@@std@@QEAA@XZ
	??1?$_Tree_head_scoped_ptr@V?$allocator@U?$_Tree_node@U?$pair@$$CBVG4String@@PEAVG4tgrRotationMatrix@@@std@@PEAX@std@@@std@@V?$_Tree_val@U?$_Tree_simple_types@U?$pair@$$CBVG4String@@PEAVG4tgrRotationMatrix@@@std@@@std@@@2@@std@@QEAA@XZ
	??1?$_Tree_head_scoped_ptr@V?$allocator@U?$_Tree_node@U?$pair@$$CBVG4String@@PEAVG4tgrVolume@@@std@@PEAX@std@@@std@@V?$_Tree_val@U?$_Tree_simple_types@U?$pair@$$CBVG4String@@PEAVG4tgrVolume@@@std@@@std@@@2@@std@@QEAA@XZ
	??1?$_Tree_temp_node@V?$allocator@U?$_Tree_node@U?$pair@$$CBVG4String@@PEAVG4LogicalVolume@@@std@@PEAX@std@@@std@@@std@@QEAA@XZ
	??1?$_Tree_temp_node@V?$allocator@U?$_Tree_node@U?$pair@$$CBVG4String@@PEAVG4VPhysicalVolume@@@std@@PEAX@std@@@std@@@std@@QEAA@XZ
	??1?$_Tree_temp_node@V?$allocator@U?$_Tree_node@U?$pair@$$CBVG4String@@PEAVG4VSolid@@@std@@PEAX@std@@@std@@@std@@QEAA@XZ
	??1?$_Tree_temp_node@V?$allocator@U?$_Tree_node@U?$pair@$$CBVG4String@@PEBVG4tgrPlace@@@std@@PEAX@std@@@std@@@std@@QEAA@XZ
	??1?$_Tree_temp_node_alloc@V?$allocator@U?$_Tree_node@U?$pair@$$CBV?$basic_string@DU?$char_traits@D@std@@V?$allocator@D@2@@std@@PEAVG4PersistencyManager@@@std@@PEAX@std@@@std@@@std@@QEAA@XZ
	??1?$_Tree_temp_node_alloc@V?$allocator@U?$_Tree_node@U?$pair@$$CBV?$basic_string@DU?$char_traits@D@std@@V?$allocator@D@2@@std@@PEAVG4VDCIOentry@@@std@@PEAX@std@@@std@@@std@@QEAA@XZ
	??1?$_Tree_temp_node_alloc@V?$allocator@U?$_Tree_node@U?$pair@$$CBV?$basic_string@DU?$char_traits@D@std@@V?$allocator@D@2@@std@@PEAVG4VHCIOentry@@@std@@PEAX@std@@@std@@@std@@QEAA@XZ
	??1?$_Tree_temp_node_alloc@V?$allocator@U?$_Tree_node@U?$pair@$$CBV?$basic_string@DU?$char_traits@D@std@@V?$allocator@D@2@@std@@PEAVG4VPDigitsCollectionIO@@@std@@PEAX@std@@@std@@@std@@QEAA@XZ
	??1?$_Tree_temp_node_alloc@V?$allocator@U?$_Tree_node@U?$pair@$$CBV?$basic_string@DU?$char_traits@D@std@@V?$allocator@D@2@@std@@PEAVG4VPHitsCollectionIO@@@std@@PEAX@std@@@std@@@std@@QEAA@XZ
	??1?$_Tree_temp_node_alloc@V?$allocator@U?$_Tree_node@U?$pair@$$CBV?$basic_string@DU?$char_traits@D@std@@V?$allocator@D@2@@std@@V12@@std@@PEAX@std@@@std@@@std@@QEAA@XZ
	??1?$_Tree_temp_node_alloc@V?$allocator@U?$_Tree_node@U?$pair@$$CBV?$basic_string@DU?$char_traits@D@std@@V?$allocator@D@2@@std@@W4StoreMode@@@std@@PEAX@std@@@std@@@std@@QEAA@XZ
	??1?$_Tree_temp_node_alloc@V?$allocator@U?$_Tree_node@U?$pair@$$CBV?$basic_string@DU?$char_traits@D@std@@V?$allocator@D@2@@std@@_N@std@@PEAX@std@@@std@@@std@@QEAA@XZ
	??1?$_Tree_temp_node_alloc@V?$allocator@U?$_Tree_node@U?$pair@$$CBVG4String@@PEAVG4Element@@@std@@PEAX@std@@@std@@@std@@QEAA@XZ
	??1?$_Tree_temp_node_alloc@V?$allocator@U?$_Tree_node@U?$pair@$$CBVG4String@@PEAVG4Isotope@@@std@@PEAX@std@@@std@@@std@@QEAA@XZ
	??1?$_Tree_temp_node_alloc@V?$allocator@U?$_Tree_node@U?$pair@$$CBVG4String@@PEAVG4LogicalVolume@@@std@@PEAX@std@@@std@@@std@@QEAA@XZ
	??1?$_Tree_temp_node_alloc@V?$allocator@U?$_Tree_node@U?$pair@$$CBVG4String@@PEAVG4Material@@@std@@PEAX@std@@@std@@@std@@QEAA@XZ
	??1?$_Tree_temp_node_alloc@V?$allocator@U?$_Tree_node@U?$pair@$$CBVG4String@@PEAVG4VPhysicalVolume@@@std@@PEAX@std@@@std@@@std@@QEAA@XZ
	??1?$_Tree_temp_node_alloc@V?$allocator@U?$_Tree_node@U?$pair@$$CBVG4String@@PEAVG4VSolid@@@std@@PEAX@std@@@std@@@std@@QEAA@XZ
	??1?$_Tree_temp_node_alloc@V?$allocator@U?$_Tree_node@U?$pair@$$CBVG4String@@PEAVG4tgbElement@@@std@@PEAX@std@@@std@@@std@@QEAA@XZ
	??1?$_Tree_temp_node_alloc@V?$allocator@U?$_Tree_node@U?$pair@$$CBVG4String@@PEAVG4tgbIsotope@@@std@@PEAX@std@@@std@@@std@@QEAA@XZ
	??1?$_Tree_temp_node_alloc@V?$allocator@U?$_Tree_node@U?$pair@$$CBVG4String@@PEAVG4tgbMaterial@@@std@@PEAX@std@@@std@@@std@@QEAA@XZ
	??1?$_Tree_temp_node_alloc@V?$allocator@U?$_Tree_node@U?$pair@$$CBVG4String@@PEAVG4tgbVolume@@@std@@PEAX@std@@@std@@@std@@QEAA@XZ
	??1?$_Tree_temp_node_alloc@V?$allocator@U?$_Tree_node@U?$pair@$$CBVG4String@@PEAVG4tgrElement@@@std@@PEAX@std@@@std@@@std@@QEAA@XZ
	??1?$_Tree_temp_node_alloc@V?$allocator@U?$_Tree_node@U?$pair@$$CBVG4String@@PEAVG4tgrIsotope@@@std@@PEAX@std@@@std@@@std@@QEAA@XZ
	??1?$_Tree_temp_node_alloc@V?$allocator@U?$_Tree_node@U?$pair@$$CBVG4String@@PEAVG4tgrMaterial@@@std@@PEAX@std@@@std@@@std@@QEAA@XZ
	??1?$_Tree_temp_node_alloc@V?$allocator@U?$_Tree_node@U?$pair@$$CBVG4String@@PEAVG4tgrRotationMatrix@@@std@@PEAX@std@@@std@@@std@@QEAA@XZ
	??1?$_Tree_temp_node_alloc@V?$allocator@U?$_Tree_node@U?$pair@$$CBVG4String@@PEAVG4tgrSolid@@@std@@PEAX@std@@@std@@@std@@QEAA@XZ
	??1?$_Tree_temp_node_alloc@V?$allocator@U?$_Tree_node@U?$pair@$$CBVG4String@@PEAVG4tgrVolume@@@std@@PEAX@std@@@std@@@std@@QEAA@XZ
	??1?$_Tree_temp_node_alloc@V?$allocator@U?$_Tree_node@U?$pair@$$CBVG4String@@PEAVHepRotation@CLHEP@@@std@@PEAX@std@@@std@@@std@@QEAA@XZ
	??1?$_Tree_temp_node_alloc@V?$allocator@U?$_Tree_node@U?$pair@$$CBVG4String@@PEBVG4tgrPlace@@@std@@PEAX@std@@@std@@@std@@QEAA@XZ
	??1?$_Tree_temp_node_alloc@V?$allocator@U?$_Tree_node@U?$pair@$$CBVG4String@@V1@@std@@PEAX@std@@@std@@@std@@QEAA@XZ
	??1?$_Tree_temp_node_alloc@V?$allocator@U?$_Tree_node@U?$pair@$$CBVG4String@@V?$set@HU?$less@H@std@@V?$allocator@H@2@@std@@@std@@PEAX@std@@@std@@@std@@QEAA@XZ
	??1?$_Uninitialized_backout_al@V?$allocator@VG4String@@@std@@@std@@QEAA@XZ
	??1?$basic_filebuf@DU?$char_traits@D@std@@@std@@UEAA@XZ
	??1?$basic_ifstream@DU?$char_traits@D@std@@@std@@UEAA@XZ
	??1?$basic_istringstream@DU?$char_traits@D@std@@V?$allocator@D@2@@std@@UEAA@XZ
	??1?$basic_ofstream@DU?$char_traits@D@std@@@std@@UEAA@XZ
	??1?$basic_ostringstream@DU?$char_traits@D@std@@V?$allocator@D@2@@std@@UEAA@XZ
	??1?$basic_string@DU?$char_traits@D@std@@V?$allocator@D@2@@std@@QEAA@XZ
	??1?$basic_stringbuf@DU?$char_traits@D@std@@V?$allocator@D@2@@std@@UEAA@XZ
	??1?$map@HV?$basic_string@DU?$char_traits@D@std@@V?$allocator@D@2@@std@@U?$less@H@2@V?$allocator@U?$pair@$$CBHV?$basic_string@DU?$char_traits@D@std@@V?$allocator@D@2@@std@@@std@@@2@@std@@QEAA@XZ
	??1?$map@PEAVG4LogicalVolume@@PEAV1@U?$less@PEAVG4LogicalVolume@@@std@@V?$allocator@U?$pair@QEAVG4LogicalVolume@@PEAV1@@std@@@3@@std@@QEAA@XZ
	??1?$map@PEAVG4MCTSimParticle@@U?$pair@PEAXPEAX@std@@U?$less@PEAVG4MCTSimParticle@@@3@V?$allocator@U?$pair@QEAVG4MCTSimParticle@@U?$pair@PEAXPEAX@std@@@std@@@3@@std@@QEAA@XZ
	??1?$map@PEAVG4VPhysicalVolume@@PEAV1@U?$less@PEAVG4VPhysicalVolume@@@std@@V?$allocator@U?$pair@QEAVG4VPhysicalVolume@@PEAV1@@std@@@3@@std@@QEAA@XZ
	??1?$map@U?$pair@PEAXPEAX@std@@PEAVG4MCTSimParticle@@U?$less@U?$pair@PEAXPEAX@std@@@2@V?$allocator@U?$pair@$$CBU?$pair@PEAXPEAX@std@@PEAVG4MCTSimParticle@@@std@@@2@@std@@QEAA@XZ
	??1?$map@V?$basic_string@DU?$char_traits@D@std@@V?$allocator@D@2@@std@@PEAVG4PersistencyManager@@U?$less@V?$basic_string@DU?$char_traits@D@std@@V?$allocator@D@2@@std@@@2@V?$allocator@U?$pair@$$CBV?$basic_string@DU?$char_traits@D@std@@V?$allocator@D@2@@std@@PEAVG4PersistencyManager@@@std@@@2@@std@@QEAA@XZ
	??1?$map@V?$basic_string@DU?$char_traits@D@std@@V?$allocator@D@2@@std@@PEAVG4VDCIOentry@@U?$less@V?$basic_string@DU?$char_traits@D@std@@V?$allocator@D@2@@std@@@2@V?$allocator@U?$pair@$$CBV?$basic_string@DU?$char_traits@D@std@@V?$allocator@D@2@@std@@PEAVG4VDCIOentry@@@std@@@2@@std@@QEAA@XZ
	??1?$map@V?$basic_string@DU?$char_traits@D@std@@V?$allocator@D@2@@std@@PEAVG4VHCIOentry@@U?$less@V?$basic_string@DU?$char_traits@D@std@@V?$allocator@D@2@@std@@@2@V?$allocator@U?$pair@$$CBV?$basic_string@DU?$char_traits@D@std@@V?$allocator@D@2@@std@@PEAVG4VHCIOentry@@@std@@@2@@std@@QEAA@XZ
	??1?$map@V?$basic_string@DU?$char_traits@D@std@@V?$allocator@D@2@@std@@V12@U?$less@V?$basic_string@DU?$char_traits@D@std@@V?$allocator@D@2@@std@@@2@V?$allocator@U?$pair@$$CBV?$basic_string@DU?$char_traits@D@std@@V?$allocator@D@2@@std@@V12@@std@@@2@@std@@QEAA@XZ
	??1?$map@V?$basic_string@DU?$char_traits@D@std@@V?$allocator@D@2@@std@@W4StoreMode@@U?$less@V?$basic_string@DU?$char_traits@D@std@@V?$allocator@D@2@@std@@@2@V?$allocator@U?$pair@$$CBV?$basic_string@DU?$char_traits@D@std@@V?$allocator@D@2@@std@@W4StoreMode@@@std@@@2@@std@@QEAA@XZ
	??1?$map@V?$basic_string@DU?$char_traits@D@std@@V?$allocator@D@2@@std@@_NU?$less@V?$basic_string@DU?$char_traits@D@std@@V?$allocator@D@2@@std@@@2@V?$allocator@U?$pair@$$CBV?$basic_string@DU?$char_traits@D@std@@V?$allocator@D@2@@std@@_N@std@@@2@@std@@QEAA@XZ
	??1?$map@VG4String@@PEAVG4Element@@U?$less@VG4String@@@std@@V?$allocator@U?$pair@$$CBVG4String@@PEAVG4Element@@@std@@@4@@std@@QEAA@XZ
	??1?$map@VG4String@@PEAVG4Isotope@@U?$less@VG4String@@@std@@V?$allocator@U?$pair@$$CBVG4String@@PEAVG4Isotope@@@std@@@4@@std@@QEAA@XZ
	??1?$map@VG4String@@PEAVG4LogicalVolume@@U?$less@VG4String@@@std@@V?$allocator@U?$pair@$$CBVG4String@@PEAVG4LogicalVolume@@@std@@@4@@std@@QEAA@XZ
	??1?$map@VG4String@@PEAVG4Material@@U?$less@VG4String@@@std@@V?$allocator@U?$pair@$$CBVG4String@@PEAVG4Material@@@std@@@4@@std@@QEAA@XZ
	??1?$map@VG4String@@PEAVG4VPhysicalVolume@@U?$less@VG4String@@@std@@V?$allocator@U?$pair@$$CBVG4String@@PEAVG4VPhysicalVolume@@@std@@@4@@std@@QEAA@XZ
	??1?$map@VG4String@@PEAVG4VSolid@@U?$less@VG4String@@@std@@V?$allocator@U?$pair@$$CBVG4String@@PEAVG4VSolid@@@std@@@4@@std@@QEAA@XZ
	??1?$map@VG4String@@PEAVG4tgbElement@@U?$less@VG4String@@@std@@V?$allocator@U?$pair@$$CBVG4String@@PEAVG4tgbElement@@@std@@@4@@std@@QEAA@XZ
	??1?$map@VG4String@@PEAVG4tgbIsotope@@U?$less@VG4String@@@std@@V?$allocator@U?$pair@$$CBVG4String@@PEAVG4tgbIsotope@@@std@@@4@@std@@QEAA@XZ
	??1?$map@VG4String@@PEAVG4tgbMaterial@@U?$less@VG4String@@@std@@V?$allocator@U?$pair@$$CBVG4String@@PEAVG4tgbMaterial@@@std@@@4@@std@@QEAA@XZ
	??1?$map@VG4String@@PEAVG4tgbRotationMatrix@@U?$less@VG4String@@@std@@V?$allocator@U?$pair@$$CBVG4String@@PEAVG4tgbRotationMatrix@@@std@@@4@@std@@QEAA@XZ
	??1?$map@VG4String@@PEAVG4tgbVolume@@U?$less@VG4String@@@std@@V?$allocator@U?$pair@$$CBVG4String@@PEAVG4tgbVolume@@@std@@@4@@std@@QEAA@XZ
	??1?$map@VG4String@@PEAVG4tgrElement@@U?$less@VG4String@@@std@@V?$allocator@U?$pair@$$CBVG4String@@PEAVG4tgrElement@@@std@@@4@@std@@QEAA@XZ
	??1?$map@VG4String@@PEAVG4tgrIsotope@@U?$less@VG4String@@@std@@V?$allocator@U?$pair@$$CBVG4String@@PEAVG4tgrIsotope@@@std@@@4@@std@@QEAA@XZ
	??1?$map@VG4String@@PEAVG4tgrMaterial@@U?$less@VG4String@@@std@@V?$allocator@U?$pair@$$CBVG4String@@PEAVG4tgrMaterial@@@std@@@4@@std@@QEAA@XZ
	??1?$map@VG4String@@PEAVG4tgrRotationMatrix@@U?$less@VG4String@@@std@@V?$allocator@U?$pair@$$CBVG4String@@PEAVG4tgrRotationMatrix@@@std@@@4@@std@@QEAA@XZ
	??1?$map@VG4String@@PEAVG4tgrSolid@@U?$less@VG4String@@@std@@V?$allocator@U?$pair@$$CBVG4String@@PEAVG4tgrSolid@@@std@@@4@@std@@QEAA@XZ
	??1?$map@VG4String@@PEAVG4tgrVolume@@U?$less@VG4String@@@std@@V?$allocator@U?$pair@$$CBVG4String@@PEAVG4tgrVolume@@@std@@@4@@std@@QEAA@XZ
	??1?$map@VG4String@@V?$set@HU?$less@H@std@@V?$allocator@H@2@@std@@U?$less@VG4String@@@3@V?$allocator@U?$pair@$$CBVG4String@@V?$set@HU?$less@H@std@@V?$allocator@H@2@@std@@@std@@@3@@std@@QEAA@XZ
	??1?$multimap@VG4String@@PEAVG4LogicalVolume@@U?$less@VG4String@@@std@@V?$allocator@U?$pair@$$CBVG4String@@PEAVG4LogicalVolume@@@std@@@4@@std@@QEAA@XZ
	??1?$multimap@VG4String@@PEAVG4VPhysicalVolume@@U?$less@VG4String@@@std@@V?$allocator@U?$pair@$$CBVG4String@@PEAVG4VPhysicalVolume@@@std@@@4@@std@@QEAA@XZ
	??1?$multimap@VG4String@@PEAVG4VSolid@@U?$less@VG4String@@@std@@V?$allocator@U?$pair@$$CBVG4String@@PEAVG4VSolid@@@std@@@4@@std@@QEAA@XZ
	??1?$pair@$$CBHV?$basic_string@DU?$char_traits@D@std@@V?$allocator@D@2@@std@@@std@@QEAA@XZ
	??1?$pair@$$CBV?$basic_string@DU?$char_traits@D@std@@V?$allocator@D@2@@std@@V12@@std@@QEAA@XZ
	??1?$pair@$$CBVG4String@@PEAVG4LogicalVolume@@@std@@QEAA@XZ
	??1?$pair@$$CBVG4String@@PEAVG4VPhysicalVolume@@@std@@QEAA@XZ
	??1?$pair@$$CBVG4String@@PEAVG4VSolid@@@std@@QEAA@XZ
	??1?$pair@$$CBVG4String@@PEAVG4tgbVolume@@@std@@QEAA@XZ
	??1?$pair@$$CBVG4String@@PEAVG4tgrSolid@@@std@@QEAA@XZ
	??1?$pair@$$CBVG4String@@PEAVG4tgrVolume@@@std@@QEAA@XZ
	??1?$pair@$$CBVG4String@@PEBVG4tgrPlace@@@std@@QEAA@XZ
	??1?$pair@$$CBVG4String@@V1@@std@@QEAA@XZ
	??1?$pair@$$CBVG4String@@V?$set@HU?$less@H@std@@V?$allocator@H@2@@std@@@std@@QEAA@XZ
	??1?$set@HU?$less@H@std@@V?$allocator@H@2@@std@@QEAA@XZ
	??1?$unique_ptr@V_Facet_base@std@@U?$default_delete@V_Facet_base@std@@@2@@std@@QEAA@XZ
	??1?$vector@HV?$allocator@H@std@@@std@@QEAA@XZ
	??1?$vector@NV?$allocator@N@std@@@std@@QEAA@XZ
	??1?$vector@PEAV?$basic_ifstream@DU?$char_traits@D@std@@@std@@V?$allocator@PEAV?$basic_ifstream@DU?$char_traits@D@std@@@std@@@2@@std@@QEAA@XZ
	??1?$vector@PEAV?$vector@NV?$allocator@N@std@@@std@@V?$allocator@PEAV?$vector@NV?$allocator@N@std@@@std@@@2@@std@@QEAA@XZ
	??1?$vector@PEAVG4MCTSimParticle@@V?$allocator@PEAVG4MCTSimParticle@@@std@@@std@@QEAA@XZ
	??1?$vector@PEAVG4UIcmdWithAString@@V?$allocator@PEAVG4UIcmdWithAString@@@std@@@std@@QEAA@XZ
	??1?$vector@PEAVG4VPhysicalVolume@@V?$allocator@PEAVG4VPhysicalVolume@@@std@@@std@@QEAA@XZ
	??1?$vector@PEAVG4tgrPlace@@V?$allocator@PEAVG4tgrPlace@@@std@@@std@@QEAA@XZ
	??1?$vector@PEAVG4tgrRotationMatrix@@V?$allocator@PEAVG4tgrRotationMatrix@@@std@@@std@@QEAA@XZ
	??1?$vector@PEAVG4tgrVolume@@V?$allocator@PEAVG4tgrVolume@@@std@@@std@@QEAA@XZ
	??1?$vector@PEBVG4tgrSolid@@V?$allocator@PEBVG4tgrSolid@@@std@@@std@@QEAA@XZ
	??1?$vector@U?$pair@_K_K@std@@V?$allocator@U?$pair@_K_K@std@@@2@@std@@QEAA@XZ
	??1?$vector@UZSection@G4ExtrudedSolid@@V?$allocator@UZSection@G4ExtrudedSolid@@@std@@@std@@QEAA@XZ
	??1?$vector@V?$basic_string@DU?$char_traits@D@std@@V?$allocator@D@2@@std@@V?$allocator@V?$basic_string@DU?$char_traits@D@std@@V?$allocator@D@2@@std@@@2@@std@@QEAA@XZ
	??1?$vector@VG4String@@V?$allocator@VG4String@@@std@@@std@@QEAA@XZ
	??1?$vector@VHep2Vector@CLHEP@@V?$allocator@VHep2Vector@CLHEP@@@std@@@std@@QEAA@XZ
	??1?$vector@VHep3Vector@CLHEP@@V?$allocator@VHep3Vector@CLHEP@@@std@@@std@@QEAA@XZ
	??1G4DCIOcatalog@@UEAA@XZ
	??1G4HCIOcatalog@@UEAA@XZ
	??1G4MCTEvent@@UEAA@XZ
	??1G4MCTGenEvent@@UEAA@XZ
	??1G4MCTSimEvent@@QEAA@XZ
	??1G4MCTSimParticle@@UEAA@XZ
	??1G4MCTSimVertex@@QEAA@XZ
	??1G4PersistencyCenter@@AEAA@XZ
	??1G4PersistencyCenterMessenger@@UEAA@XZ
	??1G4PersistencyManager@@UEAA@XZ
	??1G4Pevent@@QEAA@XZ
	??1G4String@@QEAA@XZ
	??1G4VDCIOentry@@UEAA@XZ
	??1G4VHCIOentry@@UEAA@XZ
	??1G4VMCTruthIO@@UEAA@XZ
	??1G4VPDigitIO@@UEAA@XZ
	??1G4VPDigitsCollectionIO@@UEAA@XZ
	??1G4VPEventIO@@UEAA@XZ
	??1G4VPHitIO@@UEAA@XZ
	??1G4VPHitsCollectionIO@@UEAA@XZ
	??1G4tgbDetectorBuilder@@UEAA@XZ
	??1G4tgbDetectorConstruction@@QEAA@XZ
	??1G4tgbGeometryDumper@@QEAA@XZ
	??1G4tgbIsotope@@QEAA@XZ
	??1G4tgbMaterial@@UEAA@XZ
	??1G4tgbMaterialMgr@@QEAA@XZ
	??1G4tgbMaterialMixture@@UEAA@XZ
	??1G4tgbMaterialMixtureByNoAtoms@@UEAA@XZ
	??1G4tgbMaterialMixtureByVolume@@UEAA@XZ
	??1G4tgbMaterialMixtureByWeight@@UEAA@XZ
	??1G4tgbMaterialSimple@@UEAA@XZ
	??1G4tgbPlaceParamCircle@@UEAA@XZ
	??1G4tgbPlaceParamLinear@@UEAA@XZ
	??1G4tgbPlaceParamSquare@@UEAA@XZ
	??1G4tgbPlaceParameterisation@@UEAA@XZ
	??1G4tgbRotationMatrix@@QEAA@XZ
	??1G4tgbRotationMatrixMgr@@QEAA@XZ
	??1G4tgbVolume@@QEAA@XZ
	??1G4tgbVolumeMgr@@QEAA@XZ
	??1G4tgrElement@@UEAA@XZ
	??1G4tgrElementFromIsotopes@@UEAA@XZ
	??1G4tgrElementSimple@@UEAA@XZ
	??1G4tgrEvaluator@@QEAA@XZ
	??1G4tgrFileIn@@QEAA@XZ
	??1G4tgrFileReader@@UEAA@XZ
	??1G4tgrIsotope@@QEAA@XZ
	??1G4tgrLineProcessor@@UEAA@XZ
	??1G4tgrMaterial@@UEAA@XZ
	??1G4tgrMaterialFactory@@QEAA@XZ
	??1G4tgrMaterialMixture@@UEAA@XZ
	??1G4tgrMaterialSimple@@UEAA@XZ
	??1G4tgrMessenger@@UEAA@XZ
	??1G4tgrParameterMgr@@AEAA@XZ
	??1G4tgrPlace@@UEAA@XZ
	??1G4tgrPlaceDivRep@@UEAA@XZ
	??1G4tgrPlaceParameterisation@@UEAA@XZ
	??1G4tgrPlaceSimple@@UEAA@XZ
	??1G4tgrRotationMatrix@@QEAA@XZ
	??1G4tgrRotationMatrixFactory@@AEAA@XZ
	??1G4tgrSolid@@UEAA@XZ
	??1G4tgrSolidBoolean@@UEAA@XZ
	??1G4tgrUtils@@QEAA@XZ
	??1G4tgrVolume@@UEAA@XZ
	??1G4tgrVolumeAssembly@@UEAA@XZ
	??1G4tgrVolumeDivision@@UEAA@XZ
	??1G4tgrVolumeMgr@@AEAA@XZ
	??1_Sentry_base@?$basic_istream@DU?$char_traits@D@std@@@std@@QEAA@XZ
	??1_Sentry_base@?$basic_ostream@DU?$char_traits@D@std@@@std@@QEAA@XZ
	??1bad_array_new_length@std@@UEAA@XZ
	??1bad_cast@std@@UEAA@XZ
	??1exception@std@@UEAA@XZ
	??1locale@std@@QEAA@XZ
	??1sentry@?$basic_istream@DU?$char_traits@D@std@@@std@@QEAA@XZ
	??1sentry@?$basic_ostream@DU?$char_traits@D@std@@@std@@QEAA@XZ
	??4?$basic_string@DU?$char_traits@D@std@@V?$allocator@D@2@@std@@QEAAAEAV01@$$QEAV01@@Z
	??4G4tgbMaterialMixture@@QEAAAEAV0@AEBV0@@Z
	??6@YAAEAV?$basic_ostream@DU?$char_traits@D@std@@@std@@AEAV01@AEBVG4tgbMaterialSimple@@@Z
	??6@YAAEAV?$basic_ostream@DU?$char_traits@D@std@@@std@@AEAV01@AEBVG4tgrElementFromIsotopes@@@Z
	??6@YAAEAV?$basic_ostream@DU?$char_traits@D@std@@@std@@AEAV01@AEBVG4tgrElementSimple@@@Z
	??6@YAAEAV?$basic_ostream@DU?$char_traits@D@std@@@std@@AEAV01@AEBVG4tgrIsotope@@@Z
	??6@YAAEAV?$basic_ostream@DU?$char_traits@D@std@@@std@@AEAV01@AEBVG4tgrMaterialMixture@@@Z
	??6@YAAEAV?$basic_ostream@DU?$char_traits@D@std@@@std@@AEAV01@AEBVG4tgrMaterialSimple@@@Z
	??6@YAAEAV?$basic_ostream@DU?$char_traits@D@std@@@std@@AEAV01@AEBVG4tgrPlaceDivRep@@@Z
	??6@YAAEAV?$basic_ostream@DU?$char_traits@D@std@@@std@@AEAV01@AEBVG4tgrPlaceParameterisation@@@Z
	??6@YAAEAV?$basic_ostream@DU?$char_traits@D@std@@@std@@AEAV01@AEBVG4tgrPlaceSimple@@@Z
	??6@YAAEAV?$basic_ostream@DU?$char_traits@D@std@@@std@@AEAV01@AEBVG4tgrRotationMatrix@@@Z
	??6@YAAEAV?$basic_ostream@DU?$char_traits@D@std@@@std@@AEAV01@AEBVG4tgrSolid@@@Z
	??6@YAAEAV?$basic_ostream@DU?$char_traits@D@std@@@std@@AEAV01@AEBVG4tgrSolidBoolean@@@Z
	??6@YAAEAV?$basic_ostream@DU?$char_traits@D@std@@@std@@AEAV01@AEBVG4tgrVolume@@@Z
	??6@YAAEAV?$basic_ostream@DU?$char_traits@D@std@@@std@@AEAV01@AEBVG4tgrVolumeAssembly@@@Z
	??6@YAAEAV?$basic_ostream@DU?$char_traits@D@std@@@std@@AEAV01@AEBVG4tgrVolumeDivision@@@Z
	??6@YAAEAV?$basic_ostream@DU?$char_traits@D@std@@@std@@AEAV01@AEBVHepRotation@CLHEP@@@Z
	??8G4String@@QEBA_NPEBD@Z
	??8G4VPDigitsCollectionIO@@QEBA_NAEBV0@@Z
	??8G4VPHitsCollectionIO@@QEBA_NAEBV0@@Z
	??A?$map@HV?$basic_string@DU?$char_traits@D@std@@V?$allocator@D@2@@std@@U?$less@H@2@V?$allocator@U?$pair@$$CBHV?$basic_string@DU?$char_traits@D@std@@V?$allocator@D@2@@std@@@std@@@2@@std@@QEAAAEAV?$basic_string@DU?$char_traits@D@std@@V?$allocator@D@2@@1@$$QEAH@Z
	??A?$map@PEAVG4LogicalVolume@@PEAV1@U?$less@PEAVG4LogicalVolume@@@std@@V?$allocator@U?$pair@QEAVG4LogicalVolume@@PEAV1@@std@@@3@@std@@QEAAAEAPEAVG4LogicalVolume@@$$QEAPEAV2@@Z
	??A?$map@V?$basic_string@DU?$char_traits@D@std@@V?$allocator@D@2@@std@@V12@U?$less@V?$basic_string@DU?$char_traits@D@std@@V?$allocator@D@2@@std@@@2@V?$allocator@U?$pair@$$CBV?$basic_string@DU?$char_traits@D@std@@V?$allocator@D@2@@std@@V12@@std@@@2@@std@@QEAAAEAV?$basic_string@DU?$char_traits@D@std@@V?$allocator@D@2@@1@AEBV21@@Z
	??A?$map@V?$basic_string@DU?$char_traits@D@std@@V?$allocator@D@2@@std@@W4StoreMode@@U?$less@V?$basic_string@DU?$char_traits@D@std@@V?$allocator@D@2@@std@@@2@V?$allocator@U?$pair@$$CBV?$basic_string@DU?$char_traits@D@std@@V?$allocator@D@2@@std@@W4StoreMode@@@std@@@2@@std@@QEAAAEAW4StoreMode@@$$QEAV?$basic_string@DU?$char_traits@D@std@@V?$allocator@D@2@@1@@Z
	??A?$map@V?$basic_string@DU?$char_traits@D@std@@V?$allocator@D@2@@std@@W4StoreMode@@U?$less@V?$basic_string@DU?$char_traits@D@std@@V?$allocator@D@2@@std@@@2@V?$allocator@U?$pair@$$CBV?$basic_string@DU?$char_traits@D@std@@V?$allocator@D@2@@std@@W4StoreMode@@@std@@@2@@std@@QEAAAEAW4StoreMode@@AEBV?$basic_string@DU?$char_traits@D@std@@V?$allocator@D@2@@1@@Z
	??A?$map@V?$basic_string@DU?$char_traits@D@std@@V?$allocator@D@2@@std@@_NU?$less@V?$basic_string@DU?$char_traits@D@std@@V?$allocator@D@2@@std@@@2@V?$allocator@U?$pair@$$CBV?$basic_string@DU?$char_traits@D@std@@V?$allocator@D@2@@std@@_N@std@@@2@@std@@QEAAAEA_N$$QEAV?$basic_string@DU?$char_traits@D@std@@V?$allocator@D@2@@1@@Z
	??A?$map@V?$basic_string@DU?$char_traits@D@std@@V?$allocator@D@2@@std@@_NU?$less@V?$basic_string@DU?$char_traits@D@std@@V?$allocator@D@2@@std@@@2@V?$allocator@U?$pair@$$CBV?$basic_string@DU?$char_traits@D@std@@V?$allocator@D@2@@std@@_N@std@@@2@@std@@QEAAAEA_NAEBV?$basic_string@DU?$char_traits@D@std@@V?$allocator@D@2@@1@@Z
	??A?$map@VG4String@@PEAVG4VPhysicalVolume@@U?$less@VG4String@@@std@@V?$allocator@U?$pair@$$CBVG4String@@PEAVG4VPhysicalVolume@@@std@@@4@@std@@QEAAAEAPEAVG4VPhysicalVolume@@AEBVG4String@@@Z
	??A?$map@VG4String@@PEAVG4VSolid@@U?$less@VG4String@@@std@@V?$allocator@U?$pair@$$CBVG4String@@PEAVG4VSolid@@@std@@@4@@std@@QEAAAEAPEAVG4VSolid@@AEBVG4String@@@Z
	??A?$map@VG4String@@PEAVG4tgrElement@@U?$less@VG4String@@@std@@V?$allocator@U?$pair@$$CBVG4String@@PEAVG4tgrElement@@@std@@@4@@std@@QEAAAEAPEAVG4tgrElement@@AEBVG4String@@@Z
	??A?$map@VG4String@@PEAVG4tgrMaterial@@U?$less@VG4String@@@std@@V?$allocator@U?$pair@$$CBVG4String@@PEAVG4tgrMaterial@@@std@@@4@@std@@QEAAAEAPEAVG4tgrMaterial@@AEBVG4String@@@Z
	??A?$map@VG4String@@V1@U?$less@VG4String@@@std@@V?$allocator@U?$pair@$$CBVG4String@@V1@@std@@@3@@std@@QEAAAEAVG4String@@AEBV2@@Z
	??A?$map@VG4String@@V?$set@HU?$less@H@std@@V?$allocator@H@2@@std@@U?$less@VG4String@@@3@V?$allocator@U?$pair@$$CBVG4String@@V?$set@HU?$less@H@std@@V?$allocator@H@2@@std@@@std@@@3@@std@@QEAAAEAV?$set@HU?$less@H@std@@V?$allocator@H@2@@1@$$QEAVG4String@@@Z
	??BG4String@@QEBAPEBDXZ
	??R?$less@V?$basic_string@DU?$char_traits@D@std@@V?$allocator@D@2@@std@@@std@@QEBA_NAEBV?$basic_string@DU?$char_traits@D@std@@V?$allocator@D@2@@1@0@Z
	??R?$less@VG4String@@@std@@QEBA_NAEBVG4String@@0@Z
	??Y?$basic_string@DU?$char_traits@D@std@@V?$allocator@D@2@@std@@QEAAAEAV01@AEBV01@@Z
	??Y?$basic_string@DU?$char_traits@D@std@@V?$allocator@D@2@@std@@QEAAAEAV01@QEBD@Z
	??_D?$basic_istringstream@DU?$char_traits@D@std@@V?$allocator@D@2@@std@@QEAAXXZ
	??_D?$basic_ofstream@DU?$char_traits@D@std@@@std@@QEAAXXZ
	??_D?$basic_ostringstream@DU?$char_traits@D@std@@V?$allocator@D@2@@std@@QEAAXXZ
	?AddCheckOverlaps@G4tgrVolume@@QEAAXAEBV?$vector@VG4String@@V?$allocator@VG4String@@@std@@@std@@@Z
	?AddCommonFunctions@G4tgrEvaluator@@AEAAXXZ
	?AddDCIOmanager@G4PersistencyCenter@@QEAAXV?$basic_string@DU?$char_traits@D@std@@V?$allocator@D@2@@std@@@Z
	?AddElementFromIsotopes@G4tgrMaterialFactory@@QEAAPEAVG4tgrElementFromIsotopes@@AEBV?$vector@VG4String@@V?$allocator@VG4String@@@std@@@std@@@Z
	?AddElementSimple@G4tgrMaterialFactory@@QEAAPEAVG4tgrElementSimple@@AEBV?$vector@VG4String@@V?$allocator@VG4String@@@std@@@std@@@Z
	?AddGenEvent@G4MCTGenEvent@@QEAAHPEBX@Z
	?AddHCIOmanager@G4PersistencyCenter@@QEAAXV?$basic_string@DU?$char_traits@D@std@@V?$allocator@D@2@@std@@0@Z
	?AddIsotope@G4tgrMaterialFactory@@QEAAPEAVG4tgrIsotope@@AEBV?$vector@VG4String@@V?$allocator@VG4String@@@std@@@std@@@Z
	?AddMaterialMixture@G4tgrMaterialFactory@@QEAAPEAVG4tgrMaterialMixture@@AEBV?$vector@VG4String@@V?$allocator@VG4String@@@std@@@std@@AEBVG4String@@@Z
	?AddMaterialSimple@G4tgrMaterialFactory@@QEAAPEAVG4tgrMaterialSimple@@AEBV?$vector@VG4String@@V?$allocator@VG4String@@@std@@@std@@@Z
	?AddParameterNumber@G4tgrParameterMgr@@QEAAXAEBV?$vector@VG4String@@V?$allocator@VG4String@@@std@@@std@@_N@Z
	?AddParameterString@G4tgrParameterMgr@@QEAAXAEBV?$vector@VG4String@@V?$allocator@VG4String@@@std@@@std@@_N@Z
	?AddParticle@G4MCTSimEvent@@QEAA_NPEBVG4MCTSimParticle@@@Z
	?AddPlace@G4tgrVolume@@UEAAPEAVG4tgrPlace@@AEBV?$vector@VG4String@@V?$allocator@VG4String@@@std@@@std@@@Z
	?AddPlace@G4tgrVolumeAssembly@@UEAAPEAVG4tgrPlace@@AEBV?$vector@VG4String@@V?$allocator@VG4String@@@std@@@std@@@Z
	?AddPlaceParam@G4tgrVolume@@QEAAPEAVG4tgrPlaceParameterisation@@AEBV?$vector@VG4String@@V?$allocator@VG4String@@@std@@@std@@@Z
	?AddPlaceReplica@G4tgrVolume@@QEAAPEAVG4tgrPlaceDivRep@@AEBV?$vector@VG4String@@V?$allocator@VG4String@@@std@@@std@@@Z
	?AddPrimaryPair@G4MCTEvent@@QEAAHAEBU?$pair@PEAXPEAX@std@@PEBVG4MCTSimParticle@@@Z
	?AddQuotes@G4tgbGeometryDumper@@AEAA?AVG4String@@AEBV2@@Z
	?AddRGBColour@G4tgrVolume@@QEAAXAEBV?$vector@VG4String@@V?$allocator@VG4String@@@std@@@std@@@Z
	?AddRotMatrix@G4tgrRotationMatrixFactory@@QEAAPEAVG4tgrRotationMatrix@@AEBV?$vector@VG4String@@V?$allocator@VG4String@@@std@@@std@@@Z
	?AddTextFile@G4tgbVolumeMgr@@QEAAXAEBVG4String@@@Z
	?AddVisibility@G4tgrVolume@@QEAAXAEBV?$vector@VG4String@@V?$allocator@VG4String@@@std@@@std@@@Z
	?AreWordsEquivalent@G4tgrUtils@@SA_NAEBVG4String@@0@Z
	?AssociateParticle@G4MCTSimParticle@@QEAAHPEAV1@@Z
	?BuildAxis@G4tgrPlaceDivRep@@QEAA?AW4EAxis@@AEBVG4String@@@Z
	?BuildG4ElementFromIsotopes@G4tgbElement@@QEAAPEAVG4Element@@XZ
	?BuildG4ElementSimple@G4tgbElement@@QEAAPEAVG4Element@@XZ
	?BuildG4Isotope@G4tgbIsotope@@QEAAPEAVG4Isotope@@XZ
	?BuildG4Material@G4tgbMaterialMixtureByNoAtoms@@UEAAPEAVG4Material@@XZ
	?BuildG4Material@G4tgbMaterialMixtureByVolume@@UEAAPEAVG4Material@@XZ
	?BuildG4Material@G4tgbMaterialMixtureByWeight@@UEAAPEAVG4Material@@XZ
	?BuildG4Material@G4tgbMaterialSimple@@UEAAPEAVG4Material@@XZ
	?BuildG4RotMatrix@G4tgbRotationMatrix@@QEAAPEAVHepRotation@CLHEP@@XZ
	?BuildG4RotMatrixFrom3@G4tgbRotationMatrix@@QEAAPEAVHepRotation@CLHEP@@AEAV?$vector@NV?$allocator@N@std@@@std@@@Z
	?BuildG4RotMatrixFrom6@G4tgbRotationMatrix@@QEAAPEAVHepRotation@CLHEP@@AEAV?$vector@NV?$allocator@N@std@@@std@@@Z
	?BuildG4RotMatrixFrom9@G4tgbRotationMatrix@@QEAAPEAVHepRotation@CLHEP@@AEAV?$vector@NV?$allocator@N@std@@@std@@@Z
	?BuildPhysVolTree@G4tgbVolumeMgr@@QEAAXXZ
	?BuildSolidForDivision@G4tgbVolume@@QEAAPEAVG4VSolid@@PEAV2@W4EAxis@@@Z
	?BuildVertexContainer@G4MCTSimEvent@@QEAAXXZ
	?CheckIfLogVolExists@G4tgbGeometryDumper@@AEAA_NAEBVG4String@@PEAVG4LogicalVolume@@@Z
	?CheckIfNewParameter@G4tgrParameterMgr@@QEAAXAEBV?$vector@VG4String@@V?$allocator@VG4String@@@std@@@std@@_N@Z
	?CheckIfPhysVolExists@G4tgbGeometryDumper@@AEAA_NAEBVG4String@@PEAVG4VPhysicalVolume@@@Z
	?CheckListSize@G4tgrUtils@@SA_NIIW4WLSIZEtype@@AEAVG4String@@@Z
	?CheckNExtraData@G4tgbPlaceParameterisation@@QEAAXPEAVG4tgrPlaceParameterisation@@HW4WLSIZEtype@@AEBVG4String@@@Z
	?CheckNoSolidParams@G4tgbVolume@@QEAAXAEBVG4String@@II@Z
	?CheckWLsize@G4tgrUtils@@SAXAEBV?$vector@VG4String@@V?$allocator@VG4String@@@std@@@std@@IW4WLSIZEtype@@AEBVG4String@@@Z
	?ClearEvent@G4MCTEvent@@QEAAXXZ
	?ClearEvent@G4MCTGenEvent@@QEAAXXZ
	?ClearEvent@G4MCTSimEvent@@QEAAXXZ
	?Close@G4tgrFileIn@@QEAAXXZ
	?ComputeDimensions@G4VPVParameterisation@@UEBAXAEAVG4Box@@HPEBVG4VPhysicalVolume@@@Z
	?ComputeDimensions@G4VPVParameterisation@@UEBAXAEAVG4Cons@@HPEBVG4VPhysicalVolume@@@Z
	?ComputeDimensions@G4VPVParameterisation@@UEBAXAEAVG4Ellipsoid@@HPEBVG4VPhysicalVolume@@@Z
	?ComputeDimensions@G4VPVParameterisation@@UEBAXAEAVG4Hype@@HPEBVG4VPhysicalVolume@@@Z
	?ComputeDimensions@G4VPVParameterisation@@UEBAXAEAVG4Orb@@HPEBVG4VPhysicalVolume@@@Z
	?ComputeDimensions@G4VPVParameterisation@@UEBAXAEAVG4Para@@HPEBVG4VPhysicalVolume@@@Z
	?ComputeDimensions@G4VPVParameterisation@@UEBAXAEAVG4Polycone@@HPEBVG4VPhysicalVolume@@@Z
	?ComputeDimensions@G4VPVParameterisation@@UEBAXAEAVG4Polyhedra@@HPEBVG4VPhysicalVolume@@@Z
	?ComputeDimensions@G4VPVParameterisation@@UEBAXAEAVG4Sphere@@HPEBVG4VPhysicalVolume@@@Z
	?ComputeDimensions@G4VPVParameterisation@@UEBAXAEAVG4Torus@@HPEBVG4VPhysicalVolume@@@Z
	?ComputeDimensions@G4VPVParameterisation@@UEBAXAEAVG4Trap@@HPEBVG4VPhysicalVolume@@@Z
	?ComputeDimensions@G4VPVParameterisation@@UEBAXAEAVG4Trd@@HPEBVG4VPhysicalVolume@@@Z
	?ComputeDimensions@G4VPVParameterisation@@UEBAXAEAVG4Tubs@@HPEBVG4VPhysicalVolume@@@Z
	?ComputeTransformation@G4tgbPlaceParamCircle@@UEBAXHPEAVG4VPhysicalVolume@@@Z
	?ComputeTransformation@G4tgbPlaceParamLinear@@UEBAXHPEAVG4VPhysicalVolume@@@Z
	?ComputeTransformation@G4tgbPlaceParamSquare@@UEBAXHPEAVG4VPhysicalVolume@@@Z
	?ComputeTransformation@G4tgbPlaceParameterisation@@UEBAXHPEAVG4VPhysicalVolume@@@Z
	?Construct@G4tgbDetectorConstruction@@QEAAPEAVG4VPhysicalVolume@@XZ
	?ConstructDetector@G4tgbDetectorBuilder@@UEAAPEAVG4VPhysicalVolume@@PEBVG4tgrVolume@@@Z
	?ConstructG4LogVol@G4tgbVolume@@QEAAPEAVG4LogicalVolume@@PEBVG4VSolid@@@Z
	?ConstructG4PhysVol@G4tgbVolume@@QEAAPEAVG4VPhysicalVolume@@PEBVG4tgrPlace@@PEBVG4LogicalVolume@@1@Z
	?ConstructG4Volumes@G4tgbVolume@@QEAAXPEBVG4tgrPlace@@PEBVG4LogicalVolume@@@Z
	?CopyElements@G4tgbMaterialMgr@@QEAAXXZ
	?CopyIsotopes@G4tgbMaterialMgr@@QEAAXXZ
	?CopyMaterials@G4tgbMaterialMgr@@QEAAXXZ
	?CopyRotMats@G4tgbRotationMatrixMgr@@AEAAXXZ
	?CopyVolumes@G4tgbVolumeMgr@@QEAAXXZ
	?Create@G4PersistencyManager@@UEAAPEAV1@XZ
	?CreateDCIOmanager@G4VDCIOentry@@UEAAXV?$basic_string@DU?$char_traits@D@std@@V?$allocator@D@2@@std@@0@Z
	?CreateHCIOmanager@G4VHCIOentry@@UEAAXV?$basic_string@DU?$char_traits@D@std@@V?$allocator@D@2@@std@@0@Z
	?CreateSolid@G4tgrVolumeMgr@@QEAAPEAVG4tgrSolid@@AEBV?$vector@VG4String@@V?$allocator@VG4String@@@std@@@std@@_N@Z
	?CurrentDCIOmanager@G4DCIOcatalog@@QEAA?AV?$basic_string@DU?$char_traits@D@std@@V?$allocator@D@2@@std@@XZ
	?CurrentDCIOmanager@G4PersistencyCenter@@QEAA?AV?$basic_string@DU?$char_traits@D@std@@V?$allocator@D@2@@std@@XZ
	?CurrentHCIOmanager@G4HCIOcatalog@@QEAA?AV?$basic_string@DU?$char_traits@D@std@@V?$allocator@D@2@@std@@XZ
	?CurrentHCIOmanager@G4PersistencyCenter@@QEAA?AV?$basic_string@DU?$char_traits@D@std@@V?$allocator@D@2@@std@@XZ
	?CurrentHepMCObjyReaderFile@G4PersistencyCenter@@QEAA?AV?$basic_string@DU?$char_traits@D@std@@V?$allocator@D@2@@std@@XZ
	?CurrentObject@G4PersistencyCenter@@QEAA?AV?$basic_string@DU?$char_traits@D@std@@V?$allocator@D@2@@std@@V23@@Z
	?CurrentReadFile@G4PersistencyCenter@@QEAA?AV?$basic_string@DU?$char_traits@D@std@@V?$allocator@D@2@@std@@V23@@Z
	?CurrentRetrieveMode@G4PersistencyCenter@@QEAA_NV?$basic_string@DU?$char_traits@D@std@@V?$allocator@D@2@@std@@@Z
	?CurrentStoreMode@G4PersistencyCenter@@QEAA?AW4StoreMode@@V?$basic_string@DU?$char_traits@D@std@@V?$allocator@D@2@@std@@@Z
	?CurrentWriteFile@G4PersistencyCenter@@QEAA?AV?$basic_string@DU?$char_traits@D@std@@V?$allocator@D@2@@std@@V23@@Z
	?DeletePersistencyManager@G4PersistencyCenter@@QEAAXXZ
	?DigitIO@G4PersistencyManager@@UEAAPEAVG4VPDigitIO@@XZ
	?Dump3v@G4tgrUtils@@SAXAEBVHep3Vector@CLHEP@@PEBD@Z
	?DumpBooleanVolume@G4tgbGeometryDumper@@QEAAXAEBVG4String@@PEAVG4VSolid@@@Z
	?DumpElement@G4tgbGeometryDumper@@QEAAXPEAVG4Element@@@Z
	?DumpElementList@G4tgrMaterialFactory@@QEBAXXZ
	?DumpException@G4tgrFileIn@@QEAAXAEBVG4String@@@Z
	?DumpG4LogVolLeaf@G4tgbVolumeMgr@@QEAAXPEBVG4LogicalVolume@@I@Z
	?DumpG4LogVolTree@G4tgbVolumeMgr@@QEAAXXZ
	?DumpG4PhysVolLeaf@G4tgbVolumeMgr@@QEAAXPEBVG4VPhysicalVolume@@I@Z
	?DumpG4PhysVolTree@G4tgbVolumeMgr@@QEAAXXZ
	?DumpG4SolidList@G4tgbVolumeMgr@@QEAAXXZ
	?DumpGeometry@G4tgbGeometryDumper@@QEAAXAEBVG4String@@@Z
	?DumpIsotope@G4tgbGeometryDumper@@QEAAXPEAVG4Isotope@@@Z
	?DumpIsotopeList@G4tgrMaterialFactory@@QEBAXXZ
	?DumpList@G4tgrParameterMgr@@QEAAXXZ
	?DumpLogVol@G4tgbGeometryDumper@@QEAA?AVG4String@@PEAVG4LogicalVolume@@V2@PEAVG4VSolid@@PEAVG4Material@@@Z
	?DumpMaterial@G4tgbGeometryDumper@@QEAA?AVG4String@@PEAVG4Material@@@Z
	?DumpMaterialList@G4tgrMaterialFactory@@QEBAXXZ
	?DumpPVParameterised@G4tgbGeometryDumper@@QEAAXPEAVG4PVParameterised@@@Z
	?DumpPVPlacement@G4tgbGeometryDumper@@QEAAXPEAVG4VPhysicalVolume@@AEBVG4String@@H@Z
	?DumpPVReplica@G4tgbGeometryDumper@@QEAAXPEAVG4PVReplica@@AEBVG4String@@@Z
	?DumpPhysVol@G4tgbGeometryDumper@@QEAAXPEAVG4VPhysicalVolume@@@Z
	?DumpRotationMatrix@G4tgbGeometryDumper@@QEAA?AVG4String@@PEAVHepRotation@CLHEP@@@Z
	?DumpRotmList@G4tgrRotationMatrixFactory@@QEAAXXZ
	?DumpSolid@G4tgbGeometryDumper@@QEAA?AVG4String@@PEAVG4VSolid@@AEBV2@@Z
	?DumpSolidParams@G4tgbGeometryDumper@@QEAAXPEAVG4VSolid@@@Z
	?DumpSummary@G4tgbVolumeMgr@@QEAAXXZ
	?DumpSummary@G4tgrVolumeMgr@@QEAAXXZ
	?DumpVS@G4tgrUtils@@SAXAEBV?$vector@VG4String@@V?$allocator@VG4String@@@std@@@std@@PEBD@Z
	?DumpVS@G4tgrUtils@@SAXAEBV?$vector@VG4String@@V?$allocator@VG4String@@@std@@@std@@PEBDAEAV?$basic_ostream@DU?$char_traits@D@std@@@3@@Z
	?DumpVolumeLeaf@G4tgrVolumeMgr@@QEAAXPEBVG4tgrVolume@@II@Z
	?DumpVolumeTree@G4tgrVolumeMgr@@QEAAXXZ
	?Dumprm@G4tgrUtils@@SAXAEBVHepRotation@CLHEP@@PEBD@Z
	?EndOfFile@G4tgrFileIn@@QEAA_NXZ
	?ErrorAlreadyExists@G4tgrMaterialFactory@@AEAAXAEBVG4String@@AEBV?$vector@VG4String@@V?$allocator@VG4String@@@std@@@std@@_N@Z
	?ErrorInLine@G4tgrFileIn@@QEAAXXZ
	?EventIO@G4PersistencyManager@@UEAAPEAVG4VPEventIO@@XZ
	?FillSolidParams@G4tgrSolid@@AEAAXAEBV?$vector@VG4String@@V?$allocator@VG4String@@@std@@@std@@@Z
	?FindBuiltG4Element@G4tgbMaterialMgr@@QEBAPEAVG4Element@@AEBVG4String@@@Z
	?FindBuiltG4Isotope@G4tgbMaterialMgr@@QEBAPEAVG4Isotope@@AEBVG4String@@@Z
	?FindBuiltG4Material@G4tgbMaterialMgr@@QEBAPEAVG4Material@@AEBVG4String@@@Z
	?FindElement@G4tgrMaterialFactory@@QEBAPEAVG4tgrElement@@AEBVG4String@@@Z
	?FindG4LogVol@G4tgbVolumeMgr@@QEAAPEAVG4LogicalVolume@@AEBVG4String@@_N@Z
	?FindG4PhysVol@G4tgbVolumeMgr@@QEAAPEAVG4VPhysicalVolume@@AEBVG4String@@_N@Z
	?FindG4RotMatrix@G4tgbRotationMatrixMgr@@QEAAPEAVHepRotation@CLHEP@@AEBVG4String@@@Z
	?FindG4Solid@G4tgbVolumeMgr@@QEAAPEAVG4VSolid@@AEBVG4String@@@Z
	?FindG4tgbElement@G4tgbMaterialMgr@@QEBAPEAVG4tgbElement@@AEBVG4String@@_N@Z
	?FindG4tgbIsotope@G4tgbMaterialMgr@@QEBAPEAVG4tgbIsotope@@AEBVG4String@@_N@Z
	?FindG4tgbMaterial@G4tgbMaterialMgr@@QEBAPEAVG4tgbMaterial@@AEBVG4String@@_N@Z
	?FindIsotope@G4tgrMaterialFactory@@QEBAPEAVG4tgrIsotope@@AEBVG4String@@@Z
	?FindMaterial@G4tgrMaterialFactory@@QEBAPEAVG4tgrMaterial@@AEBVG4String@@@Z
	?FindOrBuildG4Element@G4tgbMaterialMgr@@QEAAPEAVG4Element@@AEBVG4String@@_N@Z
	?FindOrBuildG4Isotope@G4tgbMaterialMgr@@QEAAPEAVG4Isotope@@AEBVG4String@@@Z
	?FindOrBuildG4Material@G4tgbMaterialMgr@@QEAAPEAVG4Material@@AEBVG4String@@_N@Z
	?FindOrBuildG4RotMatrix@G4tgbRotationMatrixMgr@@QEAAPEAVHepRotation@CLHEP@@AEBVG4String@@@Z
	?FindOrBuildTgbRotMatrix@G4tgbRotationMatrixMgr@@QEAAPEAVG4tgbRotationMatrix@@AEBVG4String@@@Z
	?FindOrConstructG4Solid@G4tgbVolume@@QEAAPEAVG4VSolid@@PEBVG4tgrSolid@@@Z
	?FindParameter@G4tgrParameterMgr@@QEAA?AVG4String@@AEBV2@_N@Z
	?FindParticle@G4MCTSimEvent@@QEBAPEAVG4MCTSimParticle@@H@Z
	?FindRotMatrix@G4tgrRotationMatrixFactory@@QEAAPEAVG4tgrRotationMatrix@@AEBVG4String@@@Z
	?FindSolid@G4tgrVolumeMgr@@QEAAPEAVG4tgrSolid@@AEBVG4String@@_N@Z
	?FindSolidName@G4tgbGeometryDumper@@AEAAAEBVG4String@@PEAVG4VSolid@@@Z
	?FindTgbRotMatrix@G4tgbRotationMatrixMgr@@QEAAPEAVG4tgbRotationMatrix@@AEBVG4String@@@Z
	?FindVolume@G4tgbVolumeMgr@@QEAAPEAVG4tgbVolume@@AEBVG4String@@@Z
	?FindVolume@G4tgrLineProcessor@@IEAAPEAVG4tgrVolume@@AEBVG4String@@@Z
	?FindVolume@G4tgrVolumeMgr@@QEAAPEAVG4tgrVolume@@AEBVG4String@@_N@Z
	?FindVolumes@G4tgrVolumeMgr@@QEAA?AV?$vector@PEAVG4tgrVolume@@V?$allocator@PEAVG4tgrVolume@@@std@@@std@@AEBVG4String@@_N@Z
	?GetA@G4tgrMaterialMixture@@UEBANXZ
	?GetA@G4tgrMaterialSimple@@UEBANXZ
	?GetAssociatedParticle@G4MCTSimParticle@@QEBAPEAV1@H@Z
	?GetBool@G4tgrUtils@@SA_NAEBVG4String@@@Z
	?GetChildren@G4tgrVolumeMgr@@QEAA?AU?$pair@V?$_Tree_iterator@V?$_Tree_val@U?$_Tree_simple_types@U?$pair@$$CBVG4String@@PEBVG4tgrPlace@@@std@@@std@@@std@@@std@@V12@@std@@AEBVG4String@@@Z
	?GetComponent@G4tgbMaterialMixture@@UEBAAEBVG4String@@H@Z
	?GetComponent@G4tgrMaterialMixture@@UEBAAEBVG4String@@H@Z
	?GetComponent@G4tgrMaterialSimple@@UEBAAEBVG4String@@H@Z
	?GetCurrentValue@G4PersistencyCenterMessenger@@UEAA?AVG4String@@PEAVG4UIcommand@@@Z
	?GetCurrentValue@G4tgrMessenger@@UEAA?AVG4String@@PEAVG4UIcommand@@@Z
	?GetDCIOcatalog@G4DCIOcatalog@@SAPEAV1@XZ
	?GetDCIOmanager@G4DCIOcatalog@@QEAAPEAVG4VPDigitsCollectionIO@@H@Z
	?GetDCIOmanager@G4DCIOcatalog@@QEAAPEAVG4VPDigitsCollectionIO@@V?$basic_string@DU?$char_traits@D@std@@V?$allocator@D@2@@std@@@Z
	?GetDouble@G4tgrUtils@@SANAEBVG4String@@N@Z
	?GetEntry@G4DCIOcatalog@@QEAAPEAVG4VDCIOentry@@V?$basic_string@DU?$char_traits@D@std@@V?$allocator@D@2@@std@@@Z
	?GetEntry@G4HCIOcatalog@@QEAAPEAVG4VHCIOentry@@V?$basic_string@DU?$char_traits@D@std@@V?$allocator@D@2@@std@@@Z
	?GetExtraData@G4tgrPlaceParameterisation@@QEBA?AV?$vector@NV?$allocator@N@std@@@std@@XZ
	?GetFraction@G4tgbMaterialMixture@@UEBANH@Z
	?GetFraction@G4tgrMaterialMixture@@UEAANH@Z
	?GetFraction@G4tgrMaterialSimple@@UEAANH@Z
	?GetGenEvent@G4MCTGenEvent@@QEAAPEBXH@Z
	?GetGenParticle@G4MCTEvent@@QEBA?AU?$pair@PEAXPEAX@std@@PEBVG4MCTSimParticle@@@Z
	?GetHCIOcatalog@G4HCIOcatalog@@SAPEAV1@XZ
	?GetHCIOmanager@G4HCIOcatalog@@QEAAPEAVG4VPHitsCollectionIO@@H@Z
	?GetHCIOmanager@G4HCIOcatalog@@QEAAPEAVG4VPHitsCollectionIO@@V?$basic_string@DU?$char_traits@D@std@@V?$allocator@D@2@@std@@@Z
	?GetInstance@G4tgbGeometryDumper@@SAPEAV1@XZ
	?GetInstance@G4tgbMaterialMgr@@SAPEAV1@XZ
	?GetInstance@G4tgbRotationMatrixMgr@@SAPEAV1@XZ
	?GetInstance@G4tgbVolumeMgr@@SAPEAV1@XZ
	?GetInstance@G4tgrFileIn@@SAAEAV1@AEBVG4String@@@Z
	?GetInstance@G4tgrFileReader@@SAPEAV1@XZ
	?GetInstance@G4tgrMaterialFactory@@SAPEAV1@XZ
	?GetInstance@G4tgrParameterMgr@@SAPEAV1@XZ
	?GetInstance@G4tgrRotationMatrixFactory@@SAPEAV1@XZ
	?GetInstance@G4tgrVolumeMgr@@SAPEAV1@XZ
	?GetInstanceOpened@G4tgrFileIn@@SAAEAV1@AEBVG4String@@@Z
	?GetInt@G4tgrUtils@@SAHAEBVG4String@@@Z
	?GetIsotopeName@G4tgbGeometryDumper@@AEAA?AVG4String@@PEAVG4Isotope@@@Z
	?GetNofAssociatedParticles@G4MCTSimParticle@@QEBAHXZ
	?GetNofEvents@G4MCTGenEvent@@QEBAHXZ
	?GetNofStoredParticles@G4MCTSimEvent@@QEBAHXZ
	?GetNofStoredVertices@G4MCTSimEvent@@QEBAHXZ
	?GetPVChildren@G4tgbGeometryDumper@@AEAA?AV?$vector@PEAVG4VPhysicalVolume@@V?$allocator@PEAVG4VPhysicalVolume@@@std@@@std@@PEAVG4LogicalVolume@@@Z
	?GetPersistencyCenter@G4PersistencyCenter@@SAPEAV1@XZ
	?GetPersistencyManager@G4PersistencyCenter@@QEAAPEAVG4PersistencyManager@@V?$basic_string@DU?$char_traits@D@std@@V?$allocator@D@2@@std@@@Z
	?GetPersistencyManager@G4PersistencyManager@@KAPEAV1@XZ
	?GetPlacement@G4tgrPlace@@UEBA?AVHep3Vector@CLHEP@@XZ
	?GetPlacement@G4tgrPlaceSimple@@UEBA?AVHep3Vector@CLHEP@@XZ
	?GetRelativePlace@G4tgrSolid@@UEBA?AVHep3Vector@CLHEP@@XZ
	?GetRelativePlace@G4tgrSolidBoolean@@UEBA?AVHep3Vector@CLHEP@@XZ
	?GetRelativeRotMatName@G4tgrSolid@@UEBAAEBVG4String@@XZ
	?GetRelativeRotMatName@G4tgrSolidBoolean@@UEBAAEBVG4String@@XZ
	?GetRotationFromDirection@G4tgrUtils@@SA?AVHepRotation@CLHEP@@VHep3Vector@3@@Z
	?GetSimParticle@G4MCTEvent@@QEBAPEAVG4MCTSimParticle@@AEBU?$pair@PEAXPEAX@std@@@Z
	?GetSolid@G4tgrSolidBoolean@@QEBAPEBVG4tgrSolid@@H@Z
	?GetSolidParams@G4tgbGeometryDumper@@QEAA?AV?$vector@NV?$allocator@N@std@@@std@@PEBVG4VSolid@@@Z
	?GetSolidParams@G4tgrSolid@@QEBA?BV?$vector@PEAV?$vector@NV?$allocator@N@std@@@std@@V?$allocator@PEAV?$vector@NV?$allocator@N@std@@@std@@@2@@std@@XZ
	?GetString@G4tgrUtils@@SA?AVG4String@@AEBV2@@Z
	?GetTGSolidType@G4tgbGeometryDumper@@AEAA?AVG4String@@AEBV2@@Z
	?GetTopLogVol@G4tgbVolumeMgr@@QEAAPEAVG4LogicalVolume@@XZ
	?GetTopPhysVol@G4tgbGeometryDumper@@QEAAPEAVG4VPhysicalVolume@@XZ
	?GetTopPhysVol@G4tgbVolumeMgr@@QEAAPEAVG4VPhysicalVolume@@XZ
	?GetTopVolume@G4tgrVolumeMgr@@QEAAPEBVG4tgrVolume@@XZ
	?GetTreeLevel@G4MCTSimParticle@@QEBAHXZ
	?GetVerboseLevel@G4tgrMessenger@@SAHXZ
	?GetVertex@G4MCTSimEvent@@QEBAPEAVG4MCTSimVertex@@H@Z
	?GetVolume@G4tgrVolume@@UEBAPEAV1@H@Z
	?GetWordsInLine@G4tgrFileIn@@QEAAHAEAV?$vector@VG4String@@V?$allocator@VG4String@@@std@@@std@@@Z
	?GetZ@G4tgrMaterialMixture@@UEBANXZ
	?GetZ@G4tgrMaterialSimple@@UEBANXZ
	?HitIO@G4PersistencyManager@@UEAAPEAVG4VPHitIO@@XZ
	?Initialize@G4PersistencyManager@@UEAAXXZ
	?IsFunction@G4tgrUtils@@SA_NAEBVG4String@@@Z
	?IsInteger@G4tgrUtils@@SA_NNN@Z
	?IsNumber@G4tgrUtils@@SA_NAEBVG4String@@@Z
	?IsSeparator@G4tgrUtils@@SA_ND@Z
	?LookForExistingRotation@G4tgbGeometryDumper@@AEAA?AVG4String@@PEBVHepRotation@CLHEP@@@Z
	?MCTruthIO@G4PersistencyManager@@UEAAPEAVG4VMCTruthIO@@XZ
	?MatDeterminant@G4tgbGeometryDumper@@AEAANPEAVHepRotation@CLHEP@@@Z
	?OpenNewFile@G4tgrFileIn@@QEAAXPEBD@Z
	?PadString@G4PersistencyCenter@@AEAA?AV?$basic_string@DU?$char_traits@D@std@@V?$allocator@D@2@@std@@V23@I@Z
	?PopWord@G4PersistencyCenterMessenger@@AEAA?AV?$basic_string@DU?$char_traits@D@std@@V?$allocator@D@2@@std@@V23@H0@Z
	?Print@G4MCTEvent@@QEBAXAEAV?$basic_ostream@DU?$char_traits@D@std@@@std@@@Z
	?Print@G4MCTSimEvent@@QEBAXAEAV?$basic_ostream@DU?$char_traits@D@std@@@std@@@Z
	?Print@G4MCTSimParticle@@QEBAXAEAV?$basic_ostream@DU?$char_traits@D@std@@@std@@_N@Z
	?Print@G4MCTSimVertex@@QEBAXAEAV?$basic_ostream@DU?$char_traits@D@std@@@std@@@Z
	?PrintAll@G4PersistencyCenter@@QEAAXXZ
	?PrintDCIOmanager@G4DCIOcatalog@@QEAAXXZ
	?PrintEntries@G4DCIOcatalog@@QEAAXXZ
	?PrintEntries@G4HCIOcatalog@@QEAAXXZ
	?PrintHCIOmanager@G4HCIOcatalog@@QEAAXXZ
	?PrintSingle@G4MCTSimParticle@@QEBAXAEAV?$basic_ostream@DU?$char_traits@D@std@@@std@@@Z
	?ProcessLine@G4tgrLineProcessor@@UEAA_NAEBV?$vector@VG4String@@V?$allocator@VG4String@@@std@@@std@@@Z
	?ReadAndConstructDetector@G4tgbVolumeMgr@@QEAAPEAVG4VPhysicalVolume@@XZ
	?ReadDetector@G4tgbDetectorBuilder@@UEAAPEBVG4tgrVolume@@XZ
	?ReadFiles@G4tgrFileReader@@QEAA_NXZ
	?RegisterChildParentLVs@G4tgbVolumeMgr@@QEAAXPEBVG4LogicalVolume@@0@Z
	?RegisterDCIOmanager@G4DCIOcatalog@@QEAAXPEAVG4VPDigitsCollectionIO@@@Z
	?RegisterEntry@G4DCIOcatalog@@QEAAXPEAVG4VDCIOentry@@@Z
	?RegisterEntry@G4HCIOcatalog@@QEAAXPEAVG4VHCIOentry@@@Z
	?RegisterHCIOmanager@G4HCIOcatalog@@QEAAXPEAVG4VPHitsCollectionIO@@@Z
	?RegisterMe@G4tgbVolumeMgr@@QEAAXPEBVG4LogicalVolume@@@Z
	?RegisterMe@G4tgbVolumeMgr@@QEAAXPEBVG4VPhysicalVolume@@@Z
	?RegisterMe@G4tgbVolumeMgr@@QEAAXPEBVG4VSolid@@@Z
	?RegisterMe@G4tgbVolumeMgr@@QEAAXPEBVG4tgbVolume@@@Z
	?RegisterMe@G4tgrVolumeMgr@@QEAAXPEAVG4tgrMaterial@@@Z
	?RegisterMe@G4tgrVolumeMgr@@QEAAXPEAVG4tgrPlace@@@Z
	?RegisterMe@G4tgrVolumeMgr@@QEAAXPEAVG4tgrSolid@@@Z
	?RegisterMe@G4tgrVolumeMgr@@QEAAXPEAVG4tgrVolume@@@Z
	?RegisterParentChild@G4tgrVolumeMgr@@QEAAXAEBVG4String@@PEBVG4tgrPlace@@@Z
	?RegisterPersistencyManager@G4PersistencyCenter@@QEAAXPEAVG4PersistencyManager@@@Z
	?Retrieve@G4PersistencyManager@@UEAA_NAEAPEAVG4Event@@@Z
	?Retrieve@G4PersistencyManager@@UEAA_NAEAPEAVG4Run@@@Z
	?Retrieve@G4PersistencyManager@@UEAA_NAEAPEAVG4VPhysicalVolume@@@Z
	?Same2G4Isotopes@G4tgbGeometryDumper@@AEAA_NPEAVG4Isotope@@0@Z
	?SelectSystem@G4PersistencyCenter@@QEAAXV?$basic_string@DU?$char_traits@D@std@@V?$allocator@D@2@@std@@@Z
	?SetGuidance@G4UIcommand@@QEAAXPEBD@Z
	?SetHepMCObjyReaderFile@G4PersistencyCenter@@QEAAXV?$basic_string@DU?$char_traits@D@std@@V?$allocator@D@2@@std@@@Z
	?SetNewValue@G4PersistencyCenterMessenger@@UEAAXPEAVG4UIcommand@@VG4String@@@Z
	?SetNewValue@G4tgrMessenger@@UEAAXPEAVG4UIcommand@@VG4String@@@Z
	?SetPersistencyManager@G4PersistencyCenter@@QEAAXPEAVG4PersistencyManager@@V?$basic_string@DU?$char_traits@D@std@@V?$allocator@D@2@@std@@@Z
	?SetReadFile@G4PersistencyCenter@@QEAA_NV?$basic_string@DU?$char_traits@D@std@@V?$allocator@D@2@@std@@0@Z
	?SetRetrieveMode@G4PersistencyCenter@@QEAAXV?$basic_string@DU?$char_traits@D@std@@V?$allocator@D@2@@std@@_N@Z
	?SetState@G4tgrMaterial@@QEAAXVG4String@@@Z
	?SetStoreFlagToParentTree@G4MCTSimParticle@@QEAAX_N@Z
	?SetStoreMode@G4PersistencyCenter@@QEAAXV?$basic_string@DU?$char_traits@D@std@@V?$allocator@D@2@@std@@W4StoreMode@@@Z
	?SetVerboseLevel@G4PersistencyCenter@@QEAAXH@Z
	?SetVerboseLevel@G4PersistencyManager@@QEAAXH@Z
	?SetVerboseLevel@G4VPDigitIO@@QEAAXH@Z
	?SetVerboseLevel@G4VPHitIO@@QEAAXH@Z
	?SetVerboseLevel@G4tgrMessenger@@SAXH@Z
	?SetWriteFile@G4PersistencyCenter@@QEAA_NV?$basic_string@DU?$char_traits@D@std@@V?$allocator@D@2@@std@@0@Z
	?Store@G4PersistencyManager@@UEAA_NPEBVG4Event@@@Z
	?Store@G4PersistencyManager@@UEAA_NPEBVG4Run@@@Z
	?Store@G4PersistencyManager@@UEAA_NPEBVG4VPhysicalVolume@@@Z
	?SubColon@G4tgrUtils@@SA?AVG4String@@AEBV2@@Z
	?SubstituteRefl@G4tgbGeometryDumper@@AEAA?AVG4String@@V2@@Z
	?SupressRefl@G4tgbGeometryDumper@@AEAA?AVG4String@@V2@@Z
	?TransactionManager@G4PersistencyManager@@UEAAPEAVG4VTransactionManager@@XZ
	?TransformToFractionsByWeight@G4tgbMaterialMixture@@MEAAXXZ
	?TransformToFractionsByWeight@G4tgbMaterialMixtureByNoAtoms@@UEAAXXZ
	?TransformToFractionsByWeight@G4tgbMaterialMixtureByVolume@@UEAAXXZ
	?UnRegisterMe@G4tgrVolumeMgr@@QEAAXPEAVG4tgrSolid@@@Z
	?UnRegisterMe@G4tgrVolumeMgr@@QEAAXPEAVG4tgrVolume@@@Z
	?WordIsUnit@G4tgrUtils@@SA_NAEBVG4String@@@Z
	?_Become_small@?$basic_string@DU?$char_traits@D@std@@V?$allocator@D@2@@std@@AEAAXXZ
	?_Change_array@?$vector@NV?$allocator@N@std@@@std@@AEAAXQEAN_K1@Z
	?_Change_array@?$vector@VG4String@@V?$allocator@VG4String@@@std@@@std@@AEAAXQEAVG4String@@_K1@Z
	?_Destroy@?$vector@V?$basic_string@DU?$char_traits@D@std@@V?$allocator@D@2@@std@@V?$allocator@V?$basic_string@DU?$char_traits@D@std@@V?$allocator@D@2@@std@@@2@@std@@AEAAXPEAV?$basic_string@DU?$char_traits@D@std@@V?$allocator@D@2@@2@0@Z
	?_Destroy@?$vector@VG4String@@V?$allocator@VG4String@@@std@@@std@@AEAAXPEAVG4String@@0@Z
	?_Endwrite@?$basic_filebuf@DU?$char_traits@D@std@@@std@@IEAA_NXZ
	?_Extract@?$_Tree_val@U?$_Tree_simple_types@U?$pair@$$CBVG4String@@PEAVG4tgrSolid@@@std@@@std@@@std@@QEAAPEAU?$_Tree_node@U?$pair@$$CBVG4String@@PEAVG4tgrSolid@@@std@@PEAX@2@V?$_Tree_unchecked_const_iterator@V?$_Tree_val@U?$_Tree_simple_types@U?$pair@$$CBVG4String@@PEAVG4tgrSolid@@@std@@@std@@@std@@U_Iterator_base0@2@@2@@Z
	?_Extract@?$_Tree_val@U?$_Tree_simple_types@U?$pair@$$CBVG4String@@PEAVG4tgrVolume@@@std@@@std@@@std@@QEAAPEAU?$_Tree_node@U?$pair@$$CBVG4String@@PEAVG4tgrVolume@@@std@@PEAX@2@V?$_Tree_unchecked_const_iterator@V?$_Tree_val@U?$_Tree_simple_types@U?$pair@$$CBVG4String@@PEAVG4tgrVolume@@@std@@@std@@@std@@U_Iterator_base0@2@@2@@Z
	?_Getal@?$_Tree@V?$_Tmap_traits@VG4String@@PEAVG4Element@@U?$less@VG4String@@@std@@V?$allocator@U?$pair@$$CBVG4String@@PEAVG4Element@@@std@@@4@$0A@@std@@@std@@IEAAAEAV?$allocator@U?$_Tree_node@U?$pair@$$CBVG4String@@PEAVG4Element@@@std@@PEAX@std@@@2@XZ
	?_Getal@?$_Tree@V?$_Tmap_traits@VG4String@@PEAVG4Isotope@@U?$less@VG4String@@@std@@V?$allocator@U?$pair@$$CBVG4String@@PEAVG4Isotope@@@std@@@4@$0A@@std@@@std@@IEAAAEAV?$allocator@U?$_Tree_node@U?$pair@$$CBVG4String@@PEAVG4Isotope@@@std@@PEAX@std@@@2@XZ
	?_Getal@?$_Tree@V?$_Tmap_traits@VG4String@@PEAVG4LogicalVolume@@U?$less@VG4String@@@std@@V?$allocator@U?$pair@$$CBVG4String@@PEAVG4LogicalVolume@@@std@@@4@$0A@@std@@@std@@IEAAAEAV?$allocator@U?$_Tree_node@U?$pair@$$CBVG4String@@PEAVG4LogicalVolume@@@std@@PEAX@std@@@2@XZ
	?_Getal@?$_Tree@V?$_Tmap_traits@VG4String@@PEAVG4Material@@U?$less@VG4String@@@std@@V?$allocator@U?$pair@$$CBVG4String@@PEAVG4Material@@@std@@@4@$0A@@std@@@std@@IEAAAEAV?$allocator@U?$_Tree_node@U?$pair@$$CBVG4String@@PEAVG4Material@@@std@@PEAX@std@@@2@XZ
	?_Getal@?$_Tree@V?$_Tmap_traits@VG4String@@PEAVG4VSolid@@U?$less@VG4String@@@std@@V?$allocator@U?$pair@$$CBVG4String@@PEAVG4VSolid@@@std@@@4@$0A@@std@@@std@@IEAAAEAV?$allocator@U?$_Tree_node@U?$pair@$$CBVG4String@@PEAVG4VSolid@@@std@@PEAX@std@@@2@XZ
	?_Getal@?$_Tree@V?$_Tmap_traits@VG4String@@PEAVG4tgrElement@@U?$less@VG4String@@@std@@V?$allocator@U?$pair@$$CBVG4String@@PEAVG4tgrElement@@@std@@@4@$0A@@std@@@std@@IEAAAEAV?$allocator@U?$_Tree_node@U?$pair@$$CBVG4String@@PEAVG4tgrElement@@@std@@PEAX@std@@@2@XZ
	?_Getal@?$_Tree@V?$_Tmap_traits@VG4String@@PEAVG4tgrIsotope@@U?$less@VG4String@@@std@@V?$allocator@U?$pair@$$CBVG4String@@PEAVG4tgrIsotope@@@std@@@4@$0A@@std@@@std@@IEAAAEAV?$allocator@U?$_Tree_node@U?$pair@$$CBVG4String@@PEAVG4tgrIsotope@@@std@@PEAX@std@@@2@XZ
	?_Getal@?$_Tree@V?$_Tmap_traits@VG4String@@PEAVG4tgrMaterial@@U?$less@VG4String@@@std@@V?$allocator@U?$pair@$$CBVG4String@@PEAVG4tgrMaterial@@@std@@@4@$0A@@std@@@std@@IEAAAEAV?$allocator@U?$_Tree_node@U?$pair@$$CBVG4String@@PEAVG4tgrMaterial@@@std@@PEAX@std@@@2@XZ
	?_Getal@?$_Tree@V?$_Tmap_traits@VG4String@@PEAVG4tgrRotationMatrix@@U?$less@VG4String@@@std@@V?$allocator@U?$pair@$$CBVG4String@@PEAVG4tgrRotationMatrix@@@std@@@4@$0A@@std@@@std@@IEAAAEAV?$allocator@U?$_Tree_node@U?$pair@$$CBVG4String@@PEAVG4tgrRotationMatrix@@@std@@PEAX@std@@@2@XZ
	?_Getal@?$_Tree@V?$_Tmap_traits@VG4String@@PEAVG4tgrVolume@@U?$less@VG4String@@@std@@V?$allocator@U?$pair@$$CBVG4String@@PEAVG4tgrVolume@@@std@@@4@$0A@@std@@@std@@IEAAAEAV?$allocator@U?$_Tree_node@U?$pair@$$CBVG4String@@PEAVG4tgrVolume@@@std@@PEAX@std@@@2@XZ
	?_Getal@?$_Tree@V?$_Tset_traits@HU?$less@H@std@@V?$allocator@H@2@$0A@@std@@@std@@IEAAAEAV?$allocator@U?$_Tree_node@HPEAX@std@@@2@XZ
	?_Getal@?$vector@VG4String@@V?$allocator@VG4String@@@std@@@std@@AEAAAEAV?$allocator@VG4String@@@2@XZ
	?_Insert_node@?$_Tree_val@U?$_Tree_simple_types@H@std@@@std@@QEAAPEAU?$_Tree_node@HPEAX@2@U?$_Tree_id@PEAU?$_Tree_node@HPEAX@std@@@2@QEAU32@@Z
	?_Insert_node@?$_Tree_val@U?$_Tree_simple_types@U?$pair@$$CBHPEAVG4MCTSimParticle@@@std@@@std@@@std@@QEAAPEAU?$_Tree_node@U?$pair@$$CBHPEAVG4MCTSimParticle@@@std@@PEAX@2@U?$_Tree_id@PEAU?$_Tree_node@U?$pair@$$CBHPEAVG4MCTSimParticle@@@std@@PEAX@std@@@2@QEAU32@@Z
	?_Insert_node@?$_Tree_val@U?$_Tree_simple_types@U?$pair@$$CBHV?$basic_string@DU?$char_traits@D@std@@V?$allocator@D@2@@std@@@std@@@std@@@std@@QEAAPEAU?$_Tree_node@U?$pair@$$CBHV?$basic_string@DU?$char_traits@D@std@@V?$allocator@D@2@@std@@@std@@PEAX@2@U?$_Tree_id@PEAU?$_Tree_node@U?$pair@$$CBHV?$basic_string@DU?$char_traits@D@std@@V?$allocator@D@2@@std@@@std@@PEAX@std@@@2@QEAU32@@Z
	?_Insert_node@?$_Tree_val@U?$_Tree_simple_types@U?$pair@$$CBU?$pair@PEAXPEAX@std@@PEAVG4MCTSimParticle@@@std@@@std@@@std@@QEAAPEAU?$_Tree_node@U?$pair@$$CBU?$pair@PEAXPEAX@std@@PEAVG4MCTSimParticle@@@std@@PEAX@2@U?$_Tree_id@PEAU?$_Tree_node@U?$pair@$$CBU?$pair@PEAXPEAX@std@@PEAVG4MCTSimParticle@@@std@@PEAX@std@@@2@QEAU32@@Z
	?_Insert_node@?$_Tree_val@U?$_Tree_simple_types@U?$pair@$$CBV?$basic_string@DU?$char_traits@D@std@@V?$allocator@D@2@@std@@PEAVG4PersistencyManager@@@std@@@std@@@std@@QEAAPEAU?$_Tree_node@U?$pair@$$CBV?$basic_string@DU?$char_traits@D@std@@V?$allocator@D@2@@std@@PEAVG4PersistencyManager@@@std@@PEAX@2@U?$_Tree_id@PEAU?$_Tree_node@U?$pair@$$CBV?$basic_string@DU?$char_traits@D@std@@V?$allocator@D@2@@std@@PEAVG4PersistencyManager@@@std@@PEAX@std@@@2@QEAU32@@Z
	?_Insert_node@?$_Tree_val@U?$_Tree_simple_types@U?$pair@$$CBV?$basic_string@DU?$char_traits@D@std@@V?$allocator@D@2@@std@@PEAVG4VDCIOentry@@@std@@@std@@@std@@QEAAPEAU?$_Tree_node@U?$pair@$$CBV?$basic_string@DU?$char_traits@D@std@@V?$allocator@D@2@@std@@PEAVG4VDCIOentry@@@std@@PEAX@2@U?$_Tree_id@PEAU?$_Tree_node@U?$pair@$$CBV?$basic_string@DU?$char_traits@D@std@@V?$allocator@D@2@@std@@PEAVG4VDCIOentry@@@std@@PEAX@std@@@2@QEAU32@@Z
	?_Insert_node@?$_Tree_val@U?$_Tree_simple_types@U?$pair@$$CBV?$basic_string@DU?$char_traits@D@std@@V?$allocator@D@2@@std@@PEAVG4VHCIOentry@@@std@@@std@@@std@@QEAAPEAU?$_Tree_node@U?$pair@$$CBV?$basic_string@DU?$char_traits@D@std@@V?$allocator@D@2@@std@@PEAVG4VHCIOentry@@@std@@PEAX@2@U?$_Tree_id@PEAU?$_Tree_node@U?$pair@$$CBV?$basic_string@DU?$char_traits@D@std@@V?$allocator@D@2@@std@@PEAVG4VHCIOentry@@@std@@PEAX@std@@@2@QEAU32@@Z
	?_Insert_node@?$_Tree_val@U?$_Tree_simple_types@U?$pair@$$CBV?$basic_string@DU?$char_traits@D@std@@V?$allocator@D@2@@std@@PEAVG4VPDigitsCollectionIO@@@std@@@std@@@std@@QEAAPEAU?$_Tree_node@U?$pair@$$CBV?$basic_string@DU?$char_traits@D@std@@V?$allocator@D@2@@std@@PEAVG4VPDigitsCollectionIO@@@std@@PEAX@2@U?$_Tree_id@PEAU?$_Tree_node@U?$pair@$$CBV?$basic_string@DU?$char_traits@D@std@@V?$allocator@D@2@@std@@PEAVG4VPDigitsCollectionIO@@@std@@PEAX@std@@@2@QEAU32@@Z
	?_Insert_node@?$_Tree_val@U?$_Tree_simple_types@U?$pair@$$CBV?$basic_string@DU?$char_traits@D@std@@V?$allocator@D@2@@std@@PEAVG4VPHitsCollectionIO@@@std@@@std@@@std@@QEAAPEAU?$_Tree_node@U?$pair@$$CBV?$basic_string@DU?$char_traits@D@std@@V?$allocator@D@2@@std@@PEAVG4VPHitsCollectionIO@@@std@@PEAX@2@U?$_Tree_id@PEAU?$_Tree_node@U?$pair@$$CBV?$basic_string@DU?$char_traits@D@std@@V?$allocator@D@2@@std@@PEAVG4VPHitsCollectionIO@@@std@@PEAX@std@@@2@QEAU32@@Z
	?_Insert_node@?$_Tree_val@U?$_Tree_simple_types@U?$pair@$$CBV?$basic_string@DU?$char_traits@D@std@@V?$allocator@D@2@@std@@V12@@std@@@std@@@std@@QEAAPEAU?$_Tree_node@U?$pair@$$CBV?$basic_string@DU?$char_traits@D@std@@V?$allocator@D@2@@std@@V12@@std@@PEAX@2@U?$_Tree_id@PEAU?$_Tree_node@U?$pair@$$CBV?$basic_string@DU?$char_traits@D@std@@V?$allocator@D@2@@std@@V12@@std@@PEAX@std@@@2@QEAU32@@Z
	?_Insert_node@?$_Tree_val@U?$_Tree_simple_types@U?$pair@$$CBV?$basic_string@DU?$char_traits@D@std@@V?$allocator@D@2@@std@@W4StoreMode@@@std@@@std@@@std@@QEAAPEAU?$_Tree_node@U?$pair@$$CBV?$basic_string@DU?$char_traits@D@std@@V?$allocator@D@2@@std@@W4StoreMode@@@std@@PEAX@2@U?$_Tree_id@PEAU?$_Tree_node@U?$pair@$$CBV?$basic_string@DU?$char_traits@D@std@@V?$allocator@D@2@@std@@W4StoreMode@@@std@@PEAX@std@@@2@QEAU32@@Z
	?_Insert_node@?$_Tree_val@U?$_Tree_simple_types@U?$pair@$$CBV?$basic_string@DU?$char_traits@D@std@@V?$allocator@D@2@@std@@_N@std@@@std@@@std@@QEAAPEAU?$_Tree_node@U?$pair@$$CBV?$basic_string@DU?$char_traits@D@std@@V?$allocator@D@2@@std@@_N@std@@PEAX@2@U?$_Tree_id@PEAU?$_Tree_node@U?$pair@$$CBV?$basic_string@DU?$char_traits@D@std@@V?$allocator@D@2@@std@@_N@std@@PEAX@std@@@2@QEAU32@@Z
	?_Insert_node@?$_Tree_val@U?$_Tree_simple_types@U?$pair@$$CBVG4String@@PEAVG4Element@@@std@@@std@@@std@@QEAAPEAU?$_Tree_node@U?$pair@$$CBVG4String@@PEAVG4Element@@@std@@PEAX@2@U?$_Tree_id@PEAU?$_Tree_node@U?$pair@$$CBVG4String@@PEAVG4Element@@@std@@PEAX@std@@@2@QEAU32@@Z
	?_Insert_node@?$_Tree_val@U?$_Tree_simple_types@U?$pair@$$CBVG4String@@PEAVG4Isotope@@@std@@@std@@@std@@QEAAPEAU?$_Tree_node@U?$pair@$$CBVG4String@@PEAVG4Isotope@@@std@@PEAX@2@U?$_Tree_id@PEAU?$_Tree_node@U?$pair@$$CBVG4String@@PEAVG4Isotope@@@std@@PEAX@std@@@2@QEAU32@@Z
	?_Insert_node@?$_Tree_val@U?$_Tree_simple_types@U?$pair@$$CBVG4String@@PEAVG4LogicalVolume@@@std@@@std@@@std@@QEAAPEAU?$_Tree_node@U?$pair@$$CBVG4String@@PEAVG4LogicalVolume@@@std@@PEAX@2@U?$_Tree_id@PEAU?$_Tree_node@U?$pair@$$CBVG4String@@PEAVG4LogicalVolume@@@std@@PEAX@std@@@2@QEAU32@@Z
	?_Insert_node@?$_Tree_val@U?$_Tree_simple_types@U?$pair@$$CBVG4String@@PEAVG4Material@@@std@@@std@@@std@@QEAAPEAU?$_Tree_node@U?$pair@$$CBVG4String@@PEAVG4Material@@@std@@PEAX@2@U?$_Tree_id@PEAU?$_Tree_node@U?$pair@$$CBVG4String@@PEAVG4Material@@@std@@PEAX@std@@@2@QEAU32@@Z
	?_Insert_node@?$_Tree_val@U?$_Tree_simple_types@U?$pair@$$CBVG4String@@PEAVG4VPhysicalVolume@@@std@@@std@@@std@@QEAAPEAU?$_Tree_node@U?$pair@$$CBVG4String@@PEAVG4VPhysicalVolume@@@std@@PEAX@2@U?$_Tree_id@PEAU?$_Tree_node@U?$pair@$$CBVG4String@@PEAVG4VPhysicalVolume@@@std@@PEAX@std@@@2@QEAU32@@Z
	?_Insert_node@?$_Tree_val@U?$_Tree_simple_types@U?$pair@$$CBVG4String@@PEAVG4VSolid@@@std@@@std@@@std@@QEAAPEAU?$_Tree_node@U?$pair@$$CBVG4String@@PEAVG4VSolid@@@std@@PEAX@2@U?$_Tree_id@PEAU?$_Tree_node@U?$pair@$$CBVG4String@@PEAVG4VSolid@@@std@@PEAX@std@@@2@QEAU32@@Z
	?_Insert_node@?$_Tree_val@U?$_Tree_simple_types@U?$pair@$$CBVG4String@@PEAVG4tgbElement@@@std@@@std@@@std@@QEAAPEAU?$_Tree_node@U?$pair@$$CBVG4String@@PEAVG4tgbElement@@@std@@PEAX@2@U?$_Tree_id@PEAU?$_Tree_node@U?$pair@$$CBVG4String@@PEAVG4tgbElement@@@std@@PEAX@std@@@2@QEAU32@@Z
	?_Insert_node@?$_Tree_val@U?$_Tree_simple_types@U?$pair@$$CBVG4String@@PEAVG4tgbIsotope@@@std@@@std@@@std@@QEAAPEAU?$_Tree_node@U?$pair@$$CBVG4String@@PEAVG4tgbIsotope@@@std@@PEAX@2@U?$_Tree_id@PEAU?$_Tree_node@U?$pair@$$CBVG4String@@PEAVG4tgbIsotope@@@std@@PEAX@std@@@2@QEAU32@@Z
	?_Insert_node@?$_Tree_val@U?$_Tree_simple_types@U?$pair@$$CBVG4String@@PEAVG4tgbMaterial@@@std@@@std@@@std@@QEAAPEAU?$_Tree_node@U?$pair@$$CBVG4String@@PEAVG4tgbMaterial@@@std@@PEAX@2@U?$_Tree_id@PEAU?$_Tree_node@U?$pair@$$CBVG4String@@PEAVG4tgbMaterial@@@std@@PEAX@std@@@2@QEAU32@@Z
	?_Insert_node@?$_Tree_val@U?$_Tree_simple_types@U?$pair@$$CBVG4String@@PEAVG4tgbRotationMatrix@@@std@@@std@@@std@@QEAAPEAU?$_Tree_node@U?$pair@$$CBVG4String@@PEAVG4tgbRotationMatrix@@@std@@PEAX@2@U?$_Tree_id@PEAU?$_Tree_node@U?$pair@$$CBVG4String@@PEAVG4tgbRotationMatrix@@@std@@PEAX@std@@@2@QEAU32@@Z
	?_Insert_node@?$_Tree_val@U?$_Tree_simple_types@U?$pair@$$CBVG4String@@PEAVG4tgbVolume@@@std@@@std@@@std@@QEAAPEAU?$_Tree_node@U?$pair@$$CBVG4String@@PEAVG4tgbVolume@@@std@@PEAX@2@U?$_Tree_id@PEAU?$_Tree_node@U?$pair@$$CBVG4String@@PEAVG4tgbVolume@@@std@@PEAX@std@@@2@QEAU32@@Z
	?_Insert_node@?$_Tree_val@U?$_Tree_simple_types@U?$pair@$$CBVG4String@@PEAVG4tgrElement@@@std@@@std@@@std@@QEAAPEAU?$_Tree_node@U?$pair@$$CBVG4String@@PEAVG4tgrElement@@@std@@PEAX@2@U?$_Tree_id@PEAU?$_Tree_node@U?$pair@$$CBVG4String@@PEAVG4tgrElement@@@std@@PEAX@std@@@2@QEAU32@@Z
	?_Insert_node@?$_Tree_val@U?$_Tree_simple_types@U?$pair@$$CBVG4String@@PEAVG4tgrIsotope@@@std@@@std@@@std@@QEAAPEAU?$_Tree_node@U?$pair@$$CBVG4String@@PEAVG4tgrIsotope@@@std@@PEAX@2@U?$_Tree_id@PEAU?$_Tree_node@U?$pair@$$CBVG4String@@PEAVG4tgrIsotope@@@std@@PEAX@std@@@2@QEAU32@@Z
	?_Insert_node@?$_Tree_val@U?$_Tree_simple_types@U?$pair@$$CBVG4String@@PEAVG4tgrMaterial@@@std@@@std@@@std@@QEAAPEAU?$_Tree_node@U?$pair@$$CBVG4String@@PEAVG4tgrMaterial@@@std@@PEAX@2@U?$_Tree_id@PEAU?$_Tree_node@U?$pair@$$CBVG4String@@PEAVG4tgrMaterial@@@std@@PEAX@std@@@2@QEAU32@@Z
	?_Insert_node@?$_Tree_val@U?$_Tree_simple_types@U?$pair@$$CBVG4String@@PEAVG4tgrRotationMatrix@@@std@@@std@@@std@@QEAAPEAU?$_Tree_node@U?$pair@$$CBVG4String@@PEAVG4tgrRotationMatrix@@@std@@PEAX@2@U?$_Tree_id@PEAU?$_Tree_node@U?$pair@$$CBVG4String@@PEAVG4tgrRotationMatrix@@@std@@PEAX@std@@@2@QEAU32@@Z
	?_Insert_node@?$_Tree_val@U?$_Tree_simple_types@U?$pair@$$CBVG4String@@PEAVG4tgrSolid@@@std@@@std@@@std@@QEAAPEAU?$_Tree_node@U?$pair@$$CBVG4String@@PEAVG4tgrSolid@@@std@@PEAX@2@U?$_Tree_id@PEAU?$_Tree_node@U?$pair@$$CBVG4String@@PEAVG4tgrSolid@@@std@@PEAX@std@@@2@QEAU32@@Z
	?_Insert_node@?$_Tree_val@U?$_Tree_simple_types@U?$pair@$$CBVG4String@@PEAVG4tgrVolume@@@std@@@std@@@std@@QEAAPEAU?$_Tree_node@U?$pair@$$CBVG4String@@PEAVG4tgrVolume@@@std@@PEAX@2@U?$_Tree_id@PEAU?$_Tree_node@U?$pair@$$CBVG4String@@PEAVG4tgrVolume@@@std@@PEAX@std@@@2@QEAU32@@Z
	?_Insert_node@?$_Tree_val@U?$_Tree_simple_types@U?$pair@$$CBVG4String@@PEAVHepRotation@CLHEP@@@std@@@std@@@std@@QEAAPEAU?$_Tree_node@U?$pair@$$CBVG4String@@PEAVHepRotation@CLHEP@@@std@@PEAX@2@U?$_Tree_id@PEAU?$_Tree_node@U?$pair@$$CBVG4String@@PEAVHepRotation@CLHEP@@@std@@PEAX@std@@@2@QEAU32@@Z
	?_Insert_node@?$_Tree_val@U?$_Tree_simple_types@U?$pair@$$CBVG4String@@PEBVG4tgrPlace@@@std@@@std@@@std@@QEAAPEAU?$_Tree_node@U?$pair@$$CBVG4String@@PEBVG4tgrPlace@@@std@@PEAX@2@U?$_Tree_id@PEAU?$_Tree_node@U?$pair@$$CBVG4String@@PEBVG4tgrPlace@@@std@@PEAX@std@@@2@QEAU32@@Z
	?_Insert_node@?$_Tree_val@U?$_Tree_simple_types@U?$pair@$$CBVG4String@@V1@@std@@@std@@@std@@QEAAPEAU?$_Tree_node@U?$pair@$$CBVG4String@@V1@@std@@PEAX@2@U?$_Tree_id@PEAU?$_Tree_node@U?$pair@$$CBVG4String@@V1@@std@@PEAX@std@@@2@QEAU32@@Z
	?_Insert_node@?$_Tree_val@U?$_Tree_simple_types@U?$pair@$$CBVG4String@@V?$set@HU?$less@H@std@@V?$allocator@H@2@@std@@@std@@@std@@@std@@QEAAPEAU?$_Tree_node@U?$pair@$$CBVG4String@@V?$set@HU?$less@H@std@@V?$allocator@H@2@@std@@@std@@PEAX@2@U?$_Tree_id@PEAU?$_Tree_node@U?$pair@$$CBVG4String@@V?$set@HU?$less@H@std@@V?$allocator@H@2@@std@@@std@@PEAX@std@@@2@QEAU32@@Z
	?_Insert_node@?$_Tree_val@U?$_Tree_simple_types@U?$pair@QEAVG4LogicalVolume@@PEAV1@@std@@@std@@@std@@QEAAPEAU?$_Tree_node@U?$pair@QEAVG4LogicalVolume@@PEAV1@@std@@PEAX@2@U?$_Tree_id@PEAU?$_Tree_node@U?$pair@QEAVG4LogicalVolume@@PEAV1@@std@@PEAX@std@@@2@QEAU32@@Z
	?_Insert_node@?$_Tree_val@U?$_Tree_simple_types@U?$pair@QEAVG4MCTSimParticle@@U?$pair@PEAXPEAX@std@@@std@@@std@@@std@@QEAAPEAU?$_Tree_node@U?$pair@QEAVG4MCTSimParticle@@U?$pair@PEAXPEAX@std@@@std@@PEAX@2@U?$_Tree_id@PEAU?$_Tree_node@U?$pair@QEAVG4MCTSimParticle@@U?$pair@PEAXPEAX@std@@@std@@PEAX@std@@@2@QEAU32@@Z
	?_Lock@?$basic_filebuf@DU?$char_traits@D@std@@@std@@UEAAXXZ
	?_Lrotate@?$_Tree_val@U?$_Tree_simple_types@U?$pair@$$CBVG4String@@PEAVG4tgrSolid@@@std@@@std@@@std@@QEAAXPEAU?$_Tree_node@U?$pair@$$CBVG4String@@PEAVG4tgrSolid@@@std@@PEAX@2@@Z
	?_Lrotate@?$_Tree_val@U?$_Tree_simple_types@U?$pair@$$CBVG4String@@PEAVG4tgrVolume@@@std@@@std@@@std@@QEAAXPEAU?$_Tree_node@U?$pair@$$CBVG4String@@PEAVG4tgrVolume@@@std@@PEAX@2@@Z
	?_Maklocwcs@std@@YAPEA_WPEB_W@Z
	?_Reset_back@?$basic_filebuf@DU?$char_traits@D@std@@@std@@AEAAXXZ
	?_Rrotate@?$_Tree_val@U?$_Tree_simple_types@U?$pair@$$CBVG4String@@PEAVG4tgrSolid@@@std@@@std@@@std@@QEAAXPEAU?$_Tree_node@U?$pair@$$CBVG4String@@PEAVG4tgrSolid@@@std@@PEAX@2@@Z
	?_Rrotate@?$_Tree_val@U?$_Tree_simple_types@U?$pair@$$CBVG4String@@PEAVG4tgrVolume@@@std@@@std@@@std@@QEAAXPEAU?$_Tree_node@U?$pair@$$CBVG4String@@PEAVG4tgrVolume@@@std@@PEAX@2@@Z
	?_Throw_bad_array_new_length@std@@YAXXZ
	?_Throw_bad_cast@std@@YAXXZ
	?_Throw_tree_length_error@std@@YAXXZ
	?_Tidy@?$vector@VG4String@@V?$allocator@VG4String@@@std@@@std@@AEAAXXZ
	?_Umove@?$vector@VG4String@@V?$allocator@VG4String@@@std@@@std@@AEAAPEAVG4String@@PEAV3@00@Z
	?_Umove_if_noexcept@?$vector@VG4String@@V?$allocator@VG4String@@@std@@@std@@AEAAXPEAVG4String@@00@Z
	?_Unlock@?$basic_filebuf@DU?$char_traits@D@std@@@std@@UEAAXXZ
	?_Xlen@?$basic_string@DU?$char_traits@D@std@@V?$allocator@D@2@@std@@CAXXZ
	?_Xlength@?$vector@HV?$allocator@H@std@@@std@@CAXXZ
	?_Xlength@?$vector@NV?$allocator@N@std@@@std@@CAXXZ
	?_Xlength@?$vector@PEAV?$basic_ifstream@DU?$char_traits@D@std@@@std@@V?$allocator@PEAV?$basic_ifstream@DU?$char_traits@D@std@@@std@@@2@@std@@CAXXZ
	?_Xlength@?$vector@PEAV?$vector@NV?$allocator@N@std@@@std@@V?$allocator@PEAV?$vector@NV?$allocator@N@std@@@std@@@2@@std@@CAXXZ
	?_Xlength@?$vector@PEAVG4MCTSimParticle@@V?$allocator@PEAVG4MCTSimParticle@@@std@@@std@@CAXXZ
	?_Xlength@?$vector@PEAVG4MCTSimVertex@@V?$allocator@PEAVG4MCTSimVertex@@@std@@@std@@CAXXZ
	?_Xlength@?$vector@PEAVG4UIcmdWithAString@@V?$allocator@PEAVG4UIcmdWithAString@@@std@@@std@@CAXXZ
	?_Xlength@?$vector@PEAVG4VPhysicalVolume@@V?$allocator@PEAVG4VPhysicalVolume@@@std@@@std@@CAXXZ
	?_Xlength@?$vector@PEAVG4tgrElement@@V?$allocator@PEAVG4tgrElement@@@std@@@std@@CAXXZ
	?_Xlength@?$vector@PEAVG4tgrFileIn@@V?$allocator@PEAVG4tgrFileIn@@@std@@@std@@CAXXZ
	?_Xlength@?$vector@PEAVG4tgrIsotope@@V?$allocator@PEAVG4tgrIsotope@@@std@@@std@@CAXXZ
	?_Xlength@?$vector@PEAVG4tgrMaterial@@V?$allocator@PEAVG4tgrMaterial@@@std@@@std@@CAXXZ
	?_Xlength@?$vector@PEAVG4tgrPlace@@V?$allocator@PEAVG4tgrPlace@@@std@@@std@@CAXXZ
	?_Xlength@?$vector@PEAVG4tgrRotationMatrix@@V?$allocator@PEAVG4tgrRotationMatrix@@@std@@@std@@CAXXZ
	?_Xlength@?$vector@PEAVG4tgrVolume@@V?$allocator@PEAVG4tgrVolume@@@std@@@std@@CAXXZ
	?_Xlength@?$vector@PEAXV?$allocator@PEAX@std@@@std@@CAXXZ
	?_Xlength@?$vector@PEBVG4tgrSolid@@V?$allocator@PEBVG4tgrSolid@@@std@@@std@@CAXXZ
	?_Xlength@?$vector@U?$pair@_K_K@std@@V?$allocator@U?$pair@_K_K@std@@@2@@std@@CAXXZ
	?_Xlength@?$vector@UZSection@G4ExtrudedSolid@@V?$allocator@UZSection@G4ExtrudedSolid@@@std@@@std@@CAXXZ
	?_Xlength@?$vector@V?$basic_string@DU?$char_traits@D@std@@V?$allocator@D@2@@std@@V?$allocator@V?$basic_string@DU?$char_traits@D@std@@V?$allocator@D@2@@std@@@2@@std@@CAXXZ
	?_Xlength@?$vector@VG4String@@V?$allocator@VG4String@@@std@@@std@@CAXXZ
	?_Xlength@?$vector@VHep2Vector@CLHEP@@V?$allocator@VHep2Vector@CLHEP@@@std@@@std@@CAXXZ
	?_Xlength@?$vector@VHep3Vector@CLHEP@@V?$allocator@VHep3Vector@CLHEP@@@std@@@std@@CAXXZ
	?_Xran@?$_String_val@U?$_Simple_types@D@std@@@std@@SAXXZ
	?__empty_global_delete@@YAXPEAX@Z
	?__empty_global_delete@@YAXPEAXW4align_val_t@std@@@Z
	?__empty_global_delete@@YAXPEAX_K@Z
	?__empty_global_delete@@YAXPEAX_KW4align_val_t@std@@@Z
	?allocate@?$allocator@D@std@@QEAAPEAD_K@Z
	?allocate@?$allocator@N@std@@QEAAPEAN_K@Z
	?allocate@?$allocator@PEAV?$vector@NV?$allocator@N@std@@@std@@@std@@QEAAPEAPEAV?$vector@NV?$allocator@N@std@@@2@_K@Z
	?allocate@?$allocator@PEAVG4MCTSimParticle@@@std@@QEAAPEAPEAVG4MCTSimParticle@@_K@Z
	?allocate@?$allocator@PEAVG4tgrElement@@@std@@QEAAPEAPEAVG4tgrElement@@_K@Z
	?allocate@?$allocator@PEAVG4tgrIsotope@@@std@@QEAAPEAPEAVG4tgrIsotope@@_K@Z
	?allocate@?$allocator@PEAVG4tgrMaterial@@@std@@QEAAPEAPEAVG4tgrMaterial@@_K@Z
	?allocate@?$allocator@PEAVG4tgrPlace@@@std@@QEAAPEAPEAVG4tgrPlace@@_K@Z
	?allocate@?$allocator@PEAVG4tgrRotationMatrix@@@std@@QEAAPEAPEAVG4tgrRotationMatrix@@_K@Z
	?allocate@?$allocator@PEAVG4tgrVolume@@@std@@QEAAPEAPEAVG4tgrVolume@@_K@Z
	?allocate@?$allocator@PEAX@std@@QEAAPEAPEAX_K@Z
	?allocate@?$allocator@U?$_Tree_node@U?$pair@$$CBV?$basic_string@DU?$char_traits@D@std@@V?$allocator@D@2@@std@@V12@@std@@PEAX@std@@@std@@QEAAPEAU?$_Tree_node@U?$pair@$$CBV?$basic_string@DU?$char_traits@D@std@@V?$allocator@D@2@@std@@V12@@std@@PEAX@2@_K@Z
	?allocate@?$allocator@U?$_Tree_node@U?$pair@$$CBVG4String@@V?$set@HU?$less@H@std@@V?$allocator@H@2@@std@@@std@@PEAX@std@@@std@@QEAAPEAU?$_Tree_node@U?$pair@$$CBVG4String@@V?$set@HU?$less@H@std@@V?$allocator@H@2@@std@@@std@@PEAX@2@_K@Z
	?allocate@?$allocator@UZSection@G4ExtrudedSolid@@@std@@QEAAPEAUZSection@G4ExtrudedSolid@@_K@Z
	?allocate@?$allocator@VG4String@@@std@@QEAAPEAVG4String@@_K@Z
	?allocate@?$allocator@VHep2Vector@CLHEP@@@std@@QEAAPEAVHep2Vector@CLHEP@@_K@Z
	?append@?$basic_string@DU?$char_traits@D@std@@V?$allocator@D@2@@std@@QEAAAEAV12@QEBD_K@Z
	?approxTo0@G4tgbGeometryDumper@@AEAANN@Z
	?assign@?$basic_string@DU?$char_traits@D@std@@V?$allocator@D@2@@std@@QEAAAEAV12@QEBD_K@Z
	?c_str@?$basic_string@DU?$char_traits@D@std@@V?$allocator@D@2@@std@@QEBAPEBDXZ
	?clear@?$_Tree@V?$_Tmap_traits@HPEAVG4MCTSimParticle@@U?$less@H@std@@V?$allocator@U?$pair@$$CBHPEAVG4MCTSimParticle@@@std@@@3@$0A@@std@@@std@@QEAAXXZ
	?clear@?$_Tree@V?$_Tmap_traits@PEAVG4MCTSimParticle@@U?$pair@PEAXPEAX@std@@U?$less@PEAVG4MCTSimParticle@@@3@V?$allocator@U?$pair@QEAVG4MCTSimParticle@@U?$pair@PEAXPEAX@std@@@std@@@3@$0A@@std@@@std@@QEAAXXZ
	?clear@?$_Tree@V?$_Tmap_traits@U?$pair@PEAXPEAX@std@@PEAVG4MCTSimParticle@@U?$less@U?$pair@PEAXPEAX@std@@@2@V?$allocator@U?$pair@$$CBU?$pair@PEAXPEAX@std@@PEAVG4MCTSimParticle@@@std@@@2@$0A@@std@@@std@@QEAAXXZ
	?clear@?$_Tree@V?$_Tset_traits@HU?$less@H@std@@V?$allocator@H@2@$0A@@std@@@std@@QEAAXXZ
	?close@?$basic_filebuf@DU?$char_traits@D@std@@@std@@QEAAPEAV12@XZ
	?compare@?$basic_string@DU?$char_traits@D@std@@V?$allocator@D@2@@std@@QEBAHAEBV12@@Z
	?deallocate@?$allocator@D@std@@QEAAXQEAD_K@Z
	?deallocate@?$allocator@H@std@@QEAAXQEAH_K@Z
	?deallocate@?$allocator@N@std@@QEAAXQEAN_K@Z
	?deallocate@?$allocator@PEAV?$basic_ifstream@DU?$char_traits@D@std@@@std@@@std@@QEAAXQEAPEAV?$basic_ifstream@DU?$char_traits@D@std@@@2@_K@Z
	?deallocate@?$allocator@PEAV?$vector@NV?$allocator@N@std@@@std@@@std@@QEAAXQEAPEAV?$vector@NV?$allocator@N@std@@@2@_K@Z
	?deallocate@?$allocator@PEAVG4MCTSimParticle@@@std@@QEAAXQEAPEAVG4MCTSimParticle@@_K@Z
	?deallocate@?$allocator@PEAVG4MCTSimVertex@@@std@@QEAAXQEAPEAVG4MCTSimVertex@@_K@Z
	?deallocate@?$allocator@PEAVG4UIcmdWithAString@@@std@@QEAAXQEAPEAVG4UIcmdWithAString@@_K@Z
	?deallocate@?$allocator@PEAVG4VPhysicalVolume@@@std@@QEAAXQEAPEAVG4VPhysicalVolume@@_K@Z
	?deallocate@?$allocator@PEAVG4tgrElement@@@std@@QEAAXQEAPEAVG4tgrElement@@_K@Z
	?deallocate@?$allocator@PEAVG4tgrFileIn@@@std@@QEAAXQEAPEAVG4tgrFileIn@@_K@Z
	?deallocate@?$allocator@PEAVG4tgrIsotope@@@std@@QEAAXQEAPEAVG4tgrIsotope@@_K@Z
	?deallocate@?$allocator@PEAVG4tgrMaterial@@@std@@QEAAXQEAPEAVG4tgrMaterial@@_K@Z
	?deallocate@?$allocator@PEAVG4tgrPlace@@@std@@QEAAXQEAPEAVG4tgrPlace@@_K@Z
	?deallocate@?$allocator@PEAVG4tgrRotationMatrix@@@std@@QEAAXQEAPEAVG4tgrRotationMatrix@@_K@Z
	?deallocate@?$allocator@PEAVG4tgrVolume@@@std@@QEAAXQEAPEAVG4tgrVolume@@_K@Z
	?deallocate@?$allocator@PEAX@std@@QEAAXQEAPEAX_K@Z
	?deallocate@?$allocator@PEBVG4tgrSolid@@@std@@QEAAXQEAPEBVG4tgrSolid@@_K@Z
	?deallocate@?$allocator@U?$pair@_K_K@std@@@std@@QEAAXQEAU?$pair@_K_K@2@_K@Z
	?deallocate@?$allocator@UZSection@G4ExtrudedSolid@@@std@@QEAAXQEAUZSection@G4ExtrudedSolid@@_K@Z
	?deallocate@?$allocator@V?$basic_string@DU?$char_traits@D@std@@V?$allocator@D@2@@std@@@std@@QEAAXQEAV?$basic_string@DU?$char_traits@D@std@@V?$allocator@D@2@@2@_K@Z
	?deallocate@?$allocator@VG4String@@@std@@QEAAXQEAVG4String@@_K@Z
	?deallocate@?$allocator@VHep2Vector@CLHEP@@@std@@QEAAXQEAVHep2Vector@CLHEP@@_K@Z
	?deallocate@?$allocator@VHep3Vector@CLHEP@@@std@@QEAAXQEAVHep3Vector@CLHEP@@_K@Z
	?facos@@YANN@Z
	?fasin@@YANN@Z
	?fatan2@@YANNN@Z
	?fatan@@YANN@Z
	?fcos@@YANN@Z
	?fcosh@@YANN@Z
	?fexp@@YANN@Z
	?find@?$_Tree@V?$_Tmap_traits@VG4String@@PEAVG4VPhysicalVolume@@U?$less@VG4String@@@std@@V?$allocator@U?$pair@$$CBVG4String@@PEAVG4VPhysicalVolume@@@std@@@4@$00@std@@@std@@QEAA?AV?$_Tree_iterator@V?$_Tree_val@U?$_Tree_simple_types@U?$pair@$$CBVG4String@@PEAVG4VPhysicalVolume@@@std@@@std@@@std@@@2@AEBVG4String@@@Z
	?flog10@@YANN@Z
	?flog@@YANN@Z
	?fpow@@YANNN@Z
	?fsin@@YANN@Z
	?fsinh@@YANN@Z
	?fsqrt@@YANN@Z
	?ftan@@YANN@Z
	?ftanh@@YANN@Z
	?imbue@?$basic_filebuf@DU?$char_traits@D@std@@@std@@MEAAXAEBVlocale@2@@Z
	?insert@?$basic_string@DU?$char_traits@D@std@@V?$allocator@D@2@@std@@QEAAAEAV12@_KQEBD0@Z
	?overflow@?$basic_filebuf@DU?$char_traits@D@std@@@std@@MEAAHH@Z
	?overflow@?$basic_stringbuf@DU?$char_traits@D@std@@V?$allocator@D@2@@std@@MEAAHH@Z
	?pbackfail@?$basic_filebuf@DU?$char_traits@D@std@@@std@@MEAAHH@Z
	?pbackfail@?$basic_stringbuf@DU?$char_traits@D@std@@V?$allocator@D@2@@std@@MEAAHH@Z
	?print_error@G4tgrEvaluator@@QEBAXH@Z
	?push_back@?$vector@NV?$allocator@N@std@@@std@@QEAAX$$QEAN@Z
	?push_back@?$vector@NV?$allocator@N@std@@@std@@QEAAXAEBN@Z
	?push_back@?$vector@PEAVG4UIcmdWithAString@@V?$allocator@PEAVG4UIcmdWithAString@@@std@@@std@@QEAAX$$QEAPEAVG4UIcmdWithAString@@@Z
	?push_back@?$vector@UZSection@G4ExtrudedSolid@@V?$allocator@UZSection@G4ExtrudedSolid@@@std@@@std@@QEAAX$$QEAUZSection@G4ExtrudedSolid@@@Z
	?push_back@?$vector@V?$basic_string@DU?$char_traits@D@std@@V?$allocator@D@2@@std@@V?$allocator@V?$basic_string@DU?$char_traits@D@std@@V?$allocator@D@2@@std@@@2@@std@@QEAAX$$QEAV?$basic_string@DU?$char_traits@D@std@@V?$allocator@D@2@@2@@Z
	?push_back@?$vector@VHep2Vector@CLHEP@@V?$allocator@VHep2Vector@CLHEP@@@std@@@std@@QEAAX$$QEAVHep2Vector@CLHEP@@@Z
	?reserve@?$basic_string@DU?$char_traits@D@std@@V?$allocator@D@2@@std@@QEAAX_K@Z
	?seekoff@?$basic_filebuf@DU?$char_traits@D@std@@@std@@MEAA?AV?$fpos@U_Mbstatet@@@2@_JHH@Z
	?seekoff@?$basic_stringbuf@DU?$char_traits@D@std@@V?$allocator@D@2@@std@@MEAA?AV?$fpos@U_Mbstatet@@@2@_JHH@Z
	?seekpos@?$basic_filebuf@DU?$char_traits@D@std@@@std@@MEAA?AV?$fpos@U_Mbstatet@@@2@V32@H@Z
	?seekpos@?$basic_stringbuf@DU?$char_traits@D@std@@V?$allocator@D@2@@std@@MEAA?AV?$fpos@U_Mbstatet@@@2@V32@H@Z
	?setbuf@?$basic_filebuf@DU?$char_traits@D@std@@@std@@MEAAPEAV?$basic_streambuf@DU?$char_traits@D@std@@@2@PEAD_J@Z
	?substr@?$basic_string@DU?$char_traits@D@std@@V?$allocator@D@2@@std@@QEBA?AV12@_K0@Z
	?sync@?$basic_filebuf@DU?$char_traits@D@std@@@std@@MEAAHXZ
	?uflow@?$basic_filebuf@DU?$char_traits@D@std@@@std@@MEAAHXZ
	?underflow@?$basic_filebuf@DU?$char_traits@D@std@@@std@@MEAAHXZ
	?underflow@?$basic_stringbuf@DU?$char_traits@D@std@@V?$allocator@D@2@@std@@MEAAHXZ
	?what@exception@std@@UEBAPEBDXZ
	?xsgetn@?$basic_filebuf@DU?$char_traits@D@std@@@std@@MEAA_JPEAD_J@Z
	?xsputn@?$basic_filebuf@DU?$char_traits@D@std@@@std@@MEAA_JPEBD_J@Z
