EXPORTS 
	?$TSS0@?1???$G4TypeMutex@V?$G4Cache@PEAVG4RegularNavigationHelper@@@@@@YAAEAVmutex@std@@AEBI@Z@4HA 	 DATA
	?$TSS0@?1???$G4TypeMutex@V?$G4Cache@PEAVHep3Vector@CLHEP@@@@@@YAAEAVmutex@std@@AEBI@Z@4HA 	 DATA
	?$TSS0@?1???$G4TypeMutex@V?$G4Cache@PEAVHepRotation@CLHEP@@@@@@YAAEAVmutex@std@@AEBI@Z@4HA 	 DATA
	?$TSS0@?1???$Register@VHep3Vector@CLHEP@@@G4AutoDelete@@YAXPEAVHep3Vector@CLHEP@@@Z@4HA 	 DATA
	?$TSS0@?1???$Register@VHepRotation@CLHEP@@@G4AutoDelete@@YAXPEAVHepRotation@CLHEP@@@Z@4HA 	 DATA
	?$TSS1@?1???$G4TypeMutex@V?$G4Cache@PEAVG4RegularNavigationHelper@@@@@@YAAEAVmutex@std@@AEBI@Z@4HA 	 DATA
	?$TSS1@?1???$G4TypeMutex@V?$G4Cache@PEAVHep3Vector@CLHEP@@@@@@YAAEAVmutex@std@@AEBI@Z@4HA 	 DATA
	?$TSS1@?1???$G4TypeMutex@V?$G4Cache@PEAVHepRotation@CLHEP@@@@@@YAAEAVmutex@std@@AEBI@Z@4HA 	 DATA
	??_R0?AV?$BasicVector3D@N@HepGeom@@@8 	 DATA
	??_R0?AV?$G4Allocator@V?$G4CountedObject@X@@@@@8 	 DATA
	??_R0?AV?$G4Allocator@VG4NavigationLevelRep@@@@@8 	 DATA
	??_R0?AV?$G4Allocator@VG4TouchableHistory@@@@@8 	 DATA
	??_R0?AV?$G4Cache@PEAVG4RegularNavigationHelper@@@@@8 	 DATA
	??_R0?AV?$G4Cache@PEAVHep3Vector@CLHEP@@@@@8 	 DATA
	??_R0?AV?$G4Cache@PEAVHepRotation@CLHEP@@@@@8 	 DATA
	??_R0?AV?$G4ChordFinderDelegate@V?$G4FSALIntegrationDriver@VG4RK547FEq1@@@@@@@8 	 DATA
	??_R0?AV?$G4ChordFinderDelegate@V?$G4IntegrationDriver@VG4HelixHeum@@@@@@@8 	 DATA
	??_R0?AV?$G4ChordFinderDelegate@V?$G4IntegrationDriver@VG4MagIntegratorStepper@@@@@@@8 	 DATA
	??_R0?AV?$G4ChordFinderDelegate@VG4MagInt_Driver@@@@@8 	 DATA
	??_R0?AV?$G4CountedObject@X@@@8 	 DATA
	??_R0?AV?$G4FSALIntegrationDriver@VG4RK547FEq1@@@@@8 	 DATA
	??_R0?AV?$G4IntegrationDriver@VG4HelixHeum@@@@@8 	 DATA
	??_R0?AV?$G4IntegrationDriver@VG4MagIntegratorStepper@@@@@8 	 DATA
	??_R0?AV?$G4InterpolationDriver@VG4DormandPrince745@@@@@8 	 DATA
	??_R0?AV?$G4RKIntegrationDriver@VG4DormandPrince745@@@@@8 	 DATA
	??_R0?AV?$G4RKIntegrationDriver@VG4HelixHeum@@@@@8 	 DATA
	??_R0?AV?$G4RKIntegrationDriver@VG4MagIntegratorStepper@@@@@8 	 DATA
	??_R0?AV?$G4RKIntegrationDriver@VG4RK547FEq1@@@@@8 	 DATA
	??_R0?AV?$G4ThreadLocalSingleton@VG4RegularNavigationHelper@@@@@8 	 DATA
	??_R0?AV?$G4ThreadLocalSingleton@VHep3Vector@CLHEP@@@@@8 	 DATA
	??_R0?AV?$G4ThreadLocalSingleton@VHepRotation@CLHEP@@@@@8 	 DATA
	??_R0?AV?$Normal3D@N@HepGeom@@@8 	 DATA
	??_R0?AV?$Plane3D@N@HepGeom@@@8 	 DATA
	??_R0?AV?$Point3D@N@HepGeom@@@8 	 DATA
	??_R0?AV?$Vector3D@N@HepGeom@@@8 	 DATA
	??_R0?AV?$_Iosb@H@std@@@8 	 DATA
	??_R0?AV?$basic_ios@DU?$char_traits@D@std@@@std@@@8 	 DATA
	??_R0?AV?$basic_iostream@DU?$char_traits@D@std@@@std@@@8 	 DATA
	??_R0?AV?$basic_istream@DU?$char_traits@D@std@@@std@@@8 	 DATA
	??_R0?AV?$basic_ostream@DU?$char_traits@D@std@@@std@@@8 	 DATA
	??_R0?AV?$basic_ostringstream@DU?$char_traits@D@std@@V?$allocator@D@2@@std@@@8 	 DATA
	??_R0?AV?$basic_streambuf@DU?$char_traits@D@std@@@std@@@8 	 DATA
	??_R0?AV?$basic_stringbuf@DU?$char_traits@D@std@@V?$allocator@D@2@@std@@@8 	 DATA
	??_R0?AV?$basic_stringstream@DU?$char_traits@D@std@@V?$allocator@D@2@@std@@@8 	 DATA
	??_R0?AV?$vector@PEAVG4AssemblyVolume@@V?$allocator@PEAVG4AssemblyVolume@@@std@@@std@@@8 	 DATA
	??_R0?AV?$vector@PEAVG4LogicalVolume@@V?$allocator@PEAVG4LogicalVolume@@@std@@@std@@@8 	 DATA
	??_R0?AV?$vector@PEAVG4Region@@V?$allocator@PEAVG4Region@@@std@@@std@@@8 	 DATA
	??_R0?AV?$vector@PEAVG4VPhysicalVolume@@V?$allocator@PEAVG4VPhysicalVolume@@@std@@@std@@@8 	 DATA
	??_R0?AV?$vector@PEAVG4VSolid@@V?$allocator@PEAVG4VSolid@@@std@@@std@@@8 	 DATA
	??_R0?AVBoundary@G4VTwistSurface@@@8 	 DATA
	??_R0?AVCurrentStatus@G4VTwistSurface@@@8 	 DATA
	??_R0?AVG4AllocatorBase@@@8 	 DATA
	??_R0?AVG4AssemblyStore@@@8 	 DATA
	??_R0?AVG4BFieldIntegrationDriver@@@8 	 DATA
	??_R0?AVG4BogackiShampine23@@@8 	 DATA
	??_R0?AVG4BogackiShampine45@@@8 	 DATA
	??_R0?AVG4BooleanSolid@@@8 	 DATA
	??_R0?AVG4Box@@@8 	 DATA
	??_R0?AVG4BrentLocator@@@8 	 DATA
	??_R0?AVG4CSGSolid@@@8 	 DATA
	??_R0?AVG4CachedMagneticField@@@8 	 DATA
	??_R0?AVG4CashKarpRKF45@@@8 	 DATA
	??_R0?AVG4ChordFinder@@@8 	 DATA
	??_R0?AVG4ClassicalRK4@@@8 	 DATA
	??_R0?AVG4ClippablePolygon@@@8 	 DATA
	??_R0?AVG4Cons@@@8 	 DATA
	??_R0?AVG4ConstRK4@@@8 	 DATA
	??_R0?AVG4CrystalExtension@@@8 	 DATA
	??_R0?AVG4CutTubs@@@8 	 DATA
	??_R0?AVG4DELPHIMagField@@@8 	 DATA
	??_R0?AVG4DisplacedSolid@@@8 	 DATA
	??_R0?AVG4DoLoMcPriRK34@@@8 	 DATA
	??_R0?AVG4DormandPrince745@@@8 	 DATA
	??_R0?AVG4DormandPrinceRK56@@@8 	 DATA
	??_R0?AVG4DormandPrinceRK78@@@8 	 DATA
	??_R0?AVG4ElectricField@@@8 	 DATA
	??_R0?AVG4ElectroMagneticField@@@8 	 DATA
	??_R0?AVG4Ellipsoid@@@8 	 DATA
	??_R0?AVG4EllipticalCone@@@8 	 DATA
	??_R0?AVG4EllipticalTube@@@8 	 DATA
	??_R0?AVG4EqEMFieldWithEDM@@@8 	 DATA
	??_R0?AVG4EqEMFieldWithSpin@@@8 	 DATA
	??_R0?AVG4EqGravityField@@@8 	 DATA
	??_R0?AVG4EqMagElectricField@@@8 	 DATA
	??_R0?AVG4EquationOfMotion@@@8 	 DATA
	??_R0?AVG4ErrorCylSurfaceTarget@@@8 	 DATA
	??_R0?AVG4ErrorMag_UsualEqRhs@@@8 	 DATA
	??_R0?AVG4ErrorPlaneSurfaceTarget@@@8 	 DATA
	??_R0?AVG4ErrorPropagationNavigator@@@8 	 DATA
	??_R0?AVG4ErrorSurfaceTarget@@@8 	 DATA
	??_R0?AVG4ErrorTanPlaneTarget@@@8 	 DATA
	??_R0?AVG4ErrorTarget@@@8 	 DATA
	??_R0?AVG4ExactHelixStepper@@@8 	 DATA
	??_R0?AVG4ExplicitEuler@@@8 	 DATA
	??_R0?AVG4ExtendedMaterial@@@8 	 DATA
	??_R0?AVG4ExtrudedSolid@@@8 	 DATA
	??_R0?AVG4FSALBogackiShampine45@@@8 	 DATA
	??_R0?AVG4FSALDormandPrince745@@@8 	 DATA
	??_R0?AVG4Field@@@8 	 DATA
	??_R0?AVG4FieldManager@@@8 	 DATA
	??_R0?AVG4GRSSolid@@@8 	 DATA
	??_R0?AVG4GRSVolume@@@8 	 DATA
	??_R0?AVG4GenericPolycone@@@8 	 DATA
	??_R0?AVG4GenericTrap@@@8 	 DATA
	??_R0?AVG4GeometryMessenger@@@8 	 DATA
	??_R0?AVG4GlobalMagFieldMessenger@@@8 	 DATA
	??_R0?AVG4HarmonicPolMagField@@@8 	 DATA
	??_R0?AVG4HelixExplicitEuler@@@8 	 DATA
	??_R0?AVG4HelixHeum@@@8 	 DATA
	??_R0?AVG4HelixImplicitEuler@@@8 	 DATA
	??_R0?AVG4HelixMixedStepper@@@8 	 DATA
	??_R0?AVG4HelixSimpleRunge@@@8 	 DATA
	??_R0?AVG4Hype@@@8 	 DATA
	??_R0?AVG4IStore@@@8 	 DATA
	??_R0?AVG4IdentityTrajectoryFilter@@@8 	 DATA
	??_R0?AVG4ImplicitEuler@@@8 	 DATA
	??_R0?AVG4ImportanceAlgorithm@@@8 	 DATA
	??_R0?AVG4IntersectingCone@@@8 	 DATA
	??_R0?AVG4IntersectionSolid@@@8 	 DATA
	??_R0?AVG4LineCurrentMagField@@@8 	 DATA
	??_R0?AVG4LogicalBorderSurface@@@8 	 DATA
	??_R0?AVG4LogicalCrystalVolume@@@8 	 DATA
	??_R0?AVG4LogicalSkinSurface@@@8 	 DATA
	??_R0?AVG4LogicalSurface@@@8 	 DATA
	??_R0?AVG4LogicalVolume@@@8 	 DATA
	??_R0?AVG4LogicalVolumeStore@@@8 	 DATA
	??_R0?AVG4MagErrorStepper@@@8 	 DATA
	??_R0?AVG4MagHelicalStepper@@@8 	 DATA
	??_R0?AVG4MagInt_Driver@@@8 	 DATA
	??_R0?AVG4MagIntegratorStepper@@@8 	 DATA
	??_R0?AVG4Mag_EqRhs@@@8 	 DATA
	??_R0?AVG4Mag_SpinEqRhs@@@8 	 DATA
	??_R0?AVG4Mag_UsualEqRhs@@@8 	 DATA
	??_R0?AVG4MagneticField@@@8 	 DATA
	??_R0?AVG4Material@@@8 	 DATA
	??_R0?AVG4MonopoleEq@@@8 	 DATA
	??_R0?AVG4MultiLevelLocator@@@8 	 DATA
	??_R0?AVG4MultiNavigator@@@8 	 DATA
	??_R0?AVG4MultiUnion@@@8 	 DATA
	??_R0?AVG4NavigationLevelRep@@@8 	 DATA
	??_R0?AVG4Navigator@@@8 	 DATA
	??_R0?AVG4NystromRK4@@@8 	 DATA
	??_R0?AVG4Orb@@@8 	 DATA
	??_R0?AVG4PVDivision@@@8 	 DATA
	??_R0?AVG4PVDivisionFactory@@@8 	 DATA
	??_R0?AVG4PVParameterised@@@8 	 DATA
	??_R0?AVG4PVPlacement@@@8 	 DATA
	??_R0?AVG4PVReplica@@@8 	 DATA
	??_R0?AVG4Para@@@8 	 DATA
	??_R0?AVG4Paraboloid@@@8 	 DATA
	??_R0?AVG4ParameterisationBoxX@@@8 	 DATA
	??_R0?AVG4ParameterisationBoxY@@@8 	 DATA
	??_R0?AVG4ParameterisationBoxZ@@@8 	 DATA
	??_R0?AVG4ParameterisationConsPhi@@@8 	 DATA
	??_R0?AVG4ParameterisationConsRho@@@8 	 DATA
	??_R0?AVG4ParameterisationConsZ@@@8 	 DATA
	??_R0?AVG4ParameterisationParaX@@@8 	 DATA
	??_R0?AVG4ParameterisationParaY@@@8 	 DATA
	??_R0?AVG4ParameterisationParaZ@@@8 	 DATA
	??_R0?AVG4ParameterisationPolyconePhi@@@8 	 DATA
	??_R0?AVG4ParameterisationPolyconeRho@@@8 	 DATA
	??_R0?AVG4ParameterisationPolyconeZ@@@8 	 DATA
	??_R0?AVG4ParameterisationPolyhedraPhi@@@8 	 DATA
	??_R0?AVG4ParameterisationPolyhedraRho@@@8 	 DATA
	??_R0?AVG4ParameterisationPolyhedraZ@@@8 	 DATA
	??_R0?AVG4ParameterisationTrdX@@@8 	 DATA
	??_R0?AVG4ParameterisationTrdY@@@8 	 DATA
	??_R0?AVG4ParameterisationTrdZ@@@8 	 DATA
	??_R0?AVG4ParameterisationTubsPhi@@@8 	 DATA
	??_R0?AVG4ParameterisationTubsRho@@@8 	 DATA
	??_R0?AVG4ParameterisationTubsZ@@@8 	 DATA
	??_R0?AVG4ParameterisedNavigation@@@8 	 DATA
	??_R0?AVG4PartialPhantomParameterisation@@@8 	 DATA
	??_R0?AVG4PhantomParameterisation@@@8 	 DATA
	??_R0?AVG4PhysicalVolumeStore@@@8 	 DATA
	??_R0?AVG4PolyPhiFace@@@8 	 DATA
	??_R0?AVG4Polycone@@@8 	 DATA
	??_R0?AVG4PolyconeSide@@@8 	 DATA
	??_R0?AVG4Polyhedra@@@8 	 DATA
	??_R0?AVG4PolyhedraSide@@@8 	 DATA
	??_R0?AVG4Polyhedron@@@8 	 DATA
	??_R0?AVG4QuadrangularFacet@@@8 	 DATA
	??_R0?AVG4QuadrupoleMagField@@@8 	 DATA
	??_R0?AVG4RK547FEq1@@@8 	 DATA
	??_R0?AVG4RK547FEq2@@@8 	 DATA
	??_R0?AVG4RK547FEq3@@@8 	 DATA
	??_R0?AVG4RKG3_Stepper@@@8 	 DATA
	??_R0?AVG4ReduciblePolygon@@@8 	 DATA
	??_R0?AVG4ReflectedSolid@@@8 	 DATA
	??_R0?AVG4ReflectionFactory@@@8 	 DATA
	??_R0?AVG4Region@@@8 	 DATA
	??_R0?AVG4RegionStore@@@8 	 DATA
	??_R0?AVG4RepleteEofM@@@8 	 DATA
	??_R0?AVG4ReplicatedSlice@@@8 	 DATA
	??_R0?AVG4ScaledSolid@@@8 	 DATA
	??_R0?AVG4SextupoleMagField@@@8 	 DATA
	??_R0?AVG4SimpleHeum@@@8 	 DATA
	??_R0?AVG4SimpleLocator@@@8 	 DATA
	??_R0?AVG4SimpleRunge@@@8 	 DATA
	??_R0?AVG4SolidStore@@@8 	 DATA
	??_R0?AVG4Sphere@@@8 	 DATA
	??_R0?AVG4SubtractionSolid@@@8 	 DATA
	??_R0?AVG4TessellatedSolid@@@8 	 DATA
	??_R0?AVG4Tet@@@8 	 DATA
	??_R0?AVG4Torus@@@8 	 DATA
	??_R0?AVG4TouchableHistory@@@8 	 DATA
	??_R0?AVG4Trap@@@8 	 DATA
	??_R0?AVG4Trd@@@8 	 DATA
	??_R0?AVG4TriangularFacet@@@8 	 DATA
	??_R0?AVG4TsitourasRK45@@@8 	 DATA
	??_R0?AVG4Tubs@@@8 	 DATA
	??_R0?AVG4TwistBoxSide@@@8 	 DATA
	??_R0?AVG4TwistTrapAlphaSide@@@8 	 DATA
	??_R0?AVG4TwistTrapFlatSide@@@8 	 DATA
	??_R0?AVG4TwistTrapParallelSide@@@8 	 DATA
	??_R0?AVG4TwistTubsFlatSide@@@8 	 DATA
	??_R0?AVG4TwistTubsHypeSide@@@8 	 DATA
	??_R0?AVG4TwistTubsSide@@@8 	 DATA
	??_R0?AVG4TwistedBox@@@8 	 DATA
	??_R0?AVG4TwistedTrap@@@8 	 DATA
	??_R0?AVG4TwistedTrd@@@8 	 DATA
	??_R0?AVG4TwistedTubs@@@8 	 DATA
	??_R0?AVG4UImessenger@@@8 	 DATA
	??_R0?AVG4UniformElectricField@@@8 	 DATA
	??_R0?AVG4UniformGravityField@@@8 	 DATA
	??_R0?AVG4UniformMagField@@@8 	 DATA
	??_R0?AVG4UnionSolid@@@8 	 DATA
	??_R0?AVG4VCSGface@@@8 	 DATA
	??_R0?AVG4VCSGfaceted@@@8 	 DATA
	??_R0?AVG4VCurvedTrajectoryFilter@@@8 	 DATA
	??_R0?AVG4VDivisionParameterisation@@@8 	 DATA
	??_R0?AVG4VExternalNavigation@@@8 	 DATA
	??_R0?AVG4VExternalPhysicalVolume@@@8 	 DATA
	??_R0?AVG4VFSALIntegrationStepper@@@8 	 DATA
	??_R0?AVG4VFacet@@@8 	 DATA
	??_R0?AVG4VGCellFinder@@@8 	 DATA
	??_R0?AVG4VIStore@@@8 	 DATA
	??_R0?AVG4VImportanceAlgorithm@@@8 	 DATA
	??_R0?AVG4VImportanceSplitExaminer@@@8 	 DATA
	??_R0?AVG4VIntegrationDriver@@@8 	 DATA
	??_R0?AVG4VIntersectionLocator@@@8 	 DATA
	??_R0?AVG4VMaterialExtension@@@8 	 DATA
	??_R0?AVG4VNestedParameterisation@@@8 	 DATA
	??_R0?AVG4VPVDivisionFactory@@@8 	 DATA
	??_R0?AVG4VPVParameterisation@@@8 	 DATA
	??_R0?AVG4VParameterisationBox@@@8 	 DATA
	??_R0?AVG4VParameterisationCons@@@8 	 DATA
	??_R0?AVG4VParameterisationPara@@@8 	 DATA
	??_R0?AVG4VParameterisationPolycone@@@8 	 DATA
	??_R0?AVG4VParameterisationPolyhedra@@@8 	 DATA
	??_R0?AVG4VParameterisationTrd@@@8 	 DATA
	??_R0?AVG4VParameterisationTubs@@@8 	 DATA
	??_R0?AVG4VPhysicalVolume@@@8 	 DATA
	??_R0?AVG4VSolid@@@8 	 DATA
	??_R0?AVG4VTouchable@@@8 	 DATA
	??_R0?AVG4VTwistSurface@@@8 	 DATA
	??_R0?AVG4VTwistedFaceted@@@8 	 DATA
	??_R0?AVG4VVolumeMaterialScanner@@@8 	 DATA
	??_R0?AVG4VWeightWindowAlgorithm@@@8 	 DATA
	??_R0?AVG4VWeightWindowStore@@@8 	 DATA
	??_R0?AVG4Visible@@@8 	 DATA
	??_R0?AVG4VoxelNavigation@@@8 	 DATA
	??_R0?AVG4WeightWindowAlgorithm@@@8 	 DATA
	??_R0?AVG4WeightWindowStore@@@8 	 DATA
	??_R0?AVHepPolyhedron@@@8 	 DATA
	??_R0?AVbad_alloc@std@@@8 	 DATA
	??_R0?AVbad_array_new_length@std@@@8 	 DATA
	??_R0?AVexception@std@@@8 	 DATA
	??_R0?AVios_base@std@@@8 	 DATA
	??_R0?AVsystem_error@std@@@8 	 DATA
	??_R0PEAVG4RegularNavigationHelper@@@8 	 DATA
	??_R0PEAVHep3Vector@CLHEP@@@8 	 DATA
	??_R0PEAVHepRotation@CLHEP@@@8 	 DATA
	?_instance@?1??cache@?$G4CacheReference@PEAVG4RegularNavigationHelper@@@@CAAEAPEAV?$vector@PEAVG4RegularNavigationHelper@@V?$allocator@PEAVG4RegularNavigationHelper@@@std@@@std@@XZ@4PEAV34@EA 	 DATA
	?_instance@?1??cache@?$G4CacheReference@PEAVHep3Vector@CLHEP@@@@CAAEAPEAV?$vector@PEAVHep3Vector@CLHEP@@V?$allocator@PEAVHep3Vector@CLHEP@@@std@@@std@@XZ@4PEAV34@EA 	 DATA
	?_instance@?1??cache@?$G4CacheReference@PEAVHepRotation@CLHEP@@@@CAAEAPEAV?$vector@PEAVHepRotation@CLHEP@@V?$allocator@PEAVHepRotation@CLHEP@@@std@@@std@@XZ@4PEAV34@EA 	 DATA
	?_mutex@?1???$G4TypeMutex@V?$G4Cache@PEAVG4RegularNavigationHelper@@@@@@YAAEAVmutex@std@@AEBI@Z@4PEAV12@EA 	 DATA
	?_mutex@?1???$G4TypeMutex@V?$G4Cache@PEAVHep3Vector@CLHEP@@@@@@YAAEAVmutex@std@@AEBI@Z@4PEAV12@EA 	 DATA
	?_mutex@?1???$G4TypeMutex@V?$G4Cache@PEAVHepRotation@CLHEP@@@@@@YAAEAVmutex@std@@AEBI@Z@4PEAV12@EA 	 DATA
	?_mutexes@?1???$G4TypeMutex@V?$G4Cache@PEAVG4RegularNavigationHelper@@@@@@YAAEAVmutex@std@@AEBI@Z@4V?$vector@PEAVmutex@std@@V?$allocator@PEAVmutex@std@@@2@@2@A 	 DATA
	?_mutexes@?1???$G4TypeMutex@V?$G4Cache@PEAVHep3Vector@CLHEP@@@@@@YAAEAVmutex@std@@AEBI@Z@4V?$vector@PEAVmutex@std@@V?$allocator@PEAVmutex@std@@@2@@2@A 	 DATA
	?_mutexes@?1???$G4TypeMutex@V?$G4Cache@PEAVHepRotation@CLHEP@@@@@@YAAEAVmutex@std@@AEBI@Z@4V?$vector@PEAVmutex@std@@V?$allocator@PEAVmutex@std@@@2@@2@A 	 DATA
	?bi@G4BogackiShampine45@@0PAY06NA 	 DATA
	?bi@G4FSALBogackiShampine45@@0PAY06NA 	 DATA
	?container@?1???$Register@VHep3Vector@CLHEP@@@G4AutoDelete@@YAXPEAVHep3Vector@CLHEP@@@Z@4V?$G4ThreadLocalSingleton@VHep3Vector@CLHEP@@@@A 	 DATA
	?container@?1???$Register@VHepRotation@CLHEP@@@G4AutoDelete@@YAXPEAVHepRotation@CLHEP@@@Z@4V?$G4ThreadLocalSingleton@VHepRotation@CLHEP@@@@A 	 DATA
	?dstrctr@?$G4Cache@PEAVG4RegularNavigationHelper@@@@0U?$atomic@I@std@@A 	 DATA
	?dstrctr@?$G4Cache@PEAVHep3Vector@CLHEP@@@@0U?$atomic@I@std@@A 	 DATA
	?dstrctr@?$G4Cache@PEAVHepRotation@CLHEP@@@@0U?$atomic@I@std@@A 	 DATA
	?dummy@?1???RHep3Vector@CLHEP@@QEAAAEANH@Z@4NA 	 DATA
	?fDefaultNameExtension@G4ReflectionFactory@@0VG4String@@B 	 DATA
	?fDefaultVoxelsCount@G4Voxelizer@@0HA 	 DATA
	?fDefault_Delta_Intersection_Val@G4FieldManager@@0NA 	 DATA
	?fDefault_Delta_One_Step_Value@G4FieldManager@@0NA 	 DATA
	?fFirstTrackingNavigator@G4TransportationManager@@0PEAVG4Navigator@@EA 	 DATA
	?fInstance@G4IStore@@0PEAV1@EA 	 DATA
	?fInstance@G4ReflectionFactory@@0PEAV1@EA 	 DATA
	?fInstance@G4WeightWindowStore@@0PEAV1@EA 	 DATA
	?fIsClosed@G4GeometryManager@@0_NA 	 DATA
	?fLCVvec@G4LogicalCrystalVolume@@0V?$vector@PEAVG4LogicalVolume@@V?$allocator@PEAVG4LogicalVolume@@@std@@@std@@A 	 DATA
	?fPreparedConstants@G4BogackiShampine45@@0_NA 	 DATA
	?fPreparedConstants@G4FSALBogackiShampine45@@0_NA 	 DATA
	?fRot@G4VDivisionParameterisation@@1PEAVHepRotation@CLHEP@@EA 	 DATA
	?fScale@G4ReflectionFactory@@0VScale3D@HepGeom@@B 	 DATA
	?fTransportationManager@G4TransportationManager@@0PEAV1@EA 	 DATA
	?fgInstance@G4AssemblyStore@@0PEAV1@EA 	 DATA
	?fgInstance@G4FieldManagerStore@@0PEAV1@EA 	 DATA
	?fgInstance@G4GeometryManager@@0PEAV1@EA 	 DATA
	?fgInstance@G4LogicalVolumeStore@@0PEAV1@EA 	 DATA
	?fgInstance@G4NavigationHistoryPool@@0PEAV1@EA 	 DATA
	?fgInstance@G4PhysicalVolumeStore@@0PEAV1@EA 	 DATA
	?fgInstance@G4RegionStore@@0PEAV1@EA 	 DATA
	?fgInstance@G4SolidStore@@0PEAV1@EA 	 DATA
	?fgInstance@G4VPVDivisionFactory@@1PEAV1@EA 	 DATA
	?fgNotifier@G4AssemblyStore@@0PEAVG4VNotifier@@EA 	 DATA
	?fgNotifier@G4LogicalVolumeStore@@0PEAVG4VNotifier@@EA 	 DATA
	?fgNotifier@G4PhysicalVolumeStore@@0PEAVG4VNotifier@@EA 	 DATA
	?fgNotifier@G4RegionStore@@0PEAVG4VNotifier@@EA 	 DATA
	?fgNotifier@G4SolidStore@@0PEAVG4VNotifier@@EA 	 DATA
	?fpPathFinder@G4PathFinder@@0PEAV1@EA 	 DATA
	?fsInstanceCounter@G4AssemblyVolume@@0IA 	 DATA
	?instancesctr@?$G4Cache@PEAVG4RegularNavigationHelper@@@@0U?$atomic@I@std@@A 	 DATA
	?instancesctr@?$G4Cache@PEAVHep3Vector@CLHEP@@@@0U?$atomic@I@std@@A 	 DATA
	?instancesctr@?$G4Cache@PEAVHepRotation@CLHEP@@@@0U?$atomic@I@std@@A 	 DATA
	?locked@G4AssemblyStore@@0_NA 	 DATA
	?locked@G4FieldManagerStore@@0_NA 	 DATA
	?locked@G4LogicalVolumeStore@@0_NA 	 DATA
	?locked@G4PhysicalVolumeStore@@0_NA 	 DATA
	?locked@G4RegionStore@@0_NA 	 DATA
	?locked@G4SolidStore@@0_NA 	 DATA
	?offset@?$G4GeomSplitter@VG4LVData@@@@2PEAVG4LVData@@EA 	 DATA
	?offset@?$G4GeomSplitter@VG4PVData@@@@2PEAVG4PVData@@EA 	 DATA
	?offset@?$G4GeomSplitter@VG4PhSideData@@@@2PEAVG4PhSideData@@EA 	 DATA
	?offset@?$G4GeomSplitter@VG4PlSideData@@@@2PEAVG4PlSideData@@EA 	 DATA
	?offset@?$G4GeomSplitter@VG4RegionData@@@@2PEAVG4RegionData@@EA 	 DATA
	?offset@?$G4GeomSplitter@VG4ReplicaData@@@@2PEAVG4ReplicaData@@EA 	 DATA
	?subInstanceManager@G4LogicalVolume@@0V?$G4GeomSplitter@VG4LVData@@@@A 	 DATA
	?subInstanceManager@G4PVReplica@@0V?$G4GeomSplitter@VG4ReplicaData@@@@A 	 DATA
	?subInstanceManager@G4PolyconeSide@@0V?$G4GeomSplitter@VG4PlSideData@@@@A 	 DATA
	?subInstanceManager@G4PolyhedraSide@@0V?$G4GeomSplitter@VG4PhSideData@@@@A 	 DATA
	?subInstanceManager@G4Region@@0V?$G4GeomSplitter@VG4RegionData@@@@A 	 DATA
	?subInstanceManager@G4VPhysicalVolume@@1V?$G4GeomSplitter@VG4PVData@@@@A 	 DATA
	?theBorderSurfaceTable@G4LogicalBorderSurface@@0PEAV?$vector@PEAVG4LogicalBorderSurface@@V?$allocator@PEAVG4LogicalBorderSurface@@@std@@@std@@EA 	 DATA
	?theSkinSurfaceTable@G4LogicalSkinSurface@@0PEAV?$vector@PEAVG4LogicalSkinSurface@@V?$allocator@PEAVG4LogicalSkinSurface@@@std@@@std@@EA 	 DATA
	?tot_no_trials@?1??OneGoodStep@?$G4FSALIntegrationDriver@VG4RK547FEq1@@@@QEAAXQEAN0AEANNN11@Z@4HA 	 DATA
	?tot_no_trials@?1??OneGoodStep@?$G4IntegrationDriver@VG4HelixHeum@@@@QEAAXQEANQEBNAEANNN22@Z@4HA 	 DATA
	?tot_no_trials@?1??OneGoodStep@?$G4IntegrationDriver@VG4MagIntegratorStepper@@@@QEAAXQEANQEBNAEANNN22@Z@4HA 	 DATA
	?y@?1??G4QuickRand@@YANXZ@4IA 	 DATA
	??$?0$$QEAI$$Z$$V@?$pair@$$CBIVTransform3D@HepGeom@@@std@@QEAA@Upiecewise_construct_t@1@V?$tuple@$$QEAI@1@V?$tuple@$$V@1@@Z
	??$?0AEBH$$Z$$V@?$pair@$$CBHV?$vector@HV?$allocator@H@std@@@std@@@std@@QEAA@Upiecewise_construct_t@1@V?$tuple@AEBH@1@V?$tuple@$$V@1@@Z
	??$?0AEBN$$Z$$V@?$pair@$$CBNN@std@@QEAA@Upiecewise_construct_t@1@V?$tuple@AEBN@1@V?$tuple@$$V@1@@Z
	??$?0AEBQEAVG4LogicalVolume@@$$Z$$V@?$pair@QEAVG4LogicalVolume@@PEAV1@@std@@QEAA@Upiecewise_construct_t@1@V?$tuple@AEBQEAVG4LogicalVolume@@@1@V?$tuple@$$V@1@@Z
	??$?0AEBVG4GeometryCell@@$$Z$$V@?$pair@$$CBVG4GeometryCell@@N@std@@QEAA@Upiecewise_construct_t@1@V?$tuple@AEBVG4GeometryCell@@@1@V?$tuple@$$V@1@@Z
	??$?0AEBVG4GeometryCell@@$$Z$$V@?$pair@$$CBVG4GeometryCell@@V?$map@NNU?$less@N@std@@V?$allocator@U?$pair@$$CBNN@std@@@2@@std@@@std@@QEAA@Upiecewise_construct_t@1@V?$tuple@AEBVG4GeometryCell@@@1@V?$tuple@$$V@1@@Z
	??$?0V?$tuple@$$QEAI@std@@V?$tuple@$$V@1@$0A@$$Z$S@?$pair@$$CBIVTransform3D@HepGeom@@@std@@QEAA@AEAV?$tuple@$$QEAI@1@AEAV?$tuple@$$V@1@U?$integer_sequence@_K$0A@@1@U?$integer_sequence@_K$S@1@@Z
	??$?0V?$tuple@AEBH@std@@V?$tuple@$$V@1@$0A@$$Z$S@?$pair@$$CBHV?$vector@HV?$allocator@H@std@@@std@@@std@@QEAA@AEAV?$tuple@AEBH@1@AEAV?$tuple@$$V@1@U?$integer_sequence@_K$0A@@1@U?$integer_sequence@_K$S@1@@Z
	??$?0V?$tuple@AEBN@std@@V?$tuple@$$V@1@$0A@$$Z$S@?$pair@$$CBNN@std@@QEAA@AEAV?$tuple@AEBN@1@AEAV?$tuple@$$V@1@U?$integer_sequence@_K$0A@@1@U?$integer_sequence@_K$S@1@@Z
	??$?0V?$tuple@AEBQEAVG4LogicalVolume@@@std@@V?$tuple@$$V@1@$0A@$$Z$S@?$pair@QEAVG4LogicalVolume@@PEAV1@@std@@QEAA@AEAV?$tuple@AEBQEAVG4LogicalVolume@@@1@AEAV?$tuple@$$V@1@U?$integer_sequence@_K$0A@@1@U?$integer_sequence@_K$S@1@@Z
	??$?0V?$tuple@AEBVG4GeometryCell@@@std@@V?$tuple@$$V@1@$0A@$$Z$S@?$pair@$$CBVG4GeometryCell@@N@std@@QEAA@AEAV?$tuple@AEBVG4GeometryCell@@@1@AEAV?$tuple@$$V@1@U?$integer_sequence@_K$0A@@1@U?$integer_sequence@_K$S@1@@Z
	??$?0V?$tuple@AEBVG4GeometryCell@@@std@@V?$tuple@$$V@1@$0A@$$Z$S@?$pair@$$CBVG4GeometryCell@@V?$map@NNU?$less@N@std@@V?$allocator@U?$pair@$$CBNN@std@@@2@@std@@@std@@QEAA@AEAV?$tuple@AEBVG4GeometryCell@@@1@AEAV?$tuple@$$V@1@U?$integer_sequence@_K$0A@@1@U?$integer_sequence@_K$S@1@@Z
	??$?6DU?$char_traits@D@std@@@std@@YAAEAV?$basic_ostream@DU?$char_traits@D@std@@@0@AEAV10@AEBVerror_code@0@@Z
	??$?6DU?$char_traits@D@std@@H@std@@YAAEAV?$basic_ostream@DU?$char_traits@D@std@@@0@AEAV10@AEBU?$_Smanip@H@0@@Z
	??$?6DU?$char_traits@D@std@@V?$allocator@D@1@@std@@YAAEAV?$basic_ostream@DU?$char_traits@D@std@@@0@AEAV10@AEBV?$basic_string@DU?$char_traits@D@std@@V?$allocator@D@2@@0@@Z
	??$?6DU?$char_traits@D@std@@_J@std@@YAAEAV?$basic_ostream@DU?$char_traits@D@std@@@0@AEAV10@AEBU?$_Smanip@_J@0@@Z
	??$?6U?$char_traits@D@std@@@std@@YAAEAV?$basic_ostream@DU?$char_traits@D@std@@@0@AEAV10@D@Z
	??$?6U?$char_traits@D@std@@@std@@YAAEAV?$basic_ostream@DU?$char_traits@D@std@@@0@AEAV10@PEBD@Z
	??$?HDU?$char_traits@D@std@@V?$allocator@D@1@@std@@YA?AV?$basic_string@DU?$char_traits@D@std@@V?$allocator@D@2@@0@$$QEAV10@0@Z
	??$?HDU?$char_traits@D@std@@V?$allocator@D@1@@std@@YA?AV?$basic_string@DU?$char_traits@D@std@@V?$allocator@D@2@@0@$$QEAV10@AEBV10@@Z
	??$?HDU?$char_traits@D@std@@V?$allocator@D@1@@std@@YA?AV?$basic_string@DU?$char_traits@D@std@@V?$allocator@D@2@@0@$$QEAV10@QEBD@Z
	??$?HDU?$char_traits@D@std@@V?$allocator@D@1@@std@@YA?AV?$basic_string@DU?$char_traits@D@std@@V?$allocator@D@2@@0@AEBV10@0@Z
	??$?HDU?$char_traits@D@std@@V?$allocator@D@1@@std@@YA?AV?$basic_string@DU?$char_traits@D@std@@V?$allocator@D@2@@0@AEBV10@QEBD@Z
	??$?HDU?$char_traits@D@std@@V?$allocator@D@1@@std@@YA?AV?$basic_string@DU?$char_traits@D@std@@V?$allocator@D@2@@0@QEBD$$QEAV10@@Z
	??$?HDU?$char_traits@D@std@@V?$allocator@D@1@@std@@YA?AV?$basic_string@DU?$char_traits@D@std@@V?$allocator@D@2@@0@QEBDAEBV10@@Z
	??$BinarySearch@N@G4Voxelizer@@SAHAEBV?$vector@NV?$allocator@N@std@@@std@@N@Z
	??$G4TypeMutex@V?$G4Cache@PEAVG4RegularNavigationHelper@@@@@@YAAEAVmutex@std@@AEBI@Z
	??$G4TypeMutex@V?$G4Cache@PEAVHep3Vector@CLHEP@@@@@@YAAEAVmutex@std@@AEBI@Z
	??$G4TypeMutex@V?$G4Cache@PEAVHepRotation@CLHEP@@@@@@YAAEAVmutex@std@@AEBI@Z
	??$Register@VHep3Vector@CLHEP@@@G4AutoDelete@@YAXPEAVHep3Vector@CLHEP@@@Z
	??$Register@VHepRotation@CLHEP@@@G4AutoDelete@@YAXPEAVHepRotation@CLHEP@@@Z
	??$_Allocate@$0BA@U_Default_allocate_traits@std@@$0A@@std@@YAPEAX_K@Z
	??$_Allocate_manually_vector_aligned@U_Default_allocate_traits@std@@@std@@YAPEAX_K@Z
	??$_Assign_range@PEAH@?$vector@HV?$allocator@H@std@@@std@@AEAAXPEAH0Uforward_iterator_tag@1@@Z
	??$_Assign_range@PEAUZSection@G4ExtrudedSolid@@@?$vector@UZSection@G4ExtrudedSolid@@V?$allocator@UZSection@G4ExtrudedSolid@@@std@@@std@@AEAAXPEAUZSection@G4ExtrudedSolid@@0Uforward_iterator_tag@1@@Z
	??$_Assign_range@PEAV?$vector@HV?$allocator@H@std@@@std@@@?$vector@V?$vector@HV?$allocator@H@std@@@std@@V?$allocator@V?$vector@HV?$allocator@H@std@@@std@@@2@@std@@AEAAXPEAV?$vector@HV?$allocator@H@std@@@1@0Uforward_iterator_tag@1@@Z
	??$_Assign_range@PEAVHep2Vector@CLHEP@@@?$vector@VHep2Vector@CLHEP@@V?$allocator@VHep2Vector@CLHEP@@@std@@@std@@AEAAXPEAVHep2Vector@CLHEP@@0Uforward_iterator_tag@1@@Z
	??$_Assign_range@PEAVHep3Vector@CLHEP@@@?$vector@VHep3Vector@CLHEP@@V?$allocator@VHep3Vector@CLHEP@@@std@@@std@@AEAAXPEAVHep3Vector@CLHEP@@0Uforward_iterator_tag@1@@Z
	??$_Atomic_address_as@$$CBJ$$CBU?$_Atomic_padded@I@std@@@std@@YAPEDJAEBU?$_Atomic_padded@I@0@@Z
	??$_Atomic_address_as@JU?$_Atomic_padded@I@std@@@std@@YAPECJAEAU?$_Atomic_padded@I@0@@Z
	??$_Atomic_reinterpret_as@JI@std@@YAJAEBI@Z
	??$_Const_cast@$$CBU?$pair@VHep2Vector@CLHEP@@H@std@@@std@@YAPEAU?$pair@VHep2Vector@CLHEP@@H@0@PEBU10@@Z
	??$_Const_cast@$$CBUInterpStepper@?$G4InterpolationDriver@VG4DormandPrince745@@@@@std@@YAPEAUInterpStepper@?$G4InterpolationDriver@VG4DormandPrince745@@@@PEBU12@@Z
	??$_Const_cast@$$CBVHep3Vector@CLHEP@@@std@@YAPEAVHep3Vector@CLHEP@@PEBV12@@Z
	??$_Construct_in_place@PEADAEBQEAD@std@@YAXAEAPEADAEBQEAD@Z
	??$_Construct_in_place@PEAU?$_List_node@PEAVG4RegularNavigationHelper@@PEAX@std@@AEAPEAU12@@std@@YAXAEAPEAU?$_List_node@PEAVG4RegularNavigationHelper@@PEAX@0@0@Z
	??$_Construct_in_place@PEAU?$_List_node@PEAVG4RegularNavigationHelper@@PEAX@std@@AEBQEAU12@@std@@YAXAEAPEAU?$_List_node@PEAVG4RegularNavigationHelper@@PEAX@0@AEBQEAU10@@Z
	??$_Construct_in_place@PEAU?$_List_node@PEAVHep3Vector@CLHEP@@PEAX@std@@AEAPEAU12@@std@@YAXAEAPEAU?$_List_node@PEAVHep3Vector@CLHEP@@PEAX@0@0@Z
	??$_Construct_in_place@PEAU?$_List_node@PEAVHep3Vector@CLHEP@@PEAX@std@@AEBQEAU12@@std@@YAXAEAPEAU?$_List_node@PEAVHep3Vector@CLHEP@@PEAX@0@AEBQEAU10@@Z
	??$_Construct_in_place@PEAU?$_List_node@PEAVHepRotation@CLHEP@@PEAX@std@@AEAPEAU12@@std@@YAXAEAPEAU?$_List_node@PEAVHepRotation@CLHEP@@PEAX@0@0@Z
	??$_Construct_in_place@PEAU?$_List_node@PEAVHepRotation@CLHEP@@PEAX@std@@AEBQEAU12@@std@@YAXAEAPEAU?$_List_node@PEAVHepRotation@CLHEP@@PEAX@0@AEBQEAU10@@Z
	??$_Construct_in_place@PEAU?$_Tree_node@HPEAX@std@@AEAPEAU12@@std@@YAXAEAPEAU?$_Tree_node@HPEAX@0@0@Z
	??$_Construct_in_place@PEAU?$_Tree_node@HPEAX@std@@AEBQEAU12@@std@@YAXAEAPEAU?$_Tree_node@HPEAX@0@AEBQEAU10@@Z
	??$_Construct_in_place@PEAU?$_Tree_node@NPEAX@std@@AEAPEAU12@@std@@YAXAEAPEAU?$_Tree_node@NPEAX@0@0@Z
	??$_Construct_in_place@PEAU?$_Tree_node@NPEAX@std@@AEBQEAU12@@std@@YAXAEAPEAU?$_Tree_node@NPEAX@0@AEBQEAU10@@Z
	??$_Construct_in_place@PEAU?$_Tree_node@PEAVG4VFacet@@PEAX@std@@AEAPEAU12@@std@@YAXAEAPEAU?$_Tree_node@PEAVG4VFacet@@PEAX@0@0@Z
	??$_Construct_in_place@PEAU?$_Tree_node@PEAVG4VFacet@@PEAX@std@@AEBQEAU12@@std@@YAXAEAPEAU?$_Tree_node@PEAVG4VFacet@@PEAX@0@AEBQEAU10@@Z
	??$_Construct_in_place@PEAU?$_Tree_node@PEBVG4LogicalVolume@@PEAX@std@@AEBQEAU12@@std@@YAXAEAPEAU?$_Tree_node@PEBVG4LogicalVolume@@PEAX@0@AEBQEAU10@@Z
	??$_Construct_in_place@PEAU?$_Tree_node@U?$pair@$$CBHH@std@@PEAX@std@@AEBQEAU12@@std@@YAXAEAPEAU?$_Tree_node@U?$pair@$$CBHH@std@@PEAX@0@AEBQEAU10@@Z
	??$_Construct_in_place@PEAU?$_Tree_node@U?$pair@$$CBHV?$map@HHU?$less@H@std@@V?$allocator@U?$pair@$$CBHH@std@@@2@@std@@@std@@PEAX@std@@AEBQEAU12@@std@@YAXAEAPEAU?$_Tree_node@U?$pair@$$CBHV?$map@HHU?$less@H@std@@V?$allocator@U?$pair@$$CBHH@std@@@2@@std@@@std@@PEAX@0@AEBQEAU10@@Z
	??$_Construct_in_place@PEAU?$_Tree_node@U?$pair@$$CBHV?$vector@HV?$allocator@H@std@@@std@@@std@@PEAX@std@@AEAPEAU12@@std@@YAXAEAPEAU?$_Tree_node@U?$pair@$$CBHV?$vector@HV?$allocator@H@std@@@std@@@std@@PEAX@0@0@Z
	??$_Construct_in_place@PEAU?$_Tree_node@U?$pair@$$CBHV?$vector@HV?$allocator@H@std@@@std@@@std@@PEAX@std@@AEBQEAU12@@std@@YAXAEAPEAU?$_Tree_node@U?$pair@$$CBHV?$vector@HV?$allocator@H@std@@@std@@@std@@PEAX@0@AEBQEAU10@@Z
	??$_Construct_in_place@PEAU?$_Tree_node@U?$pair@$$CBIVTransform3D@HepGeom@@@std@@PEAX@std@@AEAPEAU12@@std@@YAXAEAPEAU?$_Tree_node@U?$pair@$$CBIVTransform3D@HepGeom@@@std@@PEAX@0@0@Z
	??$_Construct_in_place@PEAU?$_Tree_node@U?$pair@$$CBIVTransform3D@HepGeom@@@std@@PEAX@std@@AEBQEAU12@@std@@YAXAEAPEAU?$_Tree_node@U?$pair@$$CBIVTransform3D@HepGeom@@@std@@PEAX@0@AEBQEAU10@@Z
	??$_Construct_in_place@PEAU?$_Tree_node@U?$pair@$$CBNN@std@@PEAX@std@@AEAPEAU12@@std@@YAXAEAPEAU?$_Tree_node@U?$pair@$$CBNN@std@@PEAX@0@0@Z
	??$_Construct_in_place@PEAU?$_Tree_node@U?$pair@$$CBNN@std@@PEAX@std@@AEBQEAU12@@std@@YAXAEAPEAU?$_Tree_node@U?$pair@$$CBNN@std@@PEAX@0@AEBQEAU10@@Z
	??$_Construct_in_place@PEAU?$_Tree_node@U?$pair@$$CBVG4GeometryCell@@N@std@@PEAX@std@@AEAPEAU12@@std@@YAXAEAPEAU?$_Tree_node@U?$pair@$$CBVG4GeometryCell@@N@std@@PEAX@0@0@Z
	??$_Construct_in_place@PEAU?$_Tree_node@U?$pair@$$CBVG4GeometryCell@@N@std@@PEAX@std@@AEBQEAU12@@std@@YAXAEAPEAU?$_Tree_node@U?$pair@$$CBVG4GeometryCell@@N@std@@PEAX@0@AEBQEAU10@@Z
	??$_Construct_in_place@PEAU?$_Tree_node@U?$pair@$$CBVG4GeometryCell@@V?$map@NNU?$less@N@std@@V?$allocator@U?$pair@$$CBNN@std@@@2@@std@@@std@@PEAX@std@@AEAPEAU12@@std@@YAXAEAPEAU?$_Tree_node@U?$pair@$$CBVG4GeometryCell@@V?$map@NNU?$less@N@std@@V?$allocator@U?$pair@$$CBNN@std@@@2@@std@@@std@@PEAX@0@0@Z
	??$_Construct_in_place@PEAU?$_Tree_node@U?$pair@$$CBVG4GeometryCell@@V?$map@NNU?$less@N@std@@V?$allocator@U?$pair@$$CBNN@std@@@2@@std@@@std@@PEAX@std@@AEBQEAU12@@std@@YAXAEAPEAU?$_Tree_node@U?$pair@$$CBVG4GeometryCell@@V?$map@NNU?$less@N@std@@V?$allocator@U?$pair@$$CBNN@std@@@2@@std@@@std@@PEAX@0@AEBQEAU10@@Z
	??$_Construct_in_place@PEAU?$_Tree_node@U?$pair@QEAVG4LogicalVolume@@PEAV1@@std@@PEAX@std@@AEAPEAU12@@std@@YAXAEAPEAU?$_Tree_node@U?$pair@QEAVG4LogicalVolume@@PEAV1@@std@@PEAX@0@0@Z
	??$_Construct_in_place@PEAU?$_Tree_node@U?$pair@QEAVG4LogicalVolume@@PEAV1@@std@@PEAX@std@@AEBQEAU12@@std@@YAXAEAPEAU?$_Tree_node@U?$pair@QEAVG4LogicalVolume@@PEAV1@@std@@PEAX@0@AEBQEAU10@@Z
	??$_Construct_in_place@PEAU?$_Tree_node@U?$pair@QEAVG4Material@@PEAVG4MaterialCutsCouple@@@std@@PEAX@std@@AEBQEAU12@@std@@YAXAEAPEAU?$_Tree_node@U?$pair@QEAVG4Material@@PEAVG4MaterialCutsCouple@@@std@@PEAX@0@AEBQEAU10@@Z
	??$_Construct_in_place@PEAU?$_Tree_node@UG4VertexInfo@@PEAX@std@@AEAPEAU12@@std@@YAXAEAPEAU?$_Tree_node@UG4VertexInfo@@PEAX@0@0@Z
	??$_Construct_in_place@PEAU?$_Tree_node@UG4VertexInfo@@PEAX@std@@AEBQEAU12@@std@@YAXAEAPEAU?$_Tree_node@UG4VertexInfo@@PEAX@0@AEBQEAU10@@Z
	??$_Construct_in_place@U_Container_proxy@std@@PEAU_Container_base12@2@@std@@YAXAEAU_Container_proxy@0@$$QEAPEAU_Container_base12@0@@Z
	??$_Copy@U_Copy_tag@?$_Tree@V?$_Tmap_traits@NNU?$less@N@std@@V?$allocator@U?$pair@$$CBNN@std@@@2@$0A@@std@@@std@@@?$_Tree@V?$_Tmap_traits@NNU?$less@N@std@@V?$allocator@U?$pair@$$CBNN@std@@@2@$0A@@std@@@std@@IEAAXAEBV01@U_Copy_tag@01@@Z
	??$_Copy_backward_memmove@PEAHPEAH@std@@YAPEAHPEAH00@Z
	??$_Copy_backward_memmove@PEANPEAN@std@@YAPEANPEAN00@Z
	??$_Copy_backward_memmove@PEAVG4SmartVoxelStat@@PEAV1@@std@@YAPEAVG4SmartVoxelStat@@PEAV1@00@Z
	??$_Copy_memmove@PEADPEAD@std@@YAPEADPEAD00@Z
	??$_Copy_memmove@PEAHPEAH@std@@YAPEAHPEAH00@Z
	??$_Copy_memmove@PEAIPEAI@std@@YAPEAIPEAI00@Z
	??$_Copy_memmove@PEANPEAN@std@@YAPEANPEAN00@Z
	??$_Copy_memmove@PEAPEAHPEAPEAH@std@@YAPEAPEAHPEAPEAH00@Z
	??$_Copy_memmove@PEAPEAV?$vector@HV?$allocator@H@std@@@std@@PEAPEAV12@@std@@YAPEAPEAV?$vector@HV?$allocator@H@std@@@0@PEAPEAV10@00@Z
	??$_Copy_memmove@PEAPEAV?$vector@VG4NavigationLevel@@V?$allocator@VG4NavigationLevel@@@std@@@std@@PEAPEAV12@@std@@YAPEAPEAV?$vector@VG4NavigationLevel@@V?$allocator@VG4NavigationLevel@@@std@@@0@PEAPEAV10@00@Z
	??$_Copy_memmove@PEAPEAVG4AssemblyVolume@@PEAPEAV1@@std@@YAPEAPEAVG4AssemblyVolume@@PEAPEAV1@00@Z
	??$_Copy_memmove@PEAPEAVG4FieldManager@@PEAPEAV1@@std@@YAPEAPEAVG4FieldManager@@PEAPEAV1@00@Z
	??$_Copy_memmove@PEAPEAVG4LogicalBorderSurface@@PEAPEAV1@@std@@YAPEAPEAVG4LogicalBorderSurface@@PEAPEAV1@00@Z
	??$_Copy_memmove@PEAPEAVG4LogicalSkinSurface@@PEAPEAV1@@std@@YAPEAPEAVG4LogicalSkinSurface@@PEAPEAV1@00@Z
	??$_Copy_memmove@PEAPEAVG4LogicalVolume@@PEAPEAV1@@std@@YAPEAPEAVG4LogicalVolume@@PEAPEAV1@00@Z
	??$_Copy_memmove@PEAPEAVG4Material@@PEAPEAV1@@std@@YAPEAPEAVG4Material@@PEAPEAV1@00@Z
	??$_Copy_memmove@PEAPEAVG4Navigator@@PEAPEAV1@@std@@YAPEAPEAVG4Navigator@@PEAPEAV1@00@Z
	??$_Copy_memmove@PEAPEAVG4Region@@PEAPEAV1@@std@@YAPEAPEAVG4Region@@PEAPEAV1@00@Z
	??$_Copy_memmove@PEAPEAVG4RegularNavigationHelper@@PEAPEAV1@@std@@YAPEAPEAVG4RegularNavigationHelper@@PEAPEAV1@00@Z
	??$_Copy_memmove@PEAPEAVG4SmartVoxelNode@@PEAPEAV1@@std@@YAPEAPEAVG4SmartVoxelNode@@PEAPEAV1@00@Z
	??$_Copy_memmove@PEAPEAVG4SmartVoxelProxy@@PEAPEAV1@@std@@YAPEAPEAVG4SmartVoxelProxy@@PEAPEAV1@00@Z
	??$_Copy_memmove@PEAPEAVG4VFacet@@PEAPEAV1@@std@@YAPEAPEAVG4VFacet@@PEAPEAV1@00@Z
	??$_Copy_memmove@PEAPEAVG4VPhysicalVolume@@PEAPEAV1@@std@@YAPEAPEAVG4VPhysicalVolume@@PEAPEAV1@00@Z
	??$_Copy_memmove@PEAPEAVG4VSolid@@PEAPEAV1@@std@@YAPEAPEAVG4VSolid@@PEAPEAV1@00@Z
	??$_Copy_memmove@PEAPEAVHep3Vector@CLHEP@@PEAPEAV12@@std@@YAPEAPEAVHep3Vector@CLHEP@@PEAPEAV12@00@Z
	??$_Copy_memmove@PEAPEAVHepRotation@CLHEP@@PEAPEAV12@@std@@YAPEAPEAVHepRotation@CLHEP@@PEAPEAV12@00@Z
	??$_Copy_memmove@PEAPEAVmutex@std@@PEAPEAV12@@std@@YAPEAPEAVmutex@0@PEAPEAV10@00@Z
	??$_Copy_memmove@PEAPEBV?$vector@VHep3Vector@CLHEP@@V?$allocator@VHep3Vector@CLHEP@@@std@@@std@@PEAPEBV12@@std@@YAPEAPEBV?$vector@VHep3Vector@CLHEP@@V?$allocator@VHep3Vector@CLHEP@@@std@@@0@PEAPEBV10@00@Z
	??$_Copy_memmove@PEAUline@G4ExtrudedSolid@@PEAU12@@std@@YAPEAUline@G4ExtrudedSolid@@PEAU12@00@Z
	??$_Copy_memmove@PEAUplane@G4ExtrudedSolid@@PEAU12@@std@@YAPEAUplane@G4ExtrudedSolid@@PEAU12@00@Z
	??$_Copy_nodes@U_Copy_tag@?$_Tree@V?$_Tmap_traits@NNU?$less@N@std@@V?$allocator@U?$pair@$$CBNN@std@@@2@$0A@@std@@@std@@@?$_Tree@V?$_Tmap_traits@NNU?$less@N@std@@V?$allocator@U?$pair@$$CBNN@std@@@2@$0A@@std@@@std@@IEAAPEAU?$_Tree_node@U?$pair@$$CBNN@std@@PEAX@1@PEAU21@0U_Copy_tag@01@@Z
	??$_Copy_nodes@U_Copy_tag@?$_Tree@V?$_Tset_traits@NU?$less@N@std@@V?$allocator@N@2@$0A@@std@@@std@@@?$_Tree@V?$_Tset_traits@NU?$less@N@std@@V?$allocator@N@2@$0A@@std@@@std@@IEAAPEAU?$_Tree_node@NPEAX@1@PEAU21@0U_Copy_tag@01@@Z
	??$_Copy_unchecked@PEADPEAD@std@@YAPEADPEAD00@Z
	??$_Copy_unchecked@PEAUZSection@G4ExtrudedSolid@@PEAU12@@std@@YAPEAUZSection@G4ExtrudedSolid@@PEAU12@00@Z
	??$_Copy_unchecked@PEAV?$vector@HV?$allocator@H@std@@@std@@PEAV12@@std@@YAPEAV?$vector@HV?$allocator@H@std@@@0@PEAV10@00@Z
	??$_Copy_unchecked@PEAVHep2Vector@CLHEP@@PEAV12@@std@@YAPEAVHep2Vector@CLHEP@@PEAV12@00@Z
	??$_Copy_unchecked@PEAVHep3Vector@CLHEP@@PEAV12@@std@@YAPEAVHep3Vector@CLHEP@@PEAV12@00@Z
	??$_Deallocate@$0BA@$0A@@std@@YAXPEAX_K@Z
	??$_Deallocate_plain@V?$allocator@U_Container_proxy@std@@@std@@@std@@YAXAEAV?$allocator@U_Container_proxy@std@@@0@QEAU_Container_proxy@0@@Z
	??$_Delete_plain_internal@V?$allocator@U_Container_proxy@std@@@std@@@std@@YAXAEAV?$allocator@U_Container_proxy@std@@@0@QEAU_Container_proxy@0@@Z
	??$_Destroy_in_place@PEAD@std@@YAXAEAPEAD@Z
	??$_Destroy_in_place@PEAU?$_List_node@PEAVG4RegularNavigationHelper@@PEAX@std@@@std@@YAXAEAPEAU?$_List_node@PEAVG4RegularNavigationHelper@@PEAX@0@@Z
	??$_Destroy_in_place@PEAU?$_List_node@PEAVHep3Vector@CLHEP@@PEAX@std@@@std@@YAXAEAPEAU?$_List_node@PEAVHep3Vector@CLHEP@@PEAX@0@@Z
	??$_Destroy_in_place@PEAU?$_List_node@PEAVHepRotation@CLHEP@@PEAX@std@@@std@@YAXAEAPEAU?$_List_node@PEAVHepRotation@CLHEP@@PEAX@0@@Z
	??$_Destroy_in_place@PEAU?$_Tree_node@HPEAX@std@@@std@@YAXAEAPEAU?$_Tree_node@HPEAX@0@@Z
	??$_Destroy_in_place@PEAU?$_Tree_node@NPEAX@std@@@std@@YAXAEAPEAU?$_Tree_node@NPEAX@0@@Z
	??$_Destroy_in_place@PEAU?$_Tree_node@PEAVG4VFacet@@PEAX@std@@@std@@YAXAEAPEAU?$_Tree_node@PEAVG4VFacet@@PEAX@0@@Z
	??$_Destroy_in_place@PEAU?$_Tree_node@PEBVG4LogicalVolume@@PEAX@std@@@std@@YAXAEAPEAU?$_Tree_node@PEBVG4LogicalVolume@@PEAX@0@@Z
	??$_Destroy_in_place@PEAU?$_Tree_node@U?$pair@$$CBHH@std@@PEAX@std@@@std@@YAXAEAPEAU?$_Tree_node@U?$pair@$$CBHH@std@@PEAX@0@@Z
	??$_Destroy_in_place@PEAU?$_Tree_node@U?$pair@$$CBHV?$map@HHU?$less@H@std@@V?$allocator@U?$pair@$$CBHH@std@@@2@@std@@@std@@PEAX@std@@@std@@YAXAEAPEAU?$_Tree_node@U?$pair@$$CBHV?$map@HHU?$less@H@std@@V?$allocator@U?$pair@$$CBHH@std@@@2@@std@@@std@@PEAX@0@@Z
	??$_Destroy_in_place@PEAU?$_Tree_node@U?$pair@$$CBHV?$vector@HV?$allocator@H@std@@@std@@@std@@PEAX@std@@@std@@YAXAEAPEAU?$_Tree_node@U?$pair@$$CBHV?$vector@HV?$allocator@H@std@@@std@@@std@@PEAX@0@@Z
	??$_Destroy_in_place@PEAU?$_Tree_node@U?$pair@$$CBIVTransform3D@HepGeom@@@std@@PEAX@std@@@std@@YAXAEAPEAU?$_Tree_node@U?$pair@$$CBIVTransform3D@HepGeom@@@std@@PEAX@0@@Z
	??$_Destroy_in_place@PEAU?$_Tree_node@U?$pair@$$CBNN@std@@PEAX@std@@@std@@YAXAEAPEAU?$_Tree_node@U?$pair@$$CBNN@std@@PEAX@0@@Z
	??$_Destroy_in_place@PEAU?$_Tree_node@U?$pair@$$CBVG4GeometryCell@@N@std@@PEAX@std@@@std@@YAXAEAPEAU?$_Tree_node@U?$pair@$$CBVG4GeometryCell@@N@std@@PEAX@0@@Z
	??$_Destroy_in_place@PEAU?$_Tree_node@U?$pair@$$CBVG4GeometryCell@@V?$map@NNU?$less@N@std@@V?$allocator@U?$pair@$$CBNN@std@@@2@@std@@@std@@PEAX@std@@@std@@YAXAEAPEAU?$_Tree_node@U?$pair@$$CBVG4GeometryCell@@V?$map@NNU?$less@N@std@@V?$allocator@U?$pair@$$CBNN@std@@@2@@std@@@std@@PEAX@0@@Z
	??$_Destroy_in_place@PEAU?$_Tree_node@U?$pair@QEAVG4LogicalVolume@@PEAV1@@std@@PEAX@std@@@std@@YAXAEAPEAU?$_Tree_node@U?$pair@QEAVG4LogicalVolume@@PEAV1@@std@@PEAX@0@@Z
	??$_Destroy_in_place@PEAU?$_Tree_node@U?$pair@QEAVG4Material@@PEAVG4MaterialCutsCouple@@@std@@PEAX@std@@@std@@YAXAEAPEAU?$_Tree_node@U?$pair@QEAVG4Material@@PEAVG4MaterialCutsCouple@@@std@@PEAX@0@@Z
	??$_Destroy_in_place@PEAU?$_Tree_node@UG4VertexInfo@@PEAX@std@@@std@@YAXAEAPEAU?$_Tree_node@UG4VertexInfo@@PEAX@0@@Z
	??$_Destroy_in_place@PEAV?$vector@HV?$allocator@H@std@@@std@@@std@@YAXAEAPEAV?$vector@HV?$allocator@H@std@@@0@@Z
	??$_Destroy_range@PEAPEAV?$vector@HV?$allocator@H@std@@@std@@@std@@YAXPEAPEAV?$vector@HV?$allocator@H@std@@@0@QEAPEAV10@@Z
	??$_Destroy_range@V?$allocator@H@std@@@std@@YAXPEAHQEAHAEAV?$allocator@H@0@@Z
	??$_Destroy_range@V?$allocator@I@std@@@std@@YAXPEAIQEAIAEAV?$allocator@I@0@@Z
	??$_Destroy_range@V?$allocator@N@std@@@std@@YAXPEANQEANAEAV?$allocator@N@0@@Z
	??$_Destroy_range@V?$allocator@PEAH@std@@@std@@YAXPEAPEAHQEAPEAHAEAV?$allocator@PEAH@0@@Z
	??$_Destroy_range@V?$allocator@PEAV?$vector@V?$Point3D@N@HepGeom@@V?$allocator@V?$Point3D@N@HepGeom@@@std@@@std@@@std@@@std@@YAXPEAPEAV?$vector@V?$Point3D@N@HepGeom@@V?$allocator@V?$Point3D@N@HepGeom@@@std@@@0@QEAPEAV10@AEAV?$allocator@PEAV?$vector@V?$Point3D@N@HepGeom@@V?$allocator@V?$Point3D@N@HepGeom@@@std@@@std@@@0@@Z
	??$_Destroy_range@V?$allocator@PEAV?$vector@VG4NavigationLevel@@V?$allocator@VG4NavigationLevel@@@std@@@std@@@std@@@std@@YAXPEAPEAV?$vector@VG4NavigationLevel@@V?$allocator@VG4NavigationLevel@@@std@@@0@QEAPEAV10@AEAV?$allocator@PEAV?$vector@VG4NavigationLevel@@V?$allocator@VG4NavigationLevel@@@std@@@std@@@0@@Z
	??$_Destroy_range@V?$allocator@PEAVG4AssemblyVolume@@@std@@@std@@YAXPEAPEAVG4AssemblyVolume@@QEAPEAV1@AEAV?$allocator@PEAVG4AssemblyVolume@@@0@@Z
	??$_Destroy_range@V?$allocator@PEAVG4FieldManager@@@std@@@std@@YAXPEAPEAVG4FieldManager@@QEAPEAV1@AEAV?$allocator@PEAVG4FieldManager@@@0@@Z
	??$_Destroy_range@V?$allocator@PEAVG4LogicalBorderSurface@@@std@@@std@@YAXPEAPEAVG4LogicalBorderSurface@@QEAPEAV1@AEAV?$allocator@PEAVG4LogicalBorderSurface@@@0@@Z
	??$_Destroy_range@V?$allocator@PEAVG4LogicalSkinSurface@@@std@@@std@@YAXPEAPEAVG4LogicalSkinSurface@@QEAPEAV1@AEAV?$allocator@PEAVG4LogicalSkinSurface@@@0@@Z
	??$_Destroy_range@V?$allocator@PEAVG4LogicalVolume@@@std@@@std@@YAXPEAPEAVG4LogicalVolume@@QEAPEAV1@AEAV?$allocator@PEAVG4LogicalVolume@@@0@@Z
	??$_Destroy_range@V?$allocator@PEAVG4Material@@@std@@@std@@YAXPEAPEAVG4Material@@QEAPEAV1@AEAV?$allocator@PEAVG4Material@@@0@@Z
	??$_Destroy_range@V?$allocator@PEAVG4Navigator@@@std@@@std@@YAXPEAPEAVG4Navigator@@QEAPEAV1@AEAV?$allocator@PEAVG4Navigator@@@0@@Z
	??$_Destroy_range@V?$allocator@PEAVG4Region@@@std@@@std@@YAXPEAPEAVG4Region@@QEAPEAV1@AEAV?$allocator@PEAVG4Region@@@0@@Z
	??$_Destroy_range@V?$allocator@PEAVG4RegularNavigationHelper@@@std@@@std@@YAXPEAPEAVG4RegularNavigationHelper@@QEAPEAV1@AEAV?$allocator@PEAVG4RegularNavigationHelper@@@0@@Z
	??$_Destroy_range@V?$allocator@PEAVG4SmartVoxelHeader@@@std@@@std@@YAXPEAPEAVG4SmartVoxelHeader@@QEAPEAV1@AEAV?$allocator@PEAVG4SmartVoxelHeader@@@0@@Z
	??$_Destroy_range@V?$allocator@PEAVG4SmartVoxelNode@@@std@@@std@@YAXPEAPEAVG4SmartVoxelNode@@QEAPEAV1@AEAV?$allocator@PEAVG4SmartVoxelNode@@@0@@Z
	??$_Destroy_range@V?$allocator@PEAVG4SmartVoxelProxy@@@std@@@std@@YAXPEAPEAVG4SmartVoxelProxy@@QEAPEAV1@AEAV?$allocator@PEAVG4SmartVoxelProxy@@@0@@Z
	??$_Destroy_range@V?$allocator@PEAVG4VFacet@@@std@@@std@@YAXPEAPEAVG4VFacet@@QEAPEAV1@AEAV?$allocator@PEAVG4VFacet@@@0@@Z
	??$_Destroy_range@V?$allocator@PEAVG4VPhysicalVolume@@@std@@@std@@YAXPEAPEAVG4VPhysicalVolume@@QEAPEAV1@AEAV?$allocator@PEAVG4VPhysicalVolume@@@0@@Z
	??$_Destroy_range@V?$allocator@PEAVG4VSolid@@@std@@@std@@YAXPEAPEAVG4VSolid@@QEAPEAV1@AEAV?$allocator@PEAVG4VSolid@@@0@@Z
	??$_Destroy_range@V?$allocator@PEAVHep3Vector@CLHEP@@@std@@@std@@YAXPEAPEAVHep3Vector@CLHEP@@QEAPEAV12@AEAV?$allocator@PEAVHep3Vector@CLHEP@@@0@@Z
	??$_Destroy_range@V?$allocator@PEAVHepRotation@CLHEP@@@std@@@std@@YAXPEAPEAVHepRotation@CLHEP@@QEAPEAV12@AEAV?$allocator@PEAVHepRotation@CLHEP@@@0@@Z
	??$_Destroy_range@V?$allocator@PEAVmutex@std@@@std@@@std@@YAXPEAPEAVmutex@0@QEAPEAV10@AEAV?$allocator@PEAVmutex@std@@@0@@Z
	??$_Destroy_range@V?$allocator@PEBV?$vector@VHep3Vector@CLHEP@@V?$allocator@VHep3Vector@CLHEP@@@std@@@std@@@std@@@std@@YAXPEAPEBV?$vector@VHep3Vector@CLHEP@@V?$allocator@VHep3Vector@CLHEP@@@std@@@0@QEAPEBV10@AEAV?$allocator@PEBV?$vector@VHep3Vector@CLHEP@@V?$allocator@VHep3Vector@CLHEP@@@std@@@std@@@0@@Z
	??$_Destroy_range@V?$allocator@PEBVG4SmartVoxelHeader@@@std@@@std@@YAXPEAPEBVG4SmartVoxelHeader@@QEAPEBV1@AEAV?$allocator@PEBVG4SmartVoxelHeader@@@0@@Z
	??$_Destroy_range@V?$allocator@U?$pair@HN@std@@@std@@@std@@YAXPEAU?$pair@HN@0@QEAU10@AEAV?$allocator@U?$pair@HN@std@@@0@@Z
	??$_Destroy_range@V?$allocator@U?$pair@PEAVG4VSolid@@VTransform3D@HepGeom@@@std@@@std@@@std@@YAXPEAU?$pair@PEAVG4VSolid@@VTransform3D@HepGeom@@@0@QEAU10@AEAV?$allocator@U?$pair@PEAVG4VSolid@@VTransform3D@HepGeom@@@std@@@0@@Z
	??$_Destroy_range@V?$allocator@U?$pair@V?$Point3D@N@HepGeom@@V12@@std@@@std@@@std@@YAXPEAU?$pair@V?$Point3D@N@HepGeom@@V12@@0@QEAU10@AEAV?$allocator@U?$pair@V?$Point3D@N@HepGeom@@V12@@std@@@0@@Z
	??$_Destroy_range@V?$allocator@U?$pair@VHep2Vector@CLHEP@@H@std@@@std@@@std@@YAXPEAU?$pair@VHep2Vector@CLHEP@@H@0@QEAU10@AEAV?$allocator@U?$pair@VHep2Vector@CLHEP@@H@std@@@0@@Z
	??$_Destroy_range@V?$allocator@UG4MultiUnionSurface@G4MultiUnion@@@std@@@std@@YAXPEAUG4MultiUnionSurface@G4MultiUnion@@QEAU12@AEAV?$allocator@UG4MultiUnionSurface@G4MultiUnion@@@0@@Z
	??$_Destroy_range@V?$allocator@UG4VoxelBox@@@std@@@std@@YAXPEAUG4VoxelBox@@QEAU1@AEAV?$allocator@UG4VoxelBox@@@0@@Z
	??$_Destroy_range@V?$allocator@UG4VoxelInfo@@@std@@@std@@YAXPEAUG4VoxelInfo@@QEAU1@AEAV?$allocator@UG4VoxelInfo@@@0@@Z
	??$_Destroy_range@V?$allocator@UInterpStepper@?$G4InterpolationDriver@VG4DormandPrince745@@@@@std@@@std@@YAXPEAUInterpStepper@?$G4InterpolationDriver@VG4DormandPrince745@@@@QEAU12@AEAV?$allocator@UInterpStepper@?$G4InterpolationDriver@VG4DormandPrince745@@@@@0@@Z
	??$_Destroy_range@V?$allocator@UIntersection@@@std@@@std@@YAXPEAUIntersection@@QEAU1@AEAV?$allocator@UIntersection@@@0@@Z
	??$_Destroy_range@V?$allocator@UZSection@G4ExtrudedSolid@@@std@@@std@@YAXPEAUZSection@G4ExtrudedSolid@@QEAU12@AEAV?$allocator@UZSection@G4ExtrudedSolid@@@0@@Z
	??$_Destroy_range@V?$allocator@Uline@G4ExtrudedSolid@@@std@@@std@@YAXPEAUline@G4ExtrudedSolid@@QEAU12@AEAV?$allocator@Uline@G4ExtrudedSolid@@@0@@Z
	??$_Destroy_range@V?$allocator@Uplane@G4ExtrudedSolid@@@std@@@std@@YAXPEAUplane@G4ExtrudedSolid@@QEAU12@AEAV?$allocator@Uplane@G4ExtrudedSolid@@@0@@Z
	??$_Destroy_range@V?$allocator@V?$Plane3D@N@HepGeom@@@std@@@std@@YAXPEAV?$Plane3D@N@HepGeom@@QEAV12@AEAV?$allocator@V?$Plane3D@N@HepGeom@@@0@@Z
	??$_Destroy_range@V?$allocator@V?$Point3D@N@HepGeom@@@std@@@std@@YAXPEAV?$Point3D@N@HepGeom@@QEAV12@AEAV?$allocator@V?$Point3D@N@HepGeom@@@0@@Z
	??$_Destroy_range@V?$allocator@V?$vector@HV?$allocator@H@std@@@std@@@std@@@std@@YAXPEAV?$vector@HV?$allocator@H@std@@@0@QEAV10@AEAV?$allocator@V?$vector@HV?$allocator@H@std@@@std@@@0@@Z
	??$_Destroy_range@V?$allocator@VG4AssemblyTriplet@@@std@@@std@@YAXPEAVG4AssemblyTriplet@@QEAV1@AEAV?$allocator@VG4AssemblyTriplet@@@0@@Z
	??$_Destroy_range@V?$allocator@VG4NavigationLevel@@@std@@@std@@YAXPEAVG4NavigationLevel@@QEAV1@AEAV?$allocator@VG4NavigationLevel@@@0@@Z
	??$_Destroy_range@V?$allocator@VG4PlacedPolyhedron@@@std@@@std@@YAXPEAVG4PlacedPolyhedron@@QEAV1@AEAV?$allocator@VG4PlacedPolyhedron@@@0@@Z
	??$_Destroy_range@V?$allocator@VG4SmartVoxelStat@@@std@@@std@@YAXPEAVG4SmartVoxelStat@@QEAV1@AEAV?$allocator@VG4SmartVoxelStat@@@0@@Z
	??$_Destroy_range@V?$allocator@VG4String@@@std@@@std@@YAXPEAVG4String@@QEAV1@AEAV?$allocator@VG4String@@@0@@Z
	??$_Destroy_range@V?$allocator@VHep2Vector@CLHEP@@@std@@@std@@YAXPEAVHep2Vector@CLHEP@@QEAV12@AEAV?$allocator@VHep2Vector@CLHEP@@@0@@Z
	??$_Destroy_range@V?$allocator@VHep3Vector@CLHEP@@@std@@@std@@YAXPEAVHep3Vector@CLHEP@@QEAV12@AEAV?$allocator@VHep3Vector@CLHEP@@@0@@Z
	??$_Destroy_range@V?$allocator@VTransform3D@HepGeom@@@std@@@std@@YAXPEAVTransform3D@HepGeom@@QEAV12@AEAV?$allocator@VTransform3D@HepGeom@@@0@@Z
	??$_Destroy_range@V?$allocator@W4EAxis@@@std@@@std@@YAXPEAW4EAxis@@QEAW41@AEAV?$allocator@W4EAxis@@@0@@Z
	??$_Emplace@AEBH@?$_Tree@V?$_Tset_traits@HVG4VoxelComparator@G4Voxelizer@@V?$allocator@H@std@@$0A@@std@@@std@@IEAA?AU?$pair@PEAU?$_Tree_node@HPEAX@std@@_N@1@AEBH@Z
	??$_Emplace_reallocate@AEBH@?$vector@HV?$allocator@H@std@@@std@@QEAAPEAHQEAHAEBH@Z
	??$_Emplace_reallocate@AEBN@?$vector@NV?$allocator@N@std@@@std@@QEAAPEANQEANAEBN@Z
	??$_Emplace_reallocate@AEBQEAH@?$vector@PEAHV?$allocator@PEAH@std@@@std@@QEAAPEAPEAHQEAPEAHAEBQEAH@Z
	??$_Emplace_reallocate@AEBQEAV?$vector@VG4NavigationLevel@@V?$allocator@VG4NavigationLevel@@@std@@@std@@@?$vector@PEAV?$vector@VG4NavigationLevel@@V?$allocator@VG4NavigationLevel@@@std@@@std@@V?$allocator@PEAV?$vector@VG4NavigationLevel@@V?$allocator@VG4NavigationLevel@@@std@@@std@@@2@@std@@QEAAPEAPEAV?$vector@VG4NavigationLevel@@V?$allocator@VG4NavigationLevel@@@std@@@1@QEAPEAV21@AEBQEAV21@@Z
	??$_Emplace_reallocate@AEBQEAVG4AssemblyVolume@@@?$vector@PEAVG4AssemblyVolume@@V?$allocator@PEAVG4AssemblyVolume@@@std@@@std@@QEAAPEAPEAVG4AssemblyVolume@@QEAPEAV2@AEBQEAV2@@Z
	??$_Emplace_reallocate@AEBQEAVG4FieldManager@@@?$vector@PEAVG4FieldManager@@V?$allocator@PEAVG4FieldManager@@@std@@@std@@QEAAPEAPEAVG4FieldManager@@QEAPEAV2@AEBQEAV2@@Z
	??$_Emplace_reallocate@AEBQEAVG4LogicalVolume@@@?$vector@PEAVG4LogicalVolume@@V?$allocator@PEAVG4LogicalVolume@@@std@@@std@@QEAAPEAPEAVG4LogicalVolume@@QEAPEAV2@AEBQEAV2@@Z
	??$_Emplace_reallocate@AEBQEAVG4Material@@@?$vector@PEAVG4Material@@V?$allocator@PEAVG4Material@@@std@@@std@@QEAAPEAPEAVG4Material@@QEAPEAV2@AEBQEAV2@@Z
	??$_Emplace_reallocate@AEBQEAVG4Navigator@@@?$vector@PEAVG4Navigator@@V?$allocator@PEAVG4Navigator@@@std@@@std@@QEAAPEAPEAVG4Navigator@@QEAPEAV2@AEBQEAV2@@Z
	??$_Emplace_reallocate@AEBQEAVG4Region@@@?$vector@PEAVG4Region@@V?$allocator@PEAVG4Region@@@std@@@std@@QEAAPEAPEAVG4Region@@QEAPEAV2@AEBQEAV2@@Z
	??$_Emplace_reallocate@AEBQEAVG4SmartVoxelNode@@@?$vector@PEAVG4SmartVoxelNode@@V?$allocator@PEAVG4SmartVoxelNode@@@std@@@std@@QEAAPEAPEAVG4SmartVoxelNode@@QEAPEAV2@AEBQEAV2@@Z
	??$_Emplace_reallocate@AEBQEAVG4SmartVoxelProxy@@@?$vector@PEAVG4SmartVoxelProxy@@V?$allocator@PEAVG4SmartVoxelProxy@@@std@@@std@@QEAAPEAPEAVG4SmartVoxelProxy@@QEAPEAV2@AEBQEAV2@@Z
	??$_Emplace_reallocate@AEBQEAVG4VFacet@@@?$vector@PEAVG4VFacet@@V?$allocator@PEAVG4VFacet@@@std@@@std@@QEAAPEAPEAVG4VFacet@@QEAPEAV2@AEBQEAV2@@Z
	??$_Emplace_reallocate@AEBQEAVG4VPhysicalVolume@@@?$vector@PEAVG4VPhysicalVolume@@V?$allocator@PEAVG4VPhysicalVolume@@@std@@@std@@QEAAPEAPEAVG4VPhysicalVolume@@QEAPEAV2@AEBQEAV2@@Z
	??$_Emplace_reallocate@AEBQEAVG4VSolid@@@?$vector@PEAVG4VSolid@@V?$allocator@PEAVG4VSolid@@@std@@@std@@QEAAPEAPEAVG4VSolid@@QEAPEAV2@AEBQEAV2@@Z
	??$_Emplace_reallocate@AEBUG4MultiUnionSurface@G4MultiUnion@@@?$vector@UG4MultiUnionSurface@G4MultiUnion@@V?$allocator@UG4MultiUnionSurface@G4MultiUnion@@@std@@@std@@QEAAPEAUG4MultiUnionSurface@G4MultiUnion@@QEAU23@AEBU23@@Z
	??$_Emplace_reallocate@AEBUG4VoxelBox@@@?$vector@UG4VoxelBox@@V?$allocator@UG4VoxelBox@@@std@@@std@@QEAAPEAUG4VoxelBox@@QEAU2@AEBU2@@Z
	??$_Emplace_reallocate@AEBUIntersection@@@?$vector@UIntersection@@V?$allocator@UIntersection@@@std@@@std@@QEAAPEAUIntersection@@QEAU2@AEBU2@@Z
	??$_Emplace_reallocate@AEBV?$vector@HV?$allocator@H@std@@@std@@@?$vector@V?$vector@HV?$allocator@H@std@@@std@@V?$allocator@V?$vector@HV?$allocator@H@std@@@std@@@2@@std@@QEAAPEAV?$vector@HV?$allocator@H@std@@@1@QEAV21@AEBV21@@Z
	??$_Emplace_reallocate@AEBVG4AssemblyTriplet@@@?$vector@VG4AssemblyTriplet@@V?$allocator@VG4AssemblyTriplet@@@std@@@std@@QEAAPEAVG4AssemblyTriplet@@QEAV2@AEBV2@@Z
	??$_Emplace_reallocate@AEBVHep2Vector@CLHEP@@@?$vector@VHep2Vector@CLHEP@@V?$allocator@VHep2Vector@CLHEP@@@std@@@std@@QEAAPEAVHep2Vector@CLHEP@@QEAV23@AEBV23@@Z
	??$_Emplace_reallocate@AEBVHep3Vector@CLHEP@@@?$vector@VHep3Vector@CLHEP@@V?$allocator@VHep3Vector@CLHEP@@@std@@@std@@QEAAPEAVHep3Vector@CLHEP@@QEAV23@AEBV23@@Z
	??$_Emplace_reallocate@AEBVTransform3D@HepGeom@@@?$vector@VTransform3D@HepGeom@@V?$allocator@VTransform3D@HepGeom@@@std@@@std@@QEAAPEAVTransform3D@HepGeom@@QEAV23@AEBV23@@Z
	??$_Emplace_reallocate@H@?$vector@HV?$allocator@H@std@@@std@@QEAAPEAHQEAH$$QEAH@Z
	??$_Emplace_reallocate@N@?$vector@NV?$allocator@N@std@@@std@@QEAAPEANQEAN$$QEAN@Z
	??$_Emplace_reallocate@PEAVG4LogicalBorderSurface@@@?$vector@PEAVG4LogicalBorderSurface@@V?$allocator@PEAVG4LogicalBorderSurface@@@std@@@std@@QEAAPEAPEAVG4LogicalBorderSurface@@QEAPEAV2@$$QEAPEAV2@@Z
	??$_Emplace_reallocate@PEAVG4LogicalSkinSurface@@@?$vector@PEAVG4LogicalSkinSurface@@V?$allocator@PEAVG4LogicalSkinSurface@@@std@@@std@@QEAAPEAPEAVG4LogicalSkinSurface@@QEAPEAV2@$$QEAPEAV2@@Z
	??$_Emplace_reallocate@PEAVG4LogicalVolume@@@?$vector@PEAVG4LogicalVolume@@V?$allocator@PEAVG4LogicalVolume@@@std@@@std@@QEAAPEAPEAVG4LogicalVolume@@QEAPEAV2@$$QEAPEAV2@@Z
	??$_Emplace_reallocate@PEAVG4VPhysicalVolume@@@?$vector@PEAVG4VPhysicalVolume@@V?$allocator@PEAVG4VPhysicalVolume@@@std@@@std@@QEAAPEAPEAVG4VPhysicalVolume@@QEAPEAV2@$$QEAPEAV2@@Z
	??$_Emplace_reallocate@PEAVG4VSolid@@@?$vector@PEAVG4VSolid@@V?$allocator@PEAVG4VSolid@@@std@@@std@@QEAAPEAPEAVG4VSolid@@QEAPEAV2@$$QEAPEAV2@@Z
	??$_Emplace_reallocate@U?$pair@HN@std@@@?$vector@U?$pair@HN@std@@V?$allocator@U?$pair@HN@std@@@2@@std@@QEAAPEAU?$pair@HN@1@QEAU21@$$QEAU21@@Z
	??$_Emplace_reallocate@U?$pair@PEAVG4VSolid@@VTransform3D@HepGeom@@@std@@@?$vector@U?$pair@PEAVG4VSolid@@VTransform3D@HepGeom@@@std@@V?$allocator@U?$pair@PEAVG4VSolid@@VTransform3D@HepGeom@@@std@@@2@@std@@QEAAPEAU?$pair@PEAVG4VSolid@@VTransform3D@HepGeom@@@1@QEAU21@$$QEAU21@@Z
	??$_Emplace_reallocate@U?$pair@V?$Point3D@N@HepGeom@@V12@@std@@@?$vector@U?$pair@V?$Point3D@N@HepGeom@@V12@@std@@V?$allocator@U?$pair@V?$Point3D@N@HepGeom@@V12@@std@@@2@@std@@QEAAPEAU?$pair@V?$Point3D@N@HepGeom@@V12@@1@QEAU21@$$QEAU21@@Z
	??$_Emplace_reallocate@U?$pair@VHep2Vector@CLHEP@@H@std@@@?$vector@U?$pair@VHep2Vector@CLHEP@@H@std@@V?$allocator@U?$pair@VHep2Vector@CLHEP@@H@std@@@2@@std@@QEAAPEAU?$pair@VHep2Vector@CLHEP@@H@1@QEAU21@$$QEAU21@@Z
	??$_Emplace_reallocate@UInterpStepper@?$G4InterpolationDriver@VG4DormandPrince745@@@@@?$vector@UInterpStepper@?$G4InterpolationDriver@VG4DormandPrince745@@@@V?$allocator@UInterpStepper@?$G4InterpolationDriver@VG4DormandPrince745@@@@@std@@@std@@QEAAPEAUInterpStepper@?$G4InterpolationDriver@VG4DormandPrince745@@@@QEAU23@$$QEAU23@@Z
	??$_Emplace_reallocate@UZSection@G4ExtrudedSolid@@@?$vector@UZSection@G4ExtrudedSolid@@V?$allocator@UZSection@G4ExtrudedSolid@@@std@@@std@@QEAAPEAUZSection@G4ExtrudedSolid@@QEAU23@$$QEAU23@@Z
	??$_Emplace_reallocate@V?$Plane3D@N@HepGeom@@@?$vector@V?$Plane3D@N@HepGeom@@V?$allocator@V?$Plane3D@N@HepGeom@@@std@@@std@@QEAAPEAV?$Plane3D@N@HepGeom@@QEAV23@$$QEAV23@@Z
	??$_Emplace_reallocate@VG4PlacedPolyhedron@@@?$vector@VG4PlacedPolyhedron@@V?$allocator@VG4PlacedPolyhedron@@@std@@@std@@QEAAPEAVG4PlacedPolyhedron@@QEAV2@$$QEAV2@@Z
	??$_Emplace_reallocate@VG4SmartVoxelStat@@@?$vector@VG4SmartVoxelStat@@V?$allocator@VG4SmartVoxelStat@@@std@@@std@@QEAAPEAVG4SmartVoxelStat@@QEAV2@$$QEAV2@@Z
	??$_Emplace_reallocate@VG4String@@@?$vector@VG4String@@V?$allocator@VG4String@@@std@@@std@@QEAAPEAVG4String@@QEAV2@$$QEAV2@@Z
	??$_Emplace_reallocate@VHep2Vector@CLHEP@@@?$vector@VHep2Vector@CLHEP@@V?$allocator@VHep2Vector@CLHEP@@@std@@@std@@QEAAPEAVHep2Vector@CLHEP@@QEAV23@$$QEAV23@@Z
	??$_Emplace_reallocate@VHep3Vector@CLHEP@@@?$vector@VHep3Vector@CLHEP@@V?$allocator@VHep3Vector@CLHEP@@@std@@@std@@QEAAPEAVHep3Vector@CLHEP@@QEAV23@$$QEAV23@@Z
	??$_Eqrange@H@?$_Tree@V?$_Tset_traits@HVG4VoxelComparator@G4Voxelizer@@V?$allocator@H@std@@$0A@@std@@@std@@IEBA?AU?$pair@PEAU?$_Tree_node@HPEAX@std@@PEAU12@@1@AEBH@Z
	??$_Erase_head@V?$allocator@U?$_Tree_node@U?$pair@$$CBHH@std@@PEAX@std@@@std@@@?$_Tree_val@U?$_Tree_simple_types@U?$pair@$$CBHH@std@@@std@@@std@@QEAAXAEAV?$allocator@U?$_Tree_node@U?$pair@$$CBHH@std@@PEAX@std@@@1@@Z
	??$_Erase_head@V?$allocator@U?$_Tree_node@U?$pair@$$CBNN@std@@PEAX@std@@@std@@@?$_Tree_val@U?$_Tree_simple_types@U?$pair@$$CBNN@std@@@std@@@std@@QEAAXAEAV?$allocator@U?$_Tree_node@U?$pair@$$CBNN@std@@PEAX@std@@@1@@Z
	??$_Erase_tree@V?$allocator@U?$_Tree_node@HPEAX@std@@@std@@@?$_Tree_val@U?$_Tree_simple_types@H@std@@@std@@QEAAXAEAV?$allocator@U?$_Tree_node@HPEAX@std@@@1@PEAU?$_Tree_node@HPEAX@1@@Z
	??$_Erase_tree@V?$allocator@U?$_Tree_node@NPEAX@std@@@std@@@?$_Tree_val@U?$_Tree_simple_types@N@std@@@std@@QEAAXAEAV?$allocator@U?$_Tree_node@NPEAX@std@@@1@PEAU?$_Tree_node@NPEAX@1@@Z
	??$_Erase_tree@V?$allocator@U?$_Tree_node@PEAVG4VFacet@@PEAX@std@@@std@@@?$_Tree_val@U?$_Tree_simple_types@PEAVG4VFacet@@@std@@@std@@QEAAXAEAV?$allocator@U?$_Tree_node@PEAVG4VFacet@@PEAX@std@@@1@PEAU?$_Tree_node@PEAVG4VFacet@@PEAX@1@@Z
	??$_Erase_tree@V?$allocator@U?$_Tree_node@PEBVG4LogicalVolume@@PEAX@std@@@std@@@?$_Tree_val@U?$_Tree_simple_types@PEBVG4LogicalVolume@@@std@@@std@@QEAAXAEAV?$allocator@U?$_Tree_node@PEBVG4LogicalVolume@@PEAX@std@@@1@PEAU?$_Tree_node@PEBVG4LogicalVolume@@PEAX@1@@Z
	??$_Erase_tree@V?$allocator@U?$_Tree_node@U?$pair@$$CBHH@std@@PEAX@std@@@std@@@?$_Tree_val@U?$_Tree_simple_types@U?$pair@$$CBHH@std@@@std@@@std@@QEAAXAEAV?$allocator@U?$_Tree_node@U?$pair@$$CBHH@std@@PEAX@std@@@1@PEAU?$_Tree_node@U?$pair@$$CBHH@std@@PEAX@1@@Z
	??$_Erase_tree@V?$allocator@U?$_Tree_node@U?$pair@$$CBHV?$map@HHU?$less@H@std@@V?$allocator@U?$pair@$$CBHH@std@@@2@@std@@@std@@PEAX@std@@@std@@@?$_Tree_val@U?$_Tree_simple_types@U?$pair@$$CBHV?$map@HHU?$less@H@std@@V?$allocator@U?$pair@$$CBHH@std@@@2@@std@@@std@@@std@@@std@@QEAAXAEAV?$allocator@U?$_Tree_node@U?$pair@$$CBHV?$map@HHU?$less@H@std@@V?$allocator@U?$pair@$$CBHH@std@@@2@@std@@@std@@PEAX@std@@@1@PEAU?$_Tree_node@U?$pair@$$CBHV?$map@HHU?$less@H@std@@V?$allocator@U?$pair@$$CBHH@std@@@2@@std@@@std@@PEAX@1@@Z
	??$_Erase_tree@V?$allocator@U?$_Tree_node@U?$pair@$$CBHV?$vector@HV?$allocator@H@std@@@std@@@std@@PEAX@std@@@std@@@?$_Tree_val@U?$_Tree_simple_types@U?$pair@$$CBHV?$vector@HV?$allocator@H@std@@@std@@@std@@@std@@@std@@QEAAXAEAV?$allocator@U?$_Tree_node@U?$pair@$$CBHV?$vector@HV?$allocator@H@std@@@std@@@std@@PEAX@std@@@1@PEAU?$_Tree_node@U?$pair@$$CBHV?$vector@HV?$allocator@H@std@@@std@@@std@@PEAX@1@@Z
	??$_Erase_tree@V?$allocator@U?$_Tree_node@U?$pair@$$CBIVTransform3D@HepGeom@@@std@@PEAX@std@@@std@@@?$_Tree_val@U?$_Tree_simple_types@U?$pair@$$CBIVTransform3D@HepGeom@@@std@@@std@@@std@@QEAAXAEAV?$allocator@U?$_Tree_node@U?$pair@$$CBIVTransform3D@HepGeom@@@std@@PEAX@std@@@1@PEAU?$_Tree_node@U?$pair@$$CBIVTransform3D@HepGeom@@@std@@PEAX@1@@Z
	??$_Erase_tree@V?$allocator@U?$_Tree_node@U?$pair@$$CBNN@std@@PEAX@std@@@std@@@?$_Tree_val@U?$_Tree_simple_types@U?$pair@$$CBNN@std@@@std@@@std@@QEAAXAEAV?$allocator@U?$_Tree_node@U?$pair@$$CBNN@std@@PEAX@std@@@1@PEAU?$_Tree_node@U?$pair@$$CBNN@std@@PEAX@1@@Z
	??$_Erase_tree@V?$allocator@U?$_Tree_node@U?$pair@$$CBVG4GeometryCell@@N@std@@PEAX@std@@@std@@@?$_Tree_val@U?$_Tree_simple_types@U?$pair@$$CBVG4GeometryCell@@N@std@@@std@@@std@@QEAAXAEAV?$allocator@U?$_Tree_node@U?$pair@$$CBVG4GeometryCell@@N@std@@PEAX@std@@@1@PEAU?$_Tree_node@U?$pair@$$CBVG4GeometryCell@@N@std@@PEAX@1@@Z
	??$_Erase_tree@V?$allocator@U?$_Tree_node@U?$pair@$$CBVG4GeometryCell@@V?$map@NNU?$less@N@std@@V?$allocator@U?$pair@$$CBNN@std@@@2@@std@@@std@@PEAX@std@@@std@@@?$_Tree_val@U?$_Tree_simple_types@U?$pair@$$CBVG4GeometryCell@@V?$map@NNU?$less@N@std@@V?$allocator@U?$pair@$$CBNN@std@@@2@@std@@@std@@@std@@@std@@QEAAXAEAV?$allocator@U?$_Tree_node@U?$pair@$$CBVG4GeometryCell@@V?$map@NNU?$less@N@std@@V?$allocator@U?$pair@$$CBNN@std@@@2@@std@@@std@@PEAX@std@@@1@PEAU?$_Tree_node@U?$pair@$$CBVG4GeometryCell@@V?$map@NNU?$less@N@std@@V?$allocator@U?$pair@$$CBNN@std@@@2@@std@@@std@@PEAX@1@@Z
	??$_Erase_tree@V?$allocator@U?$_Tree_node@U?$pair@QEAVG4LogicalVolume@@PEAV1@@std@@PEAX@std@@@std@@@?$_Tree_val@U?$_Tree_simple_types@U?$pair@QEAVG4LogicalVolume@@PEAV1@@std@@@std@@@std@@QEAAXAEAV?$allocator@U?$_Tree_node@U?$pair@QEAVG4LogicalVolume@@PEAV1@@std@@PEAX@std@@@1@PEAU?$_Tree_node@U?$pair@QEAVG4LogicalVolume@@PEAV1@@std@@PEAX@1@@Z
	??$_Erase_tree@V?$allocator@U?$_Tree_node@U?$pair@QEAVG4Material@@PEAVG4MaterialCutsCouple@@@std@@PEAX@std@@@std@@@?$_Tree_val@U?$_Tree_simple_types@U?$pair@QEAVG4Material@@PEAVG4MaterialCutsCouple@@@std@@@std@@@std@@QEAAXAEAV?$allocator@U?$_Tree_node@U?$pair@QEAVG4Material@@PEAVG4MaterialCutsCouple@@@std@@PEAX@std@@@1@PEAU?$_Tree_node@U?$pair@QEAVG4Material@@PEAVG4MaterialCutsCouple@@@std@@PEAX@1@@Z
	??$_Erase_tree@V?$allocator@U?$_Tree_node@UG4VertexInfo@@PEAX@std@@@std@@@?$_Tree_val@U?$_Tree_simple_types@UG4VertexInfo@@@std@@@std@@QEAAXAEAV?$allocator@U?$_Tree_node@UG4VertexInfo@@PEAX@std@@@1@PEAU?$_Tree_node@UG4VertexInfo@@PEAX@1@@Z
	??$_Erase_tree_and_orphan@V?$allocator@U?$_Tree_node@NPEAX@std@@@std@@@?$_Tree_val@U?$_Tree_simple_types@N@std@@@std@@QEAAXAEAV?$allocator@U?$_Tree_node@NPEAX@std@@@1@PEAU?$_Tree_node@NPEAX@1@@Z
	??$_Erase_tree_and_orphan@V?$allocator@U?$_Tree_node@U?$pair@$$CBNN@std@@PEAX@std@@@std@@@?$_Tree_val@U?$_Tree_simple_types@U?$pair@$$CBNN@std@@@std@@@std@@QEAAXAEAV?$allocator@U?$_Tree_node@U?$pair@$$CBNN@std@@PEAX@std@@@1@PEAU?$_Tree_node@U?$pair@$$CBNN@std@@PEAX@1@@Z
	??$_Find_unchecked1@PEAPEAVG4LogicalVolume@@PEAV1@@std@@YAPEAPEAVG4LogicalVolume@@PEAPEAV1@QEAPEAV1@AEBQEAV1@U?$integral_constant@_N$0A@@0@@Z
	??$_Find_unchecked1@PEAPEAVG4LogicalVolume@@PEAVG4LogicalCrystalVolume@@@std@@YAPEAPEAVG4LogicalVolume@@PEAPEAV1@QEAPEAV1@AEBQEAVG4LogicalCrystalVolume@@U?$integral_constant@_N$0A@@0@@Z
	??$_Find_unchecked1@PEBQEAVG4LogicalVolume@@PEAV1@@std@@YAPEBQEAVG4LogicalVolume@@PEBQEAV1@QEBQEAV1@AEBQEAV1@U?$integral_constant@_N$0A@@0@@Z
	??$_Find_unchecked1@PEBQEAVG4Material@@PEAV1@@std@@YAPEBQEAVG4Material@@PEBQEAV1@QEBQEAV1@AEBQEAV1@U?$integral_constant@_N$0A@@0@@Z
	??$_Find_unchecked1@PEBQEAVG4Navigator@@PEAV1@@std@@YAPEBQEAVG4Navigator@@PEBQEAV1@QEBQEAV1@AEBQEAV1@U?$integral_constant@_N$0A@@0@@Z
	??$_Find_unchecked1@PEBQEAVG4VPhysicalVolume@@PEAV1@@std@@YAPEBQEAVG4VPhysicalVolume@@PEBQEAV1@QEBQEAV1@AEBQEAV1@U?$integral_constant@_N$0A@@0@@Z
	??$_Find_unchecked@PEAPEAVG4LogicalVolume@@PEAV1@@std@@YAPEAPEAVG4LogicalVolume@@QEAPEAV1@0AEBQEAV1@@Z
	??$_Find_unchecked@PEAPEAVG4LogicalVolume@@PEAVG4LogicalCrystalVolume@@@std@@YAPEAPEAVG4LogicalVolume@@QEAPEAV1@0AEBQEAVG4LogicalCrystalVolume@@@Z
	??$_Find_unchecked@PEBQEAVG4LogicalVolume@@PEAV1@@std@@YAPEBQEAVG4LogicalVolume@@QEBQEAV1@0AEBQEAV1@@Z
	??$_Find_unchecked@PEBQEAVG4Material@@PEAV1@@std@@YAPEBQEAVG4Material@@QEBQEAV1@0AEBQEAV1@@Z
	??$_Find_unchecked@PEBQEAVG4Navigator@@PEAV1@@std@@YAPEBQEAVG4Navigator@@QEBQEAV1@0AEBQEAV1@@Z
	??$_Find_unchecked@PEBQEAVG4VPhysicalVolume@@PEAV1@@std@@YAPEBQEAVG4VPhysicalVolume@@QEBQEAV1@0AEBQEAV1@@Z
	??$_Getvals@_W@?$time_get@DV?$istreambuf_iterator@DU?$char_traits@D@std@@@std@@@std@@IEAAX_WAEBV_Locinfo@1@@Z
	??$_Getvals@_W@?$time_get@_WV?$istreambuf_iterator@_WU?$char_traits@_W@std@@@std@@@std@@IEAAX_WAEBV_Locinfo@1@@Z
	??$_Guess_median_unchecked@PEAHU?$less@X@std@@@std@@YAXPEAH00U?$less@X@0@@Z
	??$_Guess_median_unchecked@PEANU?$less@X@std@@@std@@YAXPEAN00U?$less@X@0@@Z
	??$_Guess_median_unchecked@PEAU?$pair@HN@std@@P6A_NAEBU12@0@Z@std@@YAXPEAU?$pair@HN@0@00P6A_NAEBU10@1@Z@Z
	??$_Guess_median_unchecked@PEAUIntersection@@P6A_NAEBU1@0@Z@std@@YAXPEAUIntersection@@00P6A_NAEBU1@1@Z@Z
	??$_Idl_distance@PEADPEAD@std@@YA_JAEBQEAD0@Z
	??$_Idl_distance@PEAPEAV?$vector@HV?$allocator@H@std@@@std@@PEAPEAV12@@std@@YA_JAEBQEAPEAV?$vector@HV?$allocator@H@std@@@0@0@Z
	??$_Insert_string@DU?$char_traits@D@std@@_K@std@@YAAEAV?$basic_ostream@DU?$char_traits@D@std@@@0@AEAV10@QEBD_K@Z
	??$_Insertion_sort_unchecked@PEAHU?$less@X@std@@@std@@YAPEAHPEAHQEAHU?$less@X@0@@Z
	??$_Insertion_sort_unchecked@PEANU?$less@X@std@@@std@@YAPEANPEANQEANU?$less@X@0@@Z
	??$_Insertion_sort_unchecked@PEAU?$pair@HN@std@@P6A_NAEBU12@0@Z@std@@YAPEAU?$pair@HN@0@PEAU10@QEAU10@P6A_NAEBU10@2@Z@Z
	??$_Insertion_sort_unchecked@PEAUIntersection@@P6A_NAEBU1@0@Z@std@@YAPEAUIntersection@@PEAU1@QEAU1@P6A_NAEBU1@2@Z@Z
	??$_Make_heap_unchecked@PEAHU?$less@X@std@@@std@@YAXPEAH0U?$less@X@0@@Z
	??$_Make_heap_unchecked@PEANU?$less@X@std@@@std@@YAXPEAN0U?$less@X@0@@Z
	??$_Make_heap_unchecked@PEAU?$pair@HN@std@@P6A_NAEBU12@0@Z@std@@YAXPEAU?$pair@HN@0@0P6A_NAEBU10@1@Z@Z
	??$_Make_heap_unchecked@PEAUIntersection@@P6A_NAEBU1@0@Z@std@@YAXPEAUIntersection@@0P6A_NAEBU1@1@Z@Z
	??$_Maklocstr@D@std@@YAPEADPEBDPEADAEBU_Cvtvec@@@Z
	??$_Med3_unchecked@PEAHU?$less@X@std@@@std@@YAXPEAH00U?$less@X@0@@Z
	??$_Med3_unchecked@PEANU?$less@X@std@@@std@@YAXPEAN00U?$less@X@0@@Z
	??$_Med3_unchecked@PEAU?$pair@HN@std@@P6A_NAEBU12@0@Z@std@@YAXPEAU?$pair@HN@0@00P6A_NAEBU10@1@Z@Z
	??$_Med3_unchecked@PEAUIntersection@@P6A_NAEBU1@0@Z@std@@YAXPEAUIntersection@@00P6A_NAEBU1@1@Z@Z
	??$_Move_backward_unchecked@PEAHPEAH@std@@YAPEAHPEAH00@Z
	??$_Move_backward_unchecked@PEANPEAN@std@@YAPEANPEAN00@Z
	??$_Move_backward_unchecked@PEAU?$pair@HN@std@@PEAU12@@std@@YAPEAU?$pair@HN@0@PEAU10@00@Z
	??$_Move_backward_unchecked@PEAUIntersection@@PEAU1@@std@@YAPEAUIntersection@@PEAU1@00@Z
	??$_Move_backward_unchecked@PEAVG4SmartVoxelStat@@PEAV1@@std@@YAPEAVG4SmartVoxelStat@@PEAV1@00@Z
	??$_Move_unchecked@PEAIPEAI@std@@YAPEAIPEAI00@Z
	??$_Move_unchecked@PEAPEAVG4AssemblyVolume@@PEAPEAV1@@std@@YAPEAPEAVG4AssemblyVolume@@PEAPEAV1@00@Z
	??$_Move_unchecked@PEAPEAVG4FieldManager@@PEAPEAV1@@std@@YAPEAPEAVG4FieldManager@@PEAPEAV1@00@Z
	??$_Move_unchecked@PEAPEAVG4LogicalVolume@@PEAPEAV1@@std@@YAPEAPEAVG4LogicalVolume@@PEAPEAV1@00@Z
	??$_Move_unchecked@PEAPEAVG4Navigator@@PEAPEAV1@@std@@YAPEAPEAVG4Navigator@@PEAPEAV1@00@Z
	??$_Move_unchecked@PEAPEAVG4Region@@PEAPEAV1@@std@@YAPEAPEAVG4Region@@PEAPEAV1@00@Z
	??$_Move_unchecked@PEAPEAVG4SmartVoxelProxy@@PEAPEAV1@@std@@YAPEAPEAVG4SmartVoxelProxy@@PEAPEAV1@00@Z
	??$_Move_unchecked@PEAPEAVG4VPhysicalVolume@@PEAPEAV1@@std@@YAPEAPEAVG4VPhysicalVolume@@PEAPEAV1@00@Z
	??$_Move_unchecked@PEAPEAVG4VSolid@@PEAPEAV1@@std@@YAPEAPEAVG4VSolid@@PEAPEAV1@00@Z
	??$_Move_unchecked@PEAU?$pair@VHep2Vector@CLHEP@@H@std@@PEAU12@@std@@YAPEAU?$pair@VHep2Vector@CLHEP@@H@0@PEAU10@00@Z
	??$_Move_unchecked@PEAUIntersection@@PEAU1@@std@@YAPEAUIntersection@@PEAU1@00@Z
	??$_Partition_by_median_guess_unchecked@PEAHU?$less@X@std@@@std@@YA?AU?$pair@PEAHPEAH@0@PEAH0U?$less@X@0@@Z
	??$_Partition_by_median_guess_unchecked@PEANU?$less@X@std@@@std@@YA?AU?$pair@PEANPEAN@0@PEAN0U?$less@X@0@@Z
	??$_Partition_by_median_guess_unchecked@PEAU?$pair@HN@std@@P6A_NAEBU12@0@Z@std@@YA?AU?$pair@PEAU?$pair@HN@std@@PEAU12@@0@PEAU?$pair@HN@0@0P6A_NAEBU20@1@Z@Z
	??$_Partition_by_median_guess_unchecked@PEAUIntersection@@P6A_NAEBU1@0@Z@std@@YA?AU?$pair@PEAUIntersection@@PEAU1@@0@PEAUIntersection@@0P6A_NAEBU2@1@Z@Z
	??$_Pocca@V?$allocator@D@std@@@std@@YAXAEAV?$allocator@D@0@AEBV10@@Z
	??$_Pocca@V?$allocator@H@std@@@std@@YAXAEAV?$allocator@H@0@AEBV10@@Z
	??$_Pocca@V?$allocator@N@std@@@std@@YAXAEAV?$allocator@N@0@AEBV10@@Z
	??$_Pocca@V?$allocator@PEAVG4SmartVoxelProxy@@@std@@@std@@YAXAEAV?$allocator@PEAVG4SmartVoxelProxy@@@0@AEBV10@@Z
	??$_Pocca@V?$allocator@U?$_Tree_node@NPEAX@std@@@std@@@std@@YAXAEAV?$allocator@U?$_Tree_node@NPEAX@std@@@0@AEBV10@@Z
	??$_Pocca@V?$allocator@U?$_Tree_node@U?$pair@$$CBNN@std@@PEAX@std@@@std@@@std@@YAXAEAV?$allocator@U?$_Tree_node@U?$pair@$$CBNN@std@@PEAX@std@@@0@AEBV10@@Z
	??$_Pocca@V?$allocator@UZSection@G4ExtrudedSolid@@@std@@@std@@YAXAEAV?$allocator@UZSection@G4ExtrudedSolid@@@0@AEBV10@@Z
	??$_Pocca@V?$allocator@Uline@G4ExtrudedSolid@@@std@@@std@@YAXAEAV?$allocator@Uline@G4ExtrudedSolid@@@0@AEBV10@@Z
	??$_Pocca@V?$allocator@Uplane@G4ExtrudedSolid@@@std@@@std@@YAXAEAV?$allocator@Uplane@G4ExtrudedSolid@@@0@AEBV10@@Z
	??$_Pocca@V?$allocator@V?$vector@HV?$allocator@H@std@@@std@@@std@@@std@@YAXAEAV?$allocator@V?$vector@HV?$allocator@H@std@@@std@@@0@AEBV10@@Z
	??$_Pocca@V?$allocator@VHep2Vector@CLHEP@@@std@@@std@@YAXAEAV?$allocator@VHep2Vector@CLHEP@@@0@AEBV10@@Z
	??$_Pocca@V?$allocator@VHep3Vector@CLHEP@@@std@@@std@@YAXAEAV?$allocator@VHep3Vector@CLHEP@@@0@AEBV10@@Z
	??$_Pocma@V?$allocator@D@std@@@std@@YAXAEAV?$allocator@D@0@0@Z
	??$_Pocs@V?$allocator@H@std@@@std@@YAXAEAV?$allocator@H@0@0@Z
	??$_Pocs@V?$allocator@VHep3Vector@CLHEP@@@std@@@std@@YAXAEAV?$allocator@VHep3Vector@CLHEP@@@0@0@Z
	??$_Pop_heap_hole_by_index@PEAHHU?$less@X@std@@@std@@YAXPEAH_J1$$QEAHU?$less@X@0@@Z
	??$_Pop_heap_hole_by_index@PEANNU?$less@X@std@@@std@@YAXPEAN_J1$$QEANU?$less@X@0@@Z
	??$_Pop_heap_hole_by_index@PEAU?$pair@HN@std@@U12@P6A_NAEBU12@0@Z@std@@YAXPEAU?$pair@HN@0@_J1$$QEAU10@P6A_NAEBU10@3@Z@Z
	??$_Pop_heap_hole_by_index@PEAUIntersection@@U1@P6A_NAEBU1@0@Z@std@@YAXPEAUIntersection@@_J1$$QEAU1@P6A_NAEBU1@3@Z@Z
	??$_Pop_heap_hole_unchecked@PEAHHU?$less@X@std@@@std@@YAXPEAH00$$QEAHU?$less@X@0@@Z
	??$_Pop_heap_hole_unchecked@PEANNU?$less@X@std@@@std@@YAXPEAN00$$QEANU?$less@X@0@@Z
	??$_Pop_heap_hole_unchecked@PEAU?$pair@HN@std@@U12@P6A_NAEBU12@0@Z@std@@YAXPEAU?$pair@HN@0@00$$QEAU10@P6A_NAEBU10@2@Z@Z
	??$_Pop_heap_hole_unchecked@PEAUIntersection@@U1@P6A_NAEBU1@0@Z@std@@YAXPEAUIntersection@@00$$QEAU1@P6A_NAEBU1@2@Z@Z
	??$_Pop_heap_unchecked@PEAHU?$less@X@std@@@std@@YAXPEAH0U?$less@X@0@@Z
	??$_Pop_heap_unchecked@PEANU?$less@X@std@@@std@@YAXPEAN0U?$less@X@0@@Z
	??$_Pop_heap_unchecked@PEAU?$pair@HN@std@@P6A_NAEBU12@0@Z@std@@YAXPEAU?$pair@HN@0@0P6A_NAEBU10@1@Z@Z
	??$_Pop_heap_unchecked@PEAUIntersection@@P6A_NAEBU1@0@Z@std@@YAXPEAUIntersection@@0P6A_NAEBU1@1@Z@Z
	??$_Push_heap_by_index@PEAHHU?$less@X@std@@@std@@YAXPEAH_J1$$QEAHU?$less@X@0@@Z
	??$_Push_heap_by_index@PEANNU?$less@X@std@@@std@@YAXPEAN_J1$$QEANU?$less@X@0@@Z
	??$_Push_heap_by_index@PEAU?$pair@HN@std@@U12@P6A_NAEBU12@0@Z@std@@YAXPEAU?$pair@HN@0@_J1$$QEAU10@P6A_NAEBU10@3@Z@Z
	??$_Push_heap_by_index@PEAUIntersection@@U1@P6A_NAEBU1@0@Z@std@@YAXPEAUIntersection@@_J1$$QEAU1@P6A_NAEBU1@3@Z@Z
	??$_Reallocate_grow_by@V<lambda_65e615be2a453ca0576c979606f46740>@@PEBD_K@?$basic_string@DU?$char_traits@D@std@@V?$allocator@D@2@@std@@AEAAAEAV01@_KV<lambda_65e615be2a453ca0576c979606f46740>@@PEBD_K@Z
	??$_Reallocate_grow_by@V<lambda_f3a66ab6a0570788f31503db83886f49>@@_KPEBD_K@?$basic_string@DU?$char_traits@D@std@@V?$allocator@D@2@@std@@AEAAAEAV01@_KV<lambda_f3a66ab6a0570788f31503db83886f49>@@_KPEBD2@Z
	??$_Refancy@PEAH$0A@@std@@YAPEAHPEAH@Z
	??$_Refancy@PEAN$0A@@std@@YAPEANPEAN@Z
	??$_Refancy@PEAPEAVG4LogicalVolume@@$0A@@std@@YAPEAPEAVG4LogicalVolume@@PEAPEAV1@@Z
	??$_Refancy@PEAPEAVG4Material@@$0A@@std@@YAPEAPEAVG4Material@@PEAPEAV1@@Z
	??$_Refancy@PEAPEAVG4Navigator@@$0A@@std@@YAPEAPEAVG4Navigator@@PEAPEAV1@@Z
	??$_Refancy@PEAPEAVG4SmartVoxelProxy@@$0A@@std@@YAPEAPEAVG4SmartVoxelProxy@@PEAPEAV1@@Z
	??$_Refancy@PEAPEAVG4VPhysicalVolume@@$0A@@std@@YAPEAPEAVG4VPhysicalVolume@@PEAPEAV1@@Z
	??$_Refancy@PEAUInterpStepper@?$G4InterpolationDriver@VG4DormandPrince745@@@@$0A@@std@@YAPEAUInterpStepper@?$G4InterpolationDriver@VG4DormandPrince745@@@@PEAU12@@Z
	??$_Refancy@PEAUIntersection@@$0A@@std@@YAPEAUIntersection@@PEAU1@@Z
	??$_Refancy@PEAUline@G4ExtrudedSolid@@$0A@@std@@YAPEAUline@G4ExtrudedSolid@@PEAU12@@Z
	??$_Refancy@PEAUplane@G4ExtrudedSolid@@$0A@@std@@YAPEAUplane@G4ExtrudedSolid@@PEAU12@@Z
	??$_Resize_reallocate@PEAVG4RegularNavigationHelper@@@?$vector@PEAVG4RegularNavigationHelper@@V?$allocator@PEAVG4RegularNavigationHelper@@@std@@@std@@AEAAX_KAEBQEAVG4RegularNavigationHelper@@@Z
	??$_Resize_reallocate@PEAVHep3Vector@CLHEP@@@?$vector@PEAVHep3Vector@CLHEP@@V?$allocator@PEAVHep3Vector@CLHEP@@@std@@@std@@AEAAX_KAEBQEAVHep3Vector@CLHEP@@@Z
	??$_Resize_reallocate@PEAVHepRotation@CLHEP@@@?$vector@PEAVHepRotation@CLHEP@@V?$allocator@PEAVHepRotation@CLHEP@@@std@@@std@@AEAAX_KAEBQEAVHepRotation@CLHEP@@@Z
	??$_Resize_reallocate@PEAVmutex@std@@@?$vector@PEAVmutex@std@@V?$allocator@PEAVmutex@std@@@2@@std@@AEAAX_KAEBQEAVmutex@1@@Z
	??$_Resize_reallocate@U_Value_init_tag@std@@@?$vector@HV?$allocator@H@std@@@std@@AEAAX_KAEBU_Value_init_tag@1@@Z
	??$_Resize_reallocate@U_Value_init_tag@std@@@?$vector@NV?$allocator@N@std@@@std@@AEAAX_KAEBU_Value_init_tag@1@@Z
	??$_Resize_reallocate@U_Value_init_tag@std@@@?$vector@PEBV?$vector@VHep3Vector@CLHEP@@V?$allocator@VHep3Vector@CLHEP@@@std@@@std@@V?$allocator@PEBV?$vector@VHep3Vector@CLHEP@@V?$allocator@VHep3Vector@CLHEP@@@std@@@std@@@2@@std@@AEAAX_KAEBU_Value_init_tag@1@@Z
	??$_Resize_reallocate@U_Value_init_tag@std@@@?$vector@U?$pair@PEAVG4VSolid@@VTransform3D@HepGeom@@@std@@V?$allocator@U?$pair@PEAVG4VSolid@@VTransform3D@HepGeom@@@std@@@2@@std@@AEAAX_KAEBU_Value_init_tag@1@@Z
	??$_Resize_reallocate@U_Value_init_tag@std@@@?$vector@U?$pair@V?$Point3D@N@HepGeom@@V12@@std@@V?$allocator@U?$pair@V?$Point3D@N@HepGeom@@V12@@std@@@2@@std@@AEAAX_KAEBU_Value_init_tag@1@@Z
	??$_Resize_reallocate@U_Value_init_tag@std@@@?$vector@UG4VoxelBox@@V?$allocator@UG4VoxelBox@@@std@@@std@@AEAAX_KAEBU_Value_init_tag@1@@Z
	??$_Resize_reallocate@U_Value_init_tag@std@@@?$vector@Uline@G4ExtrudedSolid@@V?$allocator@Uline@G4ExtrudedSolid@@@std@@@std@@AEAAX_KAEBU_Value_init_tag@1@@Z
	??$_Resize_reallocate@U_Value_init_tag@std@@@?$vector@Uplane@G4ExtrudedSolid@@V?$allocator@Uplane@G4ExtrudedSolid@@@std@@@std@@AEAAX_KAEBU_Value_init_tag@1@@Z
	??$_Resize_reallocate@U_Value_init_tag@std@@@?$vector@VG4NavigationLevel@@V?$allocator@VG4NavigationLevel@@@std@@@std@@AEAAX_KAEBU_Value_init_tag@1@@Z
	??$_Resize_reallocate@U_Value_init_tag@std@@@?$vector@VHep2Vector@CLHEP@@V?$allocator@VHep2Vector@CLHEP@@@std@@@std@@AEAAX_KAEBU_Value_init_tag@1@@Z
	??$_Resize_reallocate@U_Value_init_tag@std@@@?$vector@VHep3Vector@CLHEP@@V?$allocator@VHep3Vector@CLHEP@@@std@@@std@@AEAAX_KAEBU_Value_init_tag@1@@Z
	??$_Sort_heap_unchecked@PEAHU?$less@X@std@@@std@@YAXPEAH0U?$less@X@0@@Z
	??$_Sort_heap_unchecked@PEANU?$less@X@std@@@std@@YAXPEAN0U?$less@X@0@@Z
	??$_Sort_heap_unchecked@PEAU?$pair@HN@std@@P6A_NAEBU12@0@Z@std@@YAXPEAU?$pair@HN@0@0P6A_NAEBU10@1@Z@Z
	??$_Sort_heap_unchecked@PEAUIntersection@@P6A_NAEBU1@0@Z@std@@YAXPEAUIntersection@@0P6A_NAEBU1@1@Z@Z
	??$_Sort_unchecked@PEAHU?$less@X@std@@@std@@YAXPEAH0_JU?$less@X@0@@Z
	??$_Sort_unchecked@PEANU?$less@X@std@@@std@@YAXPEAN0_JU?$less@X@0@@Z
	??$_Sort_unchecked@PEAU?$pair@HN@std@@P6A_NAEBU12@0@Z@std@@YAXPEAU?$pair@HN@0@0_JP6A_NAEBU10@2@Z@Z
	??$_Sort_unchecked@PEAUIntersection@@P6A_NAEBU1@0@Z@std@@YAXPEAUIntersection@@0_JP6A_NAEBU1@2@Z@Z
	??$_Swap_adl@H@std@@YAXAEAH0@Z
	??$_Swap_adl@N@std@@YAXAEAN0@Z
	??$_Swap_adl@PEAH@std@@YAXAEAPEAH0@Z
	??$_Swap_adl@PEAVHep3Vector@CLHEP@@@std@@YAXAEAPEAVHep3Vector@CLHEP@@0@Z
	??$_Unfancy_maybe_null@I@std@@YAPEAIPEAI@Z
	??$_Uninitialized_copy@PEAHV?$allocator@H@std@@@std@@YAPEAHQEAH0PEAHAEAV?$allocator@H@0@@Z
	??$_Uninitialized_copy@PEANV?$allocator@N@std@@@std@@YAPEANQEAN0PEANAEAV?$allocator@N@0@@Z
	??$_Uninitialized_copy@PEAUZSection@G4ExtrudedSolid@@V?$allocator@UZSection@G4ExtrudedSolid@@@std@@@std@@YAPEAUZSection@G4ExtrudedSolid@@QEAU12@0PEAU12@AEAV?$allocator@UZSection@G4ExtrudedSolid@@@0@@Z
	??$_Uninitialized_copy@PEAUline@G4ExtrudedSolid@@V?$allocator@Uline@G4ExtrudedSolid@@@std@@@std@@YAPEAUline@G4ExtrudedSolid@@QEAU12@0PEAU12@AEAV?$allocator@Uline@G4ExtrudedSolid@@@0@@Z
	??$_Uninitialized_copy@PEAUplane@G4ExtrudedSolid@@V?$allocator@Uplane@G4ExtrudedSolid@@@std@@@std@@YAPEAUplane@G4ExtrudedSolid@@QEAU12@0PEAU12@AEAV?$allocator@Uplane@G4ExtrudedSolid@@@0@@Z
	??$_Uninitialized_copy@PEAV?$vector@HV?$allocator@H@std@@@std@@V?$allocator@V?$vector@HV?$allocator@H@std@@@std@@@2@@std@@YAPEAV?$vector@HV?$allocator@H@std@@@0@QEAV10@0PEAV10@AEAV?$allocator@V?$vector@HV?$allocator@H@std@@@std@@@0@@Z
	??$_Uninitialized_copy@PEAVG4AssemblyTriplet@@V?$allocator@VG4AssemblyTriplet@@@std@@@std@@YAPEAVG4AssemblyTriplet@@QEAV1@0PEAV1@AEAV?$allocator@VG4AssemblyTriplet@@@0@@Z
	??$_Uninitialized_copy@PEAVG4NavigationLevel@@V?$allocator@VG4NavigationLevel@@@std@@@std@@YAPEAVG4NavigationLevel@@QEAV1@0PEAV1@AEAV?$allocator@VG4NavigationLevel@@@0@@Z
	??$_Uninitialized_copy@PEAVG4PlacedPolyhedron@@V?$allocator@VG4PlacedPolyhedron@@@std@@@std@@YAPEAVG4PlacedPolyhedron@@QEAV1@0PEAV1@AEAV?$allocator@VG4PlacedPolyhedron@@@0@@Z
	??$_Uninitialized_copy@PEAVHep2Vector@CLHEP@@V?$allocator@VHep2Vector@CLHEP@@@std@@@std@@YAPEAVHep2Vector@CLHEP@@QEAV12@0PEAV12@AEAV?$allocator@VHep2Vector@CLHEP@@@0@@Z
	??$_Uninitialized_copy@PEAVHep3Vector@CLHEP@@V?$allocator@VHep3Vector@CLHEP@@@std@@@std@@YAPEAVHep3Vector@CLHEP@@QEAV12@0PEAV12@AEAV?$allocator@VHep3Vector@CLHEP@@@0@@Z
	??$_Uninitialized_fill_n@V?$allocator@H@std@@@std@@YAPEAHPEAH_KAEBHAEAV?$allocator@H@0@@Z
	??$_Uninitialized_fill_n@V?$allocator@I@std@@@std@@YAPEAIPEAI_KAEBIAEAV?$allocator@I@0@@Z
	??$_Uninitialized_fill_n@V?$allocator@N@std@@@std@@YAPEANPEAN_KAEBNAEAV?$allocator@N@0@@Z
	??$_Uninitialized_fill_n@V?$allocator@PEAVG4RegularNavigationHelper@@@std@@@std@@YAPEAPEAVG4RegularNavigationHelper@@PEAPEAV1@_KAEBQEAV1@AEAV?$allocator@PEAVG4RegularNavigationHelper@@@0@@Z
	??$_Uninitialized_fill_n@V?$allocator@PEAVG4SmartVoxelHeader@@@std@@@std@@YAPEAPEAVG4SmartVoxelHeader@@PEAPEAV1@_KAEBQEAV1@AEAV?$allocator@PEAVG4SmartVoxelHeader@@@0@@Z
	??$_Uninitialized_fill_n@V?$allocator@PEAVG4VPhysicalVolume@@@std@@@std@@YAPEAPEAVG4VPhysicalVolume@@PEAPEAV1@_KAEBQEAV1@AEAV?$allocator@PEAVG4VPhysicalVolume@@@0@@Z
	??$_Uninitialized_fill_n@V?$allocator@PEAVHep3Vector@CLHEP@@@std@@@std@@YAPEAPEAVHep3Vector@CLHEP@@PEAPEAV12@_KAEBQEAV12@AEAV?$allocator@PEAVHep3Vector@CLHEP@@@0@@Z
	??$_Uninitialized_fill_n@V?$allocator@PEAVHepRotation@CLHEP@@@std@@@std@@YAPEAPEAVHepRotation@CLHEP@@PEAPEAV12@_KAEBQEAV12@AEAV?$allocator@PEAVHepRotation@CLHEP@@@0@@Z
	??$_Uninitialized_fill_n@V?$allocator@PEAVmutex@std@@@std@@@std@@YAPEAPEAVmutex@0@PEAPEAV10@_KAEBQEAV10@AEAV?$allocator@PEAVmutex@std@@@0@@Z
	??$_Uninitialized_fill_n@V?$allocator@PEBVG4SmartVoxelHeader@@@std@@@std@@YAPEAPEBVG4SmartVoxelHeader@@PEAPEBV1@_KAEBQEBV1@AEAV?$allocator@PEBVG4SmartVoxelHeader@@@0@@Z
	??$_Uninitialized_fill_n@V?$allocator@W4EAxis@@@std@@@std@@YAPEAW4EAxis@@PEAW41@_KAEBW41@AEAV?$allocator@W4EAxis@@@0@@Z
	??$_Uninitialized_move@PEAHV?$allocator@H@std@@@std@@YAPEAHQEAH0PEAHAEAV?$allocator@H@0@@Z
	??$_Uninitialized_move@PEANV?$allocator@N@std@@@std@@YAPEANQEAN0PEANAEAV?$allocator@N@0@@Z
	??$_Uninitialized_move@PEAPEAHV?$allocator@PEAH@std@@@std@@YAPEAPEAHQEAPEAH0PEAPEAHAEAV?$allocator@PEAH@0@@Z
	??$_Uninitialized_move@PEAPEAV?$vector@VG4NavigationLevel@@V?$allocator@VG4NavigationLevel@@@std@@@std@@V?$allocator@PEAV?$vector@VG4NavigationLevel@@V?$allocator@VG4NavigationLevel@@@std@@@std@@@2@@std@@YAPEAPEAV?$vector@VG4NavigationLevel@@V?$allocator@VG4NavigationLevel@@@std@@@0@QEAPEAV10@0PEAPEAV10@AEAV?$allocator@PEAV?$vector@VG4NavigationLevel@@V?$allocator@VG4NavigationLevel@@@std@@@std@@@0@@Z
	??$_Uninitialized_move@PEAPEAVG4AssemblyVolume@@V?$allocator@PEAVG4AssemblyVolume@@@std@@@std@@YAPEAPEAVG4AssemblyVolume@@QEAPEAV1@0PEAPEAV1@AEAV?$allocator@PEAVG4AssemblyVolume@@@0@@Z
	??$_Uninitialized_move@PEAPEAVG4FieldManager@@V?$allocator@PEAVG4FieldManager@@@std@@@std@@YAPEAPEAVG4FieldManager@@QEAPEAV1@0PEAPEAV1@AEAV?$allocator@PEAVG4FieldManager@@@0@@Z
	??$_Uninitialized_move@PEAPEAVG4LogicalBorderSurface@@V?$allocator@PEAVG4LogicalBorderSurface@@@std@@@std@@YAPEAPEAVG4LogicalBorderSurface@@QEAPEAV1@0PEAPEAV1@AEAV?$allocator@PEAVG4LogicalBorderSurface@@@0@@Z
	??$_Uninitialized_move@PEAPEAVG4LogicalSkinSurface@@V?$allocator@PEAVG4LogicalSkinSurface@@@std@@@std@@YAPEAPEAVG4LogicalSkinSurface@@QEAPEAV1@0PEAPEAV1@AEAV?$allocator@PEAVG4LogicalSkinSurface@@@0@@Z
	??$_Uninitialized_move@PEAPEAVG4LogicalVolume@@V?$allocator@PEAVG4LogicalVolume@@@std@@@std@@YAPEAPEAVG4LogicalVolume@@QEAPEAV1@0PEAPEAV1@AEAV?$allocator@PEAVG4LogicalVolume@@@0@@Z
	??$_Uninitialized_move@PEAPEAVG4Material@@V?$allocator@PEAVG4Material@@@std@@@std@@YAPEAPEAVG4Material@@QEAPEAV1@0PEAPEAV1@AEAV?$allocator@PEAVG4Material@@@0@@Z
	??$_Uninitialized_move@PEAPEAVG4Navigator@@V?$allocator@PEAVG4Navigator@@@std@@@std@@YAPEAPEAVG4Navigator@@QEAPEAV1@0PEAPEAV1@AEAV?$allocator@PEAVG4Navigator@@@0@@Z
	??$_Uninitialized_move@PEAPEAVG4Region@@V?$allocator@PEAVG4Region@@@std@@@std@@YAPEAPEAVG4Region@@QEAPEAV1@0PEAPEAV1@AEAV?$allocator@PEAVG4Region@@@0@@Z
	??$_Uninitialized_move@PEAPEAVG4RegularNavigationHelper@@V?$allocator@PEAVG4RegularNavigationHelper@@@std@@@std@@YAPEAPEAVG4RegularNavigationHelper@@QEAPEAV1@0PEAPEAV1@AEAV?$allocator@PEAVG4RegularNavigationHelper@@@0@@Z
	??$_Uninitialized_move@PEAPEAVG4SmartVoxelNode@@V?$allocator@PEAVG4SmartVoxelNode@@@std@@@std@@YAPEAPEAVG4SmartVoxelNode@@QEAPEAV1@0PEAPEAV1@AEAV?$allocator@PEAVG4SmartVoxelNode@@@0@@Z
	??$_Uninitialized_move@PEAPEAVG4SmartVoxelProxy@@V?$allocator@PEAVG4SmartVoxelProxy@@@std@@@std@@YAPEAPEAVG4SmartVoxelProxy@@QEAPEAV1@0PEAPEAV1@AEAV?$allocator@PEAVG4SmartVoxelProxy@@@0@@Z
	??$_Uninitialized_move@PEAPEAVG4VFacet@@V?$allocator@PEAVG4VFacet@@@std@@@std@@YAPEAPEAVG4VFacet@@QEAPEAV1@0PEAPEAV1@AEAV?$allocator@PEAVG4VFacet@@@0@@Z
	??$_Uninitialized_move@PEAPEAVG4VPhysicalVolume@@V?$allocator@PEAVG4VPhysicalVolume@@@std@@@std@@YAPEAPEAVG4VPhysicalVolume@@QEAPEAV1@0PEAPEAV1@AEAV?$allocator@PEAVG4VPhysicalVolume@@@0@@Z
	??$_Uninitialized_move@PEAPEAVG4VSolid@@V?$allocator@PEAVG4VSolid@@@std@@@std@@YAPEAPEAVG4VSolid@@QEAPEAV1@0PEAPEAV1@AEAV?$allocator@PEAVG4VSolid@@@0@@Z
	??$_Uninitialized_move@PEAPEAVHep3Vector@CLHEP@@V?$allocator@PEAVHep3Vector@CLHEP@@@std@@@std@@YAPEAPEAVHep3Vector@CLHEP@@QEAPEAV12@0PEAPEAV12@AEAV?$allocator@PEAVHep3Vector@CLHEP@@@0@@Z
	??$_Uninitialized_move@PEAPEAVHepRotation@CLHEP@@V?$allocator@PEAVHepRotation@CLHEP@@@std@@@std@@YAPEAPEAVHepRotation@CLHEP@@QEAPEAV12@0PEAPEAV12@AEAV?$allocator@PEAVHepRotation@CLHEP@@@0@@Z
	??$_Uninitialized_move@PEAPEAVmutex@std@@V?$allocator@PEAVmutex@std@@@2@@std@@YAPEAPEAVmutex@0@QEAPEAV10@0PEAPEAV10@AEAV?$allocator@PEAVmutex@std@@@0@@Z
	??$_Uninitialized_move@PEAPEBV?$vector@VHep3Vector@CLHEP@@V?$allocator@VHep3Vector@CLHEP@@@std@@@std@@V?$allocator@PEBV?$vector@VHep3Vector@CLHEP@@V?$allocator@VHep3Vector@CLHEP@@@std@@@std@@@2@@std@@YAPEAPEBV?$vector@VHep3Vector@CLHEP@@V?$allocator@VHep3Vector@CLHEP@@@std@@@0@QEAPEBV10@0PEAPEBV10@AEAV?$allocator@PEBV?$vector@VHep3Vector@CLHEP@@V?$allocator@VHep3Vector@CLHEP@@@std@@@std@@@0@@Z
	??$_Uninitialized_move@PEAU?$pair@HN@std@@V?$allocator@U?$pair@HN@std@@@2@@std@@YAPEAU?$pair@HN@0@QEAU10@0PEAU10@AEAV?$allocator@U?$pair@HN@std@@@0@@Z
	??$_Uninitialized_move@PEAU?$pair@PEAVG4VSolid@@VTransform3D@HepGeom@@@std@@V?$allocator@U?$pair@PEAVG4VSolid@@VTransform3D@HepGeom@@@std@@@2@@std@@YAPEAU?$pair@PEAVG4VSolid@@VTransform3D@HepGeom@@@0@QEAU10@0PEAU10@AEAV?$allocator@U?$pair@PEAVG4VSolid@@VTransform3D@HepGeom@@@std@@@0@@Z
	??$_Uninitialized_move@PEAU?$pair@V?$Point3D@N@HepGeom@@V12@@std@@V?$allocator@U?$pair@V?$Point3D@N@HepGeom@@V12@@std@@@2@@std@@YAPEAU?$pair@V?$Point3D@N@HepGeom@@V12@@0@QEAU10@0PEAU10@AEAV?$allocator@U?$pair@V?$Point3D@N@HepGeom@@V12@@std@@@0@@Z
	??$_Uninitialized_move@PEAU?$pair@VHep2Vector@CLHEP@@H@std@@V?$allocator@U?$pair@VHep2Vector@CLHEP@@H@std@@@2@@std@@YAPEAU?$pair@VHep2Vector@CLHEP@@H@0@QEAU10@0PEAU10@AEAV?$allocator@U?$pair@VHep2Vector@CLHEP@@H@std@@@0@@Z
	??$_Uninitialized_move@PEAUG4MultiUnionSurface@G4MultiUnion@@V?$allocator@UG4MultiUnionSurface@G4MultiUnion@@@std@@@std@@YAPEAUG4MultiUnionSurface@G4MultiUnion@@QEAU12@0PEAU12@AEAV?$allocator@UG4MultiUnionSurface@G4MultiUnion@@@0@@Z
	??$_Uninitialized_move@PEAUG4VoxelBox@@V?$allocator@UG4VoxelBox@@@std@@@std@@YAPEAUG4VoxelBox@@QEAU1@0PEAU1@AEAV?$allocator@UG4VoxelBox@@@0@@Z
	??$_Uninitialized_move@PEAUInterpStepper@?$G4InterpolationDriver@VG4DormandPrince745@@@@V?$allocator@UInterpStepper@?$G4InterpolationDriver@VG4DormandPrince745@@@@@std@@@std@@YAPEAUInterpStepper@?$G4InterpolationDriver@VG4DormandPrince745@@@@QEAU12@0PEAU12@AEAV?$allocator@UInterpStepper@?$G4InterpolationDriver@VG4DormandPrince745@@@@@0@@Z
	??$_Uninitialized_move@PEAUIntersection@@V?$allocator@UIntersection@@@std@@@std@@YAPEAUIntersection@@QEAU1@0PEAU1@AEAV?$allocator@UIntersection@@@0@@Z
	??$_Uninitialized_move@PEAUZSection@G4ExtrudedSolid@@V?$allocator@UZSection@G4ExtrudedSolid@@@std@@@std@@YAPEAUZSection@G4ExtrudedSolid@@QEAU12@0PEAU12@AEAV?$allocator@UZSection@G4ExtrudedSolid@@@0@@Z
	??$_Uninitialized_move@PEAUline@G4ExtrudedSolid@@V?$allocator@Uline@G4ExtrudedSolid@@@std@@@std@@YAPEAUline@G4ExtrudedSolid@@QEAU12@0PEAU12@AEAV?$allocator@Uline@G4ExtrudedSolid@@@0@@Z
	??$_Uninitialized_move@PEAUplane@G4ExtrudedSolid@@V?$allocator@Uplane@G4ExtrudedSolid@@@std@@@std@@YAPEAUplane@G4ExtrudedSolid@@QEAU12@0PEAU12@AEAV?$allocator@Uplane@G4ExtrudedSolid@@@0@@Z
	??$_Uninitialized_move@PEAV?$Plane3D@N@HepGeom@@V?$allocator@V?$Plane3D@N@HepGeom@@@std@@@std@@YAPEAV?$Plane3D@N@HepGeom@@QEAV12@0PEAV12@AEAV?$allocator@V?$Plane3D@N@HepGeom@@@0@@Z
	??$_Uninitialized_move@PEAV?$vector@HV?$allocator@H@std@@@std@@V?$allocator@V?$vector@HV?$allocator@H@std@@@std@@@2@@std@@YAPEAV?$vector@HV?$allocator@H@std@@@0@QEAV10@0PEAV10@AEAV?$allocator@V?$vector@HV?$allocator@H@std@@@std@@@0@@Z
	??$_Uninitialized_move@PEAVG4AssemblyTriplet@@V?$allocator@VG4AssemblyTriplet@@@std@@@std@@YAPEAVG4AssemblyTriplet@@QEAV1@0PEAV1@AEAV?$allocator@VG4AssemblyTriplet@@@0@@Z
	??$_Uninitialized_move@PEAVG4PlacedPolyhedron@@V?$allocator@VG4PlacedPolyhedron@@@std@@@std@@YAPEAVG4PlacedPolyhedron@@QEAV1@0PEAV1@AEAV?$allocator@VG4PlacedPolyhedron@@@0@@Z
	??$_Uninitialized_move@PEAVG4SmartVoxelStat@@V?$allocator@VG4SmartVoxelStat@@@std@@@std@@YAPEAVG4SmartVoxelStat@@QEAV1@0PEAV1@AEAV?$allocator@VG4SmartVoxelStat@@@0@@Z
	??$_Uninitialized_move@PEAVG4String@@V?$allocator@VG4String@@@std@@@std@@YAPEAVG4String@@QEAV1@0PEAV1@AEAV?$allocator@VG4String@@@0@@Z
	??$_Uninitialized_move@PEAVHep2Vector@CLHEP@@V?$allocator@VHep2Vector@CLHEP@@@std@@@std@@YAPEAVHep2Vector@CLHEP@@QEAV12@0PEAV12@AEAV?$allocator@VHep2Vector@CLHEP@@@0@@Z
	??$_Uninitialized_move@PEAVHep3Vector@CLHEP@@V?$allocator@VHep3Vector@CLHEP@@@std@@@std@@YAPEAVHep3Vector@CLHEP@@QEAV12@0PEAV12@AEAV?$allocator@VHep3Vector@CLHEP@@@0@@Z
	??$_Uninitialized_move@PEAVTransform3D@HepGeom@@V?$allocator@VTransform3D@HepGeom@@@std@@@std@@YAPEAVTransform3D@HepGeom@@QEAV12@0PEAV12@AEAV?$allocator@VTransform3D@HepGeom@@@0@@Z
	??$_Uninitialized_value_construct_n@V?$allocator@H@std@@@std@@YAPEAHPEAH_KAEAV?$allocator@H@0@@Z
	??$_Uninitialized_value_construct_n@V?$allocator@N@std@@@std@@YAPEANPEAN_KAEAV?$allocator@N@0@@Z
	??$_Uninitialized_value_construct_n@V?$allocator@PEAV?$vector@V?$Point3D@N@HepGeom@@V?$allocator@V?$Point3D@N@HepGeom@@@std@@@std@@@std@@@std@@YAPEAPEAV?$vector@V?$Point3D@N@HepGeom@@V?$allocator@V?$Point3D@N@HepGeom@@@std@@@0@PEAPEAV10@_KAEAV?$allocator@PEAV?$vector@V?$Point3D@N@HepGeom@@V?$allocator@V?$Point3D@N@HepGeom@@@std@@@std@@@0@@Z
	??$_Uninitialized_value_construct_n@V?$allocator@PEBV?$vector@VHep3Vector@CLHEP@@V?$allocator@VHep3Vector@CLHEP@@@std@@@std@@@std@@@std@@YAPEAPEBV?$vector@VHep3Vector@CLHEP@@V?$allocator@VHep3Vector@CLHEP@@@std@@@0@PEAPEBV10@_KAEAV?$allocator@PEBV?$vector@VHep3Vector@CLHEP@@V?$allocator@VHep3Vector@CLHEP@@@std@@@std@@@0@@Z
	??$_Uninitialized_value_construct_n@V?$allocator@U?$pair@HN@std@@@std@@@std@@YAPEAU?$pair@HN@0@PEAU10@_KAEAV?$allocator@U?$pair@HN@std@@@0@@Z
	??$_Uninitialized_value_construct_n@V?$allocator@U?$pair@PEAVG4VSolid@@VTransform3D@HepGeom@@@std@@@std@@@std@@YAPEAU?$pair@PEAVG4VSolid@@VTransform3D@HepGeom@@@0@PEAU10@_KAEAV?$allocator@U?$pair@PEAVG4VSolid@@VTransform3D@HepGeom@@@std@@@0@@Z
	??$_Uninitialized_value_construct_n@V?$allocator@U?$pair@V?$Point3D@N@HepGeom@@V12@@std@@@std@@@std@@YAPEAU?$pair@V?$Point3D@N@HepGeom@@V12@@0@PEAU10@_KAEAV?$allocator@U?$pair@V?$Point3D@N@HepGeom@@V12@@std@@@0@@Z
	??$_Uninitialized_value_construct_n@V?$allocator@UG4VoxelBox@@@std@@@std@@YAPEAUG4VoxelBox@@PEAU1@_KAEAV?$allocator@UG4VoxelBox@@@0@@Z
	??$_Uninitialized_value_construct_n@V?$allocator@UG4VoxelInfo@@@std@@@std@@YAPEAUG4VoxelInfo@@PEAU1@_KAEAV?$allocator@UG4VoxelInfo@@@0@@Z
	??$_Uninitialized_value_construct_n@V?$allocator@Uline@G4ExtrudedSolid@@@std@@@std@@YAPEAUline@G4ExtrudedSolid@@PEAU12@_KAEAV?$allocator@Uline@G4ExtrudedSolid@@@0@@Z
	??$_Uninitialized_value_construct_n@V?$allocator@Uplane@G4ExtrudedSolid@@@std@@@std@@YAPEAUplane@G4ExtrudedSolid@@PEAU12@_KAEAV?$allocator@Uplane@G4ExtrudedSolid@@@0@@Z
	??$_Uninitialized_value_construct_n@V?$allocator@V?$Point3D@N@HepGeom@@@std@@@std@@YAPEAV?$Point3D@N@HepGeom@@PEAV12@_KAEAV?$allocator@V?$Point3D@N@HepGeom@@@0@@Z
	??$_Uninitialized_value_construct_n@V?$allocator@VG4NavigationLevel@@@std@@@std@@YAPEAVG4NavigationLevel@@PEAV1@_KAEAV?$allocator@VG4NavigationLevel@@@0@@Z
	??$_Uninitialized_value_construct_n@V?$allocator@VHep2Vector@CLHEP@@@std@@@std@@YAPEAVHep2Vector@CLHEP@@PEAV12@_KAEAV?$allocator@VHep2Vector@CLHEP@@@0@@Z
	??$_Uninitialized_value_construct_n@V?$allocator@VHep3Vector@CLHEP@@@std@@@std@@YAPEAVHep3Vector@CLHEP@@PEAV12@_KAEAV?$allocator@VHep3Vector@CLHEP@@@0@@Z
	??$_Uninitialized_value_construct_n_unchecked1@PEAPEAV?$vector@HV?$allocator@H@std@@@std@@_K@std@@YAPEAPEAV?$vector@HV?$allocator@H@std@@@0@PEAPEAV10@_K@Z
	??$_Zero_range@PEAH@std@@YAPEAHQEAH0@Z
	??$_Zero_range@PEAN@std@@YAPEANQEAN0@Z
	??$_Zero_range@PEAPEAV?$vector@HV?$allocator@H@std@@@std@@@std@@YAPEAPEAV?$vector@HV?$allocator@H@std@@@0@QEAPEAV10@0@Z
	??$_Zero_range@PEAPEAV?$vector@V?$Point3D@N@HepGeom@@V?$allocator@V?$Point3D@N@HepGeom@@@std@@@std@@@std@@YAPEAPEAV?$vector@V?$Point3D@N@HepGeom@@V?$allocator@V?$Point3D@N@HepGeom@@@std@@@0@QEAPEAV10@0@Z
	??$_Zero_range@PEAPEBV?$vector@VHep3Vector@CLHEP@@V?$allocator@VHep3Vector@CLHEP@@@std@@@std@@@std@@YAPEAPEBV?$vector@VHep3Vector@CLHEP@@V?$allocator@VHep3Vector@CLHEP@@@std@@@0@QEAPEBV10@0@Z
	??$clamp@N@field_utils@@YANNNN@Z
	??$copy@PEADPEAD@std@@YAPEADPEAD00@Z
	??$endl@DU?$char_traits@D@std@@@std@@YAAEAV?$basic_ostream@DU?$char_traits@D@std@@@0@AEAV10@@Z
	??$ends@DU?$char_traits@D@std@@@std@@YAAEAV?$basic_ostream@DU?$char_traits@D@std@@@0@AEAV10@@Z
	??$exchange@PEAU?$_Tree_node@HPEAX@std@@$$T@std@@YAPEAU?$_Tree_node@HPEAX@0@AEAPEAU10@$$QEA$$T@Z
	??$exchange@PEAU?$_Tree_node@HPEAX@std@@AEAPEAU12@@std@@YAPEAU?$_Tree_node@HPEAX@0@AEAPEAU10@0@Z
	??$exchange@PEAU?$_Tree_node@NPEAX@std@@$$T@std@@YAPEAU?$_Tree_node@NPEAX@0@AEAPEAU10@$$QEA$$T@Z
	??$exchange@PEAU?$_Tree_node@NPEAX@std@@AEAPEAU12@@std@@YAPEAU?$_Tree_node@NPEAX@0@AEAPEAU10@0@Z
	??$exchange@PEAU?$_Tree_node@PEAVG4VFacet@@PEAX@std@@$$T@std@@YAPEAU?$_Tree_node@PEAVG4VFacet@@PEAX@0@AEAPEAU10@$$QEA$$T@Z
	??$exchange@PEAU?$_Tree_node@PEAVG4VFacet@@PEAX@std@@AEAPEAU12@@std@@YAPEAU?$_Tree_node@PEAVG4VFacet@@PEAX@0@AEAPEAU10@0@Z
	??$exchange@PEAU?$_Tree_node@PEBVG4LogicalVolume@@PEAX@std@@AEAPEAU12@@std@@YAPEAU?$_Tree_node@PEBVG4LogicalVolume@@PEAX@0@AEAPEAU10@0@Z
	??$exchange@PEAU?$_Tree_node@U?$pair@$$CBHH@std@@PEAX@std@@AEAPEAU12@@std@@YAPEAU?$_Tree_node@U?$pair@$$CBHH@std@@PEAX@0@AEAPEAU10@0@Z
	??$exchange@PEAU?$_Tree_node@U?$pair@$$CBHV?$map@HHU?$less@H@std@@V?$allocator@U?$pair@$$CBHH@std@@@2@@std@@@std@@PEAX@std@@AEAPEAU12@@std@@YAPEAU?$_Tree_node@U?$pair@$$CBHV?$map@HHU?$less@H@std@@V?$allocator@U?$pair@$$CBHH@std@@@2@@std@@@std@@PEAX@0@AEAPEAU10@0@Z
	??$exchange@PEAU?$_Tree_node@U?$pair@$$CBHV?$vector@HV?$allocator@H@std@@@std@@@std@@PEAX@std@@$$T@std@@YAPEAU?$_Tree_node@U?$pair@$$CBHV?$vector@HV?$allocator@H@std@@@std@@@std@@PEAX@0@AEAPEAU10@$$QEA$$T@Z
	??$exchange@PEAU?$_Tree_node@U?$pair@$$CBHV?$vector@HV?$allocator@H@std@@@std@@@std@@PEAX@std@@AEAPEAU12@@std@@YAPEAU?$_Tree_node@U?$pair@$$CBHV?$vector@HV?$allocator@H@std@@@std@@@std@@PEAX@0@AEAPEAU10@0@Z
	??$exchange@PEAU?$_Tree_node@U?$pair@$$CBIVTransform3D@HepGeom@@@std@@PEAX@std@@$$T@std@@YAPEAU?$_Tree_node@U?$pair@$$CBIVTransform3D@HepGeom@@@std@@PEAX@0@AEAPEAU10@$$QEA$$T@Z
	??$exchange@PEAU?$_Tree_node@U?$pair@$$CBIVTransform3D@HepGeom@@@std@@PEAX@std@@AEAPEAU12@@std@@YAPEAU?$_Tree_node@U?$pair@$$CBIVTransform3D@HepGeom@@@std@@PEAX@0@AEAPEAU10@0@Z
	??$exchange@PEAU?$_Tree_node@U?$pair@$$CBNN@std@@PEAX@std@@$$T@std@@YAPEAU?$_Tree_node@U?$pair@$$CBNN@std@@PEAX@0@AEAPEAU10@$$QEA$$T@Z
	??$exchange@PEAU?$_Tree_node@U?$pair@$$CBNN@std@@PEAX@std@@AEAPEAU12@@std@@YAPEAU?$_Tree_node@U?$pair@$$CBNN@std@@PEAX@0@AEAPEAU10@0@Z
	??$exchange@PEAU?$_Tree_node@U?$pair@$$CBVG4GeometryCell@@N@std@@PEAX@std@@$$T@std@@YAPEAU?$_Tree_node@U?$pair@$$CBVG4GeometryCell@@N@std@@PEAX@0@AEAPEAU10@$$QEA$$T@Z
	??$exchange@PEAU?$_Tree_node@U?$pair@$$CBVG4GeometryCell@@N@std@@PEAX@std@@AEAPEAU12@@std@@YAPEAU?$_Tree_node@U?$pair@$$CBVG4GeometryCell@@N@std@@PEAX@0@AEAPEAU10@0@Z
	??$exchange@PEAU?$_Tree_node@U?$pair@$$CBVG4GeometryCell@@V?$map@NNU?$less@N@std@@V?$allocator@U?$pair@$$CBNN@std@@@2@@std@@@std@@PEAX@std@@$$T@std@@YAPEAU?$_Tree_node@U?$pair@$$CBVG4GeometryCell@@V?$map@NNU?$less@N@std@@V?$allocator@U?$pair@$$CBNN@std@@@2@@std@@@std@@PEAX@0@AEAPEAU10@$$QEA$$T@Z
	??$exchange@PEAU?$_Tree_node@U?$pair@$$CBVG4GeometryCell@@V?$map@NNU?$less@N@std@@V?$allocator@U?$pair@$$CBNN@std@@@2@@std@@@std@@PEAX@std@@AEAPEAU12@@std@@YAPEAU?$_Tree_node@U?$pair@$$CBVG4GeometryCell@@V?$map@NNU?$less@N@std@@V?$allocator@U?$pair@$$CBNN@std@@@2@@std@@@std@@PEAX@0@AEAPEAU10@0@Z
	??$exchange@PEAU?$_Tree_node@U?$pair@QEAVG4LogicalVolume@@PEAV1@@std@@PEAX@std@@$$T@std@@YAPEAU?$_Tree_node@U?$pair@QEAVG4LogicalVolume@@PEAV1@@std@@PEAX@0@AEAPEAU10@$$QEA$$T@Z
	??$exchange@PEAU?$_Tree_node@U?$pair@QEAVG4LogicalVolume@@PEAV1@@std@@PEAX@std@@AEAPEAU12@@std@@YAPEAU?$_Tree_node@U?$pair@QEAVG4LogicalVolume@@PEAV1@@std@@PEAX@0@AEAPEAU10@0@Z
	??$exchange@PEAU?$_Tree_node@U?$pair@QEAVG4Material@@PEAVG4MaterialCutsCouple@@@std@@PEAX@std@@AEAPEAU12@@std@@YAPEAU?$_Tree_node@U?$pair@QEAVG4Material@@PEAVG4MaterialCutsCouple@@@std@@PEAX@0@AEAPEAU10@0@Z
	??$exchange@PEAU?$_Tree_node@UG4VertexInfo@@PEAX@std@@$$T@std@@YAPEAU?$_Tree_node@UG4VertexInfo@@PEAX@0@AEAPEAU10@$$QEA$$T@Z
	??$exchange@PEAU?$_Tree_node@UG4VertexInfo@@PEAX@std@@AEAPEAU12@@std@@YAPEAU?$_Tree_node@UG4VertexInfo@@PEAX@0@AEAPEAU10@0@Z
	??$exchange@PEAU_Container_proxy@std@@$$T@std@@YAPEAU_Container_proxy@0@AEAPEAU10@$$QEA$$T@Z
	??$exchange@PEAV?$G4IntegrationDriver@VG4HelixHeum@@@@PEAV1@@std@@YAPEAV?$G4IntegrationDriver@VG4HelixHeum@@@@AEAPEAV1@$$QEAPEAV1@@Z
	??$exchange@PEAV?$G4InterpolationDriver@VG4DormandPrince745@@@@PEAV1@@std@@YAPEAV?$G4InterpolationDriver@VG4DormandPrince745@@@@AEAPEAV1@$$QEAPEAV1@@Z
	??$exchange@PEAVG4CachedMagneticField@@AEAPEAV1@@std@@YAPEAVG4CachedMagneticField@@AEAPEAV1@0@Z
	??$exchange@PEAVG4CachedMagneticField@@PEAV1@@std@@YAPEAVG4CachedMagneticField@@AEAPEAV1@$$QEAPEAV1@@Z
	??$exchange@PEAVG4DormandPrince745@@AEAPEAV1@@std@@YAPEAVG4DormandPrince745@@AEAPEAV1@0@Z
	??$exchange@PEAVG4DormandPrince745@@PEAV1@@std@@YAPEAVG4DormandPrince745@@AEAPEAV1@$$QEAPEAV1@@Z
	??$exchange@PEAVG4HelixHeum@@AEAPEAV1@@std@@YAPEAVG4HelixHeum@@AEAPEAV1@0@Z
	??$exchange@PEAVG4HelixHeum@@PEAV1@@std@@YAPEAVG4HelixHeum@@AEAPEAV1@$$QEAPEAV1@@Z
	??$exchange@PEAVG4VIntegrationDriver@@PEAV1@@std@@YAPEAVG4VIntegrationDriver@@AEAPEAV1@$$QEAPEAV1@@Z
	??$find@V?$_Vector_const_iterator@V?$_Vector_val@U?$_Simple_types@PEAVG4LogicalVolume@@@std@@@std@@@std@@PEAVG4LogicalVolume@@@std@@YA?AV?$_Vector_const_iterator@V?$_Vector_val@U?$_Simple_types@PEAVG4LogicalVolume@@@std@@@std@@@0@V10@V10@AEBQEAVG4LogicalVolume@@@Z
	??$find@V?$_Vector_const_iterator@V?$_Vector_val@U?$_Simple_types@PEAVG4Material@@@std@@@std@@@std@@PEAVG4Material@@@std@@YA?AV?$_Vector_const_iterator@V?$_Vector_val@U?$_Simple_types@PEAVG4Material@@@std@@@std@@@0@V10@V10@AEBQEAVG4Material@@@Z
	??$find@V?$_Vector_const_iterator@V?$_Vector_val@U?$_Simple_types@PEAVG4Navigator@@@std@@@std@@@std@@PEAVG4Navigator@@@std@@YA?AV?$_Vector_const_iterator@V?$_Vector_val@U?$_Simple_types@PEAVG4Navigator@@@std@@@std@@@0@V10@V10@AEBQEAVG4Navigator@@@Z
	??$find@V?$_Vector_const_iterator@V?$_Vector_val@U?$_Simple_types@PEAVG4VPhysicalVolume@@@std@@@std@@@std@@PEAVG4VPhysicalVolume@@@std@@YA?AV?$_Vector_const_iterator@V?$_Vector_val@U?$_Simple_types@PEAVG4VPhysicalVolume@@@std@@@std@@@0@V10@V10@AEBQEAVG4VPhysicalVolume@@@Z
	??$find@V?$_Vector_iterator@V?$_Vector_val@U?$_Simple_types@PEAVG4LogicalVolume@@@std@@@std@@@std@@PEAVG4LogicalVolume@@@std@@YA?AV?$_Vector_iterator@V?$_Vector_val@U?$_Simple_types@PEAVG4LogicalVolume@@@std@@@std@@@0@V10@V10@AEBQEAVG4LogicalVolume@@@Z
	??$getFirstIndex@W4Value1D@field_utils@@@internal@field_utils@@YA_KAEBW4Value1D@1@@Z
	??$getFirstIndex@W4Value3D@field_utils@@@internal@field_utils@@YA_KAEBW4Value3D@1@@Z
	??$getValue2@PEAN@field_utils@@YANAEBQEANW4Value3D@0@@Z
	??$getValue2@QEBN@field_utils@@YANAEBQEBNW4Value3D@0@@Z
	??$getValue@QEAN@field_utils@@YANAEBQEANW4Value3D@0@@Z
	??$insert@$0A@$0A@@?$_Tree@V?$_Tset_traits@UG4VertexInfo@@VG4VertexComparator@@V?$allocator@UG4VertexInfo@@@std@@$0A@@std@@@std@@QEAA?AU?$pair@V?$_Tree_const_iterator@V?$_Tree_val@U?$_Tree_simple_types@UG4VertexInfo@@@std@@@std@@@std@@_N@1@AEBUG4VertexInfo@@@Z
	??$iter_swap@PEAHPEAH@std@@YAXPEAH0@Z
	??$iter_swap@PEANPEAN@std@@YAXPEAN0@Z
	??$iter_swap@PEAU?$pair@HN@std@@PEAU12@@std@@YAXPEAU?$pair@HN@0@0@Z
	??$iter_swap@PEAUIntersection@@PEAU1@@std@@YAXPEAUIntersection@@0@Z
	??$iter_swap@PEAVG4SmartVoxelStat@@PEAV1@@std@@YAXPEAVG4SmartVoxelStat@@0@Z
	??$iter_swap@PEAVHep2Vector@CLHEP@@PEAV12@@std@@YAXPEAVHep2Vector@CLHEP@@0@Z
	??$makeVector@$$BY0M@N@field_utils@@YA?AVHep3Vector@CLHEP@@AEAY0M@$$CBNW4Value3D@0@@Z
	??$remove@V?$_Vector_iterator@V?$_Vector_val@U?$_Simple_types@PEAVG4LogicalVolume@@@std@@@std@@@std@@PEAVG4LogicalCrystalVolume@@@std@@YA?AV?$_Vector_iterator@V?$_Vector_val@U?$_Simple_types@PEAVG4LogicalVolume@@@std@@@std@@@0@V10@V10@AEBQEAVG4LogicalCrystalVolume@@@Z
	??$reverse@V?$_Vector_iterator@V?$_Vector_val@U?$_Simple_types@H@std@@@std@@@std@@@std@@YAXV?$_Vector_iterator@V?$_Vector_val@U?$_Simple_types@H@std@@@std@@@0@0@Z
	??$reverse@V?$_Vector_iterator@V?$_Vector_val@U?$_Simple_types@VHep2Vector@CLHEP@@@std@@@std@@@std@@@std@@YAXV?$_Vector_iterator@V?$_Vector_val@U?$_Simple_types@VHep2Vector@CLHEP@@@std@@@std@@@0@0@Z
	??$setValue@PEBN$$BY0M@N$$BY0M@NPEAN@field_utils@@YAXAEBQEBNW4Value1D@0@AEAY0M@N2AEAPEAN@Z
	??$setValue@PEBN$$BY0M@N$$BY0M@NPEANPEAN@field_utils@@YAXAEBQEBNW4Value1D@0@AEAY0M@N2AEAPEAN3@Z
	??$setValue@PEBN$$BY0M@NPEAN@field_utils@@YAXAEBQEBNW4Value1D@0@AEAY0M@NAEAPEAN@Z
	??$setValue@PEBN$$BY0M@NPEANPEAN@field_utils@@YAXAEBQEBNW4Value1D@0@AEAY0M@NAEAPEAN3@Z
	??$setValue@PEBNPEAN@field_utils@@YAXAEBQEBNW4Value1D@0@AEAPEAN@Z
	??$setValue@PEBNPEANPEAN@field_utils@@YAXAEBQEBNW4Value1D@0@AEAPEAN2@Z
	??$setValue@QEBN$$BY0M@N$$BY0M@N$$BY0M@NQEAN@field_utils@@YAXAEBQEBNW4Value1D@0@AEAY0M@N22AEAPEAN@Z
	??$setValue@QEBN$$BY0M@N$$BY0M@N$$BY0M@NQEANQEAN@field_utils@@YAXAEBQEBNW4Value1D@0@AEAY0M@N22AEAPEAN3@Z
	??$sort@V?$_Vector_iterator@V?$_Vector_val@U?$_Simple_types@H@std@@@std@@@std@@@std@@YAXV?$_Vector_iterator@V?$_Vector_val@U?$_Simple_types@H@std@@@std@@@0@0@Z
	??$sort@V?$_Vector_iterator@V?$_Vector_val@U?$_Simple_types@H@std@@@std@@@std@@U?$less@X@2@@std@@YAXV?$_Vector_iterator@V?$_Vector_val@U?$_Simple_types@H@std@@@std@@@0@0U?$less@X@0@@Z
	??$sort@V?$_Vector_iterator@V?$_Vector_val@U?$_Simple_types@N@std@@@std@@@std@@@std@@YAXV?$_Vector_iterator@V?$_Vector_val@U?$_Simple_types@N@std@@@std@@@0@0@Z
	??$sort@V?$_Vector_iterator@V?$_Vector_val@U?$_Simple_types@N@std@@@std@@@std@@U?$less@X@2@@std@@YAXV?$_Vector_iterator@V?$_Vector_val@U?$_Simple_types@N@std@@@std@@@0@0U?$less@X@0@@Z
	??$sort@V?$_Vector_iterator@V?$_Vector_val@U?$_Simple_types@U?$pair@HN@std@@@std@@@std@@@std@@P6A_NAEBU?$pair@HN@2@0@Z@std@@YAXV?$_Vector_iterator@V?$_Vector_val@U?$_Simple_types@U?$pair@HN@std@@@std@@@std@@@0@0P6A_NAEBU?$pair@HN@0@1@Z@Z
	??$sort@V?$_Vector_iterator@V?$_Vector_val@U?$_Simple_types@UIntersection@@@std@@@std@@@std@@P6A_NAEBUIntersection@@0@Z@std@@YAXV?$_Vector_iterator@V?$_Vector_val@U?$_Simple_types@UIntersection@@@std@@@std@@@0@0P6A_NAEBUIntersection@@1@Z@Z
	??$swap@DX@std@@YAXAEAD0@Z
	??$swap@HNX@std@@YAXAEAU?$pair@HN@0@0@Z
	??$swap@HX@std@@YAXAEAH0@Z
	??$swap@NX@std@@YAXAEAN0@Z
	??$swap@PEAHX@std@@YAXAEAPEAH0@Z
	??$swap@PEAVHep3Vector@CLHEP@@X@std@@YAXAEAPEAVHep3Vector@CLHEP@@0@Z
	??$swap@UInterpStepper@?$G4InterpolationDriver@VG4DormandPrince745@@@@X@std@@YAXAEAUInterpStepper@?$G4InterpolationDriver@VG4DormandPrince745@@@@0@Z
	??$swap@UIntersection@@X@std@@YAXAEAUIntersection@@0@Z
	??$swap@VG4SmartVoxelStat@@X@std@@YAXAEAVG4SmartVoxelStat@@0@Z
	??$swap@VHep2Vector@CLHEP@@X@std@@YAXAEAVHep2Vector@CLHEP@@0@Z
	??$uninitialized_copy@PEAPEAV?$vector@HV?$allocator@H@std@@@std@@PEAPEAV12@@std@@YAPEAPEAV?$vector@HV?$allocator@H@std@@@0@QEAPEAV10@0PEAPEAV10@@Z
	??$unique@V?$_Vector_iterator@V?$_Vector_val@U?$_Simple_types@UIntersection@@@std@@@std@@@std@@P6A_NAEBUIntersection@@0@Z@std@@YA?AV?$_Vector_iterator@V?$_Vector_val@U?$_Simple_types@UIntersection@@@std@@@std@@@0@V10@0P6A_NAEBUIntersection@@1@Z@Z
	??$upper_bound@V?$_Vector_const_iterator@V?$_Vector_val@U?$_Simple_types@N@std@@@std@@@std@@N@std@@YA?AV?$_Vector_const_iterator@V?$_Vector_val@U?$_Simple_types@N@std@@@std@@@0@V10@0AEBN@Z
	??$upper_bound@V?$_Vector_const_iterator@V?$_Vector_val@U?$_Simple_types@N@std@@@std@@@std@@NU?$less@X@2@@std@@YA?AV?$_Vector_const_iterator@V?$_Vector_val@U?$_Simple_types@N@std@@@std@@@0@V10@0AEBNU?$less@X@0@@Z
	??0?$G4Allocator@V?$G4CountedObject@X@@@@QEAA@XZ
	??0?$G4Allocator@VG4NavigationLevelRep@@@@QEAA@XZ
	??0?$G4Allocator@VG4TouchableHistory@@@@QEAA@XZ
	??0?$G4Cache@PEAVG4RegularNavigationHelper@@@@QEAA@XZ
	??0?$G4Cache@PEAVHep3Vector@CLHEP@@@@QEAA@XZ
	??0?$G4Cache@PEAVHepRotation@CLHEP@@@@QEAA@XZ
	??0?$G4CountedObject@VG4TouchableHistory@@@@QEAA@PEAVG4TouchableHistory@@@Z
	??0?$G4CountedObject@VG4VTouchable@@@@QEAA@PEAVG4VTouchable@@@Z
	??0?$G4FSALIntegrationDriver@VG4RK547FEq1@@@@QEAA@NPEAVG4RK547FEq1@@HH@Z
	??0?$G4IntegrationDriver@VG4HelixHeum@@@@QEAA@NPEAVG4HelixHeum@@HH@Z
	??0?$G4IntegrationDriver@VG4MagIntegratorStepper@@@@QEAA@NPEAVG4MagIntegratorStepper@@HH@Z
	??0?$G4InterpolationDriver@VG4DormandPrince745@@@@QEAA@NPEAVG4DormandPrince745@@HH@Z
	??0?$G4RKIntegrationDriver@VG4DormandPrince745@@@@QEAA@PEAVG4DormandPrince745@@@Z
	??0?$G4RKIntegrationDriver@VG4HelixHeum@@@@QEAA@PEAVG4HelixHeum@@@Z
	??0?$G4RKIntegrationDriver@VG4MagIntegratorStepper@@@@QEAA@PEAVG4MagIntegratorStepper@@@Z
	??0?$G4RKIntegrationDriver@VG4RK547FEq1@@@@QEAA@PEAVG4RK547FEq1@@@Z
	??0?$G4ThreadLocalSingleton@VG4RegularNavigationHelper@@@@QEAA@XZ
	??0?$G4ThreadLocalSingleton@VHep3Vector@CLHEP@@@@QEAA@XZ
	??0?$G4ThreadLocalSingleton@VHepRotation@CLHEP@@@@QEAA@XZ
	??0?$basic_ostringstream@DU?$char_traits@D@std@@V?$allocator@D@2@@std@@QEAA@H@Z
	??0?$basic_string@DU?$char_traits@D@std@@V?$allocator@D@2@@std@@QEAA@AEBV01@@Z
	??0?$basic_stringbuf@DU?$char_traits@D@std@@V?$allocator@D@2@@std@@QEAA@H@Z
	??0?$vector@HV?$allocator@H@std@@@std@@QEAA@AEBV01@@Z
	??0?$vector@HV?$allocator@H@std@@@std@@QEAA@XZ
	??0?$vector@NV?$allocator@N@std@@@std@@QEAA@XZ
	??0?$vector@NV?$allocator@N@std@@@std@@QEAA@_KAEBNAEBV?$allocator@N@1@@Z
	??0?$vector@V?$Point3D@N@HepGeom@@V?$allocator@V?$Point3D@N@HepGeom@@@std@@@std@@QEAA@_KAEBV?$allocator@V?$Point3D@N@HepGeom@@@1@@Z
	??0?$vector@VHep2Vector@CLHEP@@V?$allocator@VHep2Vector@CLHEP@@@std@@@std@@QEAA@AEBV01@@Z
	??0?$vector@VHep3Vector@CLHEP@@V?$allocator@VHep3Vector@CLHEP@@@std@@@std@@QEAA@XZ
	??0?$vector@VHep3Vector@CLHEP@@V?$allocator@VHep3Vector@CLHEP@@@std@@@std@@QEAA@_KAEBV?$allocator@VHep3Vector@CLHEP@@@1@@Z
	??0Boundary@G4VTwistSurface@@QEAA@XZ
	??0CurrentStatus@G4VTwistSurface@@QEAA@XZ
	??0G4AssemblyStore@@IEAA@XZ
	??0G4AssemblyVolume@@QEAA@PEAVG4LogicalVolume@@AEAVHep3Vector@CLHEP@@PEAVHepRotation@3@@Z
	??0G4AssemblyVolume@@QEAA@XZ
	??0G4BFieldIntegrationDriver@@QEAA@V?$unique_ptr@VG4VIntegrationDriver@@U?$default_delete@VG4VIntegrationDriver@@@std@@@std@@0@Z
	??0G4BlockingList@@QEAA@HH@Z
	??0G4BogackiShampine23@@QEAA@PEAVG4EquationOfMotion@@H@Z
	??0G4BogackiShampine45@@QEAA@PEAVG4EquationOfMotion@@H_N@Z
	??0G4BooleanSolid@@QEAA@AEAV__void__@@@Z
	??0G4BooleanSolid@@QEAA@AEBV0@@Z
	??0G4BooleanSolid@@QEAA@AEBVG4String@@PEAVG4VSolid@@1@Z
	??0G4BooleanSolid@@QEAA@AEBVG4String@@PEAVG4VSolid@@1AEBVTransform3D@HepGeom@@@Z
	??0G4BooleanSolid@@QEAA@AEBVG4String@@PEAVG4VSolid@@1PEAVHepRotation@CLHEP@@AEBVHep3Vector@4@@Z
	??0G4BoundingEnvelope@@QEAA@AEBV?$vector@PEBV?$vector@VHep3Vector@CLHEP@@V?$allocator@VHep3Vector@CLHEP@@@std@@@std@@V?$allocator@PEBV?$vector@VHep3Vector@CLHEP@@V?$allocator@VHep3Vector@CLHEP@@@std@@@std@@@2@@std@@@Z
	??0G4BoundingEnvelope@@QEAA@AEBVHep3Vector@CLHEP@@0@Z
	??0G4BoundingEnvelope@@QEAA@AEBVHep3Vector@CLHEP@@0AEBV?$vector@PEBV?$vector@VHep3Vector@CLHEP@@V?$allocator@VHep3Vector@CLHEP@@@std@@@std@@V?$allocator@PEBV?$vector@VHep3Vector@CLHEP@@V?$allocator@VHep3Vector@CLHEP@@@std@@@std@@@2@@std@@@Z
	??0G4Box@@QEAA@AEAV__void__@@@Z
	??0G4Box@@QEAA@AEBV0@@Z
	??0G4Box@@QEAA@AEBVG4String@@NNN@Z
	??0G4BrentLocator@@QEAA@PEAVG4Navigator@@@Z
	??0G4BulirschStoer@@QEAA@PEAVG4EquationOfMotion@@HNN@Z
	??0G4CSGSolid@@QEAA@AEAV__void__@@@Z
	??0G4CSGSolid@@QEAA@AEBV0@@Z
	??0G4CSGSolid@@QEAA@AEBVG4String@@@Z
	??0G4CachedMagneticField@@QEAA@AEBV0@@Z
	??0G4CachedMagneticField@@QEAA@PEAVG4MagneticField@@N@Z
	??0G4CashKarpRKF45@@QEAA@PEAVG4EquationOfMotion@@H_N@Z
	??0G4ChordFinder@@QEAA@PEAVG4MagneticField@@NPEAVG4MagIntegratorStepper@@_N@Z
	??0G4ChordFinder@@QEAA@PEAVG4VIntegrationDriver@@@Z
	??0G4ClassicalRK4@@QEAA@PEAVG4EquationOfMotion@@H@Z
	??0G4ClippablePolygon@@QEAA@XZ
	??0G4Cons@@QEAA@AEAV__void__@@@Z
	??0G4Cons@@QEAA@AEBV0@@Z
	??0G4Cons@@QEAA@AEBVG4String@@NNNNNNN@Z
	??0G4ConstRK4@@QEAA@PEAVG4Mag_EqRhs@@H@Z
	??0G4CutTubs@@QEAA@AEAV__void__@@@Z
	??0G4CutTubs@@QEAA@AEBV0@@Z
	??0G4CutTubs@@QEAA@AEBVG4String@@NNNNNVHep3Vector@CLHEP@@1@Z
	??0G4DELPHIMagField@@QEAA@XZ
	??0G4DisplacedSolid@@QEAA@AEAV__void__@@@Z
	??0G4DisplacedSolid@@QEAA@AEBV0@@Z
	??0G4DisplacedSolid@@QEAA@AEBVG4String@@PEAVG4VSolid@@AEBVTransform3D@HepGeom@@@Z
	??0G4DisplacedSolid@@QEAA@AEBVG4String@@PEAVG4VSolid@@PEAVHepRotation@CLHEP@@AEBVHep3Vector@4@@Z
	??0G4DisplacedSolid@@QEAA@AEBVG4String@@PEAVG4VSolid@@VG4AffineTransform@@@Z
	??0G4DoLoMcPriRK34@@QEAA@PEAVG4EquationOfMotion@@H_N@Z
	??0G4DormandPrince745@@QEAA@PEAVG4EquationOfMotion@@H@Z
	??0G4DormandPrinceRK56@@QEAA@PEAVG4EquationOfMotion@@H_N@Z
	??0G4DormandPrinceRK78@@QEAA@PEAVG4EquationOfMotion@@H_N@Z
	??0G4DrawVoxels@@QEAA@XZ
	??0G4ElectricField@@QEAA@AEBV0@@Z
	??0G4ElectricField@@QEAA@XZ
	??0G4ElectroMagneticField@@QEAA@AEBV0@@Z
	??0G4ElectroMagneticField@@QEAA@XZ
	??0G4Ellipsoid@@QEAA@AEAV__void__@@@Z
	??0G4Ellipsoid@@QEAA@AEBV0@@Z
	??0G4Ellipsoid@@QEAA@AEBVG4String@@NNNNN@Z
	??0G4EllipticalCone@@QEAA@AEAV__void__@@@Z
	??0G4EllipticalCone@@QEAA@AEBV0@@Z
	??0G4EllipticalCone@@QEAA@AEBVG4String@@NNNN@Z
	??0G4EllipticalTube@@QEAA@AEAV__void__@@@Z
	??0G4EllipticalTube@@QEAA@AEBV0@@Z
	??0G4EllipticalTube@@QEAA@AEBVG4String@@NNN@Z
	??0G4EnclosingCylinder@@QEAA@AEAV__void__@@@Z
	??0G4EnclosingCylinder@@QEAA@PEBVG4ReduciblePolygon@@_NNN@Z
	??0G4EqEMFieldWithEDM@@QEAA@PEAVG4ElectroMagneticField@@@Z
	??0G4EqEMFieldWithSpin@@QEAA@PEAVG4ElectroMagneticField@@@Z
	??0G4EqGravityField@@QEAA@PEAVG4UniformGravityField@@@Z
	??0G4EqMagElectricField@@QEAA@PEAVG4ElectroMagneticField@@@Z
	??0G4EquationOfMotion@@QEAA@PEAVG4Field@@@Z
	??0G4ErrorCylSurfaceTarget@@QEAA@AEBNAEBVG4AffineTransform@@@Z
	??0G4ErrorCylSurfaceTarget@@QEAA@AEBNAEBVHep3Vector@CLHEP@@AEBVHepRotation@2@@Z
	??0G4ErrorMag_UsualEqRhs@@QEAA@PEAVG4MagneticField@@@Z
	??0G4ErrorPlaneSurfaceTarget@@QEAA@AEBV?$Normal3D@N@HepGeom@@AEBV?$Point3D@N@2@@Z
	??0G4ErrorPlaneSurfaceTarget@@QEAA@AEBV?$Point3D@N@HepGeom@@00@Z
	??0G4ErrorPlaneSurfaceTarget@@QEAA@NNNN@Z
	??0G4ErrorPropagationNavigator@@QEAA@XZ
	??0G4ErrorSurfaceTarget@@QEAA@XZ
	??0G4ErrorTanPlaneTarget@@QEAA@XZ
	??0G4ErrorTarget@@QEAA@XZ
	??0G4ExactHelixStepper@@QEAA@PEAVG4Mag_EqRhs@@@Z
	??0G4ExplicitEuler@@QEAA@PEAVG4EquationOfMotion@@H@Z
	??0G4ExtrudedSolid@@QEAA@AEAV__void__@@@Z
	??0G4ExtrudedSolid@@QEAA@AEBV0@@Z
	??0G4ExtrudedSolid@@QEAA@AEBVG4String@@AEBV?$vector@VHep2Vector@CLHEP@@V?$allocator@VHep2Vector@CLHEP@@@std@@@std@@AEBV?$vector@UZSection@G4ExtrudedSolid@@V?$allocator@UZSection@G4ExtrudedSolid@@@std@@@3@@Z
	??0G4ExtrudedSolid@@QEAA@AEBVG4String@@AEBV?$vector@VHep2Vector@CLHEP@@V?$allocator@VHep2Vector@CLHEP@@@std@@@std@@NAEBVHep2Vector@CLHEP@@N2N@Z
	??0G4FSALBogackiShampine45@@QEAA@PEAVG4EquationOfMotion@@H_N@Z
	??0G4FSALDormandPrince745@@QEAA@PEAVG4EquationOfMotion@@H_N@Z
	??0G4Field@@QEAA@AEBV0@@Z
	??0G4Field@@QEAA@_N@Z
	??0G4FieldManager@@QEAA@PEAVG4Field@@PEAVG4ChordFinder@@_N@Z
	??0G4FieldManager@@QEAA@PEAVG4MagneticField@@@Z
	??0G4FieldManagerStore@@IEAA@XZ
	??0G4FieldTrack@@QEAA@AEBV0@@Z
	??0G4FieldTrack@@QEAA@AEBVHep3Vector@CLHEP@@0NNNNNNPEBV12@N@Z
	??0G4FieldTrack@@QEAA@AEBVHep3Vector@CLHEP@@N0NNN0NNN@Z
	??0G4FieldTrack@@QEAA@D@Z
	??0G4GenericPolycone@@QEAA@AEAV__void__@@@Z
	??0G4GenericPolycone@@QEAA@AEBV0@@Z
	??0G4GenericPolycone@@QEAA@AEBVG4String@@NNHQEBN1@Z
	??0G4GenericTrap@@QEAA@AEAV__void__@@@Z
	??0G4GenericTrap@@QEAA@AEBV0@@Z
	??0G4GenericTrap@@QEAA@AEBVG4String@@NAEBV?$vector@VHep2Vector@CLHEP@@V?$allocator@VHep2Vector@CLHEP@@@std@@@std@@@Z
	??0G4GeomTestVolume@@QEAA@PEAVG4VPhysicalVolume@@NH_N@Z
	??0G4GeometryCell@@QEAA@AEBV0@@Z
	??0G4GeometryCell@@QEAA@AEBVG4VPhysicalVolume@@H@Z
	??0G4GeometryCellComp@@QEAA@XZ
	??0G4GeometryCellStep@@QEAA@AEBVG4GeometryCell@@0@Z
	??0G4GeometryManager@@IEAA@XZ
	??0G4GeometryMessenger@@QEAA@PEAVG4TransportationManager@@@Z
	??0G4GeometryWorkspace@@QEAA@XZ
	??0G4GlobalMagFieldMessenger@@QEAA@AEBVHep3Vector@CLHEP@@@Z
	??0G4HarmonicPolMagField@@QEAA@XZ
	??0G4HelixExplicitEuler@@QEAA@PEAVG4Mag_EqRhs@@@Z
	??0G4HelixHeum@@QEAA@PEAVG4Mag_EqRhs@@@Z
	??0G4HelixImplicitEuler@@QEAA@PEAVG4Mag_EqRhs@@@Z
	??0G4HelixMixedStepper@@QEAA@PEAVG4Mag_EqRhs@@HN@Z
	??0G4HelixSimpleRunge@@QEAA@PEAVG4Mag_EqRhs@@@Z
	??0G4Hype@@QEAA@AEAV__void__@@@Z
	??0G4Hype@@QEAA@AEBV0@@Z
	??0G4Hype@@QEAA@AEBVG4String@@NNNNN@Z
	??0G4IStore@@IEAA@AEBVG4String@@@Z
	??0G4IStore@@IEAA@XZ
	??0G4IdentityTrajectoryFilter@@QEAA@XZ
	??0G4ImplicitEuler@@QEAA@PEAVG4EquationOfMotion@@H@Z
	??0G4ImportanceAlgorithm@@QEAA@XZ
	??0G4IntersectingCone@@QEAA@AEAV__void__@@@Z
	??0G4IntersectingCone@@QEAA@QEBN0@Z
	??0G4IntersectionSolid@@QEAA@AEAV__void__@@@Z
	??0G4IntersectionSolid@@QEAA@AEBV0@@Z
	??0G4IntersectionSolid@@QEAA@AEBVG4String@@PEAVG4VSolid@@1@Z
	??0G4IntersectionSolid@@QEAA@AEBVG4String@@PEAVG4VSolid@@1AEBVTransform3D@HepGeom@@@Z
	??0G4IntersectionSolid@@QEAA@AEBVG4String@@PEAVG4VSolid@@1PEAVHepRotation@CLHEP@@AEBVHep3Vector@4@@Z
	??0G4LVData@@QEAA@XZ
	??0G4LineCurrentMagField@@QEAA@N@Z
	??0G4LineSection@@QEAA@AEBVHep3Vector@CLHEP@@0@Z
	??0G4LogicalBorderSurface@@QEAA@AEBVG4String@@PEAVG4VPhysicalVolume@@1PEAVG4SurfaceProperty@@@Z
	??0G4LogicalCrystalVolume@@QEAA@PEAVG4VSolid@@PEAVG4ExtendedMaterial@@AEBVG4String@@PEAVG4FieldManager@@PEAVG4VSensitiveDetector@@PEAVG4UserLimits@@_NHHHN@Z
	??0G4LogicalSkinSurface@@QEAA@AEBVG4String@@PEAVG4LogicalVolume@@PEAVG4SurfaceProperty@@@Z
	??0G4LogicalSurface@@IEAA@AEBVG4String@@PEAVG4SurfaceProperty@@@Z
	??0G4LogicalVolume@@QEAA@AEAV__void__@@@Z
	??0G4LogicalVolume@@QEAA@PEAVG4VSolid@@PEAVG4Material@@AEBVG4String@@PEAVG4FieldManager@@PEAVG4VSensitiveDetector@@PEAVG4UserLimits@@_N@Z
	??0G4LogicalVolumeStore@@IEAA@XZ
	??0G4MagHelicalStepper@@QEAA@PEAVG4Mag_EqRhs@@@Z
	??0G4MagInt_Driver@@QEAA@NPEAVG4MagIntegratorStepper@@HH@Z
	??0G4MagIntegratorStepper@@QEAA@PEAVG4EquationOfMotion@@HH_N@Z
	??0G4Mag_EqRhs@@QEAA@PEAVG4MagneticField@@@Z
	??0G4Mag_SpinEqRhs@@QEAA@PEAVG4MagneticField@@@Z
	??0G4Mag_UsualEqRhs@@QEAA@PEAVG4MagneticField@@@Z
	??0G4MagneticField@@QEAA@AEBV0@@Z
	??0G4MagneticField@@QEAA@XZ
	??0G4ModifiedMidpoint@@QEAA@PEAVG4EquationOfMotion@@HH@Z
	??0G4MonopoleEq@@QEAA@PEAVG4ElectroMagneticField@@@Z
	??0G4MultiLevelLocator@@QEAA@PEAVG4Navigator@@@Z
	??0G4MultiNavigator@@QEAA@XZ
	??0G4MultiUnion@@QEAA@AEAV__void__@@@Z
	??0G4MultiUnion@@QEAA@AEBV0@@Z
	??0G4MultiUnion@@QEAA@AEBVG4String@@@Z
	??0G4NavigationHistory@@QEAA@AEBV0@@Z
	??0G4NavigationHistory@@QEAA@XZ
	??0G4NavigationHistoryPool@@AEAA@XZ
	??0G4NavigationLevel@@QEAA@AEBV0@@Z
	??0G4NavigationLevel@@QEAA@PEAVG4VPhysicalVolume@@AEBVG4AffineTransform@@1W4EVolume@@H@Z
	??0G4NavigationLevel@@QEAA@PEAVG4VPhysicalVolume@@AEBVG4AffineTransform@@W4EVolume@@H@Z
	??0G4NavigationLevel@@QEAA@XZ
	??0G4NavigationLogger@@QEAA@AEBVG4String@@@Z
	??0G4Navigator@@QEAA@XZ
	??0G4NormalNavigation@@QEAA@XZ
	??0G4NystromRK4@@QEAA@PEAVG4Mag_EqRhs@@N@Z
	??0G4Orb@@QEAA@AEAV__void__@@@Z
	??0G4Orb@@QEAA@AEBV0@@Z
	??0G4Orb@@QEAA@AEBVG4String@@N@Z
	??0G4PVDivision@@QEAA@AEBVG4String@@PEAVG4LogicalVolume@@1W4EAxis@@HN@Z
	??0G4PVDivision@@QEAA@AEBVG4String@@PEAVG4LogicalVolume@@1W4EAxis@@HNN@Z
	??0G4PVDivision@@QEAA@AEBVG4String@@PEAVG4LogicalVolume@@1W4EAxis@@NN@Z
	??0G4PVDivision@@QEAA@AEBVG4String@@PEAVG4LogicalVolume@@PEAVG4VPhysicalVolume@@W4EAxis@@HNN@Z
	??0G4PVDivisionFactory@@IEAA@XZ
	??0G4PVParameterised@@QEAA@AEAV__void__@@@Z
	??0G4PVParameterised@@QEAA@AEBVG4String@@PEAVG4LogicalVolume@@1W4EAxis@@HPEAVG4VPVParameterisation@@_N@Z
	??0G4PVParameterised@@QEAA@AEBVG4String@@PEAVG4LogicalVolume@@PEAVG4VPhysicalVolume@@W4EAxis@@HPEAVG4VPVParameterisation@@_N@Z
	??0G4PVPlacement@@QEAA@AEAV__void__@@@Z
	??0G4PVPlacement@@QEAA@AEBVTransform3D@HepGeom@@AEBVG4String@@PEAVG4LogicalVolume@@PEAVG4VPhysicalVolume@@_NH4@Z
	??0G4PVPlacement@@QEAA@AEBVTransform3D@HepGeom@@PEAVG4LogicalVolume@@AEBVG4String@@1_NH3@Z
	??0G4PVPlacement@@QEAA@PEAVHepRotation@CLHEP@@AEBVHep3Vector@2@AEBVG4String@@PEAVG4LogicalVolume@@PEAVG4VPhysicalVolume@@_NH5@Z
	??0G4PVPlacement@@QEAA@PEAVHepRotation@CLHEP@@AEBVHep3Vector@2@PEAVG4LogicalVolume@@AEBVG4String@@2_NH4@Z
	??0G4PVReplica@@IEAA@AEBVG4String@@HW4EAxis@@PEAVG4LogicalVolume@@2@Z
	??0G4PVReplica@@QEAA@AEAV__void__@@@Z
	??0G4PVReplica@@QEAA@AEBVG4String@@PEAVG4LogicalVolume@@1W4EAxis@@HNN@Z
	??0G4PVReplica@@QEAA@AEBVG4String@@PEAVG4LogicalVolume@@PEAVG4VPhysicalVolume@@W4EAxis@@HNN@Z
	??0G4Para@@QEAA@AEAV__void__@@@Z
	??0G4Para@@QEAA@AEBV0@@Z
	??0G4Para@@QEAA@AEBVG4String@@NNNNNN@Z
	??0G4Para@@QEAA@AEBVG4String@@QEBVHep3Vector@CLHEP@@@Z
	??0G4Paraboloid@@QEAA@AEAV__void__@@@Z
	??0G4Paraboloid@@QEAA@AEBV0@@Z
	??0G4Paraboloid@@QEAA@AEBVG4String@@NNN@Z
	??0G4ParameterisationBoxX@@QEAA@W4EAxis@@HNNPEAVG4VSolid@@W4DivisionType@@@Z
	??0G4ParameterisationBoxY@@QEAA@W4EAxis@@HNNPEAVG4VSolid@@W4DivisionType@@@Z
	??0G4ParameterisationBoxZ@@QEAA@W4EAxis@@HNNPEAVG4VSolid@@W4DivisionType@@@Z
	??0G4ParameterisationConsPhi@@QEAA@W4EAxis@@HNNPEAVG4VSolid@@W4DivisionType@@@Z
	??0G4ParameterisationConsRho@@QEAA@W4EAxis@@HNNPEAVG4VSolid@@W4DivisionType@@@Z
	??0G4ParameterisationConsZ@@QEAA@W4EAxis@@HNNPEAVG4VSolid@@W4DivisionType@@@Z
	??0G4ParameterisationParaX@@QEAA@W4EAxis@@HNNPEAVG4VSolid@@W4DivisionType@@@Z
	??0G4ParameterisationParaY@@QEAA@W4EAxis@@HNNPEAVG4VSolid@@W4DivisionType@@@Z
	??0G4ParameterisationParaZ@@QEAA@W4EAxis@@HNNPEAVG4VSolid@@W4DivisionType@@@Z
	??0G4ParameterisationPolyconePhi@@QEAA@W4EAxis@@HNNPEAVG4VSolid@@W4DivisionType@@@Z
	??0G4ParameterisationPolyconeRho@@QEAA@W4EAxis@@HNNPEAVG4VSolid@@W4DivisionType@@@Z
	??0G4ParameterisationPolyconeZ@@QEAA@W4EAxis@@HNNPEAVG4VSolid@@W4DivisionType@@@Z
	??0G4ParameterisationPolyhedraPhi@@QEAA@W4EAxis@@HNNPEAVG4VSolid@@W4DivisionType@@@Z
	??0G4ParameterisationPolyhedraRho@@QEAA@W4EAxis@@HNNPEAVG4VSolid@@W4DivisionType@@@Z
	??0G4ParameterisationPolyhedraZ@@QEAA@W4EAxis@@HNNPEAVG4VSolid@@W4DivisionType@@@Z
	??0G4ParameterisationTrdX@@QEAA@W4EAxis@@HNNPEAVG4VSolid@@W4DivisionType@@@Z
	??0G4ParameterisationTrdY@@QEAA@W4EAxis@@HNNPEAVG4VSolid@@W4DivisionType@@@Z
	??0G4ParameterisationTrdZ@@QEAA@W4EAxis@@HNNPEAVG4VSolid@@W4DivisionType@@@Z
	??0G4ParameterisationTubsPhi@@QEAA@W4EAxis@@HNNPEAVG4VSolid@@W4DivisionType@@@Z
	??0G4ParameterisationTubsRho@@QEAA@W4EAxis@@HNNPEAVG4VSolid@@W4DivisionType@@@Z
	??0G4ParameterisationTubsZ@@QEAA@W4EAxis@@HNNPEAVG4VSolid@@W4DivisionType@@@Z
	??0G4ParameterisedNavigation@@QEAA@XZ
	??0G4PartialPhantomParameterisation@@QEAA@XZ
	??0G4PathFinder@@IEAA@XZ
	??0G4PhantomParameterisation@@QEAA@XZ
	??0G4PhysicalVolumeStore@@IEAA@XZ
	??0G4PolyPhiFace@@QEAA@AEAV__void__@@@Z
	??0G4PolyPhiFace@@QEAA@AEBV0@@Z
	??0G4PolyPhiFace@@QEAA@PEBVG4ReduciblePolygon@@NNN@Z
	??0G4PolyPhiFaceEdge@@QEAA@XZ
	??0G4PolyPhiFaceVertex@@QEAA@XZ
	??0G4Polycone@@QEAA@AEAV__void__@@@Z
	??0G4Polycone@@QEAA@AEBV0@@Z
	??0G4Polycone@@QEAA@AEBVG4String@@NNHQEBN11@Z
	??0G4Polycone@@QEAA@AEBVG4String@@NNHQEBN1@Z
	??0G4PolyconeHistorical@@QEAA@AEBV0@@Z
	??0G4PolyconeHistorical@@QEAA@H@Z
	??0G4PolyconeHistorical@@QEAA@XZ
	??0G4PolyconeSide@@QEAA@AEAV__void__@@@Z
	??0G4PolyconeSide@@QEAA@AEBV0@@Z
	??0G4PolyconeSide@@QEAA@PEBUG4PolyconeSideRZ@@000NN_N1@Z
	??0G4Polyhedra@@QEAA@AEAV__void__@@@Z
	??0G4Polyhedra@@QEAA@AEBV0@@Z
	??0G4Polyhedra@@QEAA@AEBVG4String@@NNHHQEBN11@Z
	??0G4Polyhedra@@QEAA@AEBVG4String@@NNHHQEBN1@Z
	??0G4PolyhedraHistorical@@QEAA@AEBV0@@Z
	??0G4PolyhedraHistorical@@QEAA@H@Z
	??0G4PolyhedraHistorical@@QEAA@XZ
	??0G4PolyhedraSide@@QEAA@AEAV__void__@@@Z
	??0G4PolyhedraSide@@QEAA@AEBV0@@Z
	??0G4PolyhedraSide@@QEAA@PEBUG4PolyhedraSideRZ@@000HNN_N1@Z
	??0G4PropagatorInField@@QEAA@PEAVG4Navigator@@PEAVG4FieldManager@@PEAVG4VIntersectionLocator@@@Z
	??0G4QuadrangularFacet@@QEAA@AEBV0@@Z
	??0G4QuadrangularFacet@@QEAA@AEBVHep3Vector@CLHEP@@000W4G4FacetVertexType@@@Z
	??0G4QuadrupoleMagField@@QEAA@N@Z
	??0G4QuadrupoleMagField@@QEAA@NVHep3Vector@CLHEP@@PEAVHepRotation@2@@Z
	??0G4RK547FEq1@@QEAA@PEAVG4EquationOfMotion@@H@Z
	??0G4RK547FEq2@@QEAA@PEAVG4EquationOfMotion@@H@Z
	??0G4RK547FEq3@@QEAA@PEAVG4EquationOfMotion@@H@Z
	??0G4RKG3_Stepper@@QEAA@PEAVG4Mag_EqRhs@@@Z
	??0G4ReduciblePolygon@@QEAA@AEAV__void__@@@Z
	??0G4ReduciblePolygon@@QEAA@QEBN00H@Z
	??0G4ReduciblePolygon@@QEAA@QEBN0H@Z
	??0G4ReflectedSolid@@QEAA@AEBV0@@Z
	??0G4ReflectedSolid@@QEAA@AEBVG4String@@PEAVG4VSolid@@AEBVTransform3D@HepGeom@@@Z
	??0G4ReflectionFactory@@IEAA@XZ
	??0G4Region@@QEAA@AEAV__void__@@@Z
	??0G4Region@@QEAA@AEBVG4String@@@Z
	??0G4RegionStore@@IEAA@XZ
	??0G4RegularNavigation@@QEAA@XZ
	??0G4RegularNavigationHelper@@AEAA@XZ
	??0G4RepleteEofM@@QEAA@PEAVG4Field@@H@Z
	??0G4ReplicaNavigation@@QEAA@XZ
	??0G4ReplicatedSlice@@QEAA@AEBVG4String@@PEAVG4LogicalVolume@@1W4EAxis@@HNN@Z
	??0G4ReplicatedSlice@@QEAA@AEBVG4String@@PEAVG4LogicalVolume@@1W4EAxis@@HNNN@Z
	??0G4ReplicatedSlice@@QEAA@AEBVG4String@@PEAVG4LogicalVolume@@1W4EAxis@@NNN@Z
	??0G4ReplicatedSlice@@QEAA@AEBVG4String@@PEAVG4LogicalVolume@@PEAVG4VPhysicalVolume@@W4EAxis@@HNN@Z
	??0G4ReplicatedSlice@@QEAA@AEBVG4String@@PEAVG4LogicalVolume@@PEAVG4VPhysicalVolume@@W4EAxis@@HNNN@Z
	??0G4ReplicatedSlice@@QEAA@AEBVG4String@@PEAVG4LogicalVolume@@PEAVG4VPhysicalVolume@@W4EAxis@@NNN@Z
	??0G4SafetyHelper@@QEAA@XZ
	??0G4ScaleTransform@@QEAA@AEBVScale3D@HepGeom@@@Z
	??0G4ScaledSolid@@QEAA@AEAV__void__@@@Z
	??0G4ScaledSolid@@QEAA@AEBV0@@Z
	??0G4ScaledSolid@@QEAA@AEBVG4String@@PEAVG4VSolid@@AEBVScale3D@HepGeom@@@Z
	??0G4SextupoleMagField@@QEAA@N@Z
	??0G4SextupoleMagField@@QEAA@NVHep3Vector@CLHEP@@PEAVHepRotation@2@@Z
	??0G4SimpleHeum@@QEAA@PEAVG4EquationOfMotion@@H@Z
	??0G4SimpleLocator@@QEAA@PEAVG4Navigator@@@Z
	??0G4SimpleRunge@@QEAA@PEAVG4EquationOfMotion@@H@Z
	??0G4SmartVoxelHeader@@QEAA@PEAVG4LogicalVolume@@AEBVG4VoxelLimits@@PEBV?$vector@HV?$allocator@H@std@@@std@@H@Z
	??0G4SmartVoxelHeader@@QEAA@PEAVG4LogicalVolume@@H@Z
	??0G4SmartVoxelStat@@QEAA@PEBVG4LogicalVolume@@PEBVG4SmartVoxelHeader@@NN@Z
	??0G4SolidExtentList@@QEAA@W4EAxis@@AEBVG4VoxelLimits@@@Z
	??0G4SolidExtentList@@QEAA@XZ
	??0G4SolidStore@@IEAA@XZ
	??0G4SolidsWorkspace@@QEAA@_N@Z
	??0G4Sphere@@QEAA@AEAV__void__@@@Z
	??0G4Sphere@@QEAA@AEBV0@@Z
	??0G4Sphere@@QEAA@AEBVG4String@@NNNNNN@Z
	??0G4SubtractionSolid@@QEAA@AEAV__void__@@@Z
	??0G4SubtractionSolid@@QEAA@AEBV0@@Z
	??0G4SubtractionSolid@@QEAA@AEBVG4String@@PEAVG4VSolid@@1@Z
	??0G4SubtractionSolid@@QEAA@AEBVG4String@@PEAVG4VSolid@@1AEBVTransform3D@HepGeom@@@Z
	??0G4SubtractionSolid@@QEAA@AEBVG4String@@PEAVG4VSolid@@1PEAVHepRotation@CLHEP@@AEBVHep3Vector@4@@Z
	??0G4SurfBits@@QEAA@AEBV0@@Z
	??0G4SurfBits@@QEAA@I@Z
	??0G4TessellatedSolid@@QEAA@AEAV__void__@@@Z
	??0G4TessellatedSolid@@QEAA@AEBV0@@Z
	??0G4TessellatedSolid@@QEAA@AEBVG4String@@@Z
	??0G4TessellatedSolid@@QEAA@XZ
	??0G4Tet@@QEAA@AEAV__void__@@@Z
	??0G4Tet@@QEAA@AEBV0@@Z
	??0G4Tet@@QEAA@AEBVG4String@@VHep3Vector@CLHEP@@111PEA_N@Z
	??0G4Torus@@QEAA@AEAV__void__@@@Z
	??0G4Torus@@QEAA@AEBV0@@Z
	??0G4Torus@@QEAA@AEBVG4String@@NNNNN@Z
	??0G4TouchableHistory@@QEAA@AEBVG4NavigationHistory@@@Z
	??0G4TouchableHistory@@QEAA@XZ
	??0G4TransportationManager@@IEAA@XZ
	??0G4Trap@@QEAA@AEAV__void__@@@Z
	??0G4Trap@@QEAA@AEBV0@@Z
	??0G4Trap@@QEAA@AEBVG4String@@@Z
	??0G4Trap@@QEAA@AEBVG4String@@NNNN@Z
	??0G4Trap@@QEAA@AEBVG4String@@NNNNN@Z
	??0G4Trap@@QEAA@AEBVG4String@@NNNNNN@Z
	??0G4Trap@@QEAA@AEBVG4String@@NNNNNNNNNNN@Z
	??0G4Trap@@QEAA@AEBVG4String@@QEBVHep3Vector@CLHEP@@@Z
	??0G4Trd@@QEAA@AEAV__void__@@@Z
	??0G4Trd@@QEAA@AEBV0@@Z
	??0G4Trd@@QEAA@AEBVG4String@@NNNNN@Z
	??0G4TrialsCounter@@QEAA@AEBVG4String@@0_N@Z
	??0G4TriangularFacet@@QEAA@$$QEAV0@@Z
	??0G4TriangularFacet@@QEAA@AEBV0@@Z
	??0G4TriangularFacet@@QEAA@AEBVHep3Vector@CLHEP@@00W4G4FacetVertexType@@@Z
	??0G4TriangularFacet@@QEAA@XZ
	??0G4TsitourasRK45@@QEAA@PEAVG4EquationOfMotion@@H_N@Z
	??0G4Tubs@@QEAA@AEAV__void__@@@Z
	??0G4Tubs@@QEAA@AEBV0@@Z
	??0G4Tubs@@QEAA@AEBVG4String@@NNNNN@Z
	??0G4TwistBoxSide@@QEAA@AEAV__void__@@@Z
	??0G4TwistBoxSide@@QEAA@AEBVG4String@@NNNNNNNNNNNN@Z
	??0G4TwistTrapAlphaSide@@QEAA@AEAV__void__@@@Z
	??0G4TwistTrapAlphaSide@@QEAA@AEBVG4String@@NNNNNNNNNNNN@Z
	??0G4TwistTrapFlatSide@@QEAA@AEAV__void__@@@Z
	??0G4TwistTrapFlatSide@@QEAA@AEBVG4String@@NNNNNNNNH@Z
	??0G4TwistTrapParallelSide@@QEAA@AEAV__void__@@@Z
	??0G4TwistTrapParallelSide@@QEAA@AEBVG4String@@NNNNNNNNNNNN@Z
	??0G4TwistTubsFlatSide@@QEAA@AEAV__void__@@@Z
	??0G4TwistTubsFlatSide@@QEAA@AEBVG4String@@AEBVHepRotation@CLHEP@@AEBVHep3Vector@3@2W4EAxis@@3NNNN@Z
	??0G4TwistTubsFlatSide@@QEAA@AEBVG4String@@QEAN1N11H@Z
	??0G4TwistTubsHypeSide@@QEAA@AEAV__void__@@@Z
	??0G4TwistTubsHypeSide@@QEAA@AEBVG4String@@AEBVHepRotation@CLHEP@@AEBVHep3Vector@3@HNNNW4EAxis@@3NNNN@Z
	??0G4TwistTubsHypeSide@@QEAA@AEBVG4String@@QEAN1N11NNNNNH@Z
	??0G4TwistTubsSide@@QEAA@AEAV__void__@@@Z
	??0G4TwistTubsSide@@QEAA@AEBVG4String@@AEBVHepRotation@CLHEP@@AEBVHep3Vector@3@HNW4EAxis@@3NNNN@Z
	??0G4TwistTubsSide@@QEAA@AEBVG4String@@QEAN1N11NNNH@Z
	??0G4TwistedBox@@QEAA@AEAV__void__@@@Z
	??0G4TwistedBox@@QEAA@AEBV0@@Z
	??0G4TwistedBox@@QEAA@AEBVG4String@@NNNN@Z
	??0G4TwistedTrap@@QEAA@AEAV__void__@@@Z
	??0G4TwistedTrap@@QEAA@AEBV0@@Z
	??0G4TwistedTrap@@QEAA@AEBVG4String@@NNNNN@Z
	??0G4TwistedTrap@@QEAA@AEBVG4String@@NNNNNNNNNNN@Z
	??0G4TwistedTrd@@QEAA@AEAV__void__@@@Z
	??0G4TwistedTrd@@QEAA@AEBV0@@Z
	??0G4TwistedTrd@@QEAA@AEBVG4String@@NNNNNN@Z
	??0G4TwistedTubs@@QEAA@AEAV__void__@@@Z
	??0G4TwistedTubs@@QEAA@AEBV0@@Z
	??0G4TwistedTubs@@QEAA@AEBVG4String@@NNNNHN@Z
	??0G4TwistedTubs@@QEAA@AEBVG4String@@NNNNN@Z
	??0G4TwistedTubs@@QEAA@AEBVG4String@@NNNNNHN@Z
	??0G4TwistedTubs@@QEAA@AEBVG4String@@NNNNNN@Z
	??0G4UniformElectricField@@QEAA@AEBV0@@Z
	??0G4UniformElectricField@@QEAA@AEBVHep3Vector@CLHEP@@@Z
	??0G4UniformElectricField@@QEAA@NNN@Z
	??0G4UniformGravityField@@QEAA@AEBV0@@Z
	??0G4UniformGravityField@@QEAA@AEBVHep3Vector@CLHEP@@@Z
	??0G4UniformGravityField@@QEAA@N@Z
	??0G4UniformMagField@@QEAA@AEBV0@@Z
	??0G4UniformMagField@@QEAA@AEBVHep3Vector@CLHEP@@@Z
	??0G4UniformMagField@@QEAA@NNN@Z
	??0G4UnionSolid@@QEAA@AEAV__void__@@@Z
	??0G4UnionSolid@@QEAA@AEBV0@@Z
	??0G4UnionSolid@@QEAA@AEBVG4String@@PEAVG4VSolid@@1@Z
	??0G4UnionSolid@@QEAA@AEBVG4String@@PEAVG4VSolid@@1AEBVTransform3D@HepGeom@@@Z
	??0G4UnionSolid@@QEAA@AEBVG4String@@PEAVG4VSolid@@1PEAVHepRotation@CLHEP@@AEBVHep3Vector@4@@Z
	??0G4VCSGfaceted@@QEAA@AEAV__void__@@@Z
	??0G4VCSGfaceted@@QEAA@AEBV0@@Z
	??0G4VCSGfaceted@@QEAA@AEBVG4String@@@Z
	??0G4VCurvedTrajectoryFilter@@QEAA@XZ
	??0G4VDivisionParameterisation@@QEAA@W4EAxis@@HNNW4DivisionType@@PEAVG4VSolid@@@Z
	??0G4VExternalNavigation@@QEAA@XZ
	??0G4VExternalPhysicalVolume@@QEAA@AEAV__void__@@@Z
	??0G4VExternalPhysicalVolume@@QEAA@PEAVHepRotation@CLHEP@@AEBVHep3Vector@2@PEAVG4LogicalVolume@@AEBVG4String@@PEAVG4VPhysicalVolume@@@Z
	??0G4VFSALIntegrationStepper@@QEAA@PEAVG4EquationOfMotion@@HH@Z
	??0G4VFacet@@QEAA@XZ
	??0G4VGCellFinder@@QEAA@XZ
	??0G4VIStore@@QEAA@XZ
	??0G4VImportanceAlgorithm@@QEAA@XZ
	??0G4VImportanceSplitExaminer@@QEAA@XZ
	??0G4VIntersectionLocator@@QEAA@PEAVG4Navigator@@@Z
	??0G4VNestedParameterisation@@QEAA@XZ
	??0G4VPVDivisionFactory@@IEAA@XZ
	??0G4VPVParameterisation@@QEAA@XZ
	??0G4VParameterisationBox@@QEAA@W4EAxis@@HNNPEAVG4VSolid@@W4DivisionType@@@Z
	??0G4VParameterisationCons@@QEAA@W4EAxis@@HNNPEAVG4VSolid@@W4DivisionType@@@Z
	??0G4VParameterisationPara@@QEAA@W4EAxis@@HNNPEAVG4VSolid@@W4DivisionType@@@Z
	??0G4VParameterisationPolycone@@QEAA@W4EAxis@@HNNPEAVG4VSolid@@W4DivisionType@@@Z
	??0G4VParameterisationPolyhedra@@QEAA@W4EAxis@@HNNPEAVG4VSolid@@W4DivisionType@@@Z
	??0G4VParameterisationTrd@@QEAA@W4EAxis@@HNNPEAVG4VSolid@@W4DivisionType@@@Z
	??0G4VParameterisationTubs@@QEAA@W4EAxis@@HNNPEAVG4VSolid@@W4DivisionType@@@Z
	??0G4VPhysicalVolume@@QEAA@AEAV__void__@@@Z
	??0G4VPhysicalVolume@@QEAA@PEAVHepRotation@CLHEP@@AEBVHep3Vector@2@AEBVG4String@@PEAVG4LogicalVolume@@PEAV0@@Z
	??0G4VSolid@@QEAA@AEAV__void__@@@Z
	??0G4VSolid@@QEAA@AEBV0@@Z
	??0G4VSolid@@QEAA@AEBVG4String@@@Z
	??0G4VTouchable@@QEAA@XZ
	??0G4VTwistSurface@@QEAA@AEAV__void__@@@Z
	??0G4VTwistSurface@@QEAA@AEBVG4String@@@Z
	??0G4VTwistSurface@@QEAA@AEBVG4String@@AEBVHepRotation@CLHEP@@AEBVHep3Vector@3@HW4EAxis@@3NNNN@Z
	??0G4VTwistedFaceted@@QEAA@AEAV__void__@@@Z
	??0G4VTwistedFaceted@@QEAA@AEBV0@@Z
	??0G4VTwistedFaceted@@QEAA@AEBVG4String@@NNNNNNNNNNN@Z
	??0G4VWeightWindowAlgorithm@@QEAA@XZ
	??0G4VWeightWindowStore@@QEAA@XZ
	??0G4VoxelLimits@@QEAA@XZ
	??0G4VoxelNavigation@@QEAA@XZ
	??0G4VoxelSafety@@QEAA@XZ
	??0G4Voxelizer@@QEAA@XZ
	??0G4WeightWindowAlgorithm@@QEAA@NNH@Z
	??0G4WeightWindowStore@@IEAA@AEBVG4String@@@Z
	??0G4WeightWindowStore@@IEAA@XZ
	??0Hep3Vector@CLHEP@@QEAA@XZ
	??0bad_alloc@std@@QEAA@AEBV01@@Z
	??0bad_array_new_length@std@@QEAA@AEBV01@@Z
	??0bad_array_new_length@std@@QEAA@XZ
	??0exception@std@@QEAA@AEBV01@@Z
	??0sG4PolyhedraSideEdge@G4PolyhedraSide@@QEAA@XZ
	??0sG4PolyhedraSideVec@G4PolyhedraSide@@QEAA@XZ
	??1?$BasicVector3D@N@HepGeom@@UEAA@XZ
	??1?$G4Allocator@V?$G4CountedObject@X@@@@UEAA@XZ
	??1?$G4Allocator@VG4NavigationLevelRep@@@@UEAA@XZ
	??1?$G4Allocator@VG4TouchableHistory@@@@UEAA@XZ
	??1?$G4Cache@PEAVG4RegularNavigationHelper@@@@UEAA@XZ
	??1?$G4Cache@PEAVHep3Vector@CLHEP@@@@UEAA@XZ
	??1?$G4Cache@PEAVHepRotation@CLHEP@@@@UEAA@XZ
	??1?$G4ChordFinderDelegate@V?$G4FSALIntegrationDriver@VG4RK547FEq1@@@@@@UEAA@XZ
	??1?$G4ChordFinderDelegate@V?$G4IntegrationDriver@VG4HelixHeum@@@@@@UEAA@XZ
	??1?$G4ChordFinderDelegate@V?$G4IntegrationDriver@VG4MagIntegratorStepper@@@@@@UEAA@XZ
	??1?$G4ChordFinderDelegate@VG4MagInt_Driver@@@@UEAA@XZ
	??1?$G4CountedObject@VG4TouchableHistory@@@@QEAA@XZ
	??1?$G4CountedObject@VG4VTouchable@@@@QEAA@XZ
	??1?$G4FSALIntegrationDriver@VG4RK547FEq1@@@@UEAA@XZ
	??1?$G4IntegrationDriver@VG4HelixHeum@@@@UEAA@XZ
	??1?$G4IntegrationDriver@VG4MagIntegratorStepper@@@@UEAA@XZ
	??1?$G4InterpolationDriver@VG4DormandPrince745@@@@UEAA@XZ
	??1?$G4ReferenceCountedHandle@VG4TouchableHistory@@@@QEAA@XZ
	??1?$G4TemplateAutoLock@Vmutex@std@@@@QEAA@XZ
	??1?$G4ThreadLocalSingleton@VG4RegularNavigationHelper@@@@UEAA@XZ
	??1?$G4ThreadLocalSingleton@VHep3Vector@CLHEP@@@@UEAA@XZ
	??1?$G4ThreadLocalSingleton@VHepRotation@CLHEP@@@@UEAA@XZ
	??1?$_Alloc_construct_ptr@V?$allocator@U?$_List_node@PEAVG4RegularNavigationHelper@@PEAX@std@@@std@@@std@@QEAA@XZ
	??1?$_Alloc_construct_ptr@V?$allocator@U?$_List_node@PEAVHep3Vector@CLHEP@@PEAX@std@@@std@@@std@@QEAA@XZ
	??1?$_Alloc_construct_ptr@V?$allocator@U?$_List_node@PEAVHepRotation@CLHEP@@PEAX@std@@@std@@@std@@QEAA@XZ
	??1?$_Alloc_construct_ptr@V?$allocator@U?$_Tree_node@HPEAX@std@@@std@@@std@@QEAA@XZ
	??1?$_Alloc_construct_ptr@V?$allocator@U?$_Tree_node@NPEAX@std@@@std@@@std@@QEAA@XZ
	??1?$_Alloc_construct_ptr@V?$allocator@U?$_Tree_node@PEAVG4VFacet@@PEAX@std@@@std@@@std@@QEAA@XZ
	??1?$_Alloc_construct_ptr@V?$allocator@U?$_Tree_node@U?$pair@$$CBHV?$vector@HV?$allocator@H@std@@@std@@@std@@PEAX@std@@@std@@@std@@QEAA@XZ
	??1?$_Alloc_construct_ptr@V?$allocator@U?$_Tree_node@U?$pair@$$CBIVTransform3D@HepGeom@@@std@@PEAX@std@@@std@@@std@@QEAA@XZ
	??1?$_Alloc_construct_ptr@V?$allocator@U?$_Tree_node@U?$pair@$$CBNN@std@@PEAX@std@@@std@@@std@@QEAA@XZ
	??1?$_Alloc_construct_ptr@V?$allocator@U?$_Tree_node@U?$pair@$$CBVG4GeometryCell@@N@std@@PEAX@std@@@std@@@std@@QEAA@XZ
	??1?$_Alloc_construct_ptr@V?$allocator@U?$_Tree_node@U?$pair@$$CBVG4GeometryCell@@V?$map@NNU?$less@N@std@@V?$allocator@U?$pair@$$CBNN@std@@@2@@std@@@std@@PEAX@std@@@std@@@std@@QEAA@XZ
	??1?$_Alloc_construct_ptr@V?$allocator@U?$_Tree_node@U?$pair@QEAVG4LogicalVolume@@PEAV1@@std@@PEAX@std@@@std@@@std@@QEAA@XZ
	??1?$_Alloc_construct_ptr@V?$allocator@U?$_Tree_node@UG4VertexInfo@@PEAX@std@@@std@@@std@@QEAA@XZ
	??1?$_Tidy_guard@V?$vector@V?$vector@HV?$allocator@H@std@@@std@@V?$allocator@V?$vector@HV?$allocator@H@std@@@std@@@2@@std@@@std@@QEAA@XZ
	??1?$_Tidy_guard@V?$vector@VG4NavigationLevel@@V?$allocator@VG4NavigationLevel@@@std@@@std@@@std@@QEAA@XZ
	??1?$_Tree_head_scoped_ptr@V?$allocator@U?$_Tree_node@U?$pair@$$CBNN@std@@PEAX@std@@@std@@V?$_Tree_val@U?$_Tree_simple_types@U?$pair@$$CBNN@std@@@std@@@2@@std@@QEAA@XZ
	??1?$_Tree_temp_node_alloc@V?$allocator@U?$_Tree_node@U?$pair@$$CBVG4GeometryCell@@N@std@@PEAX@std@@@std@@@std@@QEAA@XZ
	??1?$_Tree_temp_node_alloc@V?$allocator@U?$_Tree_node@U?$pair@$$CBVG4GeometryCell@@V?$map@NNU?$less@N@std@@V?$allocator@U?$pair@$$CBNN@std@@@2@@std@@@std@@PEAX@std@@@std@@@std@@QEAA@XZ
	??1?$_Uninitialized_backout_al@V?$allocator@V?$vector@HV?$allocator@H@std@@@std@@@std@@@std@@QEAA@XZ
	??1?$_Uninitialized_backout_al@V?$allocator@VG4NavigationLevel@@@std@@@std@@QEAA@XZ
	??1?$_Uninitialized_backout_al@V?$allocator@VG4PlacedPolyhedron@@@std@@@std@@QEAA@XZ
	??1?$_Vb_val@V?$allocator@_N@std@@@std@@QEAA@XZ
	??1?$basic_ostringstream@DU?$char_traits@D@std@@V?$allocator@D@2@@std@@UEAA@XZ
	??1?$basic_string@DU?$char_traits@D@std@@V?$allocator@D@2@@std@@QEAA@XZ
	??1?$basic_stringbuf@DU?$char_traits@D@std@@V?$allocator@D@2@@std@@UEAA@XZ
	??1?$basic_stringstream@DU?$char_traits@D@std@@V?$allocator@D@2@@std@@UEAA@XZ
	??1?$deque@V?$vector@HV?$allocator@H@std@@@std@@V?$allocator@V?$vector@HV?$allocator@H@std@@@std@@@2@@std@@QEAA@XZ
	??1?$list@PEAVG4RegularNavigationHelper@@V?$allocator@PEAVG4RegularNavigationHelper@@@std@@@std@@QEAA@XZ
	??1?$list@PEAVHep3Vector@CLHEP@@V?$allocator@PEAVHep3Vector@CLHEP@@@std@@@std@@QEAA@XZ
	??1?$list@PEAVHepRotation@CLHEP@@V?$allocator@PEAVHepRotation@CLHEP@@@std@@@std@@QEAA@XZ
	??1?$map@HV?$vector@HV?$allocator@H@std@@@std@@U?$less@H@2@V?$allocator@U?$pair@$$CBHV?$vector@HV?$allocator@H@std@@@std@@@std@@@2@@std@@QEAA@XZ
	??1?$map@IVTransform3D@HepGeom@@U?$less@I@std@@V?$allocator@U?$pair@$$CBIVTransform3D@HepGeom@@@std@@@4@@std@@QEAA@XZ
	??1?$map@NNU?$less@N@std@@V?$allocator@U?$pair@$$CBNN@std@@@2@@std@@QEAA@XZ
	??1?$map@PEAVG4LogicalVolume@@PEAV1@U?$less@PEAVG4LogicalVolume@@@std@@V?$allocator@U?$pair@QEAVG4LogicalVolume@@PEAV1@@std@@@3@@std@@QEAA@XZ
	??1?$map@PEAVG4Material@@PEAVG4MaterialCutsCouple@@U?$less@PEAVG4Material@@@std@@V?$allocator@U?$pair@QEAVG4Material@@PEAVG4MaterialCutsCouple@@@std@@@4@@std@@QEAA@XZ
	??1?$map@VG4GeometryCell@@NVG4GeometryCellComp@@V?$allocator@U?$pair@$$CBVG4GeometryCell@@N@std@@@std@@@std@@QEAA@XZ
	??1?$multimap@HHU?$less@H@std@@V?$allocator@U?$pair@$$CBHH@std@@@2@@std@@QEAA@XZ
	??1?$set@HVG4VoxelComparator@G4Voxelizer@@V?$allocator@H@std@@@std@@QEAA@XZ
	??1?$set@NU?$less@N@std@@V?$allocator@N@2@@std@@QEAA@XZ
	??1?$set@PEAVG4VFacet@@U?$less@PEAVG4VFacet@@@std@@V?$allocator@PEAVG4VFacet@@@3@@std@@QEAA@XZ
	??1?$set@PEBVG4LogicalVolume@@U?$less@PEBVG4LogicalVolume@@@std@@V?$allocator@PEBVG4LogicalVolume@@@3@@std@@QEAA@XZ
	??1?$set@UG4VertexInfo@@VG4VertexComparator@@V?$allocator@UG4VertexInfo@@@std@@@std@@QEAA@XZ
	??1?$stack@V?$vector@HV?$allocator@H@std@@@std@@V?$deque@V?$vector@HV?$allocator@H@std@@@std@@V?$allocator@V?$vector@HV?$allocator@H@std@@@std@@@2@@2@@std@@QEAA@XZ
	??1?$unique_ptr@V?$G4IntegrationDriver@VG4HelixHeum@@@@U?$default_delete@V?$G4IntegrationDriver@VG4HelixHeum@@@@@std@@@std@@QEAA@XZ
	??1?$unique_ptr@V?$G4InterpolationDriver@VG4DormandPrince745@@@@U?$default_delete@V?$G4InterpolationDriver@VG4DormandPrince745@@@@@std@@@std@@QEAA@XZ
	??1?$unique_ptr@VG4CachedMagneticField@@U?$default_delete@VG4CachedMagneticField@@@std@@@std@@QEAA@XZ
	??1?$unique_ptr@VG4HelixHeum@@U?$default_delete@VG4HelixHeum@@@std@@@std@@QEAA@XZ
	??1?$unique_ptr@VG4VIntegrationDriver@@U?$default_delete@VG4VIntegrationDriver@@@std@@@std@@QEAA@XZ
	??1?$vector@HV?$allocator@H@std@@@std@@QEAA@XZ
	??1?$vector@NV?$allocator@N@std@@@std@@QEAA@XZ
	??1?$vector@PEAHV?$allocator@PEAH@std@@@std@@QEAA@XZ
	??1?$vector@PEAV?$vector@V?$Point3D@N@HepGeom@@V?$allocator@V?$Point3D@N@HepGeom@@@std@@@std@@V?$allocator@PEAV?$vector@V?$Point3D@N@HepGeom@@V?$allocator@V?$Point3D@N@HepGeom@@@std@@@std@@@2@@std@@QEAA@XZ
	??1?$vector@PEAV?$vector@VG4NavigationLevel@@V?$allocator@VG4NavigationLevel@@@std@@@std@@V?$allocator@PEAV?$vector@VG4NavigationLevel@@V?$allocator@VG4NavigationLevel@@@std@@@std@@@2@@std@@QEAA@XZ
	??1?$vector@PEAVG4AssemblyVolume@@V?$allocator@PEAVG4AssemblyVolume@@@std@@@std@@QEAA@XZ
	??1?$vector@PEAVG4FieldManager@@V?$allocator@PEAVG4FieldManager@@@std@@@std@@QEAA@XZ
	??1?$vector@PEAVG4LogicalVolume@@V?$allocator@PEAVG4LogicalVolume@@@std@@@std@@QEAA@XZ
	??1?$vector@PEAVG4Material@@V?$allocator@PEAVG4Material@@@std@@@std@@QEAA@XZ
	??1?$vector@PEAVG4Navigator@@V?$allocator@PEAVG4Navigator@@@std@@@std@@QEAA@XZ
	??1?$vector@PEAVG4Region@@V?$allocator@PEAVG4Region@@@std@@@std@@QEAA@XZ
	??1?$vector@PEAVG4SmartVoxelHeader@@V?$allocator@PEAVG4SmartVoxelHeader@@@std@@@std@@QEAA@XZ
	??1?$vector@PEAVG4SmartVoxelNode@@V?$allocator@PEAVG4SmartVoxelNode@@@std@@@std@@QEAA@XZ
	??1?$vector@PEAVG4SmartVoxelProxy@@V?$allocator@PEAVG4SmartVoxelProxy@@@std@@@std@@QEAA@XZ
	??1?$vector@PEAVG4VFacet@@V?$allocator@PEAVG4VFacet@@@std@@@std@@QEAA@XZ
	??1?$vector@PEAVG4VPhysicalVolume@@V?$allocator@PEAVG4VPhysicalVolume@@@std@@@std@@QEAA@XZ
	??1?$vector@PEAVG4VSolid@@V?$allocator@PEAVG4VSolid@@@std@@@std@@QEAA@XZ
	??1?$vector@PEBV?$vector@VHep3Vector@CLHEP@@V?$allocator@VHep3Vector@CLHEP@@@std@@@std@@V?$allocator@PEBV?$vector@VHep3Vector@CLHEP@@V?$allocator@VHep3Vector@CLHEP@@@std@@@std@@@2@@std@@QEAA@XZ
	??1?$vector@PEBVG4SmartVoxelHeader@@V?$allocator@PEBVG4SmartVoxelHeader@@@std@@@std@@QEAA@XZ
	??1?$vector@U?$pair@HN@std@@V?$allocator@U?$pair@HN@std@@@2@@std@@QEAA@XZ
	??1?$vector@U?$pair@PEAVG4VSolid@@VTransform3D@HepGeom@@@std@@V?$allocator@U?$pair@PEAVG4VSolid@@VTransform3D@HepGeom@@@std@@@2@@std@@QEAA@XZ
	??1?$vector@U?$pair@V?$Point3D@N@HepGeom@@V12@@std@@V?$allocator@U?$pair@V?$Point3D@N@HepGeom@@V12@@std@@@2@@std@@QEAA@XZ
	??1?$vector@U?$pair@VHep2Vector@CLHEP@@H@std@@V?$allocator@U?$pair@VHep2Vector@CLHEP@@H@std@@@2@@std@@QEAA@XZ
	??1?$vector@UG4MultiUnionSurface@G4MultiUnion@@V?$allocator@UG4MultiUnionSurface@G4MultiUnion@@@std@@@std@@QEAA@XZ
	??1?$vector@UG4VoxelBox@@V?$allocator@UG4VoxelBox@@@std@@@std@@QEAA@XZ
	??1?$vector@UG4VoxelInfo@@V?$allocator@UG4VoxelInfo@@@std@@@std@@QEAA@XZ
	??1?$vector@UInterpStepper@?$G4InterpolationDriver@VG4DormandPrince745@@@@V?$allocator@UInterpStepper@?$G4InterpolationDriver@VG4DormandPrince745@@@@@std@@@std@@QEAA@XZ
	??1?$vector@UIntersection@@V?$allocator@UIntersection@@@std@@@std@@QEAA@XZ
	??1?$vector@UZSection@G4ExtrudedSolid@@V?$allocator@UZSection@G4ExtrudedSolid@@@std@@@std@@QEAA@XZ
	??1?$vector@Uline@G4ExtrudedSolid@@V?$allocator@Uline@G4ExtrudedSolid@@@std@@@std@@QEAA@XZ
	??1?$vector@Uplane@G4ExtrudedSolid@@V?$allocator@Uplane@G4ExtrudedSolid@@@std@@@std@@QEAA@XZ
	??1?$vector@V?$Plane3D@N@HepGeom@@V?$allocator@V?$Plane3D@N@HepGeom@@@std@@@std@@QEAA@XZ
	??1?$vector@V?$vector@HV?$allocator@H@std@@@std@@V?$allocator@V?$vector@HV?$allocator@H@std@@@std@@@2@@std@@QEAA@XZ
	??1?$vector@VG4AssemblyTriplet@@V?$allocator@VG4AssemblyTriplet@@@std@@@std@@QEAA@XZ
	??1?$vector@VG4SmartVoxelStat@@V?$allocator@VG4SmartVoxelStat@@@std@@@std@@QEAA@XZ
	??1?$vector@VHep2Vector@CLHEP@@V?$allocator@VHep2Vector@CLHEP@@@std@@@std@@QEAA@XZ
	??1?$vector@VHep3Vector@CLHEP@@V?$allocator@VHep3Vector@CLHEP@@@std@@@std@@QEAA@XZ
	??1?$vector@VTransform3D@HepGeom@@V?$allocator@VTransform3D@HepGeom@@@std@@@std@@QEAA@XZ
	??1?$vector@W4EAxis@@V?$allocator@W4EAxis@@@std@@@std@@QEAA@XZ
	??1?$vector@_NV?$allocator@_N@std@@@std@@QEAA@XZ
	??1Boundary@G4VTwistSurface@@UEAA@XZ
	??1CurrentStatus@G4VTwistSurface@@UEAA@XZ
	??1G4AssemblyStore@@MEAA@XZ
	??1G4AssemblyVolume@@QEAA@XZ
	??1G4BlockingList@@QEAA@XZ
	??1G4BogackiShampine45@@UEAA@XZ
	??1G4BooleanSolid@@UEAA@XZ
	??1G4BoundingEnvelope@@QEAA@XZ
	??1G4Box@@UEAA@XZ
	??1G4BrentLocator@@UEAA@XZ
	??1G4CSGSolid@@UEAA@XZ
	??1G4CachedMagneticField@@UEAA@XZ
	??1G4CashKarpRKF45@@UEAA@XZ
	??1G4ChordFinder@@UEAA@XZ
	??1G4ClassicalRK4@@UEAA@XZ
	??1G4ClippablePolygon@@UEAA@XZ
	??1G4Cons@@UEAA@XZ
	??1G4ConstRK4@@UEAA@XZ
	??1G4CutTubs@@UEAA@XZ
	??1G4DELPHIMagField@@UEAA@XZ
	??1G4DisplacedSolid@@UEAA@XZ
	??1G4DoLoMcPriRK34@@UEAA@XZ
	??1G4DormandPrinceRK56@@UEAA@XZ
	??1G4DormandPrinceRK78@@UEAA@XZ
	??1G4DrawVoxels@@QEAA@XZ
	??1G4ElectricField@@UEAA@XZ
	??1G4ElectroMagneticField@@UEAA@XZ
	??1G4Ellipsoid@@UEAA@XZ
	??1G4EllipticalCone@@UEAA@XZ
	??1G4EllipticalTube@@UEAA@XZ
	??1G4EnclosingCylinder@@QEAA@XZ
	??1G4EqEMFieldWithEDM@@UEAA@XZ
	??1G4EqEMFieldWithSpin@@UEAA@XZ
	??1G4EqGravityField@@UEAA@XZ
	??1G4EqMagElectricField@@UEAA@XZ
	??1G4EquationOfMotion@@UEAA@XZ
	??1G4ErrorCylSurfaceTarget@@UEAA@XZ
	??1G4ErrorMag_UsualEqRhs@@UEAA@XZ
	??1G4ErrorPlaneSurfaceTarget@@UEAA@XZ
	??1G4ErrorPropagationNavigator@@UEAA@XZ
	??1G4ErrorSurfaceTarget@@UEAA@XZ
	??1G4ErrorTanPlaneTarget@@UEAA@XZ
	??1G4ErrorTarget@@UEAA@XZ
	??1G4ExactHelixStepper@@UEAA@XZ
	??1G4ExplicitEuler@@UEAA@XZ
	??1G4ExtrudedSolid@@UEAA@XZ
	??1G4FSALBogackiShampine45@@UEAA@XZ
	??1G4FSALDormandPrince745@@UEAA@XZ
	??1G4Field@@UEAA@XZ
	??1G4FieldManager@@UEAA@XZ
	??1G4FieldManagerStore@@QEAA@XZ
	??1G4GRSSolid@@UEAA@XZ
	??1G4GRSVolume@@UEAA@XZ
	??1G4GenericPolycone@@UEAA@XZ
	??1G4GenericTrap@@UEAA@XZ
	??1G4GeomTestVolume@@QEAA@XZ
	??1G4GeometryCell@@QEAA@XZ
	??1G4GeometryCellStep@@QEAA@XZ
	??1G4GeometryManager@@QEAA@XZ
	??1G4GeometryMessenger@@UEAA@XZ
	??1G4GeometryWorkspace@@QEAA@XZ
	??1G4GlobalMagFieldMessenger@@UEAA@XZ
	??1G4HarmonicPolMagField@@UEAA@XZ
	??1G4HelixExplicitEuler@@UEAA@XZ
	??1G4HelixHeum@@UEAA@XZ
	??1G4HelixImplicitEuler@@UEAA@XZ
	??1G4HelixMixedStepper@@UEAA@XZ
	??1G4HelixSimpleRunge@@UEAA@XZ
	??1G4Hype@@UEAA@XZ
	??1G4IStore@@MEAA@XZ
	??1G4IdentityTrajectoryFilter@@UEAA@XZ
	??1G4ImplicitEuler@@UEAA@XZ
	??1G4ImportanceAlgorithm@@UEAA@XZ
	??1G4IntersectingCone@@UEAA@XZ
	??1G4IntersectionSolid@@UEAA@XZ
	??1G4LineCurrentMagField@@UEAA@XZ
	??1G4LogicalBorderSurface@@UEAA@XZ
	??1G4LogicalCrystalVolume@@UEAA@XZ
	??1G4LogicalSkinSurface@@UEAA@XZ
	??1G4LogicalSurface@@UEAA@XZ
	??1G4LogicalVolume@@UEAA@XZ
	??1G4LogicalVolumeStore@@UEAA@XZ
	??1G4MagErrorStepper@@UEAA@XZ
	??1G4MagHelicalStepper@@UEAA@XZ
	??1G4MagInt_Driver@@UEAA@XZ
	??1G4MagIntegratorStepper@@UEAA@XZ
	??1G4Mag_EqRhs@@UEAA@XZ
	??1G4Mag_SpinEqRhs@@UEAA@XZ
	??1G4Mag_UsualEqRhs@@UEAA@XZ
	??1G4MagneticField@@UEAA@XZ
	??1G4MonopoleEq@@UEAA@XZ
	??1G4MultiLevelLocator@@UEAA@XZ
	??1G4MultiNavigator@@UEAA@XZ
	??1G4MultiUnion@@UEAA@XZ
	??1G4NavigationHistory@@QEAA@XZ
	??1G4NavigationHistoryPool@@QEAA@XZ
	??1G4NavigationLevel@@QEAA@XZ
	??1G4NavigationLogger@@QEAA@XZ
	??1G4Navigator@@UEAA@XZ
	??1G4NormalNavigation@@QEAA@XZ
	??1G4Orb@@UEAA@XZ
	??1G4PVDivision@@UEAA@XZ
	??1G4PVDivisionFactory@@UEAA@XZ
	??1G4PVParameterised@@UEAA@XZ
	??1G4PVPlacement@@UEAA@XZ
	??1G4PVReplica@@UEAA@XZ
	??1G4Para@@UEAA@XZ
	??1G4Paraboloid@@UEAA@XZ
	??1G4ParameterisationBoxX@@UEAA@XZ
	??1G4ParameterisationBoxY@@UEAA@XZ
	??1G4ParameterisationBoxZ@@UEAA@XZ
	??1G4ParameterisationConsPhi@@UEAA@XZ
	??1G4ParameterisationConsRho@@UEAA@XZ
	??1G4ParameterisationConsZ@@UEAA@XZ
	??1G4ParameterisationParaX@@UEAA@XZ
	??1G4ParameterisationParaY@@UEAA@XZ
	??1G4ParameterisationParaZ@@UEAA@XZ
	??1G4ParameterisationPolyconePhi@@UEAA@XZ
	??1G4ParameterisationPolyconeRho@@UEAA@XZ
	??1G4ParameterisationPolyconeZ@@UEAA@XZ
	??1G4ParameterisationPolyhedraPhi@@UEAA@XZ
	??1G4ParameterisationPolyhedraRho@@UEAA@XZ
	??1G4ParameterisationPolyhedraZ@@UEAA@XZ
	??1G4ParameterisationTrdX@@UEAA@XZ
	??1G4ParameterisationTrdY@@UEAA@XZ
	??1G4ParameterisationTrdZ@@UEAA@XZ
	??1G4ParameterisationTubsPhi@@UEAA@XZ
	??1G4ParameterisationTubsRho@@UEAA@XZ
	??1G4ParameterisationTubsZ@@UEAA@XZ
	??1G4ParameterisedNavigation@@UEAA@XZ
	??1G4PartialPhantomParameterisation@@UEAA@XZ
	??1G4PathFinder@@QEAA@XZ
	??1G4PhantomParameterisation@@UEAA@XZ
	??1G4PhysicalVolumeStore@@UEAA@XZ
	??1G4PlacedPolyhedron@@QEAA@XZ
	??1G4PolyPhiFace@@UEAA@XZ
	??1G4PolyPhiFaceEdge@@QEAA@XZ
	??1G4PolyPhiFaceVertex@@QEAA@XZ
	??1G4Polycone@@UEAA@XZ
	??1G4PolyconeHistorical@@QEAA@XZ
	??1G4PolyconeSide@@UEAA@XZ
	??1G4Polyhedra@@UEAA@XZ
	??1G4PolyhedraHistorical@@QEAA@XZ
	??1G4PolyhedraSide@@UEAA@XZ
	??1G4PropagatorInField@@QEAA@XZ
	??1G4QuadrangularFacet@@UEAA@XZ
	??1G4QuadrupoleMagField@@UEAA@XZ
	??1G4RKG3_Stepper@@UEAA@XZ
	??1G4ReduciblePolygon@@UEAA@XZ
	??1G4ReflectedSolid@@UEAA@XZ
	??1G4ReflectionFactory@@UEAA@XZ
	??1G4Region@@UEAA@XZ
	??1G4RegionStore@@MEAA@XZ
	??1G4RegularNavigation@@QEAA@XZ
	??1G4RegularNavigationHelper@@QEAA@XZ
	??1G4RepleteEofM@@UEAA@XZ
	??1G4ReplicaNavigation@@QEAA@XZ
	??1G4ReplicatedSlice@@UEAA@XZ
	??1G4SafetyHelper@@QEAA@XZ
	??1G4ScaledSolid@@UEAA@XZ
	??1G4SextupoleMagField@@UEAA@XZ
	??1G4SimpleHeum@@UEAA@XZ
	??1G4SimpleLocator@@UEAA@XZ
	??1G4SimpleRunge@@UEAA@XZ
	??1G4SmartVoxelHeader@@QEAA@XZ
	??1G4SmartVoxelNode@@QEAA@XZ
	??1G4SmartVoxelProxy@@QEAA@XZ
	??1G4SolidExtentList@@QEAA@XZ
	??1G4SolidStore@@UEAA@XZ
	??1G4SolidsWorkspace@@QEAA@XZ
	??1G4Sphere@@UEAA@XZ
	??1G4String@@QEAA@XZ
	??1G4SubtractionSolid@@UEAA@XZ
	??1G4SurfBits@@QEAA@XZ
	??1G4TessellatedSolid@@UEAA@XZ
	??1G4Tet@@UEAA@XZ
	??1G4Torus@@UEAA@XZ
	??1G4TouchableHistory@@UEAA@XZ
	??1G4TransportationManager@@QEAA@XZ
	??1G4Trap@@UEAA@XZ
	??1G4Trd@@UEAA@XZ
	??1G4TrialsCounter@@QEAA@XZ
	??1G4TriangularFacet@@UEAA@XZ
	??1G4TsitourasRK45@@UEAA@XZ
	??1G4Tubs@@UEAA@XZ
	??1G4TwistBoxSide@@UEAA@XZ
	??1G4TwistTrapAlphaSide@@UEAA@XZ
	??1G4TwistTrapFlatSide@@UEAA@XZ
	??1G4TwistTrapParallelSide@@UEAA@XZ
	??1G4TwistTubsFlatSide@@UEAA@XZ
	??1G4TwistTubsHypeSide@@UEAA@XZ
	??1G4TwistTubsSide@@UEAA@XZ
	??1G4TwistedBox@@UEAA@XZ
	??1G4TwistedTrap@@UEAA@XZ
	??1G4TwistedTrd@@UEAA@XZ
	??1G4TwistedTubs@@UEAA@XZ
	??1G4UniformElectricField@@UEAA@XZ
	??1G4UniformGravityField@@UEAA@XZ
	??1G4UniformMagField@@UEAA@XZ
	??1G4UnionSolid@@UEAA@XZ
	??1G4VCSGface@@UEAA@XZ
	??1G4VCSGfaceted@@UEAA@XZ
	??1G4VCurvedTrajectoryFilter@@UEAA@XZ
	??1G4VDivisionParameterisation@@UEAA@XZ
	??1G4VExternalNavigation@@UEAA@XZ
	??1G4VExternalPhysicalVolume@@UEAA@XZ
	??1G4VFSALIntegrationStepper@@UEAA@XZ
	??1G4VFacet@@UEAA@XZ
	??1G4VGCellFinder@@UEAA@XZ
	??1G4VIStore@@UEAA@XZ
	??1G4VImportanceAlgorithm@@UEAA@XZ
	??1G4VImportanceSplitExaminer@@UEAA@XZ
	??1G4VIntegrationDriver@@UEAA@XZ
	??1G4VIntersectionLocator@@UEAA@XZ
	??1G4VNestedParameterisation@@UEAA@XZ
	??1G4VPVDivisionFactory@@UEAA@XZ
	??1G4VPVParameterisation@@UEAA@XZ
	??1G4VParameterisationBox@@UEAA@XZ
	??1G4VParameterisationCons@@UEAA@XZ
	??1G4VParameterisationPara@@UEAA@XZ
	??1G4VParameterisationPolycone@@UEAA@XZ
	??1G4VParameterisationPolyhedra@@UEAA@XZ
	??1G4VParameterisationTrd@@UEAA@XZ
	??1G4VParameterisationTubs@@UEAA@XZ
	??1G4VPhysicalVolume@@UEAA@XZ
	??1G4VSolid@@UEAA@XZ
	??1G4VTouchable@@UEAA@XZ
	??1G4VTwistSurface@@UEAA@XZ
	??1G4VTwistedFaceted@@UEAA@XZ
	??1G4VVolumeMaterialScanner@@UEAA@XZ
	??1G4VWeightWindowAlgorithm@@UEAA@XZ
	??1G4VWeightWindowStore@@UEAA@XZ
	??1G4VoxelLimits@@QEAA@XZ
	??1G4VoxelNavigation@@UEAA@XZ
	??1G4VoxelSafety@@QEAA@XZ
	??1G4Voxelizer@@QEAA@XZ
	??1G4WeightWindowAlgorithm@@UEAA@XZ
	??1G4WeightWindowStore@@MEAA@XZ
	??1Hep2Vector@CLHEP@@QEAA@XZ
	??1Hep3Vector@CLHEP@@QEAA@XZ
	??1HepPolyhedron@@UEAA@XZ
	??1InterpStepper@?$G4InterpolationDriver@VG4DormandPrince745@@@@QEAA@XZ
	??1LastVector@G4TwistedTubs@@QEAA@XZ
	??1LastVector@G4VTwistedFaceted@@QEAA@XZ
	??1_Sentry_base@?$basic_ostream@DU?$char_traits@D@std@@@std@@QEAA@XZ
	??1bad_array_new_length@std@@UEAA@XZ
	??1exception@std@@UEAA@XZ
	??1mutex@std@@QEAA@XZ
	??1sG4PolyhedraSideEdge@G4PolyhedraSide@@QEAA@XZ
	??1sG4PolyhedraSideVec@G4PolyhedraSide@@QEAA@XZ
	??1sentry@?$basic_ostream@DU?$char_traits@D@std@@@std@@QEAA@XZ
	??2?$G4CountedObject@VG4VTouchable@@@@SAPEAX_K@Z
	??2G4NavigationLevelRep@@SAPEAX_K@Z
	??2G4TouchableHistory@@SAPEAX_K@Z
	??3G4TouchableHistory@@SAXPEAX@Z
	??4?$map@NNU?$less@N@std@@V?$allocator@U?$pair@$$CBNN@std@@@2@@std@@QEAAAEAV01@AEBV01@@Z
	??4?$vector@NV?$allocator@N@std@@@std@@QEAAAEAV01@AEBV01@@Z
	??4?$vector@PEAVG4SmartVoxelProxy@@V?$allocator@PEAVG4SmartVoxelProxy@@@std@@@std@@QEAAAEAV01@AEBV01@@Z
	??4G4BooleanSolid@@QEAAAEAV0@AEBV0@@Z
	??4G4Box@@QEAAAEAV0@AEBV0@@Z
	??4G4CSGSolid@@QEAAAEAV0@AEBV0@@Z
	??4G4CachedMagneticField@@QEAAAEAV0@AEBV0@@Z
	??4G4ClippablePolygon@@QEAAAEAV0@AEBV0@@Z
	??4G4Cons@@QEAAAEAV0@AEBV0@@Z
	??4G4CutTubs@@QEAAAEAV0@AEBV0@@Z
	??4G4DisplacedSolid@@QEAAAEAV0@AEBV0@@Z
	??4G4ElectricField@@QEAAAEAV0@AEBV0@@Z
	??4G4ElectroMagneticField@@QEAAAEAV0@AEBV0@@Z
	??4G4Ellipsoid@@QEAAAEAV0@AEBV0@@Z
	??4G4EllipticalCone@@QEAAAEAV0@AEBV0@@Z
	??4G4EllipticalTube@@QEAAAEAV0@AEBV0@@Z
	??4G4ExtrudedSolid@@QEAAAEAV0@AEBV0@@Z
	??4G4Field@@QEAAAEAV0@AEBV0@@Z
	??4G4FieldTrack@@QEAAAEAV0@AEBV0@@Z
	??4G4GenericPolycone@@QEAAAEAV0@AEBV0@@Z
	??4G4GenericTrap@@QEAAAEAV0@AEBV0@@Z
	??4G4GeometryCell@@QEAAAEAV0@AEBV0@@Z
	??4G4Hype@@QEAAAEAV0@AEBV0@@Z
	??4G4IntersectionSolid@@QEAAAEAV0@AEBV0@@Z
	??4G4MagneticField@@QEAAAEAV0@AEBV0@@Z
	??4G4MultiUnion@@QEAAAEAV0@AEBV0@@Z
	??4G4NavigationLevel@@QEAAAEAV0@AEBV0@@Z
	??4G4Orb@@QEAAAEAV0@AEBV0@@Z
	??4G4Para@@QEAAAEAV0@AEBV0@@Z
	??4G4Paraboloid@@QEAAAEAV0@AEBV0@@Z
	??4G4PolyPhiFace@@QEAAAEAV0@AEBV0@@Z
	??4G4Polycone@@QEAAAEAV0@AEBV0@@Z
	??4G4PolyconeHistorical@@QEAAAEAV0@AEBV0@@Z
	??4G4PolyconeSide@@QEAAAEAV0@AEBV0@@Z
	??4G4Polyhedra@@QEAAAEAV0@AEBV0@@Z
	??4G4PolyhedraHistorical@@QEAAAEAV0@AEBV0@@Z
	??4G4PolyhedraSide@@QEAAAEAV0@AEBV0@@Z
	??4G4QuadrangularFacet@@QEAAAEAV0@AEBV0@@Z
	??4G4ReflectedSolid@@QEAAAEAV0@AEBV0@@Z
	??4G4ScaledSolid@@QEAAAEAV0@AEBV0@@Z
	??4G4Sphere@@QEAAAEAV0@AEBV0@@Z
	??4G4SubtractionSolid@@QEAAAEAV0@AEBV0@@Z
	??4G4SurfBits@@QEAAAEAV0@AEBV0@@Z
	??4G4TessellatedSolid@@QEAAAEAV0@AEBV0@@Z
	??4G4Tet@@QEAAAEAV0@AEBV0@@Z
	??4G4Torus@@QEAAAEAV0@AEBV0@@Z
	??4G4Trap@@QEAAAEAV0@AEBV0@@Z
	??4G4Trd@@QEAAAEAV0@AEBV0@@Z
	??4G4TriangularFacet@@QEAAAEAV0@$$QEAV0@@Z
	??4G4TriangularFacet@@QEAAAEAV0@AEBV0@@Z
	??4G4Tubs@@QEAAAEAV0@AEBV0@@Z
	??4G4TwistedBox@@QEAAAEAV0@AEBV0@@Z
	??4G4TwistedTrap@@QEAAAEAV0@AEBV0@@Z
	??4G4TwistedTrd@@QEAAAEAV0@AEBV0@@Z
	??4G4TwistedTubs@@QEAAAEAV0@AEBV0@@Z
	??4G4UniformElectricField@@QEAAAEAV0@AEBV0@@Z
	??4G4UniformGravityField@@QEAAAEAV0@AEBV0@@Z
	??4G4UniformMagField@@QEAAAEAV0@AEBV0@@Z
	??4G4UnionSolid@@QEAAAEAV0@AEBV0@@Z
	??4G4VCSGfaceted@@QEAAAEAV0@AEBV0@@Z
	??4G4VSolid@@QEAAAEAV0@AEBV0@@Z
	??4G4VTwistedFaceted@@QEAAAEAV0@AEBV0@@Z
	??6@YAAEAV?$basic_ostream@DU?$char_traits@D@std@@@std@@AEAV01@AEBV?$map@VG4GeometryCell@@NVG4GeometryCellComp@@V?$allocator@U?$pair@$$CBVG4GeometryCell@@N@std@@@std@@@1@@Z
	??6@YAAEAV?$basic_ostream@DU?$char_traits@D@std@@@std@@AEAV01@AEBVG4FieldTrack@@@Z
	??6@YAAEAV?$basic_ostream@DU?$char_traits@D@std@@@std@@AEAV01@AEBVG4GeometryCell@@@Z
	??6@YAAEAV?$basic_ostream@DU?$char_traits@D@std@@@std@@AEAV01@AEBVG4GeometryCellStep@@@Z
	??6@YAAEAV?$basic_ostream@DU?$char_traits@D@std@@@std@@AEAV01@AEBVG4NavigationHistory@@@Z
	??6@YAAEAV?$basic_ostream@DU?$char_traits@D@std@@@std@@AEAV01@AEBVG4Navigator@@@Z
	??6@YAAEAV?$basic_ostream@DU?$char_traits@D@std@@@std@@AEAV01@AEBVG4Nsplit_Weight@@@Z
	??6@YAAEAV?$basic_ostream@DU?$char_traits@D@std@@@std@@AEAV01@AEBVG4SmartVoxelHeader@@@Z
	??6@YAAEAV?$basic_ostream@DU?$char_traits@D@std@@@std@@AEAV01@AEBVG4VSolid@@@Z
	??6@YAAEAV?$basic_ostream@DU?$char_traits@D@std@@@std@@AEAV01@AEBVG4VoxelLimits@@@Z
	??8@YA_NAEBVG4GeometryCell@@0@Z
	??8G4LogicalBorderSurface@@QEBA_NAEBV0@@Z
	??8G4LogicalSkinSurface@@QEBA_NAEBV0@@Z
	??8G4SmartVoxelHeader@@QEBA_NAEBV0@@Z
	??8G4SmartVoxelNode@@QEBA_NAEBV0@@Z
	??8G4VFacet@@QEBA_NAEBV0@@Z
	??9@YA_NAEBVG4GeometryCell@@0@Z
	??9G4LogicalBorderSurface@@QEBA_NAEBV0@@Z
	??9G4LogicalSkinSurface@@QEBA_NAEBV0@@Z
	??A?$map@PEAVG4LogicalVolume@@PEAV1@U?$less@PEAVG4LogicalVolume@@@std@@V?$allocator@U?$pair@QEAVG4LogicalVolume@@PEAV1@@std@@@3@@std@@QEAAAEAPEAVG4LogicalVolume@@AEBQEAV2@@Z
	??A?$map@VG4GeometryCell@@NVG4GeometryCellComp@@V?$allocator@U?$pair@$$CBVG4GeometryCell@@N@std@@@std@@@std@@QEAAAEANAEBVG4GeometryCell@@@Z
	??A?$map@VG4GeometryCell@@V?$map@NNU?$less@N@std@@V?$allocator@U?$pair@$$CBNN@std@@@2@@std@@VG4GeometryCellComp@@V?$allocator@U?$pair@$$CBVG4GeometryCell@@V?$map@NNU?$less@N@std@@V?$allocator@U?$pair@$$CBNN@std@@@2@@std@@@std@@@3@@std@@QEAAAEAV?$map@NNU?$less@N@std@@V?$allocator@U?$pair@$$CBNN@std@@@2@@1@AEBVG4GeometryCell@@@Z
	??AG4SurfBits@@QEBA_NI@Z
	??DG4AffineTransform@@QEBA?AV0@AEBV0@@Z
	??RG4GeometryCellComp@@QEBA_NAEBVG4GeometryCell@@0@Z
	??YG4TessellatedSolid@@QEAAAEAV0@AEBV0@@Z
	??_D?$basic_ostringstream@DU?$char_traits@D@std@@V?$allocator@D@2@@std@@QEAAXXZ
	??_D?$basic_stringstream@DU?$char_traits@D@std@@V?$allocator@D@2@@std@@QEAAXXZ
	??_FG4SurfBits@@QEAAXXZ
	??_FHep2Vector@CLHEP@@QEAAXXZ
	?AccumulateStatistics@?$G4ChordFinderDelegate@V?$G4FSALIntegrationDriver@VG4RK547FEq1@@@@@@AEAAXH@Z
	?AccumulateStatistics@?$G4ChordFinderDelegate@V?$G4IntegrationDriver@VG4HelixHeum@@@@@@AEAAXH@Z
	?AccumulateStatistics@?$G4ChordFinderDelegate@V?$G4IntegrationDriver@VG4MagIntegratorStepper@@@@@@AEAAXH@Z
	?AccumulateStatistics@?$G4ChordFinderDelegate@VG4MagInt_Driver@@@@AEAAXH@Z
	?AccumulateStatistics@?$G4InterpolationDriver@VG4DormandPrince745@@@@AEAAXH@Z
	?AccurateAdvance@?$G4FSALIntegrationDriver@VG4RK547FEq1@@@@UEAA_NAEAVG4FieldTrack@@NNN@Z
	?AccurateAdvance@?$G4IntegrationDriver@VG4HelixHeum@@@@UEAA_NAEAVG4FieldTrack@@NNN@Z
	?AccurateAdvance@?$G4IntegrationDriver@VG4MagIntegratorStepper@@@@UEAA_NAEAVG4FieldTrack@@NNN@Z
	?AccurateAdvance@?$G4InterpolationDriver@VG4DormandPrince745@@@@UEAA_NAEAVG4FieldTrack@@NNN@Z
	?AccurateAdvance@G4BFieldIntegrationDriver@@UEAA_NAEAVG4FieldTrack@@NNN@Z
	?AccurateAdvance@G4MagInt_Driver@@UEAA_NAEAVG4FieldTrack@@NNN@Z
	?ActivateNavigator@G4TransportationManager@@QEAAHPEAVG4Navigator@@@Z
	?AddDaughter@G4LogicalVolume@@QEAAXPEAVG4VPhysicalVolume@@@Z
	?AddFacet@G4TessellatedSolid@@QEAA_NPEAVG4VFacet@@@Z
	?AddGeneralPolygonFacets@G4ExtrudedSolid@@AEAA_NXZ
	?AddImportanceGeometryCell@G4IStore@@QEAAXNAEBVG4GeometryCell@@@Z
	?AddImportanceGeometryCell@G4IStore@@QEAAXNAEBVG4VPhysicalVolume@@H@Z
	?AddLimit@G4VoxelLimits@@QEAAXW4EAxis@@NN@Z
	?AddLowerWeights@G4WeightWindowStore@@QEAAXAEBVG4GeometryCell@@AEBV?$vector@NV?$allocator@N@std@@@std@@@Z
	?AddMaterial@G4Region@@AEAAXPEAVG4Material@@@Z
	?AddNode@G4MultiUnion@@QEAAXAEAVG4VSolid@@AEAVTransform3D@HepGeom@@@Z
	?AddPlacedAssembly@G4AssemblyVolume@@QEAAXPEAV1@AEAVHep3Vector@CLHEP@@PEAVHepRotation@3@@Z
	?AddPlacedAssembly@G4AssemblyVolume@@QEAAXPEAV1@AEAVTransform3D@HepGeom@@@Z
	?AddPlacedVolume@G4AssemblyVolume@@QEAAXPEAVG4LogicalVolume@@AEAVHep3Vector@CLHEP@@PEAVHepRotation@4@@Z
	?AddPlacedVolume@G4AssemblyVolume@@QEAAXPEAVG4LogicalVolume@@AEAVTransform3D@HepGeom@@@Z
	?AddRootLogicalVolume@G4Region@@QEAAXPEAVG4LogicalVolume@@_N@Z
	?AddStepLength@G4RegularNavigationHelper@@QEAAXHN@Z
	?AddSurface@G4SolidExtentList@@QEAAXAEBVG4ClippablePolygon@@@Z
	?AddUpperEboundLowerWeightPairs@G4WeightWindowStore@@QEAAXAEBVG4GeometryCell@@AEBV?$map@NNU?$less@N@std@@V?$allocator@U?$pair@$$CBNN@std@@@2@@std@@@Z
	?AddVertexInOrder@G4ClippablePolygon@@UEAAXVHep3Vector@CLHEP@@@Z
	?AdjustmentOfFoundIntersection@G4VIntersectionLocator@@IEAA_NAEBVHep3Vector@CLHEP@@000_NAEAV23@AEAN32@Z
	?AdvanceChordLimited@?$G4FSALIntegrationDriver@VG4RK547FEq1@@@@UEAANAEAVG4FieldTrack@@NNN@Z
	?AdvanceChordLimited@?$G4IntegrationDriver@VG4HelixHeum@@@@UEAANAEAVG4FieldTrack@@NNN@Z
	?AdvanceChordLimited@?$G4IntegrationDriver@VG4MagIntegratorStepper@@@@UEAANAEAVG4FieldTrack@@NNN@Z
	?AdvanceChordLimited@?$G4InterpolationDriver@VG4DormandPrince745@@@@UEAANAEAVG4FieldTrack@@NNN@Z
	?AdvanceChordLimited@G4BFieldIntegrationDriver@@UEAANAEAVG4FieldTrack@@NNN@Z
	?AdvanceChordLimited@G4MagInt_Driver@@UEAANAEAVG4FieldTrack@@NNN@Z
	?AdvanceChordLimitedImpl@?$G4ChordFinderDelegate@V?$G4FSALIntegrationDriver@VG4RK547FEq1@@@@@@QEAANAEAVG4FieldTrack@@NNN@Z
	?AdvanceChordLimitedImpl@?$G4ChordFinderDelegate@V?$G4IntegrationDriver@VG4HelixHeum@@@@@@QEAANAEAVG4FieldTrack@@NNN@Z
	?AdvanceChordLimitedImpl@?$G4ChordFinderDelegate@V?$G4IntegrationDriver@VG4MagIntegratorStepper@@@@@@QEAANAEAVG4FieldTrack@@NNN@Z
	?AdvanceChordLimitedImpl@?$G4ChordFinderDelegate@VG4MagInt_Driver@@@@QEAANAEAVG4FieldTrack@@NNN@Z
	?AdvanceHelix@G4MagHelicalStepper@@IEAAXQEBNVHep3Vector@CLHEP@@NQEAN2@Z
	?AllSlicesEqual@G4SmartVoxelHeader@@QEBA_NXZ
	?AllocatedMemory@G4QuadrangularFacet@@EEAAHXZ
	?AllocatedMemory@G4TessellatedSolid@@QEAAHXZ
	?AllocatedMemory@G4TriangularFacet@@UEAAHXZ
	?AllocatedMemory@G4Voxelizer@@QEAAHXZ
	?AllocatedMemoryWithoutVoxels@G4TessellatedSolid@@QEAAHXZ
	?AlongComputeStepLog@G4NavigationLogger@@QEBAXPEBVG4VSolid@@AEBVHep3Vector@CLHEP@@11NN@Z
	?AmIOnLeftSide@G4VTwistSurface@@UEAAHAEBVHep3Vector@CLHEP@@0_N@Z
	?ApplyTranslation@G4VFacet@@QEAAXVHep3Vector@CLHEP@@@Z
	?ApproxCurvePointS@G4ChordFinder@@QEAA?AVG4FieldTrack@@AEBV2@00AEBVHep3Vector@CLHEP@@11_NN@Z
	?ApproxCurvePointV@G4ChordFinder@@QEAA?AVG4FieldTrack@@AEBV2@0AEBVHep3Vector@CLHEP@@N@Z
	?ApproxDistInside@G4Hype@@KANNNNN@Z
	?ApproxDistOutside@G4Hype@@KANNNNN@Z
	?ApproxSurfaceNormal@G4Box@@AEBA?AVHep3Vector@CLHEP@@AEBV23@@Z
	?ApproxSurfaceNormal@G4Cons@@AEBA?AVHep3Vector@CLHEP@@AEBV23@@Z
	?ApproxSurfaceNormal@G4CutTubs@@IEBA?AVHep3Vector@CLHEP@@AEBV23@@Z
	?ApproxSurfaceNormal@G4EllipticalCone@@AEBA?AVHep3Vector@CLHEP@@AEBV23@@Z
	?ApproxSurfaceNormal@G4EllipticalTube@@AEBA?AVHep3Vector@CLHEP@@AEBV23@@Z
	?ApproxSurfaceNormal@G4ExtrudedSolid@@AEBA?AVHep3Vector@CLHEP@@AEBV23@@Z
	?ApproxSurfaceNormal@G4Para@@AEBA?AVHep3Vector@CLHEP@@AEBV23@@Z
	?ApproxSurfaceNormal@G4Sphere@@AEBA?AVHep3Vector@CLHEP@@AEBV23@@Z
	?ApproxSurfaceNormal@G4Torus@@AEBA?AVHep3Vector@CLHEP@@AEBV23@@Z
	?ApproxSurfaceNormal@G4Trap@@AEBA?AVHep3Vector@CLHEP@@AEBV23@@Z
	?ApproxSurfaceNormal@G4Trd@@AEBA?AVHep3Vector@CLHEP@@AEBV23@@Z
	?ApproxSurfaceNormal@G4Tubs@@MEBA?AVHep3Vector@CLHEP@@AEBV23@@Z
	?Area2@G4PolyPhiFace@@IEAANVHep2Vector@CLHEP@@00@Z
	?Area@G4ReduciblePolygon@@QEAANXZ
	?AssignFieldManager@G4LogicalVolume@@QEAAXPEAVG4FieldManager@@@Z
	?BackLocate@G4ReplicaNavigation@@QEBA?AW4EInside@@AEAVG4NavigationHistory@@AEBVHep3Vector@CLHEP@@AEAV45@AEB_NAEA_N@Z
	?BehindOf@G4ClippablePolygon@@UEBA_NAEBV1@W4EAxis@@@Z
	?BelongsTo@G4Region@@QEBA_NPEAVG4VPhysicalVolume@@@Z
	?Between@G4PolyPhiFace@@IEAA_NVHep2Vector@CLHEP@@00@Z
	?BisectedBy@G4ReduciblePolygon@@QEAA_NNNNNN@Z
	?BoundingBoxVsVoxelLimits@G4BoundingEnvelope@@QEBA_NW4EAxis@@AEBVG4VoxelLimits@@AEBVTransform3D@HepGeom@@AEAN3@Z
	?BoundingLimits@G4Box@@UEBAXAEAVHep3Vector@CLHEP@@0@Z
	?BoundingLimits@G4Cons@@UEBAXAEAVHep3Vector@CLHEP@@0@Z
	?BoundingLimits@G4CutTubs@@UEBAXAEAVHep3Vector@CLHEP@@0@Z
	?BoundingLimits@G4DisplacedSolid@@UEBAXAEAVHep3Vector@CLHEP@@0@Z
	?BoundingLimits@G4Ellipsoid@@UEBAXAEAVHep3Vector@CLHEP@@0@Z
	?BoundingLimits@G4EllipticalCone@@UEBAXAEAVHep3Vector@CLHEP@@0@Z
	?BoundingLimits@G4EllipticalTube@@UEBAXAEAVHep3Vector@CLHEP@@0@Z
	?BoundingLimits@G4ExtrudedSolid@@UEBAXAEAVHep3Vector@CLHEP@@0@Z
	?BoundingLimits@G4GenericPolycone@@UEBAXAEAVHep3Vector@CLHEP@@0@Z
	?BoundingLimits@G4GenericTrap@@UEBAXAEAVHep3Vector@CLHEP@@0@Z
	?BoundingLimits@G4Hype@@UEBAXAEAVHep3Vector@CLHEP@@0@Z
	?BoundingLimits@G4IntersectionSolid@@UEBAXAEAVHep3Vector@CLHEP@@0@Z
	?BoundingLimits@G4MultiUnion@@UEBAXAEAVHep3Vector@CLHEP@@0@Z
	?BoundingLimits@G4Orb@@UEBAXAEAVHep3Vector@CLHEP@@0@Z
	?BoundingLimits@G4Para@@UEBAXAEAVHep3Vector@CLHEP@@0@Z
	?BoundingLimits@G4Paraboloid@@UEBAXAEAVHep3Vector@CLHEP@@0@Z
	?BoundingLimits@G4Polycone@@UEBAXAEAVHep3Vector@CLHEP@@0@Z
	?BoundingLimits@G4Polyhedra@@UEBAXAEAVHep3Vector@CLHEP@@0@Z
	?BoundingLimits@G4ReflectedSolid@@UEBAXAEAVHep3Vector@CLHEP@@0@Z
	?BoundingLimits@G4ScaledSolid@@UEBAXAEAVHep3Vector@CLHEP@@0@Z
	?BoundingLimits@G4Sphere@@UEBAXAEAVHep3Vector@CLHEP@@0@Z
	?BoundingLimits@G4SubtractionSolid@@UEBAXAEAVHep3Vector@CLHEP@@0@Z
	?BoundingLimits@G4TessellatedSolid@@UEBAXAEAVHep3Vector@CLHEP@@0@Z
	?BoundingLimits@G4Tet@@UEBAXAEAVHep3Vector@CLHEP@@0@Z
	?BoundingLimits@G4Torus@@UEBAXAEAVHep3Vector@CLHEP@@0@Z
	?BoundingLimits@G4Trap@@UEBAXAEAVHep3Vector@CLHEP@@0@Z
	?BoundingLimits@G4Trd@@UEBAXAEAVHep3Vector@CLHEP@@0@Z
	?BoundingLimits@G4Tubs@@UEBAXAEAVHep3Vector@CLHEP@@0@Z
	?BoundingLimits@G4TwistedTubs@@UEBAXAEAVHep3Vector@CLHEP@@0@Z
	?BoundingLimits@G4UnionSolid@@UEBAXAEAVHep3Vector@CLHEP@@0@Z
	?BoundingLimits@G4VSolid@@UEBAXAEAVHep3Vector@CLHEP@@0@Z
	?BoundingLimits@G4VTwistedFaceted@@UEBAXAEAVHep3Vector@CLHEP@@0@Z
	?BuildBitmasks@G4Voxelizer@@AEAAXQEAV?$vector@NV?$allocator@N@std@@@std@@QEAVG4SurfBits@@_N@Z
	?BuildBoundaries@G4Voxelizer@@AEAAXXZ
	?BuildBoundingBox@G4Voxelizer@@AEAAXAEAVHep3Vector@CLHEP@@0N@Z
	?BuildBoundingBox@G4Voxelizer@@AEAAXXZ
	?BuildConsumedNodes@G4SmartVoxelHeader@@IEAAXH@Z
	?BuildContainerSolid@G4PhantomParameterisation@@QEAAXPEAVG4VPhysicalVolume@@@Z
	?BuildContainerSolid@G4PhantomParameterisation@@QEAAXPEAVG4VSolid@@@Z
	?BuildContainerWalls@G4PartialPhantomParameterisation@@QEAAXXZ
	?BuildEmpty@G4Voxelizer@@AEAAXXZ
	?BuildEquivalentSliceNos@G4SmartVoxelHeader@@IEAAXXZ
	?BuildNodes@G4SmartVoxelHeader@@IEAAPEAV?$vector@PEAVG4SmartVoxelProxy@@V?$allocator@PEAVG4SmartVoxelProxy@@@std@@@std@@PEAVG4LogicalVolume@@VG4VoxelLimits@@PEBV?$vector@HV?$allocator@H@std@@@3@W4EAxis@@@Z
	?BuildOptimisations@G4GeometryManager@@AEAAX_N0@Z
	?BuildOptimisations@G4GeometryManager@@AEAAX_NPEAVG4VPhysicalVolume@@@Z
	?BuildReduceVoxels2@G4Voxelizer@@AEAAXQEAV?$vector@NV?$allocator@N@std@@@std@@VHep3Vector@CLHEP@@@Z
	?BuildReduceVoxels@G4Voxelizer@@AEAAXQEAV?$vector@NV?$allocator@N@std@@@std@@VHep3Vector@CLHEP@@@Z
	?BuildReplicaVoxels@G4SmartVoxelHeader@@IEAAXPEAVG4LogicalVolume@@@Z
	?BuildVoxelLimits@G4Voxelizer@@AEAAXAEAV?$vector@PEAVG4VFacet@@V?$allocator@PEAVG4VFacet@@@std@@@std@@@Z
	?BuildVoxelLimits@G4Voxelizer@@AEAAXAEAV?$vector@PEAVG4VSolid@@V?$allocator@PEAVG4VSolid@@@std@@@std@@AEAV?$vector@VTransform3D@HepGeom@@V?$allocator@VTransform3D@HepGeom@@@std@@@3@@Z
	?BuildVoxels@G4SmartVoxelHeader@@IEAAXPEAVG4LogicalVolume@@@Z
	?BuildVoxelsWithinLimits@G4SmartVoxelHeader@@IEAAXPEAVG4LogicalVolume@@VG4VoxelLimits@@PEBV?$vector@HV?$allocator@H@std@@@std@@@Z
	?CalcChordStep@?$G4InterpolationDriver@VG4DormandPrince745@@@@AEAANNNN@Z
	?Calculate@G4ImportanceAlgorithm@@UEBA?AVG4Nsplit_Weight@@NNN@Z
	?Calculate@G4WeightWindowAlgorithm@@UEBA?AVG4Nsplit_Weight@@NN@Z
	?CalculateClippedPolygonExtent@G4VSolid@@IEBAXAEAV?$vector@VHep3Vector@CLHEP@@V?$allocator@VHep3Vector@CLHEP@@@std@@@std@@AEBVG4VoxelLimits@@W4EAxis@@AEAN3@Z
	?CalculateExtent@G4BoundingEnvelope@@QEBA_NW4EAxis@@AEBVG4VoxelLimits@@AEBVTransform3D@HepGeom@@AEAN3@Z
	?CalculateExtent@G4Box@@UEBA_NW4EAxis@@AEBVG4VoxelLimits@@AEBVG4AffineTransform@@AEAN3@Z
	?CalculateExtent@G4Cons@@UEBA_NW4EAxis@@AEBVG4VoxelLimits@@AEBVG4AffineTransform@@AEAN3@Z
	?CalculateExtent@G4CutTubs@@UEBA_NW4EAxis@@AEBVG4VoxelLimits@@AEBVG4AffineTransform@@AEAN3@Z
	?CalculateExtent@G4DisplacedSolid@@UEBA_NW4EAxis@@AEBVG4VoxelLimits@@AEBVG4AffineTransform@@AEAN3@Z
	?CalculateExtent@G4Ellipsoid@@UEBA_NW4EAxis@@AEBVG4VoxelLimits@@AEBVG4AffineTransform@@AEAN3@Z
	?CalculateExtent@G4EllipticalCone@@UEBA_NW4EAxis@@AEBVG4VoxelLimits@@AEBVG4AffineTransform@@AEAN3@Z
	?CalculateExtent@G4EllipticalTube@@UEBA_NW4EAxis@@AEBVG4VoxelLimits@@AEBVG4AffineTransform@@AEAN3@Z
	?CalculateExtent@G4ExtrudedSolid@@UEBA_NW4EAxis@@AEBVG4VoxelLimits@@AEBVG4AffineTransform@@AEAN3@Z
	?CalculateExtent@G4GenericPolycone@@UEBA_NW4EAxis@@AEBVG4VoxelLimits@@AEBVG4AffineTransform@@AEAN3@Z
	?CalculateExtent@G4GenericTrap@@UEBA_NW4EAxis@@AEBVG4VoxelLimits@@AEBVG4AffineTransform@@AEAN3@Z
	?CalculateExtent@G4Hype@@UEBA_NW4EAxis@@AEBVG4VoxelLimits@@AEBVG4AffineTransform@@AEAN3@Z
	?CalculateExtent@G4IntersectionSolid@@UEBA_NW4EAxis@@AEBVG4VoxelLimits@@AEBVG4AffineTransform@@AEAN3@Z
	?CalculateExtent@G4MultiUnion@@UEBA_NW4EAxis@@AEBVG4VoxelLimits@@AEBVG4AffineTransform@@AEAN3@Z
	?CalculateExtent@G4Orb@@UEBA_NW4EAxis@@AEBVG4VoxelLimits@@AEBVG4AffineTransform@@AEAN3@Z
	?CalculateExtent@G4Para@@UEBA_NW4EAxis@@AEBVG4VoxelLimits@@AEBVG4AffineTransform@@AEAN3@Z
	?CalculateExtent@G4Paraboloid@@UEBA_NW4EAxis@@AEBVG4VoxelLimits@@AEBVG4AffineTransform@@AEAN3@Z
	?CalculateExtent@G4PolyPhiFace@@UEAAXW4EAxis@@AEBVG4VoxelLimits@@AEBVG4AffineTransform@@AEAVG4SolidExtentList@@@Z
	?CalculateExtent@G4Polycone@@UEBA_NW4EAxis@@AEBVG4VoxelLimits@@AEBVG4AffineTransform@@AEAN3@Z
	?CalculateExtent@G4PolyconeSide@@UEAAXW4EAxis@@AEBVG4VoxelLimits@@AEBVG4AffineTransform@@AEAVG4SolidExtentList@@@Z
	?CalculateExtent@G4Polyhedra@@UEBA_NW4EAxis@@AEBVG4VoxelLimits@@AEBVG4AffineTransform@@AEAN3@Z
	?CalculateExtent@G4PolyhedraSide@@UEAAXW4EAxis@@AEBVG4VoxelLimits@@AEBVG4AffineTransform@@AEAVG4SolidExtentList@@@Z
	?CalculateExtent@G4ReflectedSolid@@UEBA_NW4EAxis@@AEBVG4VoxelLimits@@AEBVG4AffineTransform@@AEAN3@Z
	?CalculateExtent@G4ScaledSolid@@UEBA_NW4EAxis@@AEBVG4VoxelLimits@@AEBVG4AffineTransform@@AEAN3@Z
	?CalculateExtent@G4Sphere@@UEBA_NW4EAxis@@AEBVG4VoxelLimits@@AEBVG4AffineTransform@@AEAN3@Z
	?CalculateExtent@G4SubtractionSolid@@UEBA_NW4EAxis@@AEBVG4VoxelLimits@@AEBVG4AffineTransform@@AEAN3@Z
	?CalculateExtent@G4TessellatedSolid@@UEBA_NW4EAxis@@AEBVG4VoxelLimits@@AEBVG4AffineTransform@@AEAN3@Z
	?CalculateExtent@G4Tet@@UEBA_NW4EAxis@@AEBVG4VoxelLimits@@AEBVG4AffineTransform@@AEAN3@Z
	?CalculateExtent@G4Torus@@UEBA_NW4EAxis@@AEBVG4VoxelLimits@@AEBVG4AffineTransform@@AEAN3@Z
	?CalculateExtent@G4Trap@@UEBA_NW4EAxis@@AEBVG4VoxelLimits@@AEBVG4AffineTransform@@AEAN3@Z
	?CalculateExtent@G4Trd@@UEBA_NW4EAxis@@AEBVG4VoxelLimits@@AEBVG4AffineTransform@@AEAN3@Z
	?CalculateExtent@G4Tubs@@UEBA_NW4EAxis@@AEBVG4VoxelLimits@@AEBVG4AffineTransform@@AEAN3@Z
	?CalculateExtent@G4TwistedTubs@@UEBA_NW4EAxis@@AEBVG4VoxelLimits@@AEBVG4AffineTransform@@AEAN3@Z
	?CalculateExtent@G4UnionSolid@@UEBA_NW4EAxis@@AEBVG4VoxelLimits@@AEBVG4AffineTransform@@AEAN3@Z
	?CalculateExtent@G4VCSGfaceted@@UEBA_NW4EAxis@@AEBVG4VoxelLimits@@AEBVG4AffineTransform@@AEAN3@Z
	?CalculateExtent@G4VTwistedFaceted@@UEBA_NW4EAxis@@AEBVG4VoxelLimits@@AEBVG4AffineTransform@@AEAN3@Z
	?CalculateMaxMin@G4ReduciblePolygon@@IEAAXXZ
	?CalculateNDiv@G4VDivisionParameterisation@@IEBAHNNN@Z
	?CalculateQuality@G4SmartVoxelHeader@@IEAANPEAV?$vector@PEAVG4SmartVoxelProxy@@V?$allocator@PEAVG4SmartVoxelProxy@@@std@@@std@@@Z
	?CalculateSurfaceArea@G4Paraboloid@@QEBANXZ
	?CalculateWidth@G4VDivisionParameterisation@@IEBANNHN@Z
	?ChangeDaughtersType@G4LogicalVolume@@QEAA_NW4EVolume@@@Z
	?ChangeImportance@G4IStore@@QEAAXNAEBVG4GeometryCell@@@Z
	?ChangeImportance@G4IStore@@QEAAXNAEBVG4VPhysicalVolume@@H@Z
	?ChangeRotMatrix@G4VDivisionParameterisation@@IEBAXPEAVG4VPhysicalVolume@@N@Z
	?CheckAndReEstimateEndpoint@G4VIntersectionLocator@@IEAA_NAEBVG4FieldTrack@@0AEAV2@AEAH@Z
	?CheckAndReportBadNormal@G4NavigationLogger@@QEBA_NAEBVHep3Vector@CLHEP@@00NPEBVG4VSolid@@PEBD@Z
	?CheckAndReportBadNormal@G4NavigationLogger@@QEBA_NAEBVHep3Vector@CLHEP@@0AEBVHepRotation@3@PEBD@Z
	?CheckAndSetParameters@G4PVDivision@@AEAAXW4EAxis@@HNNW4DivisionType@@PEBVG4LogicalVolume@@@Z
	?CheckAndSetParameters@G4PVReplica@@AEAAXW4EAxis@@HNN@Z
	?CheckAndSetParameters@G4ReplicatedSlice@@AEAAXW4EAxis@@HNNNW4DivisionType@@PEAVG4LogicalVolume@@PEBV4@@Z
	?CheckBoundingBox@G4BoundingEnvelope@@AEAAXXZ
	?CheckBoundingPolygons@G4BoundingEnvelope@@AEAAXXZ
	?CheckCopyNo@G4PartialPhantomParameterisation@@AEBAXH@Z
	?CheckCopyNo@G4PhantomParameterisation@@AEBAXH@Z
	?CheckDPhiAngle@G4Cons@@AEAAXN@Z
	?CheckDPhiAngle@G4CutTubs@@IEAAXN@Z
	?CheckDPhiAngle@G4Sphere@@AEAAXN@Z
	?CheckDPhiAngle@G4Tubs@@IEAAXN@Z
	?CheckDaughterEntryPoint@G4NavigationLogger@@QEBAXPEBVG4VSolid@@AEBVHep3Vector@CLHEP@@1011NN@Z
	?CheckDegeneracy@G4Tet@@SA_NVHep3Vector@CLHEP@@000@Z
	?CheckGeometry@G4GeometryMessenger@@AEAAXXZ
	?CheckMassWorld@G4MultiNavigator@@IEAAXXZ
	?CheckNDivAndWidth@G4VDivisionParameterisation@@IEAAXN@Z
	?CheckNextStep@G4Navigator@@QEAANAEBVHep3Vector@CLHEP@@0NAEAN@Z
	?CheckNextStep@G4SafetyHelper@@QEAANAEBVHep3Vector@CLHEP@@0NAEAN@Z
	?CheckOffset@G4VDivisionParameterisation@@IEAAXN@Z
	?CheckOnlyDaughter@G4PVReplica@@AEAAXPEAVG4LogicalVolume@@@Z
	?CheckOrder@G4GenericTrap@@AEBA_NAEBV?$vector@VHep2Vector@CLHEP@@V?$allocator@VHep2Vector@CLHEP@@@std@@@std@@@Z
	?CheckOverlaps@G4PVParameterised@@UEAA_NHN_NH@Z
	?CheckOverlaps@G4PVPlacement@@UEAA_NHN_NH@Z
	?CheckOverlaps@G4VPhysicalVolume@@UEAA_NHN_NH@Z
	?CheckOverlapsIterative@G4Navigator@@IEAA_NPEAVG4VPhysicalVolume@@@Z
	?CheckParameters@G4EllipticalTube@@AEAAXXZ
	?CheckParameters@G4Para@@AEAAXXZ
	?CheckParameters@G4Trap@@AEAAXXZ
	?CheckParameters@G4Trd@@AEAAXXZ
	?CheckParametersValidity@G4ParameterisationPolyconeRho@@UEAAXXZ
	?CheckParametersValidity@G4ParameterisationPolyconeZ@@UEAAXXZ
	?CheckParametersValidity@G4ParameterisationPolyhedraPhi@@UEAAXXZ
	?CheckParametersValidity@G4ParameterisationPolyhedraRho@@UEAAXXZ
	?CheckParametersValidity@G4ParameterisationPolyhedraZ@@UEAAXXZ
	?CheckParametersValidity@G4ParameterisationTrdX@@UEAAXXZ
	?CheckParametersValidity@G4ParameterisationTrdY@@UEAAXXZ
	?CheckParametersValidity@G4VDivisionParameterisation@@MEAAXXZ
	?CheckSPhiAngle@G4Cons@@AEAAXN@Z
	?CheckSPhiAngle@G4Tubs@@IEAAXN@Z
	?CheckScale@G4ReflectionFactory@@AEBAXAEBVScale3D@HepGeom@@@Z
	?CheckSnip@G4GeomTools@@CA_NAEBV?$vector@VHep2Vector@CLHEP@@V?$allocator@VHep2Vector@CLHEP@@@std@@@std@@HHHHPEBH@Z
	?CheckStep@?$G4FSALIntegrationDriver@VG4RK547FEq1@@@@AEAAXAEBVHep3Vector@CLHEP@@0N@Z
	?CheckStep@?$G4IntegrationDriver@VG4HelixHeum@@@@AEAAXAEBVHep3Vector@CLHEP@@0N@Z
	?CheckStep@?$G4IntegrationDriver@VG4MagIntegratorStepper@@@@AEAAXAEBVHep3Vector@CLHEP@@0N@Z
	?CheckThetaAngles@G4Sphere@@AEAAXNN@Z
	?CheckVoxelsFillContainer@G4PhantomParameterisation@@QEBAXNNN@Z
	?Clean@G4AssemblyStore@@SAXXZ
	?Clean@G4FieldManagerStore@@SAXXZ
	?Clean@G4LogicalVolume@@SAXXZ
	?Clean@G4LogicalVolumeStore@@SAXXZ
	?Clean@G4NavigationHistoryPool@@QEAAXXZ
	?Clean@G4PhysicalVolumeStore@@SAXXZ
	?Clean@G4Region@@SAXXZ
	?Clean@G4RegionStore@@SAXXZ
	?Clean@G4SolidStore@@SAXXZ
	?Clean@G4VPhysicalVolume@@SAXXZ
	?CleanSurfaceTable@G4LogicalBorderSurface@@SAXXZ
	?CleanSurfaceTable@G4LogicalSkinSurface@@SAXXZ
	?CleanTransformations@G4DisplacedSolid@@QEAAXXZ
	?Clear@?$G4ThreadLocalSingleton@VG4RegularNavigationHelper@@@@AEAAXXZ
	?Clear@?$G4ThreadLocalSingleton@VHep3Vector@CLHEP@@@@AEAAXXZ
	?Clear@?$G4ThreadLocalSingleton@VHepRotation@CLHEP@@@@AEAAXXZ
	?Clear@G4IStore@@QEAAXXZ
	?Clear@G4SurfBits@@QEAAXXZ
	?Clear@G4WeightWindowStore@@QEAAXXZ
	?ClearAllChordFindersState@G4FieldManagerStore@@QEAAXXZ
	?ClearAllVertices@G4ClippablePolygon@@UEAAXXZ
	?ClearCounts@G4TrialsCounter@@QEAAXXZ
	?ClearDaughters@G4LogicalVolume@@QEAAXXZ
	?ClearFastSimulationManager@G4Region@@QEAAXXZ
	?ClearMaterialList@G4Region@@QEAAXXZ
	?ClearNavigators@G4TransportationManager@@AEAAXXZ
	?ClearParallelWorlds@G4TransportationManager@@QEAAXXZ
	?ClearPropagatorState@G4PropagatorInField@@QEAAXXZ
	?ClearStepLengths@G4RegularNavigationHelper@@QEAAXXZ
	?Clip@G4ClippablePolygon@@UEAA_NAEBVG4VoxelLimits@@@Z
	?ClipAlongOneAxis@G4ClippablePolygon@@UEAAXAEBVG4VoxelLimits@@W4EAxis@@@Z
	?ClipBetweenSections@G4VSolid@@IEBAXPEAV?$vector@VHep3Vector@CLHEP@@V?$allocator@VHep3Vector@CLHEP@@@std@@@std@@HAEBVG4VoxelLimits@@W4EAxis@@AEAN3@Z
	?ClipCrossSection@G4VSolid@@IEBAXPEAV?$vector@VHep3Vector@CLHEP@@V?$allocator@VHep3Vector@CLHEP@@@std@@@std@@HAEBVG4VoxelLimits@@W4EAxis@@AEAN3@Z
	?ClipEdgesByVoxel@G4BoundingEnvelope@@AEBA_NAEBV?$vector@U?$pair@V?$Point3D@N@HepGeom@@V12@@std@@V?$allocator@U?$pair@V?$Point3D@N@HepGeom@@V12@@std@@@2@@std@@AEBVG4VoxelLimits@@AEAU?$pair@V?$Point3D@N@HepGeom@@V12@@3@@Z
	?ClipPolygon@G4VSolid@@IEBAXAEAV?$vector@VHep3Vector@CLHEP@@V?$allocator@VHep3Vector@CLHEP@@@std@@@std@@AEBVG4VoxelLimits@@W4EAxis@@@Z
	?ClipPolygonToSimpleLimits@G4VSolid@@AEBAXAEAV?$vector@VHep3Vector@CLHEP@@V?$allocator@VHep3Vector@CLHEP@@@std@@@std@@0AEBVG4VoxelLimits@@@Z
	?ClipToLimits@G4VoxelLimits@@QEBA_NAEAVHep3Vector@CLHEP@@0@Z
	?ClipToSimpleLimits@G4ClippablePolygon@@IEAAXAEAV?$vector@VHep3Vector@CLHEP@@V?$allocator@VHep3Vector@CLHEP@@@std@@@std@@0AEBVG4VoxelLimits@@@Z
	?ClipVoxelByPlanes@G4BoundingEnvelope@@AEBAXHAEBVG4VoxelLimits@@AEBV?$vector@V?$Plane3D@N@HepGeom@@V?$allocator@V?$Plane3D@N@HepGeom@@@std@@@std@@AEBU?$pair@V?$Point3D@N@HepGeom@@V12@@4@AEAU54@@Z
	?Clone@G4Box@@UEBAPEAVG4VSolid@@XZ
	?Clone@G4CachedMagneticField@@UEBAPEAVG4Field@@XZ
	?Clone@G4Cons@@UEBAPEAVG4VSolid@@XZ
	?Clone@G4CutTubs@@UEBAPEAVG4VSolid@@XZ
	?Clone@G4DELPHIMagField@@UEBAPEAVG4Field@@XZ
	?Clone@G4DisplacedSolid@@UEBAPEAVG4VSolid@@XZ
	?Clone@G4Ellipsoid@@UEBAPEAVG4VSolid@@XZ
	?Clone@G4EllipticalCone@@UEBAPEAVG4VSolid@@XZ
	?Clone@G4EllipticalTube@@UEBAPEAVG4VSolid@@XZ
	?Clone@G4ExtrudedSolid@@UEBAPEAVG4VSolid@@XZ
	?Clone@G4Field@@UEBAPEAV1@XZ
	?Clone@G4FieldManager@@UEBAPEAV1@XZ
	?Clone@G4GenericPolycone@@UEBAPEAVG4VSolid@@XZ
	?Clone@G4GenericTrap@@UEBAPEAVG4VSolid@@XZ
	?Clone@G4HarmonicPolMagField@@UEBAPEAV1@XZ
	?Clone@G4Hype@@UEBAPEAVG4VSolid@@XZ
	?Clone@G4IntersectionSolid@@UEBAPEAVG4VSolid@@XZ
	?Clone@G4LineCurrentMagField@@UEBAPEAVG4Field@@XZ
	?Clone@G4MultiUnion@@UEBAPEAVG4VSolid@@XZ
	?Clone@G4Orb@@UEBAPEAVG4VSolid@@XZ
	?Clone@G4Para@@UEBAPEAVG4VSolid@@XZ
	?Clone@G4Paraboloid@@UEBAPEAVG4VSolid@@XZ
	?Clone@G4PolyPhiFace@@UEAAPEAVG4VCSGface@@XZ
	?Clone@G4Polycone@@UEBAPEAVG4VSolid@@XZ
	?Clone@G4PolyconeSide@@UEAAPEAVG4VCSGface@@XZ
	?Clone@G4Polyhedra@@UEBAPEAVG4VSolid@@XZ
	?Clone@G4PolyhedraSide@@UEAAPEAVG4VCSGface@@XZ
	?Clone@G4QuadrupoleMagField@@UEBAPEAVG4Field@@XZ
	?Clone@G4ReflectedSolid@@UEBAPEAVG4VSolid@@XZ
	?Clone@G4ScaledSolid@@UEBAPEAVG4VSolid@@XZ
	?Clone@G4SextupoleMagField@@UEBAPEAVG4Field@@XZ
	?Clone@G4Sphere@@UEBAPEAVG4VSolid@@XZ
	?Clone@G4SubtractionSolid@@UEBAPEAVG4VSolid@@XZ
	?Clone@G4TessellatedSolid@@UEBAPEAVG4VSolid@@XZ
	?Clone@G4Tet@@UEBAPEAVG4VSolid@@XZ
	?Clone@G4Torus@@UEBAPEAVG4VSolid@@XZ
	?Clone@G4Trap@@UEBAPEAVG4VSolid@@XZ
	?Clone@G4Trd@@UEBAPEAVG4VSolid@@XZ
	?Clone@G4Tubs@@UEBAPEAVG4VSolid@@XZ
	?Clone@G4TwistedBox@@UEBAPEAVG4VSolid@@XZ
	?Clone@G4TwistedTrap@@UEBAPEAVG4VSolid@@XZ
	?Clone@G4TwistedTrd@@UEBAPEAVG4VSolid@@XZ
	?Clone@G4TwistedTubs@@UEBAPEAVG4VSolid@@XZ
	?Clone@G4UniformElectricField@@UEBAPEAVG4Field@@XZ
	?Clone@G4UniformGravityField@@UEBAPEAVG4Field@@XZ
	?Clone@G4UniformMagField@@UEBAPEAVG4Field@@XZ
	?Clone@G4UnionSolid@@UEBAPEAVG4VSolid@@XZ
	?Clone@G4VSolid@@UEBAPEAV1@XZ
	?CloneParameterisedSolids@G4GeometryWorkspace@@IEAA_NPEAVG4PVParameterised@@@Z
	?CloneReplicaSolid@G4GeometryWorkspace@@IEAA_NPEAVG4PVReplica@@@Z
	?CloseGeometry@G4GeometryManager@@QEAA_N_N0PEAVG4VPhysicalVolume@@@Z
	?ClosestPhiSegment@G4PolyhedraSide@@IEAAHN@Z
	?ClosestPointOnSegment@G4GeomTools@@SA?AVHep3Vector@CLHEP@@AEBV23@00@Z
	?ClosestPointOnTriangle@G4GeomTools@@SA?AVHep3Vector@CLHEP@@AEBV23@000@Z
	?CollectEquivalentHeaders@G4SmartVoxelHeader@@IEAAXXZ
	?CollectEquivalentNodes@G4SmartVoxelHeader@@IEAAXXZ
	?Collinear@G4PolyPhiFace@@IEAA_NVHep2Vector@CLHEP@@00@Z
	?Compact@G4SurfBits@@QEAAXXZ
	?CompareSortedVoxel@G4TessellatedSolid@@CA_NAEBU?$pair@HN@std@@0@Z
	?ComputeBBox@G4GenericTrap@@AEAAXXZ
	?ComputeDimensions@G4Box@@UEAAXPEAVG4VPVParameterisation@@HPEBVG4VPhysicalVolume@@@Z
	?ComputeDimensions@G4Cons@@UEAAXPEAVG4VPVParameterisation@@HPEBVG4VPhysicalVolume@@@Z
	?ComputeDimensions@G4DisplacedSolid@@UEAAXPEAVG4VPVParameterisation@@HPEBVG4VPhysicalVolume@@@Z
	?ComputeDimensions@G4Ellipsoid@@UEAAXPEAVG4VPVParameterisation@@HPEBVG4VPhysicalVolume@@@Z
	?ComputeDimensions@G4Hype@@UEAAXPEAVG4VPVParameterisation@@HPEBVG4VPhysicalVolume@@@Z
	?ComputeDimensions@G4IntersectionSolid@@UEAAXPEAVG4VPVParameterisation@@HPEBVG4VPhysicalVolume@@@Z
	?ComputeDimensions@G4Orb@@UEAAXPEAVG4VPVParameterisation@@HPEBVG4VPhysicalVolume@@@Z
	?ComputeDimensions@G4Para@@UEAAXPEAVG4VPVParameterisation@@HPEBVG4VPhysicalVolume@@@Z
	?ComputeDimensions@G4ParameterisationBoxX@@EEBAXAEAVG4Cons@@HPEBVG4VPhysicalVolume@@@Z
	?ComputeDimensions@G4ParameterisationBoxX@@EEBAXAEAVG4Ellipsoid@@HPEBVG4VPhysicalVolume@@@Z
	?ComputeDimensions@G4ParameterisationBoxX@@EEBAXAEAVG4Hype@@HPEBVG4VPhysicalVolume@@@Z
	?ComputeDimensions@G4ParameterisationBoxX@@EEBAXAEAVG4Orb@@HPEBVG4VPhysicalVolume@@@Z
	?ComputeDimensions@G4ParameterisationBoxX@@EEBAXAEAVG4Para@@HPEBVG4VPhysicalVolume@@@Z
	?ComputeDimensions@G4ParameterisationBoxX@@EEBAXAEAVG4Polycone@@HPEBVG4VPhysicalVolume@@@Z
	?ComputeDimensions@G4ParameterisationBoxX@@EEBAXAEAVG4Polyhedra@@HPEBVG4VPhysicalVolume@@@Z
	?ComputeDimensions@G4ParameterisationBoxX@@EEBAXAEAVG4Sphere@@HPEBVG4VPhysicalVolume@@@Z
	?ComputeDimensions@G4ParameterisationBoxX@@EEBAXAEAVG4Torus@@HPEBVG4VPhysicalVolume@@@Z
	?ComputeDimensions@G4ParameterisationBoxX@@EEBAXAEAVG4Trap@@HPEBVG4VPhysicalVolume@@@Z
	?ComputeDimensions@G4ParameterisationBoxX@@EEBAXAEAVG4Trd@@HPEBVG4VPhysicalVolume@@@Z
	?ComputeDimensions@G4ParameterisationBoxX@@EEBAXAEAVG4Tubs@@HPEBVG4VPhysicalVolume@@@Z
	?ComputeDimensions@G4ParameterisationBoxX@@UEBAXAEAVG4Box@@HPEBVG4VPhysicalVolume@@@Z
	?ComputeDimensions@G4ParameterisationBoxY@@EEBAXAEAVG4Cons@@HPEBVG4VPhysicalVolume@@@Z
	?ComputeDimensions@G4ParameterisationBoxY@@EEBAXAEAVG4Ellipsoid@@HPEBVG4VPhysicalVolume@@@Z
	?ComputeDimensions@G4ParameterisationBoxY@@EEBAXAEAVG4Hype@@HPEBVG4VPhysicalVolume@@@Z
	?ComputeDimensions@G4ParameterisationBoxY@@EEBAXAEAVG4Orb@@HPEBVG4VPhysicalVolume@@@Z
	?ComputeDimensions@G4ParameterisationBoxY@@EEBAXAEAVG4Para@@HPEBVG4VPhysicalVolume@@@Z
	?ComputeDimensions@G4ParameterisationBoxY@@EEBAXAEAVG4Polycone@@HPEBVG4VPhysicalVolume@@@Z
	?ComputeDimensions@G4ParameterisationBoxY@@EEBAXAEAVG4Polyhedra@@HPEBVG4VPhysicalVolume@@@Z
	?ComputeDimensions@G4ParameterisationBoxY@@EEBAXAEAVG4Sphere@@HPEBVG4VPhysicalVolume@@@Z
	?ComputeDimensions@G4ParameterisationBoxY@@EEBAXAEAVG4Torus@@HPEBVG4VPhysicalVolume@@@Z
	?ComputeDimensions@G4ParameterisationBoxY@@EEBAXAEAVG4Trap@@HPEBVG4VPhysicalVolume@@@Z
	?ComputeDimensions@G4ParameterisationBoxY@@EEBAXAEAVG4Trd@@HPEBVG4VPhysicalVolume@@@Z
	?ComputeDimensions@G4ParameterisationBoxY@@EEBAXAEAVG4Tubs@@HPEBVG4VPhysicalVolume@@@Z
	?ComputeDimensions@G4ParameterisationBoxY@@UEBAXAEAVG4Box@@HPEBVG4VPhysicalVolume@@@Z
	?ComputeDimensions@G4ParameterisationBoxZ@@EEBAXAEAVG4Cons@@HPEBVG4VPhysicalVolume@@@Z
	?ComputeDimensions@G4ParameterisationBoxZ@@EEBAXAEAVG4Ellipsoid@@HPEBVG4VPhysicalVolume@@@Z
	?ComputeDimensions@G4ParameterisationBoxZ@@EEBAXAEAVG4Hype@@HPEBVG4VPhysicalVolume@@@Z
	?ComputeDimensions@G4ParameterisationBoxZ@@EEBAXAEAVG4Orb@@HPEBVG4VPhysicalVolume@@@Z
	?ComputeDimensions@G4ParameterisationBoxZ@@EEBAXAEAVG4Para@@HPEBVG4VPhysicalVolume@@@Z
	?ComputeDimensions@G4ParameterisationBoxZ@@EEBAXAEAVG4Polycone@@HPEBVG4VPhysicalVolume@@@Z
	?ComputeDimensions@G4ParameterisationBoxZ@@EEBAXAEAVG4Polyhedra@@HPEBVG4VPhysicalVolume@@@Z
	?ComputeDimensions@G4ParameterisationBoxZ@@EEBAXAEAVG4Sphere@@HPEBVG4VPhysicalVolume@@@Z
	?ComputeDimensions@G4ParameterisationBoxZ@@EEBAXAEAVG4Torus@@HPEBVG4VPhysicalVolume@@@Z
	?ComputeDimensions@G4ParameterisationBoxZ@@EEBAXAEAVG4Trap@@HPEBVG4VPhysicalVolume@@@Z
	?ComputeDimensions@G4ParameterisationBoxZ@@EEBAXAEAVG4Trd@@HPEBVG4VPhysicalVolume@@@Z
	?ComputeDimensions@G4ParameterisationBoxZ@@EEBAXAEAVG4Tubs@@HPEBVG4VPhysicalVolume@@@Z
	?ComputeDimensions@G4ParameterisationBoxZ@@UEBAXAEAVG4Box@@HPEBVG4VPhysicalVolume@@@Z
	?ComputeDimensions@G4ParameterisationConsPhi@@EEBAXAEAVG4Box@@HPEBVG4VPhysicalVolume@@@Z
	?ComputeDimensions@G4ParameterisationConsPhi@@EEBAXAEAVG4Ellipsoid@@HPEBVG4VPhysicalVolume@@@Z
	?ComputeDimensions@G4ParameterisationConsPhi@@EEBAXAEAVG4Hype@@HPEBVG4VPhysicalVolume@@@Z
	?ComputeDimensions@G4ParameterisationConsPhi@@EEBAXAEAVG4Orb@@HPEBVG4VPhysicalVolume@@@Z
	?ComputeDimensions@G4ParameterisationConsPhi@@EEBAXAEAVG4Para@@HPEBVG4VPhysicalVolume@@@Z
	?ComputeDimensions@G4ParameterisationConsPhi@@EEBAXAEAVG4Polycone@@HPEBVG4VPhysicalVolume@@@Z
	?ComputeDimensions@G4ParameterisationConsPhi@@EEBAXAEAVG4Polyhedra@@HPEBVG4VPhysicalVolume@@@Z
	?ComputeDimensions@G4ParameterisationConsPhi@@EEBAXAEAVG4Sphere@@HPEBVG4VPhysicalVolume@@@Z
	?ComputeDimensions@G4ParameterisationConsPhi@@EEBAXAEAVG4Torus@@HPEBVG4VPhysicalVolume@@@Z
	?ComputeDimensions@G4ParameterisationConsPhi@@EEBAXAEAVG4Trap@@HPEBVG4VPhysicalVolume@@@Z
	?ComputeDimensions@G4ParameterisationConsPhi@@EEBAXAEAVG4Trd@@HPEBVG4VPhysicalVolume@@@Z
	?ComputeDimensions@G4ParameterisationConsPhi@@EEBAXAEAVG4Tubs@@HPEBVG4VPhysicalVolume@@@Z
	?ComputeDimensions@G4ParameterisationConsPhi@@UEBAXAEAVG4Cons@@HPEBVG4VPhysicalVolume@@@Z
	?ComputeDimensions@G4ParameterisationConsRho@@EEBAXAEAVG4Box@@HPEBVG4VPhysicalVolume@@@Z
	?ComputeDimensions@G4ParameterisationConsRho@@EEBAXAEAVG4Ellipsoid@@HPEBVG4VPhysicalVolume@@@Z
	?ComputeDimensions@G4ParameterisationConsRho@@EEBAXAEAVG4Hype@@HPEBVG4VPhysicalVolume@@@Z
	?ComputeDimensions@G4ParameterisationConsRho@@EEBAXAEAVG4Orb@@HPEBVG4VPhysicalVolume@@@Z
	?ComputeDimensions@G4ParameterisationConsRho@@EEBAXAEAVG4Para@@HPEBVG4VPhysicalVolume@@@Z
	?ComputeDimensions@G4ParameterisationConsRho@@EEBAXAEAVG4Polycone@@HPEBVG4VPhysicalVolume@@@Z
	?ComputeDimensions@G4ParameterisationConsRho@@EEBAXAEAVG4Polyhedra@@HPEBVG4VPhysicalVolume@@@Z
	?ComputeDimensions@G4ParameterisationConsRho@@EEBAXAEAVG4Sphere@@HPEBVG4VPhysicalVolume@@@Z
	?ComputeDimensions@G4ParameterisationConsRho@@EEBAXAEAVG4Torus@@HPEBVG4VPhysicalVolume@@@Z
	?ComputeDimensions@G4ParameterisationConsRho@@EEBAXAEAVG4Trap@@HPEBVG4VPhysicalVolume@@@Z
	?ComputeDimensions@G4ParameterisationConsRho@@EEBAXAEAVG4Trd@@HPEBVG4VPhysicalVolume@@@Z
	?ComputeDimensions@G4ParameterisationConsRho@@EEBAXAEAVG4Tubs@@HPEBVG4VPhysicalVolume@@@Z
	?ComputeDimensions@G4ParameterisationConsRho@@UEBAXAEAVG4Cons@@HPEBVG4VPhysicalVolume@@@Z
	?ComputeDimensions@G4ParameterisationConsZ@@EEBAXAEAVG4Box@@HPEBVG4VPhysicalVolume@@@Z
	?ComputeDimensions@G4ParameterisationConsZ@@EEBAXAEAVG4Ellipsoid@@HPEBVG4VPhysicalVolume@@@Z
	?ComputeDimensions@G4ParameterisationConsZ@@EEBAXAEAVG4Hype@@HPEBVG4VPhysicalVolume@@@Z
	?ComputeDimensions@G4ParameterisationConsZ@@EEBAXAEAVG4Orb@@HPEBVG4VPhysicalVolume@@@Z
	?ComputeDimensions@G4ParameterisationConsZ@@EEBAXAEAVG4Para@@HPEBVG4VPhysicalVolume@@@Z
	?ComputeDimensions@G4ParameterisationConsZ@@EEBAXAEAVG4Polycone@@HPEBVG4VPhysicalVolume@@@Z
	?ComputeDimensions@G4ParameterisationConsZ@@EEBAXAEAVG4Polyhedra@@HPEBVG4VPhysicalVolume@@@Z
	?ComputeDimensions@G4ParameterisationConsZ@@EEBAXAEAVG4Sphere@@HPEBVG4VPhysicalVolume@@@Z
	?ComputeDimensions@G4ParameterisationConsZ@@EEBAXAEAVG4Torus@@HPEBVG4VPhysicalVolume@@@Z
	?ComputeDimensions@G4ParameterisationConsZ@@EEBAXAEAVG4Trap@@HPEBVG4VPhysicalVolume@@@Z
	?ComputeDimensions@G4ParameterisationConsZ@@EEBAXAEAVG4Trd@@HPEBVG4VPhysicalVolume@@@Z
	?ComputeDimensions@G4ParameterisationConsZ@@EEBAXAEAVG4Tubs@@HPEBVG4VPhysicalVolume@@@Z
	?ComputeDimensions@G4ParameterisationConsZ@@UEBAXAEAVG4Cons@@HPEBVG4VPhysicalVolume@@@Z
	?ComputeDimensions@G4ParameterisationParaX@@EEBAXAEAVG4Box@@HPEBVG4VPhysicalVolume@@@Z
	?ComputeDimensions@G4ParameterisationParaX@@EEBAXAEAVG4Cons@@HPEBVG4VPhysicalVolume@@@Z
	?ComputeDimensions@G4ParameterisationParaX@@EEBAXAEAVG4Ellipsoid@@HPEBVG4VPhysicalVolume@@@Z
	?ComputeDimensions@G4ParameterisationParaX@@EEBAXAEAVG4Hype@@HPEBVG4VPhysicalVolume@@@Z
	?ComputeDimensions@G4ParameterisationParaX@@EEBAXAEAVG4Orb@@HPEBVG4VPhysicalVolume@@@Z
	?ComputeDimensions@G4ParameterisationParaX@@EEBAXAEAVG4Polycone@@HPEBVG4VPhysicalVolume@@@Z
	?ComputeDimensions@G4ParameterisationParaX@@EEBAXAEAVG4Polyhedra@@HPEBVG4VPhysicalVolume@@@Z
	?ComputeDimensions@G4ParameterisationParaX@@EEBAXAEAVG4Sphere@@HPEBVG4VPhysicalVolume@@@Z
	?ComputeDimensions@G4ParameterisationParaX@@EEBAXAEAVG4Torus@@HPEBVG4VPhysicalVolume@@@Z
	?ComputeDimensions@G4ParameterisationParaX@@EEBAXAEAVG4Trap@@HPEBVG4VPhysicalVolume@@@Z
	?ComputeDimensions@G4ParameterisationParaX@@EEBAXAEAVG4Trd@@HPEBVG4VPhysicalVolume@@@Z
	?ComputeDimensions@G4ParameterisationParaX@@EEBAXAEAVG4Tubs@@HPEBVG4VPhysicalVolume@@@Z
	?ComputeDimensions@G4ParameterisationParaX@@UEBAXAEAVG4Para@@HPEBVG4VPhysicalVolume@@@Z
	?ComputeDimensions@G4ParameterisationParaY@@EEBAXAEAVG4Box@@HPEBVG4VPhysicalVolume@@@Z
	?ComputeDimensions@G4ParameterisationParaY@@EEBAXAEAVG4Cons@@HPEBVG4VPhysicalVolume@@@Z
	?ComputeDimensions@G4ParameterisationParaY@@EEBAXAEAVG4Ellipsoid@@HPEBVG4VPhysicalVolume@@@Z
	?ComputeDimensions@G4ParameterisationParaY@@EEBAXAEAVG4Hype@@HPEBVG4VPhysicalVolume@@@Z
	?ComputeDimensions@G4ParameterisationParaY@@EEBAXAEAVG4Orb@@HPEBVG4VPhysicalVolume@@@Z
	?ComputeDimensions@G4ParameterisationParaY@@EEBAXAEAVG4Polycone@@HPEBVG4VPhysicalVolume@@@Z
	?ComputeDimensions@G4ParameterisationParaY@@EEBAXAEAVG4Polyhedra@@HPEBVG4VPhysicalVolume@@@Z
	?ComputeDimensions@G4ParameterisationParaY@@EEBAXAEAVG4Sphere@@HPEBVG4VPhysicalVolume@@@Z
	?ComputeDimensions@G4ParameterisationParaY@@EEBAXAEAVG4Torus@@HPEBVG4VPhysicalVolume@@@Z
	?ComputeDimensions@G4ParameterisationParaY@@EEBAXAEAVG4Trap@@HPEBVG4VPhysicalVolume@@@Z
	?ComputeDimensions@G4ParameterisationParaY@@EEBAXAEAVG4Trd@@HPEBVG4VPhysicalVolume@@@Z
	?ComputeDimensions@G4ParameterisationParaY@@EEBAXAEAVG4Tubs@@HPEBVG4VPhysicalVolume@@@Z
	?ComputeDimensions@G4ParameterisationParaY@@UEBAXAEAVG4Para@@HPEBVG4VPhysicalVolume@@@Z
	?ComputeDimensions@G4ParameterisationParaZ@@EEBAXAEAVG4Box@@HPEBVG4VPhysicalVolume@@@Z
	?ComputeDimensions@G4ParameterisationParaZ@@EEBAXAEAVG4Cons@@HPEBVG4VPhysicalVolume@@@Z
	?ComputeDimensions@G4ParameterisationParaZ@@EEBAXAEAVG4Ellipsoid@@HPEBVG4VPhysicalVolume@@@Z
	?ComputeDimensions@G4ParameterisationParaZ@@EEBAXAEAVG4Hype@@HPEBVG4VPhysicalVolume@@@Z
	?ComputeDimensions@G4ParameterisationParaZ@@EEBAXAEAVG4Orb@@HPEBVG4VPhysicalVolume@@@Z
	?ComputeDimensions@G4ParameterisationParaZ@@EEBAXAEAVG4Polycone@@HPEBVG4VPhysicalVolume@@@Z
	?ComputeDimensions@G4ParameterisationParaZ@@EEBAXAEAVG4Polyhedra@@HPEBVG4VPhysicalVolume@@@Z
	?ComputeDimensions@G4ParameterisationParaZ@@EEBAXAEAVG4Sphere@@HPEBVG4VPhysicalVolume@@@Z
	?ComputeDimensions@G4ParameterisationParaZ@@EEBAXAEAVG4Torus@@HPEBVG4VPhysicalVolume@@@Z
	?ComputeDimensions@G4ParameterisationParaZ@@EEBAXAEAVG4Trap@@HPEBVG4VPhysicalVolume@@@Z
	?ComputeDimensions@G4ParameterisationParaZ@@EEBAXAEAVG4Trd@@HPEBVG4VPhysicalVolume@@@Z
	?ComputeDimensions@G4ParameterisationParaZ@@EEBAXAEAVG4Tubs@@HPEBVG4VPhysicalVolume@@@Z
	?ComputeDimensions@G4ParameterisationParaZ@@UEBAXAEAVG4Para@@HPEBVG4VPhysicalVolume@@@Z
	?ComputeDimensions@G4ParameterisationPolyconePhi@@EEBAXAEAVG4Box@@HPEBVG4VPhysicalVolume@@@Z
	?ComputeDimensions@G4ParameterisationPolyconePhi@@EEBAXAEAVG4Cons@@HPEBVG4VPhysicalVolume@@@Z
	?ComputeDimensions@G4ParameterisationPolyconePhi@@EEBAXAEAVG4Ellipsoid@@HPEBVG4VPhysicalVolume@@@Z
	?ComputeDimensions@G4ParameterisationPolyconePhi@@EEBAXAEAVG4Hype@@HPEBVG4VPhysicalVolume@@@Z
	?ComputeDimensions@G4ParameterisationPolyconePhi@@EEBAXAEAVG4Orb@@HPEBVG4VPhysicalVolume@@@Z
	?ComputeDimensions@G4ParameterisationPolyconePhi@@EEBAXAEAVG4Para@@HPEBVG4VPhysicalVolume@@@Z
	?ComputeDimensions@G4ParameterisationPolyconePhi@@EEBAXAEAVG4Polyhedra@@HPEBVG4VPhysicalVolume@@@Z
	?ComputeDimensions@G4ParameterisationPolyconePhi@@EEBAXAEAVG4Sphere@@HPEBVG4VPhysicalVolume@@@Z
	?ComputeDimensions@G4ParameterisationPolyconePhi@@EEBAXAEAVG4Torus@@HPEBVG4VPhysicalVolume@@@Z
	?ComputeDimensions@G4ParameterisationPolyconePhi@@EEBAXAEAVG4Trap@@HPEBVG4VPhysicalVolume@@@Z
	?ComputeDimensions@G4ParameterisationPolyconePhi@@EEBAXAEAVG4Trd@@HPEBVG4VPhysicalVolume@@@Z
	?ComputeDimensions@G4ParameterisationPolyconePhi@@EEBAXAEAVG4Tubs@@HPEBVG4VPhysicalVolume@@@Z
	?ComputeDimensions@G4ParameterisationPolyconePhi@@UEBAXAEAVG4Polycone@@HPEBVG4VPhysicalVolume@@@Z
	?ComputeDimensions@G4ParameterisationPolyconeRho@@EEBAXAEAVG4Box@@HPEBVG4VPhysicalVolume@@@Z
	?ComputeDimensions@G4ParameterisationPolyconeRho@@EEBAXAEAVG4Cons@@HPEBVG4VPhysicalVolume@@@Z
	?ComputeDimensions@G4ParameterisationPolyconeRho@@EEBAXAEAVG4Ellipsoid@@HPEBVG4VPhysicalVolume@@@Z
	?ComputeDimensions@G4ParameterisationPolyconeRho@@EEBAXAEAVG4Hype@@HPEBVG4VPhysicalVolume@@@Z
	?ComputeDimensions@G4ParameterisationPolyconeRho@@EEBAXAEAVG4Orb@@HPEBVG4VPhysicalVolume@@@Z
	?ComputeDimensions@G4ParameterisationPolyconeRho@@EEBAXAEAVG4Para@@HPEBVG4VPhysicalVolume@@@Z
	?ComputeDimensions@G4ParameterisationPolyconeRho@@EEBAXAEAVG4Polyhedra@@HPEBVG4VPhysicalVolume@@@Z
	?ComputeDimensions@G4ParameterisationPolyconeRho@@EEBAXAEAVG4Sphere@@HPEBVG4VPhysicalVolume@@@Z
	?ComputeDimensions@G4ParameterisationPolyconeRho@@EEBAXAEAVG4Torus@@HPEBVG4VPhysicalVolume@@@Z
	?ComputeDimensions@G4ParameterisationPolyconeRho@@EEBAXAEAVG4Trap@@HPEBVG4VPhysicalVolume@@@Z
	?ComputeDimensions@G4ParameterisationPolyconeRho@@EEBAXAEAVG4Trd@@HPEBVG4VPhysicalVolume@@@Z
	?ComputeDimensions@G4ParameterisationPolyconeRho@@EEBAXAEAVG4Tubs@@HPEBVG4VPhysicalVolume@@@Z
	?ComputeDimensions@G4ParameterisationPolyconeRho@@UEBAXAEAVG4Polycone@@HPEBVG4VPhysicalVolume@@@Z
	?ComputeDimensions@G4ParameterisationPolyconeZ@@EEBAXAEAVG4Box@@HPEBVG4VPhysicalVolume@@@Z
	?ComputeDimensions@G4ParameterisationPolyconeZ@@EEBAXAEAVG4Cons@@HPEBVG4VPhysicalVolume@@@Z
	?ComputeDimensions@G4ParameterisationPolyconeZ@@EEBAXAEAVG4Ellipsoid@@HPEBVG4VPhysicalVolume@@@Z
	?ComputeDimensions@G4ParameterisationPolyconeZ@@EEBAXAEAVG4Hype@@HPEBVG4VPhysicalVolume@@@Z
	?ComputeDimensions@G4ParameterisationPolyconeZ@@EEBAXAEAVG4Orb@@HPEBVG4VPhysicalVolume@@@Z
	?ComputeDimensions@G4ParameterisationPolyconeZ@@EEBAXAEAVG4Para@@HPEBVG4VPhysicalVolume@@@Z
	?ComputeDimensions@G4ParameterisationPolyconeZ@@EEBAXAEAVG4Polyhedra@@HPEBVG4VPhysicalVolume@@@Z
	?ComputeDimensions@G4ParameterisationPolyconeZ@@EEBAXAEAVG4Sphere@@HPEBVG4VPhysicalVolume@@@Z
	?ComputeDimensions@G4ParameterisationPolyconeZ@@EEBAXAEAVG4Torus@@HPEBVG4VPhysicalVolume@@@Z
	?ComputeDimensions@G4ParameterisationPolyconeZ@@EEBAXAEAVG4Trap@@HPEBVG4VPhysicalVolume@@@Z
	?ComputeDimensions@G4ParameterisationPolyconeZ@@EEBAXAEAVG4Trd@@HPEBVG4VPhysicalVolume@@@Z
	?ComputeDimensions@G4ParameterisationPolyconeZ@@EEBAXAEAVG4Tubs@@HPEBVG4VPhysicalVolume@@@Z
	?ComputeDimensions@G4ParameterisationPolyconeZ@@UEBAXAEAVG4Polycone@@HPEBVG4VPhysicalVolume@@@Z
	?ComputeDimensions@G4ParameterisationPolyhedraPhi@@EEBAXAEAVG4Box@@HPEBVG4VPhysicalVolume@@@Z
	?ComputeDimensions@G4ParameterisationPolyhedraPhi@@EEBAXAEAVG4Cons@@HPEBVG4VPhysicalVolume@@@Z
	?ComputeDimensions@G4ParameterisationPolyhedraPhi@@EEBAXAEAVG4Ellipsoid@@HPEBVG4VPhysicalVolume@@@Z
	?ComputeDimensions@G4ParameterisationPolyhedraPhi@@EEBAXAEAVG4Hype@@HPEBVG4VPhysicalVolume@@@Z
	?ComputeDimensions@G4ParameterisationPolyhedraPhi@@EEBAXAEAVG4Orb@@HPEBVG4VPhysicalVolume@@@Z
	?ComputeDimensions@G4ParameterisationPolyhedraPhi@@EEBAXAEAVG4Para@@HPEBVG4VPhysicalVolume@@@Z
	?ComputeDimensions@G4ParameterisationPolyhedraPhi@@EEBAXAEAVG4Polycone@@HPEBVG4VPhysicalVolume@@@Z
	?ComputeDimensions@G4ParameterisationPolyhedraPhi@@EEBAXAEAVG4Sphere@@HPEBVG4VPhysicalVolume@@@Z
	?ComputeDimensions@G4ParameterisationPolyhedraPhi@@EEBAXAEAVG4Torus@@HPEBVG4VPhysicalVolume@@@Z
	?ComputeDimensions@G4ParameterisationPolyhedraPhi@@EEBAXAEAVG4Trap@@HPEBVG4VPhysicalVolume@@@Z
	?ComputeDimensions@G4ParameterisationPolyhedraPhi@@EEBAXAEAVG4Trd@@HPEBVG4VPhysicalVolume@@@Z
	?ComputeDimensions@G4ParameterisationPolyhedraPhi@@EEBAXAEAVG4Tubs@@HPEBVG4VPhysicalVolume@@@Z
	?ComputeDimensions@G4ParameterisationPolyhedraPhi@@UEBAXAEAVG4Polyhedra@@HPEBVG4VPhysicalVolume@@@Z
	?ComputeDimensions@G4ParameterisationPolyhedraRho@@EEBAXAEAVG4Box@@HPEBVG4VPhysicalVolume@@@Z
	?ComputeDimensions@G4ParameterisationPolyhedraRho@@EEBAXAEAVG4Cons@@HPEBVG4VPhysicalVolume@@@Z
	?ComputeDimensions@G4ParameterisationPolyhedraRho@@EEBAXAEAVG4Ellipsoid@@HPEBVG4VPhysicalVolume@@@Z
	?ComputeDimensions@G4ParameterisationPolyhedraRho@@EEBAXAEAVG4Hype@@HPEBVG4VPhysicalVolume@@@Z
	?ComputeDimensions@G4ParameterisationPolyhedraRho@@EEBAXAEAVG4Orb@@HPEBVG4VPhysicalVolume@@@Z
	?ComputeDimensions@G4ParameterisationPolyhedraRho@@EEBAXAEAVG4Para@@HPEBVG4VPhysicalVolume@@@Z
	?ComputeDimensions@G4ParameterisationPolyhedraRho@@EEBAXAEAVG4Polycone@@HPEBVG4VPhysicalVolume@@@Z
	?ComputeDimensions@G4ParameterisationPolyhedraRho@@EEBAXAEAVG4Sphere@@HPEBVG4VPhysicalVolume@@@Z
	?ComputeDimensions@G4ParameterisationPolyhedraRho@@EEBAXAEAVG4Torus@@HPEBVG4VPhysicalVolume@@@Z
	?ComputeDimensions@G4ParameterisationPolyhedraRho@@EEBAXAEAVG4Trap@@HPEBVG4VPhysicalVolume@@@Z
	?ComputeDimensions@G4ParameterisationPolyhedraRho@@EEBAXAEAVG4Trd@@HPEBVG4VPhysicalVolume@@@Z
	?ComputeDimensions@G4ParameterisationPolyhedraRho@@EEBAXAEAVG4Tubs@@HPEBVG4VPhysicalVolume@@@Z
	?ComputeDimensions@G4ParameterisationPolyhedraRho@@UEBAXAEAVG4Polyhedra@@HPEBVG4VPhysicalVolume@@@Z
	?ComputeDimensions@G4ParameterisationPolyhedraZ@@EEBAXAEAVG4Box@@HPEBVG4VPhysicalVolume@@@Z
	?ComputeDimensions@G4ParameterisationPolyhedraZ@@EEBAXAEAVG4Cons@@HPEBVG4VPhysicalVolume@@@Z
	?ComputeDimensions@G4ParameterisationPolyhedraZ@@EEBAXAEAVG4Ellipsoid@@HPEBVG4VPhysicalVolume@@@Z
	?ComputeDimensions@G4ParameterisationPolyhedraZ@@EEBAXAEAVG4Hype@@HPEBVG4VPhysicalVolume@@@Z
	?ComputeDimensions@G4ParameterisationPolyhedraZ@@EEBAXAEAVG4Orb@@HPEBVG4VPhysicalVolume@@@Z
	?ComputeDimensions@G4ParameterisationPolyhedraZ@@EEBAXAEAVG4Para@@HPEBVG4VPhysicalVolume@@@Z
	?ComputeDimensions@G4ParameterisationPolyhedraZ@@EEBAXAEAVG4Polycone@@HPEBVG4VPhysicalVolume@@@Z
	?ComputeDimensions@G4ParameterisationPolyhedraZ@@EEBAXAEAVG4Sphere@@HPEBVG4VPhysicalVolume@@@Z
	?ComputeDimensions@G4ParameterisationPolyhedraZ@@EEBAXAEAVG4Torus@@HPEBVG4VPhysicalVolume@@@Z
	?ComputeDimensions@G4ParameterisationPolyhedraZ@@EEBAXAEAVG4Trap@@HPEBVG4VPhysicalVolume@@@Z
	?ComputeDimensions@G4ParameterisationPolyhedraZ@@EEBAXAEAVG4Trd@@HPEBVG4VPhysicalVolume@@@Z
	?ComputeDimensions@G4ParameterisationPolyhedraZ@@EEBAXAEAVG4Tubs@@HPEBVG4VPhysicalVolume@@@Z
	?ComputeDimensions@G4ParameterisationPolyhedraZ@@UEBAXAEAVG4Polyhedra@@HPEBVG4VPhysicalVolume@@@Z
	?ComputeDimensions@G4ParameterisationTrdX@@EEBAXAEAVG4Box@@HPEBVG4VPhysicalVolume@@@Z
	?ComputeDimensions@G4ParameterisationTrdX@@EEBAXAEAVG4Cons@@HPEBVG4VPhysicalVolume@@@Z
	?ComputeDimensions@G4ParameterisationTrdX@@EEBAXAEAVG4Ellipsoid@@HPEBVG4VPhysicalVolume@@@Z
	?ComputeDimensions@G4ParameterisationTrdX@@EEBAXAEAVG4Hype@@HPEBVG4VPhysicalVolume@@@Z
	?ComputeDimensions@G4ParameterisationTrdX@@EEBAXAEAVG4Orb@@HPEBVG4VPhysicalVolume@@@Z
	?ComputeDimensions@G4ParameterisationTrdX@@EEBAXAEAVG4Para@@HPEBVG4VPhysicalVolume@@@Z
	?ComputeDimensions@G4ParameterisationTrdX@@EEBAXAEAVG4Polycone@@HPEBVG4VPhysicalVolume@@@Z
	?ComputeDimensions@G4ParameterisationTrdX@@EEBAXAEAVG4Polyhedra@@HPEBVG4VPhysicalVolume@@@Z
	?ComputeDimensions@G4ParameterisationTrdX@@EEBAXAEAVG4Sphere@@HPEBVG4VPhysicalVolume@@@Z
	?ComputeDimensions@G4ParameterisationTrdX@@EEBAXAEAVG4Torus@@HPEBVG4VPhysicalVolume@@@Z
	?ComputeDimensions@G4ParameterisationTrdX@@EEBAXAEAVG4Tubs@@HPEBVG4VPhysicalVolume@@@Z
	?ComputeDimensions@G4ParameterisationTrdX@@UEBAXAEAVG4Trap@@HPEBVG4VPhysicalVolume@@@Z
	?ComputeDimensions@G4ParameterisationTrdX@@UEBAXAEAVG4Trd@@HPEBVG4VPhysicalVolume@@@Z
	?ComputeDimensions@G4ParameterisationTrdY@@EEBAXAEAVG4Box@@HPEBVG4VPhysicalVolume@@@Z
	?ComputeDimensions@G4ParameterisationTrdY@@EEBAXAEAVG4Cons@@HPEBVG4VPhysicalVolume@@@Z
	?ComputeDimensions@G4ParameterisationTrdY@@EEBAXAEAVG4Ellipsoid@@HPEBVG4VPhysicalVolume@@@Z
	?ComputeDimensions@G4ParameterisationTrdY@@EEBAXAEAVG4Hype@@HPEBVG4VPhysicalVolume@@@Z
	?ComputeDimensions@G4ParameterisationTrdY@@EEBAXAEAVG4Orb@@HPEBVG4VPhysicalVolume@@@Z
	?ComputeDimensions@G4ParameterisationTrdY@@EEBAXAEAVG4Para@@HPEBVG4VPhysicalVolume@@@Z
	?ComputeDimensions@G4ParameterisationTrdY@@EEBAXAEAVG4Polycone@@HPEBVG4VPhysicalVolume@@@Z
	?ComputeDimensions@G4ParameterisationTrdY@@EEBAXAEAVG4Polyhedra@@HPEBVG4VPhysicalVolume@@@Z
	?ComputeDimensions@G4ParameterisationTrdY@@EEBAXAEAVG4Sphere@@HPEBVG4VPhysicalVolume@@@Z
	?ComputeDimensions@G4ParameterisationTrdY@@EEBAXAEAVG4Torus@@HPEBVG4VPhysicalVolume@@@Z
	?ComputeDimensions@G4ParameterisationTrdY@@EEBAXAEAVG4Trap@@HPEBVG4VPhysicalVolume@@@Z
	?ComputeDimensions@G4ParameterisationTrdY@@EEBAXAEAVG4Tubs@@HPEBVG4VPhysicalVolume@@@Z
	?ComputeDimensions@G4ParameterisationTrdY@@UEBAXAEAVG4Trd@@HPEBVG4VPhysicalVolume@@@Z
	?ComputeDimensions@G4ParameterisationTrdZ@@EEBAXAEAVG4Box@@HPEBVG4VPhysicalVolume@@@Z
	?ComputeDimensions@G4ParameterisationTrdZ@@EEBAXAEAVG4Cons@@HPEBVG4VPhysicalVolume@@@Z
	?ComputeDimensions@G4ParameterisationTrdZ@@EEBAXAEAVG4Ellipsoid@@HPEBVG4VPhysicalVolume@@@Z
	?ComputeDimensions@G4ParameterisationTrdZ@@EEBAXAEAVG4Hype@@HPEBVG4VPhysicalVolume@@@Z
	?ComputeDimensions@G4ParameterisationTrdZ@@EEBAXAEAVG4Orb@@HPEBVG4VPhysicalVolume@@@Z
	?ComputeDimensions@G4ParameterisationTrdZ@@EEBAXAEAVG4Para@@HPEBVG4VPhysicalVolume@@@Z
	?ComputeDimensions@G4ParameterisationTrdZ@@EEBAXAEAVG4Polycone@@HPEBVG4VPhysicalVolume@@@Z
	?ComputeDimensions@G4ParameterisationTrdZ@@EEBAXAEAVG4Polyhedra@@HPEBVG4VPhysicalVolume@@@Z
	?ComputeDimensions@G4ParameterisationTrdZ@@EEBAXAEAVG4Sphere@@HPEBVG4VPhysicalVolume@@@Z
	?ComputeDimensions@G4ParameterisationTrdZ@@EEBAXAEAVG4Torus@@HPEBVG4VPhysicalVolume@@@Z
	?ComputeDimensions@G4ParameterisationTrdZ@@EEBAXAEAVG4Trap@@HPEBVG4VPhysicalVolume@@@Z
	?ComputeDimensions@G4ParameterisationTrdZ@@EEBAXAEAVG4Tubs@@HPEBVG4VPhysicalVolume@@@Z
	?ComputeDimensions@G4ParameterisationTrdZ@@UEBAXAEAVG4Trd@@HPEBVG4VPhysicalVolume@@@Z
	?ComputeDimensions@G4ParameterisationTubsPhi@@EEBAXAEAVG4Box@@HPEBVG4VPhysicalVolume@@@Z
	?ComputeDimensions@G4ParameterisationTubsPhi@@EEBAXAEAVG4Cons@@HPEBVG4VPhysicalVolume@@@Z
	?ComputeDimensions@G4ParameterisationTubsPhi@@EEBAXAEAVG4Ellipsoid@@HPEBVG4VPhysicalVolume@@@Z
	?ComputeDimensions@G4ParameterisationTubsPhi@@EEBAXAEAVG4Hype@@HPEBVG4VPhysicalVolume@@@Z
	?ComputeDimensions@G4ParameterisationTubsPhi@@EEBAXAEAVG4Orb@@HPEBVG4VPhysicalVolume@@@Z
	?ComputeDimensions@G4ParameterisationTubsPhi@@EEBAXAEAVG4Para@@HPEBVG4VPhysicalVolume@@@Z
	?ComputeDimensions@G4ParameterisationTubsPhi@@EEBAXAEAVG4Polycone@@HPEBVG4VPhysicalVolume@@@Z
	?ComputeDimensions@G4ParameterisationTubsPhi@@EEBAXAEAVG4Polyhedra@@HPEBVG4VPhysicalVolume@@@Z
	?ComputeDimensions@G4ParameterisationTubsPhi@@EEBAXAEAVG4Sphere@@HPEBVG4VPhysicalVolume@@@Z
	?ComputeDimensions@G4ParameterisationTubsPhi@@EEBAXAEAVG4Torus@@HPEBVG4VPhysicalVolume@@@Z
	?ComputeDimensions@G4ParameterisationTubsPhi@@EEBAXAEAVG4Trap@@HPEBVG4VPhysicalVolume@@@Z
	?ComputeDimensions@G4ParameterisationTubsPhi@@EEBAXAEAVG4Trd@@HPEBVG4VPhysicalVolume@@@Z
	?ComputeDimensions@G4ParameterisationTubsPhi@@UEBAXAEAVG4Tubs@@HPEBVG4VPhysicalVolume@@@Z
	?ComputeDimensions@G4ParameterisationTubsRho@@EEBAXAEAVG4Box@@HPEBVG4VPhysicalVolume@@@Z
	?ComputeDimensions@G4ParameterisationTubsRho@@EEBAXAEAVG4Cons@@HPEBVG4VPhysicalVolume@@@Z
	?ComputeDimensions@G4ParameterisationTubsRho@@EEBAXAEAVG4Ellipsoid@@HPEBVG4VPhysicalVolume@@@Z
	?ComputeDimensions@G4ParameterisationTubsRho@@EEBAXAEAVG4Hype@@HPEBVG4VPhysicalVolume@@@Z
	?ComputeDimensions@G4ParameterisationTubsRho@@EEBAXAEAVG4Orb@@HPEBVG4VPhysicalVolume@@@Z
	?ComputeDimensions@G4ParameterisationTubsRho@@EEBAXAEAVG4Para@@HPEBVG4VPhysicalVolume@@@Z
	?ComputeDimensions@G4ParameterisationTubsRho@@EEBAXAEAVG4Polycone@@HPEBVG4VPhysicalVolume@@@Z
	?ComputeDimensions@G4ParameterisationTubsRho@@EEBAXAEAVG4Polyhedra@@HPEBVG4VPhysicalVolume@@@Z
	?ComputeDimensions@G4ParameterisationTubsRho@@EEBAXAEAVG4Sphere@@HPEBVG4VPhysicalVolume@@@Z
	?ComputeDimensions@G4ParameterisationTubsRho@@EEBAXAEAVG4Torus@@HPEBVG4VPhysicalVolume@@@Z
	?ComputeDimensions@G4ParameterisationTubsRho@@EEBAXAEAVG4Trap@@HPEBVG4VPhysicalVolume@@@Z
	?ComputeDimensions@G4ParameterisationTubsRho@@EEBAXAEAVG4Trd@@HPEBVG4VPhysicalVolume@@@Z
	?ComputeDimensions@G4ParameterisationTubsRho@@UEBAXAEAVG4Tubs@@HPEBVG4VPhysicalVolume@@@Z
	?ComputeDimensions@G4ParameterisationTubsZ@@EEBAXAEAVG4Box@@HPEBVG4VPhysicalVolume@@@Z
	?ComputeDimensions@G4ParameterisationTubsZ@@EEBAXAEAVG4Cons@@HPEBVG4VPhysicalVolume@@@Z
	?ComputeDimensions@G4ParameterisationTubsZ@@EEBAXAEAVG4Ellipsoid@@HPEBVG4VPhysicalVolume@@@Z
	?ComputeDimensions@G4ParameterisationTubsZ@@EEBAXAEAVG4Hype@@HPEBVG4VPhysicalVolume@@@Z
	?ComputeDimensions@G4ParameterisationTubsZ@@EEBAXAEAVG4Orb@@HPEBVG4VPhysicalVolume@@@Z
	?ComputeDimensions@G4ParameterisationTubsZ@@EEBAXAEAVG4Para@@HPEBVG4VPhysicalVolume@@@Z
	?ComputeDimensions@G4ParameterisationTubsZ@@EEBAXAEAVG4Polycone@@HPEBVG4VPhysicalVolume@@@Z
	?ComputeDimensions@G4ParameterisationTubsZ@@EEBAXAEAVG4Polyhedra@@HPEBVG4VPhysicalVolume@@@Z
	?ComputeDimensions@G4ParameterisationTubsZ@@EEBAXAEAVG4Sphere@@HPEBVG4VPhysicalVolume@@@Z
	?ComputeDimensions@G4ParameterisationTubsZ@@EEBAXAEAVG4Torus@@HPEBVG4VPhysicalVolume@@@Z
	?ComputeDimensions@G4ParameterisationTubsZ@@EEBAXAEAVG4Trap@@HPEBVG4VPhysicalVolume@@@Z
	?ComputeDimensions@G4ParameterisationTubsZ@@EEBAXAEAVG4Trd@@HPEBVG4VPhysicalVolume@@@Z
	?ComputeDimensions@G4ParameterisationTubsZ@@UEBAXAEAVG4Tubs@@HPEBVG4VPhysicalVolume@@@Z
	?ComputeDimensions@G4PhantomParameterisation@@UEBAXAEAVG4Box@@HPEBVG4VPhysicalVolume@@@Z
	?ComputeDimensions@G4PhantomParameterisation@@UEBAXAEAVG4Cons@@HPEBVG4VPhysicalVolume@@@Z
	?ComputeDimensions@G4PhantomParameterisation@@UEBAXAEAVG4Ellipsoid@@HPEBVG4VPhysicalVolume@@@Z
	?ComputeDimensions@G4PhantomParameterisation@@UEBAXAEAVG4Hype@@HPEBVG4VPhysicalVolume@@@Z
	?ComputeDimensions@G4PhantomParameterisation@@UEBAXAEAVG4Orb@@HPEBVG4VPhysicalVolume@@@Z
	?ComputeDimensions@G4PhantomParameterisation@@UEBAXAEAVG4Para@@HPEBVG4VPhysicalVolume@@@Z
	?ComputeDimensions@G4PhantomParameterisation@@UEBAXAEAVG4Polycone@@HPEBVG4VPhysicalVolume@@@Z
	?ComputeDimensions@G4PhantomParameterisation@@UEBAXAEAVG4Polyhedra@@HPEBVG4VPhysicalVolume@@@Z
	?ComputeDimensions@G4PhantomParameterisation@@UEBAXAEAVG4Sphere@@HPEBVG4VPhysicalVolume@@@Z
	?ComputeDimensions@G4PhantomParameterisation@@UEBAXAEAVG4Torus@@HPEBVG4VPhysicalVolume@@@Z
	?ComputeDimensions@G4PhantomParameterisation@@UEBAXAEAVG4Trap@@HPEBVG4VPhysicalVolume@@@Z
	?ComputeDimensions@G4PhantomParameterisation@@UEBAXAEAVG4Trd@@HPEBVG4VPhysicalVolume@@@Z
	?ComputeDimensions@G4PhantomParameterisation@@UEBAXAEAVG4Tubs@@HPEBVG4VPhysicalVolume@@@Z
	?ComputeDimensions@G4Polycone@@UEAAXPEAVG4VPVParameterisation@@HPEBVG4VPhysicalVolume@@@Z
	?ComputeDimensions@G4Polyhedra@@UEAAXPEAVG4VPVParameterisation@@HPEBVG4VPhysicalVolume@@@Z
	?ComputeDimensions@G4ReflectedSolid@@UEAAXPEAVG4VPVParameterisation@@HPEBVG4VPhysicalVolume@@@Z
	?ComputeDimensions@G4ScaledSolid@@UEAAXPEAVG4VPVParameterisation@@HPEBVG4VPhysicalVolume@@@Z
	?ComputeDimensions@G4Sphere@@UEAAXPEAVG4VPVParameterisation@@HPEBVG4VPhysicalVolume@@@Z
	?ComputeDimensions@G4SubtractionSolid@@UEAAXPEAVG4VPVParameterisation@@HPEBVG4VPhysicalVolume@@@Z
	?ComputeDimensions@G4Tet@@UEAAXPEAVG4VPVParameterisation@@HPEBVG4VPhysicalVolume@@@Z
	?ComputeDimensions@G4Torus@@UEAAXPEAVG4VPVParameterisation@@HPEBVG4VPhysicalVolume@@@Z
	?ComputeDimensions@G4Trap@@UEAAXPEAVG4VPVParameterisation@@HPEBVG4VPhysicalVolume@@@Z
	?ComputeDimensions@G4Trd@@UEAAXPEAVG4VPVParameterisation@@HPEBVG4VPhysicalVolume@@@Z
	?ComputeDimensions@G4Tubs@@UEAAXPEAVG4VPVParameterisation@@HPEBVG4VPhysicalVolume@@@Z
	?ComputeDimensions@G4TwistedTubs@@UEAAXPEAVG4VPVParameterisation@@HPEBVG4VPhysicalVolume@@@Z
	?ComputeDimensions@G4UnionSolid@@UEAAXPEAVG4VPVParameterisation@@HPEBVG4VPhysicalVolume@@@Z
	?ComputeDimensions@G4VNestedParameterisation@@UEBAXAEAVG4Box@@HPEBVG4VPhysicalVolume@@@Z
	?ComputeDimensions@G4VNestedParameterisation@@UEBAXAEAVG4Cons@@HPEBVG4VPhysicalVolume@@@Z
	?ComputeDimensions@G4VNestedParameterisation@@UEBAXAEAVG4Ellipsoid@@HPEBVG4VPhysicalVolume@@@Z
	?ComputeDimensions@G4VNestedParameterisation@@UEBAXAEAVG4Hype@@HPEBVG4VPhysicalVolume@@@Z
	?ComputeDimensions@G4VNestedParameterisation@@UEBAXAEAVG4Orb@@HPEBVG4VPhysicalVolume@@@Z
	?ComputeDimensions@G4VNestedParameterisation@@UEBAXAEAVG4Para@@HPEBVG4VPhysicalVolume@@@Z
	?ComputeDimensions@G4VNestedParameterisation@@UEBAXAEAVG4Polycone@@HPEBVG4VPhysicalVolume@@@Z
	?ComputeDimensions@G4VNestedParameterisation@@UEBAXAEAVG4Polyhedra@@HPEBVG4VPhysicalVolume@@@Z
	?ComputeDimensions@G4VNestedParameterisation@@UEBAXAEAVG4Sphere@@HPEBVG4VPhysicalVolume@@@Z
	?ComputeDimensions@G4VNestedParameterisation@@UEBAXAEAVG4Torus@@HPEBVG4VPhysicalVolume@@@Z
	?ComputeDimensions@G4VNestedParameterisation@@UEBAXAEAVG4Trap@@HPEBVG4VPhysicalVolume@@@Z
	?ComputeDimensions@G4VNestedParameterisation@@UEBAXAEAVG4Trd@@HPEBVG4VPhysicalVolume@@@Z
	?ComputeDimensions@G4VNestedParameterisation@@UEBAXAEAVG4Tubs@@HPEBVG4VPhysicalVolume@@@Z
	?ComputeDimensions@G4VPVParameterisation@@UEBAXAEAVG4Box@@HPEBVG4VPhysicalVolume@@@Z
	?ComputeDimensions@G4VPVParameterisation@@UEBAXAEAVG4Cons@@HPEBVG4VPhysicalVolume@@@Z
	?ComputeDimensions@G4VPVParameterisation@@UEBAXAEAVG4Ellipsoid@@HPEBVG4VPhysicalVolume@@@Z
	?ComputeDimensions@G4VPVParameterisation@@UEBAXAEAVG4Hype@@HPEBVG4VPhysicalVolume@@@Z
	?ComputeDimensions@G4VPVParameterisation@@UEBAXAEAVG4Orb@@HPEBVG4VPhysicalVolume@@@Z
	?ComputeDimensions@G4VPVParameterisation@@UEBAXAEAVG4Para@@HPEBVG4VPhysicalVolume@@@Z
	?ComputeDimensions@G4VPVParameterisation@@UEBAXAEAVG4Polycone@@HPEBVG4VPhysicalVolume@@@Z
	?ComputeDimensions@G4VPVParameterisation@@UEBAXAEAVG4Polyhedra@@HPEBVG4VPhysicalVolume@@@Z
	?ComputeDimensions@G4VPVParameterisation@@UEBAXAEAVG4Sphere@@HPEBVG4VPhysicalVolume@@@Z
	?ComputeDimensions@G4VPVParameterisation@@UEBAXAEAVG4Torus@@HPEBVG4VPhysicalVolume@@@Z
	?ComputeDimensions@G4VPVParameterisation@@UEBAXAEAVG4Trap@@HPEBVG4VPhysicalVolume@@@Z
	?ComputeDimensions@G4VPVParameterisation@@UEBAXAEAVG4Trd@@HPEBVG4VPhysicalVolume@@@Z
	?ComputeDimensions@G4VPVParameterisation@@UEBAXAEAVG4Tubs@@HPEBVG4VPhysicalVolume@@@Z
	?ComputeDimensions@G4VSolid@@UEAAXPEAVG4VPVParameterisation@@HPEBVG4VPhysicalVolume@@@Z
	?ComputeDimensions@G4VTwistedFaceted@@UEAAXPEAVG4VPVParameterisation@@HPEBVG4VPhysicalVolume@@@Z
	?ComputeIsTwisted@G4GenericTrap@@AEAA_NXZ
	?ComputeLateralPlanes@G4ExtrudedSolid@@AEAAXXZ
	?ComputeMaterial@G4PartialPhantomParameterisation@@UEAAPEAVG4Material@@HPEAVG4VPhysicalVolume@@PEBVG4VTouchable@@@Z
	?ComputeMaterial@G4PhantomParameterisation@@UEAAPEAVG4Material@@HPEAVG4VPhysicalVolume@@PEBVG4VTouchable@@@Z
	?ComputeMaterial@G4VNestedParameterisation@@UEAAPEAVG4Material@@HPEAVG4VPhysicalVolume@@PEBVG4VTouchable@@@Z
	?ComputeMaterial@G4VPVParameterisation@@UEAAPEAVG4Material@@HPEAVG4VPhysicalVolume@@PEBVG4VTouchable@@@Z
	?ComputeNewStepSize@?$G4RKIntegrationDriver@VG4DormandPrince745@@@@UEAANNN@Z
	?ComputeNewStepSize@?$G4RKIntegrationDriver@VG4HelixHeum@@@@UEAANNN@Z
	?ComputeNewStepSize@?$G4RKIntegrationDriver@VG4MagIntegratorStepper@@@@UEAANNN@Z
	?ComputeNewStepSize@?$G4RKIntegrationDriver@VG4RK547FEq1@@@@UEAANNN@Z
	?ComputeNewStepSize@G4BFieldIntegrationDriver@@UEAANNN@Z
	?ComputeNewStepSize@G4MagInt_Driver@@UEAANNN@Z
	?ComputeNewStepSize_WithinLimits@G4MagInt_Driver@@QEAANNN@Z
	?ComputeProjectionParameters@G4ExtrudedSolid@@AEAAXXZ
	?ComputeSafety@G4ErrorPropagationNavigator@@UEAANAEBVHep3Vector@CLHEP@@N_N@Z
	?ComputeSafety@G4MultiNavigator@@UEAANAEBVHep3Vector@CLHEP@@N_N@Z
	?ComputeSafety@G4Navigator@@UEAANAEBVHep3Vector@CLHEP@@N_N@Z
	?ComputeSafety@G4NormalNavigation@@QEAANAEBVHep3Vector@CLHEP@@AEBVG4NavigationHistory@@N@Z
	?ComputeSafety@G4ParameterisedNavigation@@UEAANAEBVHep3Vector@CLHEP@@AEBVG4NavigationHistory@@N@Z
	?ComputeSafety@G4PathFinder@@QEAANAEBVHep3Vector@CLHEP@@@Z
	?ComputeSafety@G4RegularNavigation@@QEAANAEBVHep3Vector@CLHEP@@AEBVG4NavigationHistory@@N@Z
	?ComputeSafety@G4ReplicaNavigation@@QEAANAEBVHep3Vector@CLHEP@@0AEAVG4NavigationHistory@@N@Z
	?ComputeSafety@G4SafetyHelper@@QEAANAEBVHep3Vector@CLHEP@@N@Z
	?ComputeSafety@G4VoxelNavigation@@UEAANAEBVHep3Vector@CLHEP@@AEBVG4NavigationHistory@@N@Z
	?ComputeSafety@G4VoxelSafety@@QEAANAEBVHep3Vector@CLHEP@@AEBVG4VPhysicalVolume@@N@Z
	?ComputeSafetyLog@G4NavigationLogger@@QEBAXPEBVG4VSolid@@AEBVHep3Vector@CLHEP@@N_NH@Z
	?ComputeSolid@G4ParameterisationTrdX@@UEAAPEAVG4VSolid@@HPEAVG4VPhysicalVolume@@@Z
	?ComputeSolid@G4PhantomParameterisation@@UEAAPEAVG4VSolid@@HPEAVG4VPhysicalVolume@@@Z
	?ComputeSolid@G4VDivisionParameterisation@@UEAAPEAVG4VSolid@@HPEAVG4VPhysicalVolume@@@Z
	?ComputeSolid@G4VNestedParameterisation@@UEAAPEAVG4VSolid@@HPEAVG4VPhysicalVolume@@@Z
	?ComputeSolid@G4VPVParameterisation@@UEAAPEAVG4VSolid@@HPEAVG4VPhysicalVolume@@@Z
	?ComputeStep@G4ErrorPropagationNavigator@@UEAANAEBVHep3Vector@CLHEP@@0NAEAN@Z
	?ComputeStep@G4MultiNavigator@@UEAANAEBVHep3Vector@CLHEP@@0NAEAN@Z
	?ComputeStep@G4Navigator@@UEAANAEBVHep3Vector@CLHEP@@0NAEAN@Z
	?ComputeStep@G4NormalNavigation@@QEAANAEBVHep3Vector@CLHEP@@0NAEANAEAVG4NavigationHistory@@AEA_NAEAV23@33PEAPEAVG4VPhysicalVolume@@AEAH@Z
	?ComputeStep@G4ParameterisedNavigation@@UEAANAEBVHep3Vector@CLHEP@@0NAEANAEAVG4NavigationHistory@@AEA_NAEAV23@33PEAPEAVG4VPhysicalVolume@@AEAH@Z
	?ComputeStep@G4PathFinder@@QEAANAEBVG4FieldTrack@@NHHAEANAEAW4ELimited@@AEAV2@PEAVG4VPhysicalVolume@@@Z
	?ComputeStep@G4PropagatorInField@@QEAANAEAVG4FieldTrack@@NAEANPEAVG4VPhysicalVolume@@_N@Z
	?ComputeStep@G4RegularNavigation@@QEAANAEBVHep3Vector@CLHEP@@0NAEANAEAVG4NavigationHistory@@AEA_NAEAV23@33PEAPEAVG4VPhysicalVolume@@AEAH@Z
	?ComputeStep@G4ReplicaNavigation@@QEAANAEBVHep3Vector@CLHEP@@000NAEANAEAVG4NavigationHistory@@AEA_N3AEAV23@33PEAPEAVG4VPhysicalVolume@@AEAH@Z
	?ComputeStep@G4VoxelNavigation@@UEAANAEBVHep3Vector@CLHEP@@0NAEANAEAVG4NavigationHistory@@AEA_NAEAV23@33PEAPEAVG4VPhysicalVolume@@AEAH@Z
	?ComputeStepLog@G4Navigator@@AEBAXAEBVHep3Vector@CLHEP@@N@Z
	?ComputeStepSkippingEqualMaterials@G4RegularNavigation@@QEAANAEAVHep3Vector@CLHEP@@AEBV23@NAEANAEAVG4NavigationHistory@@AEA_N044PEAPEAVG4VPhysicalVolume@@AEAHPEAV5@@Z
	?ComputeTransformation@G4ParameterisationBoxX@@UEBAXHPEAVG4VPhysicalVolume@@@Z
	?ComputeTransformation@G4ParameterisationBoxY@@UEBAXHPEAVG4VPhysicalVolume@@@Z
	?ComputeTransformation@G4ParameterisationBoxZ@@UEBAXHPEAVG4VPhysicalVolume@@@Z
	?ComputeTransformation@G4ParameterisationConsPhi@@UEBAXHPEAVG4VPhysicalVolume@@@Z
	?ComputeTransformation@G4ParameterisationConsRho@@UEBAXHPEAVG4VPhysicalVolume@@@Z
	?ComputeTransformation@G4ParameterisationConsZ@@UEBAXHPEAVG4VPhysicalVolume@@@Z
	?ComputeTransformation@G4ParameterisationParaX@@UEBAXHPEAVG4VPhysicalVolume@@@Z
	?ComputeTransformation@G4ParameterisationParaY@@UEBAXHPEAVG4VPhysicalVolume@@@Z
	?ComputeTransformation@G4ParameterisationParaZ@@UEBAXHPEAVG4VPhysicalVolume@@@Z
	?ComputeTransformation@G4ParameterisationPolyconePhi@@UEBAXHPEAVG4VPhysicalVolume@@@Z
	?ComputeTransformation@G4ParameterisationPolyconeRho@@UEBAXHPEAVG4VPhysicalVolume@@@Z
	?ComputeTransformation@G4ParameterisationPolyconeZ@@UEBAXHPEAVG4VPhysicalVolume@@@Z
	?ComputeTransformation@G4ParameterisationPolyhedraPhi@@UEBAXHPEAVG4VPhysicalVolume@@@Z
	?ComputeTransformation@G4ParameterisationPolyhedraRho@@UEBAXHPEAVG4VPhysicalVolume@@@Z
	?ComputeTransformation@G4ParameterisationPolyhedraZ@@UEBAXHPEAVG4VPhysicalVolume@@@Z
	?ComputeTransformation@G4ParameterisationTrdX@@UEBAXHPEAVG4VPhysicalVolume@@@Z
	?ComputeTransformation@G4ParameterisationTrdY@@UEBAXHPEAVG4VPhysicalVolume@@@Z
	?ComputeTransformation@G4ParameterisationTrdZ@@UEBAXHPEAVG4VPhysicalVolume@@@Z
	?ComputeTransformation@G4ParameterisationTubsPhi@@UEBAXHPEAVG4VPhysicalVolume@@@Z
	?ComputeTransformation@G4ParameterisationTubsRho@@UEBAXHPEAVG4VPhysicalVolume@@@Z
	?ComputeTransformation@G4ParameterisationTubsZ@@UEBAXHPEAVG4VPhysicalVolume@@@Z
	?ComputeTransformation@G4PartialPhantomParameterisation@@UEBAXHPEAVG4VPhysicalVolume@@@Z
	?ComputeTransformation@G4PhantomParameterisation@@UEBAXHPEAVG4VPhysicalVolume@@@Z
	?ComputeTransformation@G4ReplicaNavigation@@QEBAXHPEAVG4VPhysicalVolume@@@Z
	?ComputeTransformation@G4ReplicaNavigation@@QEBAXHPEAVG4VPhysicalVolume@@AEAVHep3Vector@CLHEP@@@Z
	?ComputeTrapParams@G4ParameterisationTrdX@@AEAAXXZ
	?ComputeVoxelIndices@G4PartialPhantomParameterisation@@AEBAXHAEA_K00@Z
	?ComputeVoxelIndices@G4PhantomParameterisation@@AEBAXHAEA_K00@Z
	?ComputeVoxelPolyhedra@G4DrawVoxels@@AEBAXPEBVG4LogicalVolume@@PEBVG4SmartVoxelHeader@@AEAVG4VoxelLimits@@PEAV?$vector@VG4PlacedPolyhedron@@V?$allocator@VG4PlacedPolyhedron@@@std@@@std@@@Z
	?ComputeVoxelSafety@G4ParameterisedNavigation@@AEBANAEBVHep3Vector@CLHEP@@W4EAxis@@@Z
	?ComputeVoxelSafety@G4VoxelNavigation@@IEBANAEBVHep3Vector@CLHEP@@@Z
	?ConfigureForTrack@G4FieldManager@@UEAAXPEBVG4Track@@@Z
	?Contains@G4Voxelizer@@QEBA_NAEBVHep3Vector@CLHEP@@@Z
	?ConvertRadiusFactor@G4VParameterisationPolyhedra@@AEBANAEBVG4Polyhedra@@@Z
	?CopyFrom@G4TriangularFacet@@AEAAXAEBV1@@Z
	?CopyObjects@G4TessellatedSolid@@AEAAXAEBV1@@Z
	?CopyStuff@G4GenericPolycone@@IEAAXAEBV1@@Z
	?CopyStuff@G4PolyPhiFace@@IEAAXAEBV1@@Z
	?CopyStuff@G4Polycone@@IEAAXAEBV1@@Z
	?CopyStuff@G4PolyconeSide@@IEAAXAEBV1@@Z
	?CopyStuff@G4Polyhedra@@IEAAXAEBV1@@Z
	?CopyStuff@G4PolyhedraSide@@IEAAXAEBV1@@Z
	?CopyStuff@G4VCSGfaceted@@IEAAXAEBV1@@Z
	?CopyVertices@G4ReduciblePolygon@@QEBAXQEAN0@Z
	?CountHeadsAndNodes@G4SmartVoxelStat@@IEAAXPEBVG4SmartVoxelHeader@@@Z
	?Create@G4GenericPolycone@@IEAAXNNPEAVG4ReduciblePolygon@@@Z
	?Create@G4Polycone@@IEAAXNNPEAVG4ReduciblePolygon@@@Z
	?Create@G4Polyhedra@@IEAAXNNHPEAVG4ReduciblePolygon@@@Z
	?Create@G4ReduciblePolygon@@IEAAXQEBN0H@Z
	?CreateChordFinder@G4FieldManager@@QEAAXPEAVG4MagneticField@@@Z
	?CreateListOfEdges@G4BoundingEnvelope@@AEBAXAEBV?$vector@V?$Point3D@N@HepGeom@@V?$allocator@V?$Point3D@N@HepGeom@@@std@@@std@@0AEAV?$vector@U?$pair@V?$Point3D@N@HepGeom@@V12@@std@@V?$allocator@U?$pair@V?$Point3D@N@HepGeom@@V12@@std@@@2@@3@@Z
	?CreateListOfPlanes@G4BoundingEnvelope@@AEBAXAEBV?$vector@V?$Point3D@N@HepGeom@@V?$allocator@V?$Point3D@N@HepGeom@@@std@@@std@@0AEAV?$vector@V?$Plane3D@N@HepGeom@@V?$allocator@V?$Plane3D@N@HepGeom@@@std@@@3@@Z
	?CreateMiniVoxels@G4Voxelizer@@AEAAXQEAV?$vector@NV?$allocator@N@std@@@std@@QEAVG4SurfBits@@@Z
	?CreateNewTrajectorySegment@G4VCurvedTrajectoryFilter@@QEAAXXZ
	?CreatePVDivision@G4PVDivisionFactory@@UEAAPEAVG4VPhysicalVolume@@AEBVG4String@@PEAVG4LogicalVolume@@1PEBVG4VPVParameterisation@@@Z
	?CreatePVDivision@G4PVDivisionFactory@@UEAAPEAVG4VPhysicalVolume@@AEBVG4String@@PEAVG4LogicalVolume@@1W4EAxis@@HN@Z
	?CreatePVDivision@G4PVDivisionFactory@@UEAAPEAVG4VPhysicalVolume@@AEBVG4String@@PEAVG4LogicalVolume@@1W4EAxis@@HNN@Z
	?CreatePVDivision@G4PVDivisionFactory@@UEAAPEAVG4VPhysicalVolume@@AEBVG4String@@PEAVG4LogicalVolume@@1W4EAxis@@NN@Z
	?CreatePlacedPolyhedra@G4DrawVoxels@@QEBAPEAV?$vector@VG4PlacedPolyhedron@@V?$allocator@VG4PlacedPolyhedron@@@std@@@std@@PEBVG4LogicalVolume@@@Z
	?CreatePolyhedron@G4Box@@UEBAPEAVG4Polyhedron@@XZ
	?CreatePolyhedron@G4Cons@@UEBAPEAVG4Polyhedron@@XZ
	?CreatePolyhedron@G4CutTubs@@UEBAPEAVG4Polyhedron@@XZ
	?CreatePolyhedron@G4DisplacedSolid@@UEBAPEAVG4Polyhedron@@XZ
	?CreatePolyhedron@G4Ellipsoid@@UEBAPEAVG4Polyhedron@@XZ
	?CreatePolyhedron@G4EllipticalCone@@UEBAPEAVG4Polyhedron@@XZ
	?CreatePolyhedron@G4EllipticalTube@@UEBAPEAVG4Polyhedron@@XZ
	?CreatePolyhedron@G4GenericPolycone@@UEBAPEAVG4Polyhedron@@XZ
	?CreatePolyhedron@G4GenericTrap@@UEBAPEAVG4Polyhedron@@XZ
	?CreatePolyhedron@G4Hype@@UEBAPEAVG4Polyhedron@@XZ
	?CreatePolyhedron@G4IntersectionSolid@@UEBAPEAVG4Polyhedron@@XZ
	?CreatePolyhedron@G4MultiUnion@@UEBAPEAVG4Polyhedron@@XZ
	?CreatePolyhedron@G4Orb@@UEBAPEAVG4Polyhedron@@XZ
	?CreatePolyhedron@G4Para@@UEBAPEAVG4Polyhedron@@XZ
	?CreatePolyhedron@G4Paraboloid@@UEBAPEAVG4Polyhedron@@XZ
	?CreatePolyhedron@G4Polycone@@UEBAPEAVG4Polyhedron@@XZ
	?CreatePolyhedron@G4Polyhedra@@UEBAPEAVG4Polyhedron@@XZ
	?CreatePolyhedron@G4ReflectedSolid@@UEBAPEAVG4Polyhedron@@XZ
	?CreatePolyhedron@G4ScaledSolid@@UEBAPEAVG4Polyhedron@@XZ
	?CreatePolyhedron@G4Sphere@@UEBAPEAVG4Polyhedron@@XZ
	?CreatePolyhedron@G4SubtractionSolid@@UEBAPEAVG4Polyhedron@@XZ
	?CreatePolyhedron@G4TessellatedSolid@@UEBAPEAVG4Polyhedron@@XZ
	?CreatePolyhedron@G4Tet@@UEBAPEAVG4Polyhedron@@XZ
	?CreatePolyhedron@G4Torus@@UEBAPEAVG4Polyhedron@@XZ
	?CreatePolyhedron@G4Trap@@UEBAPEAVG4Polyhedron@@XZ
	?CreatePolyhedron@G4Trd@@UEBAPEAVG4Polyhedron@@XZ
	?CreatePolyhedron@G4Tubs@@UEBAPEAVG4Polyhedron@@XZ
	?CreatePolyhedron@G4TwistedTubs@@UEBAPEAVG4Polyhedron@@XZ
	?CreatePolyhedron@G4UnionSolid@@UEBAPEAVG4Polyhedron@@XZ
	?CreatePolyhedron@G4VSolid@@UEBAPEAVG4Polyhedron@@XZ
	?CreatePolyhedron@G4VTwistedFaceted@@UEBAPEAVG4Polyhedron@@XZ
	?CreateReflectedLV@G4ReflectionFactory@@AEAAPEAVG4LogicalVolume@@PEAV2@@Z
	?CreateSortedBoundary@G4Voxelizer@@AEAAXAEAV?$vector@NV?$allocator@N@std@@@std@@H@Z
	?CreateSubInstance@?$G4GeomSplitter@VG4LVData@@@@QEAAHXZ
	?CreateSurfaces@G4TwistedTubs@@AEAAXXZ
	?CreateSurfaces@G4VTwistedFaceted@@AEAAXXZ
	?CreateTessellatedSolid@G4GenericTrap@@AEBAPEAVG4TessellatedSolid@@XZ
	?CreateTouchableHandle@G4PathFinder@@QEBA?AV?$G4ReferenceCountedHandle@VG4VTouchable@@@@H@Z
	?CreateTouchableHistoryHandle@G4MultiNavigator@@UEBA?AV?$G4ReferenceCountedHandle@VG4TouchableHistory@@@@XZ
	?CreateTouchableHistoryHandle@G4Navigator@@UEBA?AV?$G4ReferenceCountedHandle@VG4TouchableHistory@@@@XZ
	?CreateVertexList@G4TessellatedSolid@@AEAAXXZ
	?CrossesItself@G4ReduciblePolygon@@QEAA_NN@Z
	?CurvatureRadius@G4BFieldIntegrationDriver@@AEBANAEBVG4FieldTrack@@@Z
	?DeActivateNavigator@G4TransportationManager@@QEAAXPEAVG4Navigator@@@Z
	?DeRegister@G4AssemblyStore@@SAXPEAVG4AssemblyVolume@@@Z
	?DeRegister@G4FieldManagerStore@@SAXPEAVG4FieldManager@@@Z
	?DeRegister@G4LogicalVolumeStore@@SAXPEAVG4LogicalVolume@@@Z
	?DeRegister@G4PhysicalVolumeStore@@SAXPEAVG4VPhysicalVolume@@@Z
	?DeRegister@G4RegionStore@@SAXPEAVG4Region@@@Z
	?DeRegister@G4SolidStore@@SAXPEAVG4VSolid@@@Z
	?DeRegisterNavigator@G4TransportationManager@@QEAAXPEAVG4Navigator@@@Z
	?DeRegisterWorld@G4TransportationManager@@AEAAXPEAVG4VPhysicalVolume@@@Z
	?DebugPrint@CurrentStatus@G4VTwistSurface@@QEBAXXZ
	?DebugPrint@G4VTwistSurface@@QEBAXXZ
	?DeleteObjects@G4TessellatedSolid@@AEAAXXZ
	?DeleteOptimisations@G4GeometryManager@@AEAAXPEAVG4VPhysicalVolume@@@Z
	?DeleteOptimisations@G4GeometryManager@@AEAAXXZ
	?DeleteStuff@G4VCSGfaceted@@IEAAXXZ
	?DescribeYourselfTo@G4Box@@UEBAXAEAVG4VGraphicsScene@@@Z
	?DescribeYourselfTo@G4Cons@@UEBAXAEAVG4VGraphicsScene@@@Z
	?DescribeYourselfTo@G4CutTubs@@UEBAXAEAVG4VGraphicsScene@@@Z
	?DescribeYourselfTo@G4DisplacedSolid@@UEBAXAEAVG4VGraphicsScene@@@Z
	?DescribeYourselfTo@G4Ellipsoid@@UEBAXAEAVG4VGraphicsScene@@@Z
	?DescribeYourselfTo@G4EllipticalCone@@UEBAXAEAVG4VGraphicsScene@@@Z
	?DescribeYourselfTo@G4EllipticalTube@@UEBAXAEAVG4VGraphicsScene@@@Z
	?DescribeYourselfTo@G4GenericTrap@@UEBAXAEAVG4VGraphicsScene@@@Z
	?DescribeYourselfTo@G4Hype@@UEBAXAEAVG4VGraphicsScene@@@Z
	?DescribeYourselfTo@G4IntersectionSolid@@UEBAXAEAVG4VGraphicsScene@@@Z
	?DescribeYourselfTo@G4MultiUnion@@UEBAXAEAVG4VGraphicsScene@@@Z
	?DescribeYourselfTo@G4Orb@@UEBAXAEAVG4VGraphicsScene@@@Z
	?DescribeYourselfTo@G4Para@@UEBAXAEAVG4VGraphicsScene@@@Z
	?DescribeYourselfTo@G4Paraboloid@@UEBAXAEAVG4VGraphicsScene@@@Z
	?DescribeYourselfTo@G4ReflectedSolid@@UEBAXAEAVG4VGraphicsScene@@@Z
	?DescribeYourselfTo@G4ScaledSolid@@UEBAXAEAVG4VGraphicsScene@@@Z
	?DescribeYourselfTo@G4Sphere@@UEBAXAEAVG4VGraphicsScene@@@Z
	?DescribeYourselfTo@G4SubtractionSolid@@UEBAXAEAVG4VGraphicsScene@@@Z
	?DescribeYourselfTo@G4TessellatedSolid@@UEBAXAEAVG4VGraphicsScene@@@Z
	?DescribeYourselfTo@G4Tet@@UEBAXAEAVG4VGraphicsScene@@@Z
	?DescribeYourselfTo@G4Torus@@UEBAXAEAVG4VGraphicsScene@@@Z
	?DescribeYourselfTo@G4Trap@@UEBAXAEAVG4VGraphicsScene@@@Z
	?DescribeYourselfTo@G4Trd@@UEBAXAEAVG4VGraphicsScene@@@Z
	?DescribeYourselfTo@G4Tubs@@UEBAXAEAVG4VGraphicsScene@@@Z
	?DescribeYourselfTo@G4TwistedTubs@@UEBAXAEAVG4VGraphicsScene@@@Z
	?DescribeYourselfTo@G4UnionSolid@@UEBAXAEAVG4VGraphicsScene@@@Z
	?DescribeYourselfTo@G4VCSGfaceted@@UEBAXAEAVG4VGraphicsScene@@@Z
	?DescribeYourselfTo@G4VTwistedFaceted@@UEBAXAEAVG4VGraphicsScene@@@Z
	?Destroy@?$G4CacheReference@PEAVG4RegularNavigationHelper@@@@QEAAXI_N@Z
	?Destroy@?$G4CacheReference@PEAVHep3Vector@CLHEP@@@@QEAAXI_N@Z
	?Destroy@?$G4CacheReference@PEAVHepRotation@CLHEP@@@@QEAAXI_N@Z
	?DestroyWorkspace@G4GeometryWorkspace@@QEAAXXZ
	?DestroyWorkspace@G4SolidsWorkspace@@QEAAXXZ
	?Diagnose@G4PolyPhiFace@@QEAAXPEAVG4VSolid@@@Z
	?Diagonal@G4PolyPhiFace@@IEAA_NPEAUG4PolyPhiFaceVertex@@0@Z
	?Diagonalie@G4PolyPhiFace@@IEAA_NPEAUG4PolyPhiFaceVertex@@0@Z
	?DiskExtent@G4GeomTools@@SAXNNNNNNAEAVHep2Vector@CLHEP@@0@Z
	?DiskExtent@G4GeomTools@@SA_NNNNNAEAVHep2Vector@CLHEP@@0@Z
	?DisplayAllocatedMemory@G4TessellatedSolid@@QEAAXXZ
	?DisplayBoundaries@G4Voxelizer@@AEAAXAEAV?$vector@NV?$allocator@N@std@@@std@@@Z
	?DisplayBoundaries@G4Voxelizer@@QEAAXXZ
	?DisplayListNodes@G4Voxelizer@@QEBAXXZ
	?DisplayVoxelLimits@G4Voxelizer@@QEBAXXZ
	?Dist@G4LineSection@@QEBANVHep3Vector@CLHEP@@@Z
	?DistChord@?$G4InterpolationDriver@VG4DormandPrince745@@@@AEBANAEAY0M@$$CBNN0N@Z
	?DistChord@G4BogackiShampine23@@UEBANXZ
	?DistChord@G4BogackiShampine45@@UEBANXZ
	?DistChord@G4CashKarpRKF45@@UEBANXZ
	?DistChord@G4ConstRK4@@UEBANXZ
	?DistChord@G4DoLoMcPriRK34@@UEBANXZ
	?DistChord@G4DormandPrince745@@UEBANXZ
	?DistChord@G4DormandPrinceRK56@@UEBANXZ
	?DistChord@G4DormandPrinceRK78@@UEBANXZ
	?DistChord@G4ExactHelixStepper@@UEBANXZ
	?DistChord@G4FSALBogackiShampine45@@UEBANXZ
	?DistChord@G4FSALDormandPrince745@@UEBANXZ
	?DistChord@G4HelixExplicitEuler@@UEBANXZ
	?DistChord@G4HelixMixedStepper@@UEBANXZ
	?DistChord@G4MagErrorStepper@@UEBANXZ
	?DistChord@G4MagHelicalStepper@@UEBANXZ
	?DistChord@G4NystromRK4@@UEBANXZ
	?DistChord@G4RK547FEq1@@UEBANXZ
	?DistChord@G4RK547FEq2@@UEBANXZ
	?DistChord@G4RK547FEq3@@UEBANXZ
	?DistChord@G4RKG3_Stepper@@UEBANXZ
	?DistChord@G4TsitourasRK45@@UEBANXZ
	?DistToPlane@G4GenericTrap@@AEBANAEBVHep3Vector@CLHEP@@0H@Z
	?DistToTriangle@G4GenericTrap@@AEBANAEBVHep3Vector@CLHEP@@0H@Z
	?Distance@G4PolyPhiFace@@UEAANAEBVHep3Vector@CLHEP@@_N@Z
	?Distance@G4PolyconeSide@@UEAANAEBVHep3Vector@CLHEP@@_N@Z
	?Distance@G4PolyhedraSide@@UEAANAEBVHep3Vector@CLHEP@@_N@Z
	?Distance@G4QuadrangularFacet@@QEAA?AVHep3Vector@CLHEP@@AEBV23@@Z
	?Distance@G4QuadrangularFacet@@UEAANAEBVHep3Vector@CLHEP@@N@Z
	?Distance@G4QuadrangularFacet@@UEAANAEBVHep3Vector@CLHEP@@N_N@Z
	?Distance@G4TriangularFacet@@QEAA?AVHep3Vector@CLHEP@@AEBV23@@Z
	?Distance@G4TriangularFacet@@UEAANAEBVHep3Vector@CLHEP@@N@Z
	?Distance@G4TriangularFacet@@UEAANAEBVHep3Vector@CLHEP@@N_N@Z
	?DistanceAway@G4PolyconeSide@@IEAANAEBVHep3Vector@CLHEP@@AEANPEAN@Z
	?DistanceAway@G4PolyconeSide@@IEAANAEBVHep3Vector@CLHEP@@_NAEANPEAN@Z
	?DistanceAway@G4PolyhedraSide@@IEAANAEBVHep3Vector@CLHEP@@AEBUsG4PolyhedraSideVec@1@PEAN@Z
	?DistancePointSegment@G4GeomTools@@SANAEBVHep3Vector@CLHEP@@00@Z
	?DistanceSort@@YA_NAEBUIntersection@@0@Z
	?DistanceTo@G4VCSGfaceted@@MEBANAEBVHep3Vector@CLHEP@@_N@Z
	?DistanceTo@G4VTwistSurface@@UEAANAEBVHep3Vector@CLHEP@@AEAV23@@Z
	?DistanceToBoundary@G4VTwistSurface@@UEAANHAEAVHep3Vector@CLHEP@@AEBV23@@Z
	?DistanceToBoundingBox@G4Voxelizer@@QEBANAEBVHep3Vector@CLHEP@@@Z
	?DistanceToFirst@G4Voxelizer@@QEBANAEBVHep3Vector@CLHEP@@0@Z
	?DistanceToIn@G4Box@@UEBANAEBVHep3Vector@CLHEP@@0@Z
	?DistanceToIn@G4Box@@UEBANAEBVHep3Vector@CLHEP@@@Z
	?DistanceToIn@G4Cons@@UEBANAEBVHep3Vector@CLHEP@@0@Z
	?DistanceToIn@G4Cons@@UEBANAEBVHep3Vector@CLHEP@@@Z
	?DistanceToIn@G4CutTubs@@UEBANAEBVHep3Vector@CLHEP@@0@Z
	?DistanceToIn@G4CutTubs@@UEBANAEBVHep3Vector@CLHEP@@@Z
	?DistanceToIn@G4DisplacedSolid@@UEBANAEBVHep3Vector@CLHEP@@0@Z
	?DistanceToIn@G4DisplacedSolid@@UEBANAEBVHep3Vector@CLHEP@@@Z
	?DistanceToIn@G4Ellipsoid@@UEBANAEBVHep3Vector@CLHEP@@0@Z
	?DistanceToIn@G4Ellipsoid@@UEBANAEBVHep3Vector@CLHEP@@@Z
	?DistanceToIn@G4EllipticalCone@@UEBANAEBVHep3Vector@CLHEP@@0@Z
	?DistanceToIn@G4EllipticalCone@@UEBANAEBVHep3Vector@CLHEP@@@Z
	?DistanceToIn@G4EllipticalTube@@UEBANAEBVHep3Vector@CLHEP@@0@Z
	?DistanceToIn@G4EllipticalTube@@UEBANAEBVHep3Vector@CLHEP@@@Z
	?DistanceToIn@G4ExtrudedSolid@@UEBANAEBVHep3Vector@CLHEP@@0@Z
	?DistanceToIn@G4ExtrudedSolid@@UEBANAEBVHep3Vector@CLHEP@@@Z
	?DistanceToIn@G4GenericPolycone@@UEBANAEBVHep3Vector@CLHEP@@0@Z
	?DistanceToIn@G4GenericPolycone@@UEBANAEBVHep3Vector@CLHEP@@@Z
	?DistanceToIn@G4GenericTrap@@UEBANAEBVHep3Vector@CLHEP@@0@Z
	?DistanceToIn@G4GenericTrap@@UEBANAEBVHep3Vector@CLHEP@@@Z
	?DistanceToIn@G4Hype@@UEBANAEBVHep3Vector@CLHEP@@0@Z
	?DistanceToIn@G4Hype@@UEBANAEBVHep3Vector@CLHEP@@@Z
	?DistanceToIn@G4IntersectionSolid@@UEBANAEBVHep3Vector@CLHEP@@0@Z
	?DistanceToIn@G4IntersectionSolid@@UEBANAEBVHep3Vector@CLHEP@@@Z
	?DistanceToIn@G4MultiUnion@@UEBANAEBVHep3Vector@CLHEP@@0@Z
	?DistanceToIn@G4MultiUnion@@UEBANAEBVHep3Vector@CLHEP@@@Z
	?DistanceToIn@G4Orb@@UEBANAEBVHep3Vector@CLHEP@@0@Z
	?DistanceToIn@G4Orb@@UEBANAEBVHep3Vector@CLHEP@@@Z
	?DistanceToIn@G4Para@@UEBANAEBVHep3Vector@CLHEP@@0@Z
	?DistanceToIn@G4Para@@UEBANAEBVHep3Vector@CLHEP@@@Z
	?DistanceToIn@G4Paraboloid@@UEBANAEBVHep3Vector@CLHEP@@0@Z
	?DistanceToIn@G4Paraboloid@@UEBANAEBVHep3Vector@CLHEP@@@Z
	?DistanceToIn@G4Polycone@@UEBANAEBVHep3Vector@CLHEP@@0@Z
	?DistanceToIn@G4Polycone@@UEBANAEBVHep3Vector@CLHEP@@@Z
	?DistanceToIn@G4Polyhedra@@UEBANAEBVHep3Vector@CLHEP@@0@Z
	?DistanceToIn@G4Polyhedra@@UEBANAEBVHep3Vector@CLHEP@@@Z
	?DistanceToIn@G4ReflectedSolid@@UEBANAEBVHep3Vector@CLHEP@@0@Z
	?DistanceToIn@G4ReflectedSolid@@UEBANAEBVHep3Vector@CLHEP@@@Z
	?DistanceToIn@G4ScaledSolid@@UEBANAEBVHep3Vector@CLHEP@@0@Z
	?DistanceToIn@G4ScaledSolid@@UEBANAEBVHep3Vector@CLHEP@@@Z
	?DistanceToIn@G4Sphere@@UEBANAEBVHep3Vector@CLHEP@@0@Z
	?DistanceToIn@G4Sphere@@UEBANAEBVHep3Vector@CLHEP@@@Z
	?DistanceToIn@G4SubtractionSolid@@UEBANAEBVHep3Vector@CLHEP@@0@Z
	?DistanceToIn@G4SubtractionSolid@@UEBANAEBVHep3Vector@CLHEP@@@Z
	?DistanceToIn@G4TessellatedSolid@@UEBANAEBVHep3Vector@CLHEP@@0@Z
	?DistanceToIn@G4TessellatedSolid@@UEBANAEBVHep3Vector@CLHEP@@@Z
	?DistanceToIn@G4Tet@@UEBANAEBVHep3Vector@CLHEP@@0@Z
	?DistanceToIn@G4Tet@@UEBANAEBVHep3Vector@CLHEP@@@Z
	?DistanceToIn@G4Torus@@UEBANAEBVHep3Vector@CLHEP@@0@Z
	?DistanceToIn@G4Torus@@UEBANAEBVHep3Vector@CLHEP@@@Z
	?DistanceToIn@G4Trap@@UEBANAEBVHep3Vector@CLHEP@@0@Z
	?DistanceToIn@G4Trap@@UEBANAEBVHep3Vector@CLHEP@@@Z
	?DistanceToIn@G4Trd@@UEBANAEBVHep3Vector@CLHEP@@0@Z
	?DistanceToIn@G4Trd@@UEBANAEBVHep3Vector@CLHEP@@@Z
	?DistanceToIn@G4Tubs@@UEBANAEBVHep3Vector@CLHEP@@0@Z
	?DistanceToIn@G4Tubs@@UEBANAEBVHep3Vector@CLHEP@@@Z
	?DistanceToIn@G4TwistedTubs@@UEBANAEBVHep3Vector@CLHEP@@0@Z
	?DistanceToIn@G4TwistedTubs@@UEBANAEBVHep3Vector@CLHEP@@@Z
	?DistanceToIn@G4UnionSolid@@UEBANAEBVHep3Vector@CLHEP@@0@Z
	?DistanceToIn@G4UnionSolid@@UEBANAEBVHep3Vector@CLHEP@@@Z
	?DistanceToIn@G4VCSGfaceted@@UEBANAEBVHep3Vector@CLHEP@@0@Z
	?DistanceToIn@G4VCSGfaceted@@UEBANAEBVHep3Vector@CLHEP@@@Z
	?DistanceToIn@G4VTwistSurface@@UEAANAEBVHep3Vector@CLHEP@@0AEAV23@@Z
	?DistanceToIn@G4VTwistedFaceted@@UEBANAEBVHep3Vector@CLHEP@@0@Z
	?DistanceToIn@G4VTwistedFaceted@@UEBANAEBVHep3Vector@CLHEP@@@Z
	?DistanceToInCandidates@G4MultiUnion@@AEBANAEBVHep3Vector@CLHEP@@0AEAV?$vector@HV?$allocator@H@std@@@std@@AEAVG4SurfBits@@@Z
	?DistanceToInCandidates@G4TessellatedSolid@@AEBANAEBV?$vector@HV?$allocator@H@std@@@std@@AEBVHep3Vector@CLHEP@@1@Z
	?DistanceToInCore@G4TessellatedSolid@@AEBANAEBVHep3Vector@CLHEP@@0N@Z
	?DistanceToInNoVoxels@G4MultiUnion@@QEBANAEBVHep3Vector@CLHEP@@0@Z
	?DistanceToInNoVoxels@G4TessellatedSolid@@AEBANAEBVHep3Vector@CLHEP@@0N@Z
	?DistanceToNext@G4Voxelizer@@QEBANAEBVHep3Vector@CLHEP@@0AEAV?$vector@HV?$allocator@H@std@@@std@@@Z
	?DistanceToOneSide@G4PolyhedraSide@@IEAANAEBVHep3Vector@CLHEP@@AEBUsG4PolyhedraSideVec@1@PEAN@Z
	?DistanceToOut@G4Box@@UEBANAEBVHep3Vector@CLHEP@@0_NPEA_NPEAV23@@Z
	?DistanceToOut@G4Box@@UEBANAEBVHep3Vector@CLHEP@@@Z
	?DistanceToOut@G4Cons@@UEBANAEBVHep3Vector@CLHEP@@0_NPEA_NPEAV23@@Z
	?DistanceToOut@G4Cons@@UEBANAEBVHep3Vector@CLHEP@@@Z
	?DistanceToOut@G4CutTubs@@UEBANAEBVHep3Vector@CLHEP@@0_NPEA_NPEAV23@@Z
	?DistanceToOut@G4CutTubs@@UEBANAEBVHep3Vector@CLHEP@@@Z
	?DistanceToOut@G4DisplacedSolid@@UEBANAEBVHep3Vector@CLHEP@@0_NPEA_NPEAV23@@Z
	?DistanceToOut@G4DisplacedSolid@@UEBANAEBVHep3Vector@CLHEP@@@Z
	?DistanceToOut@G4Ellipsoid@@UEBANAEBVHep3Vector@CLHEP@@0_NPEA_NPEAV23@@Z
	?DistanceToOut@G4Ellipsoid@@UEBANAEBVHep3Vector@CLHEP@@@Z
	?DistanceToOut@G4EllipticalCone@@UEBANAEBVHep3Vector@CLHEP@@0_NPEA_NPEAV23@@Z
	?DistanceToOut@G4EllipticalCone@@UEBANAEBVHep3Vector@CLHEP@@@Z
	?DistanceToOut@G4EllipticalTube@@UEBANAEBVHep3Vector@CLHEP@@0_NPEA_NPEAV23@@Z
	?DistanceToOut@G4EllipticalTube@@UEBANAEBVHep3Vector@CLHEP@@@Z
	?DistanceToOut@G4ExtrudedSolid@@UEBANAEBVHep3Vector@CLHEP@@0_NPEA_NPEAV23@@Z
	?DistanceToOut@G4ExtrudedSolid@@UEBANAEBVHep3Vector@CLHEP@@@Z
	?DistanceToOut@G4GenericTrap@@UEBANAEBVHep3Vector@CLHEP@@0_NPEA_NPEAV23@@Z
	?DistanceToOut@G4GenericTrap@@UEBANAEBVHep3Vector@CLHEP@@@Z
	?DistanceToOut@G4Hype@@UEBANAEBVHep3Vector@CLHEP@@0_NPEA_NPEAV23@@Z
	?DistanceToOut@G4Hype@@UEBANAEBVHep3Vector@CLHEP@@@Z
	?DistanceToOut@G4IntersectionSolid@@UEBANAEBVHep3Vector@CLHEP@@0_NPEA_NPEAV23@@Z
	?DistanceToOut@G4IntersectionSolid@@UEBANAEBVHep3Vector@CLHEP@@@Z
	?DistanceToOut@G4MultiUnion@@UEBANAEBVHep3Vector@CLHEP@@0_NPEA_NPEAV23@@Z
	?DistanceToOut@G4MultiUnion@@UEBANAEBVHep3Vector@CLHEP@@@Z
	?DistanceToOut@G4Orb@@UEBANAEBVHep3Vector@CLHEP@@0_NPEA_NPEAV23@@Z
	?DistanceToOut@G4Orb@@UEBANAEBVHep3Vector@CLHEP@@@Z
	?DistanceToOut@G4Para@@UEBANAEBVHep3Vector@CLHEP@@0_NPEA_NPEAV23@@Z
	?DistanceToOut@G4Para@@UEBANAEBVHep3Vector@CLHEP@@@Z
	?DistanceToOut@G4Paraboloid@@UEBANAEBVHep3Vector@CLHEP@@0_NPEA_NPEAV23@@Z
	?DistanceToOut@G4Paraboloid@@UEBANAEBVHep3Vector@CLHEP@@@Z
	?DistanceToOut@G4ReflectedSolid@@UEBANAEBVHep3Vector@CLHEP@@0_NPEA_NPEAV23@@Z
	?DistanceToOut@G4ReflectedSolid@@UEBANAEBVHep3Vector@CLHEP@@@Z
	?DistanceToOut@G4ReplicaNavigation@@QEBANPEBVG4VPhysicalVolume@@HAEBVHep3Vector@CLHEP@@1AEAUG4ExitNormal@@@Z
	?DistanceToOut@G4ReplicaNavigation@@QEBANPEBVG4VPhysicalVolume@@HAEBVHep3Vector@CLHEP@@@Z
	?DistanceToOut@G4ScaledSolid@@UEBANAEBVHep3Vector@CLHEP@@0_NPEA_NPEAV23@@Z
	?DistanceToOut@G4ScaledSolid@@UEBANAEBVHep3Vector@CLHEP@@@Z
	?DistanceToOut@G4Sphere@@UEBANAEBVHep3Vector@CLHEP@@0_NPEA_NPEAV23@@Z
	?DistanceToOut@G4Sphere@@UEBANAEBVHep3Vector@CLHEP@@@Z
	?DistanceToOut@G4SubtractionSolid@@UEBANAEBVHep3Vector@CLHEP@@0_NPEA_NPEAV23@@Z
	?DistanceToOut@G4SubtractionSolid@@UEBANAEBVHep3Vector@CLHEP@@@Z
	?DistanceToOut@G4TessellatedSolid@@UEBANAEBVHep3Vector@CLHEP@@0_NPEA_NPEAV23@@Z
	?DistanceToOut@G4TessellatedSolid@@UEBANAEBVHep3Vector@CLHEP@@@Z
	?DistanceToOut@G4Tet@@UEBANAEBVHep3Vector@CLHEP@@0_NPEA_NPEAV23@@Z
	?DistanceToOut@G4Tet@@UEBANAEBVHep3Vector@CLHEP@@@Z
	?DistanceToOut@G4Torus@@UEBANAEBVHep3Vector@CLHEP@@0_NPEA_NPEAV23@@Z
	?DistanceToOut@G4Torus@@UEBANAEBVHep3Vector@CLHEP@@@Z
	?DistanceToOut@G4Trap@@UEBANAEBVHep3Vector@CLHEP@@0_NPEA_NPEAV23@@Z
	?DistanceToOut@G4Trap@@UEBANAEBVHep3Vector@CLHEP@@@Z
	?DistanceToOut@G4Trd@@UEBANAEBVHep3Vector@CLHEP@@0_NPEA_NPEAV23@@Z
	?DistanceToOut@G4Trd@@UEBANAEBVHep3Vector@CLHEP@@@Z
	?DistanceToOut@G4Tubs@@UEBANAEBVHep3Vector@CLHEP@@0_NPEA_NPEAV23@@Z
	?DistanceToOut@G4Tubs@@UEBANAEBVHep3Vector@CLHEP@@@Z
	?DistanceToOut@G4TwistedTubs@@UEBANAEBVHep3Vector@CLHEP@@0_NPEA_NPEAV23@@Z
	?DistanceToOut@G4TwistedTubs@@UEBANAEBVHep3Vector@CLHEP@@@Z
	?DistanceToOut@G4UnionSolid@@UEBANAEBVHep3Vector@CLHEP@@0_NPEA_NPEAV23@@Z
	?DistanceToOut@G4UnionSolid@@UEBANAEBVHep3Vector@CLHEP@@@Z
	?DistanceToOut@G4VCSGfaceted@@UEBANAEBVHep3Vector@CLHEP@@0_NPEA_NPEAV23@@Z
	?DistanceToOut@G4VCSGfaceted@@UEBANAEBVHep3Vector@CLHEP@@@Z
	?DistanceToOut@G4VTwistSurface@@UEAANAEBVHep3Vector@CLHEP@@0AEAV23@@Z
	?DistanceToOut@G4VTwistedFaceted@@UEBANAEBVHep3Vector@CLHEP@@0_NPEA_NPEAV23@@Z
	?DistanceToOut@G4VTwistedFaceted@@UEBANAEBVHep3Vector@CLHEP@@@Z
	?DistanceToOutCandidates@G4TessellatedSolid@@AEBAXAEBV?$vector@HV?$allocator@H@std@@@std@@AEBVHep3Vector@CLHEP@@1AEANAEAV45@AEAH@Z
	?DistanceToOutCore@G4TessellatedSolid@@AEBANAEBVHep3Vector@CLHEP@@0AEAV23@AEA_NN@Z
	?DistanceToOutNoVoxels@G4MultiUnion@@QEBANAEBVHep3Vector@CLHEP@@0PEAV23@@Z
	?DistanceToOutNoVoxels@G4TessellatedSolid@@AEBANAEBVHep3Vector@CLHEP@@0AEAV23@AEA_NN@Z
	?DistanceToOutPhi@G4ReplicaNavigation@@AEBANAEBVHep3Vector@CLHEP@@0NAEAUG4ExitNormal@@@Z
	?DistanceToOutRad@G4ReplicaNavigation@@AEBANAEBVHep3Vector@CLHEP@@0NNHAEAUG4ExitNormal@@@Z
	?DistanceToOutVoxels@G4MultiUnion@@QEBANAEBVHep3Vector@CLHEP@@0PEAV23@@Z
	?DistanceToPlane@G4TwistTubsSide@@EEAANAEBVHep3Vector@CLHEP@@0000HAEAV23@1@Z
	?DistanceToPlane@G4VTwistSurface@@QEAANAEBVHep3Vector@CLHEP@@000AEAV23@1@Z
	?DistanceToPolygonSqr@G4ExtrudedSolid@@AEBANAEBVHep3Vector@CLHEP@@@Z
	?DistanceToSurface@G4TwistBoxSide@@UEAAHAEBVHep3Vector@CLHEP@@0QEAV23@QEANQEAHQEA_NW4EValidate@G4VTwistSurface@@@Z
	?DistanceToSurface@G4TwistBoxSide@@UEAAHAEBVHep3Vector@CLHEP@@QEAV23@QEANQEAH@Z
	?DistanceToSurface@G4TwistTrapAlphaSide@@UEAAHAEBVHep3Vector@CLHEP@@0QEAV23@QEANQEAHQEA_NW4EValidate@G4VTwistSurface@@@Z
	?DistanceToSurface@G4TwistTrapAlphaSide@@UEAAHAEBVHep3Vector@CLHEP@@QEAV23@QEANQEAH@Z
	?DistanceToSurface@G4TwistTrapFlatSide@@UEAAHAEBVHep3Vector@CLHEP@@0QEAV23@QEANQEAHQEA_NW4EValidate@G4VTwistSurface@@@Z
	?DistanceToSurface@G4TwistTrapFlatSide@@UEAAHAEBVHep3Vector@CLHEP@@QEAV23@QEANQEAH@Z
	?DistanceToSurface@G4TwistTrapParallelSide@@UEAAHAEBVHep3Vector@CLHEP@@0QEAV23@QEANQEAHQEA_NW4EValidate@G4VTwistSurface@@@Z
	?DistanceToSurface@G4TwistTrapParallelSide@@UEAAHAEBVHep3Vector@CLHEP@@QEAV23@QEANQEAH@Z
	?DistanceToSurface@G4TwistTubsFlatSide@@UEAAHAEBVHep3Vector@CLHEP@@0QEAV23@QEANQEAHQEA_NW4EValidate@G4VTwistSurface@@@Z
	?DistanceToSurface@G4TwistTubsFlatSide@@UEAAHAEBVHep3Vector@CLHEP@@QEAV23@QEANQEAH@Z
	?DistanceToSurface@G4TwistTubsHypeSide@@UEAAHAEBVHep3Vector@CLHEP@@0QEAV23@QEANQEAHQEA_NW4EValidate@G4VTwistSurface@@@Z
	?DistanceToSurface@G4TwistTubsHypeSide@@UEAAHAEBVHep3Vector@CLHEP@@QEAV23@QEANQEAH@Z
	?DistanceToSurface@G4TwistTubsSide@@UEAAHAEBVHep3Vector@CLHEP@@0QEAV23@QEANQEAHQEA_NW4EValidate@G4VTwistSurface@@@Z
	?DistanceToSurface@G4TwistTubsSide@@UEAAHAEBVHep3Vector@CLHEP@@QEAV23@QEANQEAH@Z
	?Divide@G4ReflectionFactory@@QEAA?AU?$pair@PEAVG4VPhysicalVolume@@PEAV1@@std@@AEBVG4String@@PEAVG4LogicalVolume@@1W4EAxis@@HN@Z
	?Divide@G4ReflectionFactory@@QEAA?AU?$pair@PEAVG4VPhysicalVolume@@PEAV1@@std@@AEBVG4String@@PEAVG4LogicalVolume@@1W4EAxis@@HNN@Z
	?Divide@G4ReflectionFactory@@QEAA?AU?$pair@PEAVG4VPhysicalVolume@@PEAV1@@std@@AEBVG4String@@PEAVG4LogicalVolume@@1W4EAxis@@NN@Z
	?DoNextCurvedStep@G4PathFinder@@IEAANAEBVG4FieldTrack@@NPEAVG4VPhysicalVolume@@@Z
	?DoNextLinearStep@G4PathFinder@@IEAANAEBVG4FieldTrack@@N@Z
	?DoStep@G4ModifiedMidpoint@@QEBAXQEBN0QEANN1QEAY0M@N@Z
	?DoStep@G4ModifiedMidpoint@@QEBAXQEBN0QEANN@Z
	?DoesFieldChangeEnergy@G4ElectricField@@UEBA_NXZ
	?DoesFieldChangeEnergy@G4MagneticField@@UEBA_NXZ
	?DoesFieldChangeEnergy@G4UniformGravityField@@UEBA_NXZ
	?DoesReIntegrate@?$G4FSALIntegrationDriver@VG4RK547FEq1@@@@UEAA_NXZ
	?DoesReIntegrate@?$G4IntegrationDriver@VG4HelixHeum@@@@UEAA_NXZ
	?DoesReIntegrate@?$G4IntegrationDriver@VG4MagIntegratorStepper@@@@UEAA_NXZ
	?DoesReIntegrate@?$G4InterpolationDriver@VG4DormandPrince745@@@@UEAA_NXZ
	?DoesReIntegrate@G4BFieldIntegrationDriver@@UEAA_NXZ
	?DoesReIntegrate@G4MagInt_Driver@@UEAA_NXZ
	?DrawVoxels@G4DrawVoxels@@QEBAXPEBVG4LogicalVolume@@@Z
	?DumbStepper@G4ClassicalRK4@@UEAAXQEBN0NQEAN@Z
	?DumbStepper@G4ConstRK4@@UEAAXQEBN0NQEAN@Z
	?DumbStepper@G4ExactHelixStepper@@UEAAXQEBNVHep3Vector@CLHEP@@NQEAN@Z
	?DumbStepper@G4ExplicitEuler@@UEAAXQEBN0NQEAN@Z
	?DumbStepper@G4HelixExplicitEuler@@UEAAXQEBNVHep3Vector@CLHEP@@NQEAN@Z
	?DumbStepper@G4HelixHeum@@UEAAXQEBNVHep3Vector@CLHEP@@NQEAN@Z
	?DumbStepper@G4HelixImplicitEuler@@UEAAXQEBNVHep3Vector@CLHEP@@NQEAN@Z
	?DumbStepper@G4HelixMixedStepper@@UEAAXQEBNVHep3Vector@CLHEP@@NQEAN@Z
	?DumbStepper@G4HelixSimpleRunge@@UEAAXQEBNVHep3Vector@CLHEP@@NQEAN@Z
	?DumbStepper@G4ImplicitEuler@@UEAAXQEBN0NQEAN@Z
	?DumbStepper@G4SimpleHeum@@UEAAXQEBN0NQEAN@Z
	?DumbStepper@G4SimpleRunge@@UEAAXQEBN0NQEAN@Z
	?Dump@G4ErrorCylSurfaceTarget@@UEBAXAEBVG4String@@@Z
	?Dump@G4ErrorPlaneSurfaceTarget@@UEBAXAEBVG4String@@@Z
	?DumpInfo@G4LogicalBorderSurface@@SAXXZ
	?DumpInfo@G4LogicalSkinSurface@@SAXXZ
	?EarInit@G4PolyPhiFace@@IEAAXXZ
	?EllipsePerimeter@G4GeomTools@@SANNN@Z
	?EllipticConeLateralArea@G4GeomTools@@SANNNN@Z
	?EnableParallelNavigation@G4PathFinder@@QEAAX_N@Z
	?EndTrack@G4PathFinder@@QEAAXXZ
	?EqualIntersection@@YA_NAEBUIntersection@@0@Z
	?Error@G4IStore@@AEBAXAEBVG4String@@@Z
	?Error@G4ImportanceAlgorithm@@AEBAXAEBVG4String@@@Z
	?Error@G4WeightWindowStore@@AEBAXAEBVG4String@@@Z
	?ErrorInAxis@G4PVDivision@@AEAAXW4EAxis@@PEAVG4VSolid@@@Z
	?ErrorInAxis@G4ReplicatedSlice@@AEAAXW4EAxis@@PEAVG4VSolid@@@Z
	?EstimateCubicVolume@G4VSolid@@QEBANHN@Z
	?EstimateIntersectionPoint@G4BrentLocator@@UEAA_NAEBVG4FieldTrack@@0AEBVHep3Vector@CLHEP@@AEAV2@AEA_NAEANAEAV34@@Z
	?EstimateIntersectionPoint@G4MultiLevelLocator@@UEAA_NAEBVG4FieldTrack@@0AEBVHep3Vector@CLHEP@@AEAV2@AEA_NAEANAEAV34@@Z
	?EstimateIntersectionPoint@G4SimpleLocator@@UEAA_NAEBVG4FieldTrack@@0AEBVHep3Vector@CLHEP@@AEAV2@AEA_NAEANAEAV34@@Z
	?EstimateSurfaceArea@G4VSolid@@QEBANHN@Z
	?EvaluateRhsGivenB@G4EqEMFieldWithEDM@@UEBAXQEBN0QEAN@Z
	?EvaluateRhsGivenB@G4EqEMFieldWithSpin@@UEBAXQEBN0QEAN@Z
	?EvaluateRhsGivenB@G4EqGravityField@@UEBAXQEBN0QEAN@Z
	?EvaluateRhsGivenB@G4EqMagElectricField@@UEBAXQEBN0QEAN@Z
	?EvaluateRhsGivenB@G4ErrorMag_UsualEqRhs@@UEBAXQEBN0QEAN@Z
	?EvaluateRhsGivenB@G4Mag_SpinEqRhs@@UEBAXQEBN0QEAN@Z
	?EvaluateRhsGivenB@G4Mag_UsualEqRhs@@UEBAXQEBN0QEAN@Z
	?EvaluateRhsGivenB@G4MonopoleEq@@UEBAXQEBN0QEAN@Z
	?EvaluateRhsGivenB@G4RepleteEofM@@UEBAXQEBN0QEAN@Z
	?ExactZOrder@G4PolyPhiFace@@IEBANNNNNAEBVHep3Vector@CLHEP@@NPEBUG4PolyPhiFaceVertex@@@Z
	?Extent@G4MultiUnion@@QEBAXW4EAxis@@AEAN1@Z
	?Extent@G4PolyPhiFace@@UEAANVHep3Vector@CLHEP@@@Z
	?Extent@G4PolyconeSide@@UEAANVHep3Vector@CLHEP@@@Z
	?Extent@G4PolyhedraSide@@UEAANVHep3Vector@CLHEP@@@Z
	?Extent@G4QuadrangularFacet@@UEAANVHep3Vector@CLHEP@@@Z
	?Extent@G4TriangularFacet@@UEAANVHep3Vector@CLHEP@@@Z
	?FastInverseRxy@G4Tubs@@IEBANAEBVHep3Vector@CLHEP@@NN@Z
	?FindAndSetFieldManager@G4PropagatorInField@@QEAAPEAVG4FieldManager@@PEAVG4VPhysicalVolume@@@Z
	?FindComponentsFastest@G4Voxelizer@@CAXIAEAV?$vector@HV?$allocator@H@std@@@std@@H@Z
	?FindLineIntersect@G4PolyconeSide@@KAXNNNNNNNNAEAN0@Z
	?FindNextChord@?$G4ChordFinderDelegate@V?$G4FSALIntegrationDriver@VG4RK547FEq1@@@@@@AEAANAEBVG4FieldTrack@@NNNAEAV2@AEAN2@Z
	?FindNextChord@?$G4ChordFinderDelegate@V?$G4IntegrationDriver@VG4HelixHeum@@@@@@AEAANAEBVG4FieldTrack@@NNNAEAV2@AEAN2@Z
	?FindNextChord@?$G4ChordFinderDelegate@V?$G4IntegrationDriver@VG4MagIntegratorStepper@@@@@@AEAANAEBVG4FieldTrack@@NNNAEAV2@AEAN2@Z
	?FindNextChord@?$G4ChordFinderDelegate@VG4MagInt_Driver@@@@AEAANAEBVG4FieldTrack@@NNNAEAV2@AEAN2@Z
	?FindNextChord@?$G4InterpolationDriver@VG4DormandPrince745@@@@AEAANAEAY0M@$$CBNNAEAY0M@NNNN@Z
	?FindOrCreateRegion@G4RegionStore@@QEAAPEAVG4Region@@AEBVG4String@@@Z
	?FindScaleFactor@G4BoundingEnvelope@@AEBANAEBVTransform3D@HepGeom@@@Z
	?FullyReset@G4BlockingList@@QEAAXXZ
	?G4RandomPointInEllipse@@YA?AVHep2Vector@CLHEP@@NN@Z
	?Get@G4SurfBits@@QEBAXPEAD@Z
	?Get@G4SurfBits@@QEBAXPEAH@Z
	?GetAllocatedSize@?$G4Allocator@V?$G4CountedObject@X@@@@UEBA_KXZ
	?GetAllocatedSize@?$G4Allocator@VG4NavigationLevelRep@@@@UEBA_KXZ
	?GetAllocatedSize@?$G4Allocator@VG4TouchableHistory@@@@UEBA_KXZ
	?GetAngle@G4ExtrudedSolid@@AEBANAEBVHep2Vector@CLHEP@@00@Z
	?GetArea@G4QuadrangularFacet@@UEBANXZ
	?GetArea@G4TriangularFacet@@UEBANXZ
	?GetAreaAccuracy@G4VCSGfaceted@@QEBANXZ
	?GetAreaCode@G4TwistBoxSide@@EEAAHAEBVHep3Vector@CLHEP@@_N@Z
	?GetAreaCode@G4TwistTrapAlphaSide@@EEAAHAEBVHep3Vector@CLHEP@@_N@Z
	?GetAreaCode@G4TwistTrapFlatSide@@MEAAHAEBVHep3Vector@CLHEP@@_N@Z
	?GetAreaCode@G4TwistTrapParallelSide@@EEAAHAEBVHep3Vector@CLHEP@@_N@Z
	?GetAreaCode@G4TwistTubsFlatSide@@MEAAHAEBVHep3Vector@CLHEP@@_N@Z
	?GetAreaCode@G4TwistTubsHypeSide@@EEAAHAEBVHep3Vector@CLHEP@@_N@Z
	?GetAreaCode@G4TwistTubsSide@@EEAAHAEBVHep3Vector@CLHEP@@_N@Z
	?GetAreaCodeInPhi@G4TwistTubsHypeSide@@EEAAHAEBVHep3Vector@CLHEP@@_N@Z
	?GetAreaStatistics@G4VCSGfaceted@@QEBAHXZ
	?GetAssembly@G4AssemblyStore@@QEBAPEAVG4AssemblyVolume@@I_N@Z
	?GetBasis@G4LogicalCrystalVolume@@QEBAAEBVHep3Vector@CLHEP@@H@Z
	?GetBoundaryAtPZ@G4VTwistSurface@@UEBA?AVHep3Vector@CLHEP@@HAEBV23@@Z
	?GetBoundaryAxis@G4VTwistSurface@@IEBAXHQEAW4EAxis@@@Z
	?GetBoundaryLimit@G4VTwistSurface@@IEBAXHQEAN@Z
	?GetBoundaryMax@G4TwistBoxSide@@EEAANN@Z
	?GetBoundaryMax@G4TwistTrapAlphaSide@@EEAANN@Z
	?GetBoundaryMax@G4TwistTrapFlatSide@@UEAANN@Z
	?GetBoundaryMax@G4TwistTrapParallelSide@@EEAANN@Z
	?GetBoundaryMax@G4TwistTubsFlatSide@@UEAANN@Z
	?GetBoundaryMax@G4TwistTubsHypeSide@@UEAANN@Z
	?GetBoundaryMax@G4TwistTubsSide@@UEAANN@Z
	?GetBoundaryMin@G4TwistBoxSide@@EEAANN@Z
	?GetBoundaryMin@G4TwistTrapAlphaSide@@EEAANN@Z
	?GetBoundaryMin@G4TwistTrapFlatSide@@UEAANN@Z
	?GetBoundaryMin@G4TwistTrapParallelSide@@EEAANN@Z
	?GetBoundaryMin@G4TwistTubsFlatSide@@UEAANN@Z
	?GetBoundaryMin@G4TwistTubsHypeSide@@UEAANN@Z
	?GetBoundaryMin@G4TwistTubsSide@@UEAANN@Z
	?GetBoundaryParameters@Boundary@G4VTwistSurface@@QEBA_NAEBHAEAVHep3Vector@CLHEP@@1AEAH@Z
	?GetBoundaryParameters@G4VTwistSurface@@UEBAXAEBHAEAVHep3Vector@CLHEP@@1AEAH@Z
	?GetCache@?$G4Cache@PEAVG4RegularNavigationHelper@@@@AEBAAEAPEAVG4RegularNavigationHelper@@XZ
	?GetCachedSurfaceArea@G4EllipticalTube@@AEBANXZ
	?GetCandidates@G4Voxelizer@@QEBAAEBV?$vector@HV?$allocator@H@std@@@std@@AEAV23@@Z
	?GetCandidatesAsString@G4Voxelizer@@AEBA?AVG4String@@AEBVG4SurfBits@@@Z
	?GetCandidatesVoxel@G4Voxelizer@@QEAAXAEAV?$vector@HV?$allocator@H@std@@@std@@@Z
	?GetCandidatesVoxelArray@G4Voxelizer@@QEBAHAEBV?$vector@HV?$allocator@H@std@@@std@@AEAV23@PEAVG4SurfBits@@@Z
	?GetCandidatesVoxelArray@G4Voxelizer@@QEBAHAEBV?$vector@HV?$allocator@H@std@@@std@@QEBVG4SurfBits@@AEAV23@PEAV4@@Z
	?GetCandidatesVoxelArray@G4Voxelizer@@QEBAHAEBVHep3Vector@CLHEP@@AEAV?$vector@HV?$allocator@H@std@@@std@@PEAVG4SurfBits@@@Z
	?GetCircumcentre@G4QuadrangularFacet@@UEBA?AVHep3Vector@CLHEP@@XZ
	?GetCircumcentre@G4TriangularFacet@@UEBA?AVHep3Vector@CLHEP@@XZ
	?GetClone@G4QuadrangularFacet@@UEAAPEAVG4VFacet@@XZ
	?GetClone@G4TriangularFacet@@UEAAPEAVG4VFacet@@XZ
	?GetConstantFieldValue@G4UniformMagField@@QEBA?AVHep3Vector@CLHEP@@XZ
	?GetConstituentLV@G4ReflectionFactory@@QEBAPEAVG4LogicalVolume@@PEAV2@@Z
	?GetConstituentMovedSolid@G4DisplacedSolid@@QEBAPEAVG4VSolid@@XZ
	?GetConstituentMovedSolid@G4ReflectedSolid@@QEBAPEAVG4VSolid@@XZ
	?GetConstituentSolid@G4BooleanSolid@@UEAAPEAVG4VSolid@@H@Z
	?GetConstituentSolid@G4BooleanSolid@@UEBAPEBVG4VSolid@@H@Z
	?GetConstituentSolid@G4VSolid@@UEAAPEAV1@H@Z
	?GetConstituentSolid@G4VSolid@@UEBAPEBV1@H@Z
	?GetCopyNo@G4PVDivision@@UEBAHXZ
	?GetCopyNo@G4PVPlacement@@UEBAHXZ
	?GetCopyNo@G4PVReplica@@UEBAHXZ
	?GetCopyNo@G4ReplicatedSlice@@UEBAHXZ
	?GetCorner@G4VTwistSurface@@IEBA?AVHep3Vector@CLHEP@@H@Z
	?GetCrystal@G4LogicalCrystalVolume@@QEBAPEBVG4CrystalExtension@@XZ
	?GetCubVolEpsilon@G4VCSGfaceted@@QEBANXZ
	?GetCubVolStatistics@G4VCSGfaceted@@QEBAHXZ
	?GetCubicVolume@G4BooleanSolid@@UEAANXZ
	?GetCubicVolume@G4Box@@UEAANXZ
	?GetCubicVolume@G4Cons@@UEAANXZ
	?GetCubicVolume@G4CutTubs@@UEAANXZ
	?GetCubicVolume@G4Ellipsoid@@UEAANXZ
	?GetCubicVolume@G4EllipticalCone@@UEAANXZ
	?GetCubicVolume@G4EllipticalTube@@UEAANXZ
	?GetCubicVolume@G4GenericTrap@@UEAANXZ
	?GetCubicVolume@G4Hype@@UEAANXZ
	?GetCubicVolume@G4MultiUnion@@UEAANXZ
	?GetCubicVolume@G4Orb@@UEAANXZ
	?GetCubicVolume@G4Para@@UEAANXZ
	?GetCubicVolume@G4Paraboloid@@UEAANXZ
	?GetCubicVolume@G4ScaledSolid@@UEAANXZ
	?GetCubicVolume@G4Sphere@@UEAANXZ
	?GetCubicVolume@G4TessellatedSolid@@UEAANXZ
	?GetCubicVolume@G4Tet@@UEAANXZ
	?GetCubicVolume@G4Torus@@UEAANXZ
	?GetCubicVolume@G4Trap@@UEAANXZ
	?GetCubicVolume@G4Trd@@UEAANXZ
	?GetCubicVolume@G4Tubs@@UEAANXZ
	?GetCubicVolume@G4TwistedTubs@@UEAANXZ
	?GetCubicVolume@G4VCSGfaceted@@UEAANXZ
	?GetCubicVolume@G4VSolid@@UEAANXZ
	?GetCubicVolume@G4VTwistedFaceted@@UEAANXZ
	?GetCurrentValue@G4GeometryMessenger@@UEAA?AVG4String@@PEAVG4UIcommand@@@Z
	?GetCutZ@G4CutTubs@@IEBANAEBVHep3Vector@CLHEP@@@Z
	?GetDefaultVoxelsCount@G4Voxelizer@@SAHXZ
	?GetDerivatives@?$G4RKIntegrationDriver@VG4DormandPrince745@@@@UEBAXAEBVG4FieldTrack@@QEAN1@Z
	?GetDerivatives@?$G4RKIntegrationDriver@VG4DormandPrince745@@@@UEBAXAEBVG4FieldTrack@@QEAN@Z
	?GetDerivatives@?$G4RKIntegrationDriver@VG4HelixHeum@@@@UEBAXAEBVG4FieldTrack@@QEAN1@Z
	?GetDerivatives@?$G4RKIntegrationDriver@VG4HelixHeum@@@@UEBAXAEBVG4FieldTrack@@QEAN@Z
	?GetDerivatives@?$G4RKIntegrationDriver@VG4MagIntegratorStepper@@@@UEBAXAEBVG4FieldTrack@@QEAN1@Z
	?GetDerivatives@?$G4RKIntegrationDriver@VG4MagIntegratorStepper@@@@UEBAXAEBVG4FieldTrack@@QEAN@Z
	?GetDerivatives@?$G4RKIntegrationDriver@VG4RK547FEq1@@@@UEBAXAEBVG4FieldTrack@@QEAN1@Z
	?GetDerivatives@?$G4RKIntegrationDriver@VG4RK547FEq1@@@@UEBAXAEBVG4FieldTrack@@QEAN@Z
	?GetDerivatives@G4BFieldIntegrationDriver@@UEBAXAEBVG4FieldTrack@@QEAN1@Z
	?GetDerivatives@G4BFieldIntegrationDriver@@UEBAXAEBVG4FieldTrack@@QEAN@Z
	?GetDerivatives@G4MagInt_Driver@@UEBAXAEBVG4FieldTrack@@QEAN1@Z
	?GetDerivatives@G4MagInt_Driver@@UEBAXAEBVG4FieldTrack@@QEAN@Z
	?GetDirectTransform3D@G4ReflectedSolid@@QEBA?AVTransform3D@HepGeom@@XZ
	?GetDirectTransform@G4DisplacedSolid@@QEBA?AVG4AffineTransform@@XZ
	?GetDisplacedSolidPtr@G4DisplacedSolid@@UEAAPEAV1@XZ
	?GetDisplacedSolidPtr@G4DisplacedSolid@@UEBAPEBV1@XZ
	?GetDisplacedSolidPtr@G4VSolid@@UEAAPEAVG4DisplacedSolid@@XZ
	?GetDisplacedSolidPtr@G4VSolid@@UEBAPEBVG4DisplacedSolid@@XZ
	?GetDistanceForConstantField@G4NystromRK4@@QEBANXZ
	?GetDistanceFromPoint@G4ErrorCylSurfaceTarget@@UEBANAEBVHep3Vector@CLHEP@@0@Z
	?GetDistanceFromPoint@G4ErrorCylSurfaceTarget@@UEBANAEBVHep3Vector@CLHEP@@@Z
	?GetDistanceFromPoint@G4ErrorPlaneSurfaceTarget@@UEBANAEBVHep3Vector@CLHEP@@0@Z
	?GetDistanceFromPoint@G4ErrorPlaneSurfaceTarget@@UEBANAEBVHep3Vector@CLHEP@@@Z
	?GetDistanceFromPoint@G4ErrorTarget@@UEBANAEBVHep3Vector@CLHEP@@0@Z
	?GetDistanceFromPoint@G4ErrorTarget@@UEBANAEBVHep3Vector@CLHEP@@@Z
	?GetDivisionAxis@G4PVDivision@@QEBA?AW4EAxis@@XZ
	?GetDivisionAxis@G4ReplicatedSlice@@QEBA?AW4EAxis@@XZ
	?GetDriver@?$G4ChordFinderDelegate@V?$G4FSALIntegrationDriver@VG4RK547FEq1@@@@@@AEAAAEAV?$G4FSALIntegrationDriver@VG4RK547FEq1@@@@XZ
	?GetDriver@?$G4ChordFinderDelegate@V?$G4IntegrationDriver@VG4HelixHeum@@@@@@AEAAAEAV?$G4IntegrationDriver@VG4HelixHeum@@@@XZ
	?GetDriver@?$G4ChordFinderDelegate@V?$G4IntegrationDriver@VG4MagIntegratorStepper@@@@@@AEAAAEAV?$G4IntegrationDriver@VG4MagIntegratorStepper@@@@XZ
	?GetDriver@?$G4ChordFinderDelegate@VG4MagInt_Driver@@@@AEAAAEAVG4MagInt_Driver@@XZ
	?GetEdgeVisibility@G4VTwistSurface@@QEAAHHHHHHH@Z
	?GetEntityType@G4BooleanSolid@@UEBA?AVG4String@@XZ
	?GetEntityType@G4Box@@UEBA?AVG4String@@XZ
	?GetEntityType@G4Cons@@UEBA?AVG4String@@XZ
	?GetEntityType@G4CutTubs@@UEBA?AVG4String@@XZ
	?GetEntityType@G4DisplacedSolid@@UEBA?AVG4String@@XZ
	?GetEntityType@G4Ellipsoid@@UEBA?AVG4String@@XZ
	?GetEntityType@G4EllipticalCone@@UEBA?AVG4String@@XZ
	?GetEntityType@G4EllipticalTube@@UEBA?AVG4String@@XZ
	?GetEntityType@G4ExtrudedSolid@@UEBA?AVG4String@@XZ
	?GetEntityType@G4GenericPolycone@@UEBA?AVG4String@@XZ
	?GetEntityType@G4GenericTrap@@UEBA?AVG4String@@XZ
	?GetEntityType@G4Hype@@UEBA?AVG4String@@XZ
	?GetEntityType@G4IntersectionSolid@@UEBA?AVG4String@@XZ
	?GetEntityType@G4MultiUnion@@UEBA?AVG4String@@XZ
	?GetEntityType@G4Orb@@UEBA?AVG4String@@XZ
	?GetEntityType@G4Para@@UEBA?AVG4String@@XZ
	?GetEntityType@G4Paraboloid@@UEBA?AVG4String@@XZ
	?GetEntityType@G4Polycone@@UEBA?AVG4String@@XZ
	?GetEntityType@G4Polyhedra@@UEBA?AVG4String@@XZ
	?GetEntityType@G4QuadrangularFacet@@UEBA?AVG4String@@XZ
	?GetEntityType@G4ReflectedSolid@@UEBA?AVG4String@@XZ
	?GetEntityType@G4ScaledSolid@@UEBA?AVG4String@@XZ
	?GetEntityType@G4Sphere@@UEBA?AVG4String@@XZ
	?GetEntityType@G4SubtractionSolid@@UEBA?AVG4String@@XZ
	?GetEntityType@G4TessellatedSolid@@UEBA?AVG4String@@XZ
	?GetEntityType@G4Tet@@UEBA?AVG4String@@XZ
	?GetEntityType@G4Torus@@UEBA?AVG4String@@XZ
	?GetEntityType@G4Trap@@UEBA?AVG4String@@XZ
	?GetEntityType@G4Trd@@UEBA?AVG4String@@XZ
	?GetEntityType@G4TriangularFacet@@UEBA?AVG4String@@XZ
	?GetEntityType@G4Tubs@@UEBA?AVG4String@@XZ
	?GetEntityType@G4TwistedBox@@UEBA?AVG4String@@XZ
	?GetEntityType@G4TwistedTrap@@UEBA?AVG4String@@XZ
	?GetEntityType@G4TwistedTrd@@UEBA?AVG4String@@XZ
	?GetEntityType@G4TwistedTubs@@UEBA?AVG4String@@XZ
	?GetEntityType@G4UnionSolid@@UEBA?AVG4String@@XZ
	?GetEntityType@G4VCSGfaceted@@UEBA?AVG4String@@XZ
	?GetEntityType@G4VTwistedFaceted@@UEBA?AVG4String@@XZ
	?GetEquationOfMotion@?$G4RKIntegrationDriver@VG4DormandPrince745@@@@UEAAPEAVG4EquationOfMotion@@XZ
	?GetEquationOfMotion@?$G4RKIntegrationDriver@VG4HelixHeum@@@@UEAAPEAVG4EquationOfMotion@@XZ
	?GetEquationOfMotion@?$G4RKIntegrationDriver@VG4MagIntegratorStepper@@@@UEAAPEAVG4EquationOfMotion@@XZ
	?GetEquationOfMotion@?$G4RKIntegrationDriver@VG4RK547FEq1@@@@UEAAPEAVG4EquationOfMotion@@XZ
	?GetEquationOfMotion@G4BFieldIntegrationDriver@@UEAAPEAVG4EquationOfMotion@@XZ
	?GetEquationOfMotion@G4MagInt_Driver@@UEAAPEAVG4EquationOfMotion@@XZ
	?GetErrorsThreshold@G4GeomTestVolume@@QEBAHXZ
	?GetExtent@G4Box@@UEBA?AVG4VisExtent@@XZ
	?GetExtent@G4ClippablePolygon@@UEBA_NW4EAxis@@AEAN1@Z
	?GetExtent@G4Ellipsoid@@UEBA?AVG4VisExtent@@XZ
	?GetExtent@G4EllipticalCone@@UEBA?AVG4VisExtent@@XZ
	?GetExtent@G4EllipticalTube@@UEBA?AVG4VisExtent@@XZ
	?GetExtent@G4GenericTrap@@UEBA?AVG4VisExtent@@XZ
	?GetExtent@G4Hype@@UEBA?AVG4VisExtent@@XZ
	?GetExtent@G4Orb@@UEBA?AVG4VisExtent@@XZ
	?GetExtent@G4SolidExtentList@@QEBA_NAEAN0@Z
	?GetExtent@G4Sphere@@UEBA?AVG4VisExtent@@XZ
	?GetExtent@G4TessellatedSolid@@UEBA?AVG4VisExtent@@XZ
	?GetExtent@G4Tet@@UEBA?AVG4VisExtent@@XZ
	?GetExtent@G4TwistedTubs@@UEBA?AVG4VisExtent@@XZ
	?GetExtent@G4VCSGfaceted@@UEBA?AVG4VisExtent@@XZ
	?GetExtent@G4VSolid@@UEBA?AVG4VisExtent@@XZ
	?GetExtent@G4VTwistedFaceted@@UEBA?AVG4VisExtent@@XZ
	?GetFace@G4VTwistSurface@@QEAAHHHHHH@Z
	?GetFaceCubicVolume@G4GenericTrap@@AEBANAEBVHep3Vector@CLHEP@@000@Z
	?GetFaceSurfaceArea@G4GenericTrap@@AEBANAEBVHep3Vector@CLHEP@@000@Z
	?GetFacets@G4TwistBoxSide@@EEAAXHHQEAY02NQEAY03HH@Z
	?GetFacets@G4TwistTrapAlphaSide@@EEAAXHHQEAY02NQEAY03HH@Z
	?GetFacets@G4TwistTrapFlatSide@@UEAAXHHQEAY02NQEAY03HH@Z
	?GetFacets@G4TwistTrapParallelSide@@EEAAXHHQEAY02NQEAY03HH@Z
	?GetFacets@G4TwistTubsFlatSide@@UEAAXHHQEAY02NQEAY03HH@Z
	?GetFacets@G4TwistTubsHypeSide@@UEAAXHHQEAY02NQEAY03HH@Z
	?GetFacets@G4TwistTubsSide@@UEAAXHHQEAY02NQEAY03HH@Z
	?GetFastSimulationManager@G4Region@@QEBAPEAVG4FastSimulationManager@@XZ
	?GetField@G4NystromRK4@@AEAAPEAVG4CachedMagneticField@@XZ
	?GetField@G4NystromRK4@@AEBAPEBVG4CachedMagneticField@@XZ
	?GetFieldManager@G4LogicalVolume@@QEBAPEAVG4FieldManager@@XZ
	?GetFieldValue@G4BFieldIntegrationDriver@@AEBAXAEBVG4FieldTrack@@QEAN@Z
	?GetFieldValue@G4CachedMagneticField@@UEBAXQEBNPEAN@Z
	?GetFieldValue@G4DELPHIMagField@@UEBAXQEBNQEAN@Z
	?GetFieldValue@G4GlobalMagFieldMessenger@@QEBA?AVHep3Vector@CLHEP@@XZ
	?GetFieldValue@G4HarmonicPolMagField@@UEBAXQEBNQEAN@Z
	?GetFieldValue@G4LineCurrentMagField@@UEBAXQEBNQEAN@Z
	?GetFieldValue@G4QuadrupoleMagField@@UEBAXQEBNQEAN@Z
	?GetFieldValue@G4SextupoleMagField@@UEBAXQEBNQEAN@Z
	?GetFieldValue@G4UniformElectricField@@UEBAXQEBNPEAN@Z
	?GetFieldValue@G4UniformGravityField@@UEBAXQEBNPEAN@Z
	?GetFieldValue@G4UniformMagField@@UEBAXQEBNPEAN@Z
	?GetFirstTrackingNavigator@G4TransportationManager@@SAPEAVG4Navigator@@XZ
	?GetFlippedFacet@G4TriangularFacet@@QEAAPEAV1@XZ
	?GetFrameRotation@G4DisplacedSolid@@QEBA?AVHepRotation@CLHEP@@XZ
	?GetFrameRotation@G4VPhysicalVolume@@QEBAPEBVHepRotation@CLHEP@@XZ
	?GetFrameTranslation@G4DisplacedSolid@@QEBA?AVHep3Vector@CLHEP@@XZ
	?GetFrameTranslation@G4VPhysicalVolume@@QEBA?AVHep3Vector@CLHEP@@XZ
	?GetGlobalExitNormal@G4ErrorPropagationNavigator@@UEAA?AVHep3Vector@CLHEP@@AEBV23@PEA_N@Z
	?GetGlobalExitNormal@G4MultiNavigator@@UEAA?AVHep3Vector@CLHEP@@AEBV23@PEA_N@Z
	?GetGlobalExitNormal@G4Navigator@@UEAA?AVHep3Vector@CLHEP@@AEBV23@PEA_N@Z
	?GetGlobalSurfaceNormal@G4VIntersectionLocator@@IEAA?AVHep3Vector@CLHEP@@AEBV23@AEA_N@Z
	?GetHistory@G4TouchableHistory@@UEBAPEBVG4NavigationHistory@@XZ
	?GetHistory@G4VTouchable@@UEBAPEBVG4NavigationHistory@@XZ
	?GetHistoryDepth@G4TouchableHistory@@UEBAHXZ
	?GetHistoryDepth@G4VTouchable@@UEBAHXZ
	?GetImportance@G4IStore@@QEBANAEBVG4VPhysicalVolume@@H@Z
	?GetImportance@G4IStore@@UEBANAEBVG4GeometryCell@@@Z
	?GetInstance@G4AssemblyStore@@SAPEAV1@XZ
	?GetInstance@G4FieldManagerStore@@SAPEAV1@XZ
	?GetInstance@G4GeometryManager@@SAPEAV1@XZ
	?GetInstance@G4IStore@@SAPEAV1@AEBVG4String@@@Z
	?GetInstance@G4IStore@@SAPEAV1@XZ
	?GetInstance@G4LogicalVolumeStore@@SAPEAV1@XZ
	?GetInstance@G4NavigationHistoryPool@@SAPEAV1@XZ
	?GetInstance@G4PVDivisionFactory@@SAPEAV1@XZ
	?GetInstance@G4PathFinder@@SAPEAV1@XZ
	?GetInstance@G4PhysicalVolumeStore@@SAPEAV1@XZ
	?GetInstance@G4RegionStore@@SAPEAV1@XZ
	?GetInstance@G4SolidStore@@SAPEAV1@XZ
	?GetInstance@G4WeightWindowStore@@SAPEAV1@AEBVG4String@@@Z
	?GetInstance@G4WeightWindowStore@@SAPEAV1@XZ
	?GetInstanceCount@G4AssemblyVolume@@QEBAIXZ
	?GetInstanceIfExist@G4FieldManagerStore@@SAPEAV1@XZ
	?GetInstanceIfExist@G4GeometryManager@@SAPEAV1@XZ
	?GetInstanceIfExist@G4PathFinder@@SAPEAV1@XZ
	?GetInstanceIfExist@G4TransportationManager@@SAPEAV1@XZ
	?GetLastDydx@G4BogackiShampine45@@QEAAXQEAN@Z
	?GetLastSurfaceNormal@G4VIntersectionLocator@@AEBA?AVHep3Vector@CLHEP@@AEBV23@AEA_N@Z
	?GetLevels@G4NavigationHistoryPool@@QEAAPEAV?$vector@VG4NavigationLevel@@V?$allocator@VG4NavigationLevel@@@std@@@std@@XZ
	?GetListOfPrimitives@G4BooleanSolid@@IEBAXAEAV?$vector@U?$pair@PEAVG4VSolid@@VTransform3D@HepGeom@@@std@@V?$allocator@U?$pair@PEAVG4VSolid@@VTransform3D@HepGeom@@@std@@@2@@std@@AEBVTransform3D@HepGeom@@@Z
	?GetLocalExitNormal@G4MultiNavigator@@UEAA?AVHep3Vector@CLHEP@@PEA_N@Z
	?GetLocalExitNormal@G4Navigator@@UEAA?AVHep3Vector@CLHEP@@PEA_N@Z
	?GetLocalExitNormalAndCheck@G4MultiNavigator@@UEAA?AVHep3Vector@CLHEP@@AEBV23@PEA_N@Z
	?GetLocalExitNormalAndCheck@G4Navigator@@UEAA?AVHep3Vector@CLHEP@@AEBV23@PEA_N@Z
	?GetLocalSurfaceNormal@G4VIntersectionLocator@@AEAA?AVHep3Vector@CLHEP@@AEBV23@AEA_N@Z
	?GetLowerWeight@G4WeightWindowStore@@UEBANAEBVG4GeometryCell@@N@Z
	?GetMass@G4LogicalVolume@@QEAAN_N0PEAVG4Material@@@Z
	?GetMaterial@G4LogicalVolume@@QEBAPEAVG4Material@@XZ
	?GetMaterial@G4PartialPhantomParameterisation@@QEBAPEAVG4Material@@_K00@Z
	?GetMaterial@G4PartialPhantomParameterisation@@QEBAPEAVG4Material@@_K@Z
	?GetMaterial@G4PhantomParameterisation@@QEBAPEAVG4Material@@_K00@Z
	?GetMaterial@G4PhantomParameterisation@@QEBAPEAVG4Material@@_K@Z
	?GetMaterialCutsCouple@G4LogicalVolume@@QEBAPEBVG4MaterialCutsCouple@@XZ
	?GetMaterialIndex@G4PartialPhantomParameterisation@@QEBA_K_K00@Z
	?GetMaterialIndex@G4PartialPhantomParameterisation@@QEBA_K_K@Z
	?GetMaterialIndex@G4PhantomParameterisation@@QEBA_K_K00@Z
	?GetMaterialIndex@G4PhantomParameterisation@@QEBA_K_K@Z
	?GetMaterialScanner@G4VNestedParameterisation@@UEAAPEAVG4VVolumeMaterialScanner@@XZ
	?GetMaterialScanner@G4VPVParameterisation@@UEAAPEAVG4VVolumeMaterialScanner@@XZ
	?GetMaxExtent@G4VoxelLimits@@QEBANW4EAxis@@@Z
	?GetMaxMinZ@G4CutTubs@@IEBAXAEAN0@Z
	?GetMaxNoSteps@?$G4RKIntegrationDriver@VG4DormandPrince745@@@@QEBAHXZ
	?GetMaxNoSteps@?$G4RKIntegrationDriver@VG4HelixHeum@@@@QEBAHXZ
	?GetMaxNoSteps@?$G4RKIntegrationDriver@VG4MagIntegratorStepper@@@@QEBAHXZ
	?GetMaxNoSteps@?$G4RKIntegrationDriver@VG4RK547FEq1@@@@QEBAHXZ
	?GetMaxParameter@G4ParameterisationBoxX@@UEBANXZ
	?GetMaxParameter@G4ParameterisationBoxY@@UEBANXZ
	?GetMaxParameter@G4ParameterisationBoxZ@@UEBANXZ
	?GetMaxParameter@G4ParameterisationConsPhi@@UEBANXZ
	?GetMaxParameter@G4ParameterisationConsRho@@UEBANXZ
	?GetMaxParameter@G4ParameterisationConsZ@@UEBANXZ
	?GetMaxParameter@G4ParameterisationParaX@@UEBANXZ
	?GetMaxParameter@G4ParameterisationParaY@@UEBANXZ
	?GetMaxParameter@G4ParameterisationParaZ@@UEBANXZ
	?GetMaxParameter@G4ParameterisationPolyconePhi@@UEBANXZ
	?GetMaxParameter@G4ParameterisationPolyconeRho@@UEBANXZ
	?GetMaxParameter@G4ParameterisationPolyconeZ@@UEBANXZ
	?GetMaxParameter@G4ParameterisationPolyhedraPhi@@UEBANXZ
	?GetMaxParameter@G4ParameterisationPolyhedraRho@@UEBANXZ
	?GetMaxParameter@G4ParameterisationPolyhedraZ@@UEBANXZ
	?GetMaxParameter@G4ParameterisationTrdX@@UEBANXZ
	?GetMaxParameter@G4ParameterisationTrdY@@UEBANXZ
	?GetMaxParameter@G4ParameterisationTrdZ@@UEBANXZ
	?GetMaxParameter@G4ParameterisationTubsPhi@@UEBANXZ
	?GetMaxParameter@G4ParameterisationTubsRho@@UEBANXZ
	?GetMaxParameter@G4ParameterisationTubsZ@@UEBANXZ
	?GetMaxPoint@G4ClippablePolygon@@UEBAPEBVHep3Vector@CLHEP@@W4EAxis@@@Z
	?GetMaxXExtent@G4TessellatedSolid@@QEBANXZ
	?GetMaxYExtent@G4TessellatedSolid@@QEBANXZ
	?GetMaxZExtent@G4TessellatedSolid@@QEBANXZ
	?GetMemoryUse@G4SmartVoxelStat@@QEBAJXZ
	?GetMinExtent@G4VoxelLimits@@QEBANW4EAxis@@@Z
	?GetMinPoint@G4ClippablePolygon@@UEBAPEBVHep3Vector@CLHEP@@W4EAxis@@@Z
	?GetMinXExtent@G4TessellatedSolid@@QEBANXZ
	?GetMinYExtent@G4TessellatedSolid@@QEBANXZ
	?GetMinZExtent@G4TessellatedSolid@@QEBANXZ
	?GetMotherToDaughterTransform@G4Navigator@@QEAA?AVG4AffineTransform@@PEAVG4VPhysicalVolume@@HW4EVolume@@@Z
	?GetMultiplicity@G4PVDivision@@UEBAHXZ
	?GetMultiplicity@G4PVReplica@@UEBAHXZ
	?GetMultiplicity@G4ReplicatedSlice@@UEBAHXZ
	?GetMultiplicity@G4VPhysicalVolume@@UEBAHXZ
	?GetName@G4VTwistSurface@@UEBA?AVG4String@@XZ
	?GetNavigator@G4TransportationManager@@QEAAPEAVG4Navigator@@AEBVG4String@@@Z
	?GetNavigator@G4TransportationManager@@QEAAPEAVG4Navigator@@PEAVG4VPhysicalVolume@@@Z
	?GetNoPages@?$G4Allocator@V?$G4CountedObject@X@@@@UEBAHXZ
	?GetNoPages@?$G4Allocator@VG4NavigationLevelRep@@@@UEBAHXZ
	?GetNoPages@?$G4Allocator@VG4TouchableHistory@@@@UEBAHXZ
	?GetNode@G4VTwistSurface@@QEAAHHHHHH@Z
	?GetNormal@G4TwistBoxSide@@UEAA?AVHep3Vector@CLHEP@@AEBV23@_N@Z
	?GetNormal@G4TwistTrapAlphaSide@@UEAA?AVHep3Vector@CLHEP@@AEBV23@_N@Z
	?GetNormal@G4TwistTrapFlatSide@@UEAA?AVHep3Vector@CLHEP@@AEBV23@_N@Z
	?GetNormal@G4TwistTrapParallelSide@@UEAA?AVHep3Vector@CLHEP@@AEBV23@_N@Z
	?GetNormal@G4TwistTubsFlatSide@@UEAA?AVHep3Vector@CLHEP@@AEBV23@_N@Z
	?GetNormal@G4TwistTubsHypeSide@@UEAA?AVHep3Vector@CLHEP@@AEBV23@_N@Z
	?GetNormal@G4TwistTubsSide@@UEAA?AVHep3Vector@CLHEP@@AEBV23@_N@Z
	?GetNumberHeads@G4SmartVoxelStat@@QEBAJXZ
	?GetNumberNodes@G4SmartVoxelStat@@QEBAJXZ
	?GetNumberOfBorderSurfaces@G4LogicalBorderSurface@@SA_KXZ
	?GetNumberOfFacets@G4TessellatedSolid@@QEBAHXZ
	?GetNumberOfSkinSurfaces@G4LogicalSkinSurface@@SA_KXZ
	?GetNumberOfVertices@G4QuadrangularFacet@@UEBAHXZ
	?GetNumberOfVertices@G4TriangularFacet@@UEBAHXZ
	?GetNumberPointers@G4SmartVoxelStat@@QEBAJXZ
	?GetObjectRotation@G4DisplacedSolid@@QEBA?AVHepRotation@CLHEP@@XZ
	?GetObjectRotation@G4VPhysicalVolume@@QEBAPEAVHepRotation@CLHEP@@XZ
	?GetObjectRotationValue@G4VPhysicalVolume@@QEBA?AVHepRotation@CLHEP@@XZ
	?GetObjectTranslation@G4DisplacedSolid@@QEBA?AVHep3Vector@CLHEP@@XZ
	?GetObjectTranslation@G4VPhysicalVolume@@QEBA?AVHep3Vector@CLHEP@@XZ
	?GetPVDivisionFactory@G4ReflectionFactory@@AEBAPEAVG4VPVDivisionFactory@@XZ
	?GetPageSize@?$G4Allocator@V?$G4CountedObject@X@@@@UEBA_KXZ
	?GetPageSize@?$G4Allocator@VG4NavigationLevelRep@@@@UEBA_KXZ
	?GetPageSize@?$G4Allocator@VG4TouchableHistory@@@@UEBA_KXZ
	?GetParallelWorld@G4TransportationManager@@QEAAPEAVG4VPhysicalVolume@@AEBVG4String@@@Z
	?GetParallelWorldVolumePointer@G4IStore@@UEBAPEBVG4VPhysicalVolume@@XZ
	?GetParallelWorldVolumePointer@G4WeightWindowStore@@UEBAPEBVG4VPhysicalVolume@@XZ
	?GetParameterisation@G4PVDivision@@UEBAPEAVG4VPVParameterisation@@XZ
	?GetParameterisation@G4PVParameterised@@UEBAPEAVG4VPVParameterisation@@XZ
	?GetParameterisation@G4PVPlacement@@UEBAPEAVG4VPVParameterisation@@XZ
	?GetParameterisation@G4PVReplica@@UEBAPEAVG4VPVParameterisation@@XZ
	?GetParameterisation@G4ReplicatedSlice@@UEBAPEAVG4VPVParameterisation@@XZ
	?GetParameterisation@G4VExternalPhysicalVolume@@UEBAPEAVG4VPVParameterisation@@XZ
	?GetParentRegion@G4Region@@QEBAPEAV1@AEA_N@Z
	?GetPgrow@?$G4RKIntegrationDriver@VG4DormandPrince745@@@@QEBANXZ
	?GetPgrow@?$G4RKIntegrationDriver@VG4HelixHeum@@@@QEBANXZ
	?GetPgrow@?$G4RKIntegrationDriver@VG4MagIntegratorStepper@@@@QEBANXZ
	?GetPgrow@?$G4RKIntegrationDriver@VG4RK547FEq1@@@@QEBANXZ
	?GetPhi@G4PolyconeSide@@IEAANAEBVHep3Vector@CLHEP@@@Z
	?GetPhi@G4PolyhedraSide@@IEAANAEBVHep3Vector@CLHEP@@@Z
	?GetPhiUAtX@G4TwistBoxSide@@AEAAXVHep3Vector@CLHEP@@AEAN1@Z
	?GetPhiUAtX@G4TwistTrapAlphaSide@@AEAAXVHep3Vector@CLHEP@@AEAN1@Z
	?GetPhiUAtX@G4TwistTrapParallelSide@@AEAAXVHep3Vector@CLHEP@@AEAN1@Z
	?GetPhysicalVolume@G4GeometryCell@@QEBAAEBVG4VPhysicalVolume@@XZ
	?GetPlanerExtent@G4ClippablePolygon@@UEBA_NAEBVHep3Vector@CLHEP@@0AEAN1@Z
	?GetPointInSolid@G4VTwistedFaceted@@QEBA?AVHep3Vector@CLHEP@@N@Z
	?GetPointIndex@G4Voxelizer@@QEBAHAEBVHep3Vector@CLHEP@@@Z
	?GetPointOnCone@G4Polycone@@IEBA?AVHep3Vector@CLHEP@@NNNNNNAEAN@Z
	?GetPointOnCut@G4Polycone@@IEBA?AVHep3Vector@CLHEP@@NNNNNNAEAN@Z
	?GetPointOnFace@G4PolyPhiFace@@UEAA?AVHep3Vector@CLHEP@@XZ
	?GetPointOnFace@G4PolyconeSide@@UEAA?AVHep3Vector@CLHEP@@XZ
	?GetPointOnFace@G4PolyhedraSide@@UEAA?AVHep3Vector@CLHEP@@XZ
	?GetPointOnFace@G4QuadrangularFacet@@UEBA?AVHep3Vector@CLHEP@@XZ
	?GetPointOnFace@G4Tet@@AEBA?AVHep3Vector@CLHEP@@V23@00AEAN@Z
	?GetPointOnFace@G4TriangularFacet@@UEBA?AVHep3Vector@CLHEP@@XZ
	?GetPointOnPlane@G4Polyhedra@@IEBA?AVHep3Vector@CLHEP@@V23@000@Z
	?GetPointOnPlane@G4PolyhedraSide@@QEAA?AVHep3Vector@CLHEP@@V23@000PEAN@Z
	?GetPointOnRing@G4Polycone@@IEBA?AVHep3Vector@CLHEP@@NNNNN@Z
	?GetPointOnSurface@G4BooleanSolid@@UEBA?AVHep3Vector@CLHEP@@XZ
	?GetPointOnSurface@G4Box@@UEBA?AVHep3Vector@CLHEP@@XZ
	?GetPointOnSurface@G4Cons@@UEBA?AVHep3Vector@CLHEP@@XZ
	?GetPointOnSurface@G4CutTubs@@UEBA?AVHep3Vector@CLHEP@@XZ
	?GetPointOnSurface@G4DisplacedSolid@@UEBA?AVHep3Vector@CLHEP@@XZ
	?GetPointOnSurface@G4Ellipsoid@@UEBA?AVHep3Vector@CLHEP@@XZ
	?GetPointOnSurface@G4EllipticalCone@@UEBA?AVHep3Vector@CLHEP@@XZ
	?GetPointOnSurface@G4EllipticalTube@@UEBA?AVHep3Vector@CLHEP@@XZ
	?GetPointOnSurface@G4GenericPolycone@@UEBA?AVHep3Vector@CLHEP@@XZ
	?GetPointOnSurface@G4GenericTrap@@UEBA?AVHep3Vector@CLHEP@@XZ
	?GetPointOnSurface@G4Hype@@UEBA?AVHep3Vector@CLHEP@@XZ
	?GetPointOnSurface@G4MultiUnion@@UEBA?AVHep3Vector@CLHEP@@XZ
	?GetPointOnSurface@G4Orb@@UEBA?AVHep3Vector@CLHEP@@XZ
	?GetPointOnSurface@G4Para@@UEBA?AVHep3Vector@CLHEP@@XZ
	?GetPointOnSurface@G4Paraboloid@@UEBA?AVHep3Vector@CLHEP@@XZ
	?GetPointOnSurface@G4Polycone@@UEBA?AVHep3Vector@CLHEP@@XZ
	?GetPointOnSurface@G4Polyhedra@@UEBA?AVHep3Vector@CLHEP@@XZ
	?GetPointOnSurface@G4ReflectedSolid@@UEBA?AVHep3Vector@CLHEP@@XZ
	?GetPointOnSurface@G4ScaledSolid@@UEBA?AVHep3Vector@CLHEP@@XZ
	?GetPointOnSurface@G4Sphere@@UEBA?AVHep3Vector@CLHEP@@XZ
	?GetPointOnSurface@G4TessellatedSolid@@UEBA?AVHep3Vector@CLHEP@@XZ
	?GetPointOnSurface@G4Tet@@UEBA?AVHep3Vector@CLHEP@@XZ
	?GetPointOnSurface@G4Torus@@UEBA?AVHep3Vector@CLHEP@@XZ
	?GetPointOnSurface@G4Trap@@UEBA?AVHep3Vector@CLHEP@@XZ
	?GetPointOnSurface@G4Trd@@UEBA?AVHep3Vector@CLHEP@@XZ
	?GetPointOnSurface@G4Tubs@@UEBA?AVHep3Vector@CLHEP@@XZ
	?GetPointOnSurface@G4TwistedTubs@@UEBA?AVHep3Vector@CLHEP@@XZ
	?GetPointOnSurface@G4VSolid@@UEBA?AVHep3Vector@CLHEP@@XZ
	?GetPointOnSurface@G4VTwistedFaceted@@UEBA?AVHep3Vector@CLHEP@@XZ
	?GetPointOnSurfaceGeneric@G4VCSGfaceted@@IEBA?AVHep3Vector@CLHEP@@XZ
	?GetPointOnTriangle@G4Polyhedra@@IEBA?AVHep3Vector@CLHEP@@V23@00@Z
	?GetPointOnTubs@G4Polycone@@IEBA?AVHep3Vector@CLHEP@@NNNNAEAN@Z
	?GetPolyhedron@G4BooleanSolid@@UEBAPEAVG4Polyhedron@@XZ
	?GetPolyhedron@G4CSGSolid@@UEBAPEAVG4Polyhedron@@XZ
	?GetPolyhedron@G4DisplacedSolid@@UEBAPEAVG4Polyhedron@@XZ
	?GetPolyhedron@G4Ellipsoid@@UEBAPEAVG4Polyhedron@@XZ
	?GetPolyhedron@G4EllipticalCone@@UEBAPEAVG4Polyhedron@@XZ
	?GetPolyhedron@G4EllipticalTube@@UEBAPEAVG4Polyhedron@@XZ
	?GetPolyhedron@G4GenericTrap@@UEBAPEAVG4Polyhedron@@XZ
	?GetPolyhedron@G4Hype@@UEBAPEAVG4Polyhedron@@XZ
	?GetPolyhedron@G4MultiUnion@@UEBAPEAVG4Polyhedron@@XZ
	?GetPolyhedron@G4Paraboloid@@UEBAPEAVG4Polyhedron@@XZ
	?GetPolyhedron@G4ReflectedSolid@@UEBAPEAVG4Polyhedron@@XZ
	?GetPolyhedron@G4ScaledSolid@@UEBAPEAVG4Polyhedron@@XZ
	?GetPolyhedron@G4TessellatedSolid@@UEBAPEAVG4Polyhedron@@XZ
	?GetPolyhedron@G4Tet@@UEBAPEAVG4Polyhedron@@XZ
	?GetPolyhedron@G4TwistedTubs@@UEBAPEAVG4Polyhedron@@XZ
	?GetPolyhedron@G4VCSGfaceted@@UEBAPEAVG4Polyhedron@@XZ
	?GetPolyhedron@G4VSolid@@UEBAPEAVG4Polyhedron@@XZ
	?GetPolyhedron@G4VTwistedFaceted@@UEBAPEAVG4Polyhedron@@XZ
	?GetPool@G4GeometryWorkspace@@SAPEAV?$G4TWorkspacePool@VG4GeometryWorkspace@@@@XZ
	?GetPool@G4SolidsWorkspace@@SAPEAV?$G4TWorkspacePool@VG4SolidsWorkspace@@@@XZ
	?GetPoolType@?$G4Allocator@V?$G4CountedObject@X@@@@UEBAPEBDXZ
	?GetPoolType@?$G4Allocator@VG4NavigationLevelRep@@@@UEBAPEBDXZ
	?GetPoolType@?$G4Allocator@VG4TouchableHistory@@@@UEBAPEBDXZ
	?GetPrismAABB@G4BoundingEnvelope@@AEBAXAEBV?$vector@V?$Point3D@N@HepGeom@@V?$allocator@V?$Point3D@N@HepGeom@@@std@@@std@@0AEAU?$pair@V?$Point3D@N@HepGeom@@V12@@3@@Z
	?GetR@G4ParameterisationPolyconeZ@@AEBANNNNNN@Z
	?GetR@G4ParameterisationPolyhedraZ@@AEBANNNNNN@Z
	?GetRadius@G4QuadrangularFacet@@UEBANXZ
	?GetRadius@G4TriangularFacet@@UEBANXZ
	?GetRadiusInRing@G4CSGSolid@@IEBANNN@Z
	?GetReflectedLV@G4ReflectionFactory@@QEBAPEAVG4LogicalVolume@@PEAV2@@Z
	?GetReflectedSolidPtr@G4ReflectedSolid@@UEAAPEAV1@XZ
	?GetReflectedSolidPtr@G4ReflectedSolid@@UEBAPEBV1@XZ
	?GetReflectedVolumesMap@G4ReflectionFactory@@QEBAAEBV?$map@PEAVG4LogicalVolume@@PEAV1@U?$less@PEAVG4LogicalVolume@@@std@@V?$allocator@U?$pair@QEAVG4LogicalVolume@@PEAV1@@std@@@3@@std@@XZ
	?GetRegion@G4RegionStore@@QEBAPEAVG4Region@@AEBVG4String@@_N@Z
	?GetRegionalSteppingAction@G4Region@@QEBAPEAVG4UserSteppingAction@@XZ
	?GetRegularStructureId@G4PVDivision@@UEBAHXZ
	?GetRegularStructureId@G4PVPlacement@@UEBAHXZ
	?GetRegularStructureId@G4PVReplica@@UEBAHXZ
	?GetRegularStructureId@G4ReplicatedSlice@@UEBAHXZ
	?GetRegularStructureId@G4VExternalPhysicalVolume@@UEBAHXZ
	?GetReplicaNo@G4PartialPhantomParameterisation@@UEAAHAEBVHep3Vector@CLHEP@@0@Z
	?GetReplicaNo@G4PhantomParameterisation@@UEAAHAEBVHep3Vector@CLHEP@@0@Z
	?GetReplicaNumber@G4GeometryCell@@QEBAHXZ
	?GetReplicaNumber@G4TouchableHistory@@UEBAHH@Z
	?GetReplicaNumber@G4VTouchable@@UEBAHH@Z
	?GetReplicationData@G4PVDivision@@UEBAXAEAW4EAxis@@AEAHAEAN2AEA_N@Z
	?GetReplicationData@G4PVParameterised@@UEBAXAEAW4EAxis@@AEAHAEAN2AEA_N@Z
	?GetReplicationData@G4PVPlacement@@UEBAXAEAW4EAxis@@AEAHAEAN2AEA_N@Z
	?GetReplicationData@G4PVReplica@@UEBAXAEAW4EAxis@@AEAHAEAN2AEA_N@Z
	?GetReplicationData@G4ReplicatedSlice@@UEBAXAEAW4EAxis@@AEAHAEAN2AEA_N@Z
	?GetReplicationData@G4VExternalPhysicalVolume@@UEBAXAEAW4EAxis@@AEAHAEAN2AEA_N@Z
	?GetResolution@G4GeomTestVolume@@QEBAHXZ
	?GetRhoAtPZ@G4TwistTubsHypeSide@@UEBANAEBVHep3Vector@CLHEP@@_N@Z
	?GetRmax@G4ParameterisationPolyconeZ@@AEBANNH@Z
	?GetRmax@G4ParameterisationPolyhedraZ@@AEBANNH@Z
	?GetRmin@G4ParameterisationPolyconeZ@@AEBANNH@Z
	?GetRmin@G4ParameterisationPolyhedraZ@@AEBANNH@Z
	?GetRotation@G4GRSSolid@@UEBAPEBVHepRotation@CLHEP@@H@Z
	?GetRotation@G4GRSVolume@@UEBAPEBVHepRotation@CLHEP@@H@Z
	?GetRotation@G4TouchableHistory@@UEBAPEBVHepRotation@CLHEP@@H@Z
	?GetRotation@G4VPhysicalVolume@@QEAAPEAVHepRotation@CLHEP@@XZ
	?GetRotation@G4VPhysicalVolume@@QEBAPEBVHepRotation@CLHEP@@XZ
	?GetScalePrecision@G4ReflectionFactory@@QEBANXZ
	?GetScaleTransform@G4ScaledSolid@@QEBA?AVScale3D@HepGeom@@XZ
	?GetSensitiveDetector@G4LogicalVolume@@QEBAPEAVG4VSensitiveDetector@@XZ
	?GetSmallestFraction@?$G4FSALIntegrationDriver@VG4RK547FEq1@@@@QEBANXZ
	?GetSolid@G4GRSSolid@@UEBAPEAVG4VSolid@@H@Z
	?GetSolid@G4GRSVolume@@UEBAPEAVG4VSolid@@H@Z
	?GetSolid@G4LogicalVolume@@QEBAPEAVG4VSolid@@XZ
	?GetSolid@G4LogicalVolume@@SAPEAVG4VSolid@@AEAVG4LVData@@@Z
	?GetSolid@G4SolidStore@@QEBAPEAVG4VSolid@@AEBVG4String@@_N@Z
	?GetSolid@G4TouchableHistory@@UEBAPEAVG4VSolid@@H@Z
	?GetSolid@G4VTouchable@@UEBAPEAVG4VSolid@@H@Z
	?GetSolidClosed@G4TessellatedSolid@@QEBA_NXZ
	?GetStepLengths@G4RegularNavigationHelper@@QEAAAEBV?$vector@U?$pair@HN@std@@V?$allocator@U?$pair@HN@std@@@2@@std@@XZ
	?GetStepper@?$G4RKIntegrationDriver@VG4DormandPrince745@@@@UEAAPEAVG4DormandPrince745@@XZ
	?GetStepper@?$G4RKIntegrationDriver@VG4DormandPrince745@@@@UEBAPEBVG4DormandPrince745@@XZ
	?GetStepper@?$G4RKIntegrationDriver@VG4HelixHeum@@@@UEAAPEAVG4HelixHeum@@XZ
	?GetStepper@?$G4RKIntegrationDriver@VG4HelixHeum@@@@UEBAPEBVG4HelixHeum@@XZ
	?GetStepper@?$G4RKIntegrationDriver@VG4MagIntegratorStepper@@@@UEAAPEAVG4MagIntegratorStepper@@XZ
	?GetStepper@?$G4RKIntegrationDriver@VG4MagIntegratorStepper@@@@UEBAPEBVG4MagIntegratorStepper@@XZ
	?GetStepper@?$G4RKIntegrationDriver@VG4RK547FEq1@@@@UEAAPEAVG4RK547FEq1@@XZ
	?GetStepper@?$G4RKIntegrationDriver@VG4RK547FEq1@@@@UEBAPEBVG4RK547FEq1@@XZ
	?GetStepper@G4BFieldIntegrationDriver@@UEAAPEAVG4MagIntegratorStepper@@XZ
	?GetStepper@G4BFieldIntegrationDriver@@UEBAPEBVG4MagIntegratorStepper@@XZ
	?GetStepper@G4MagInt_Driver@@UEAAPEAVG4MagIntegratorStepper@@XZ
	?GetStepper@G4MagInt_Driver@@UEBAPEBVG4MagIntegratorStepper@@XZ
	?GetSubInstanceManager@G4LogicalVolume@@SAAEBV?$G4GeomSplitter@VG4LVData@@@@XZ
	?GetSubInstanceManager@G4PVReplica@@SAAEBV?$G4GeomSplitter@VG4ReplicaData@@@@XZ
	?GetSubInstanceManager@G4PolyconeSide@@SAAEBV?$G4GeomSplitter@VG4PlSideData@@@@XZ
	?GetSubInstanceManager@G4PolyhedraSide@@SAAEBV?$G4GeomSplitter@VG4PhSideData@@@@XZ
	?GetSubInstanceManager@G4Region@@SAAEBV?$G4GeomSplitter@VG4RegionData@@@@XZ
	?GetSubInstanceManager@G4VPhysicalVolume@@SAAEBV?$G4GeomSplitter@VG4PVData@@@@XZ
	?GetSurface@G4LogicalBorderSurface@@SAPEAV1@PEBVG4VPhysicalVolume@@0@Z
	?GetSurface@G4LogicalSkinSurface@@SAPEAV1@PEBVG4LogicalVolume@@@Z
	?GetSurfaceArea@G4BooleanSolid@@UEAANXZ
	?GetSurfaceArea@G4Box@@UEAANXZ
	?GetSurfaceArea@G4Cons@@UEAANXZ
	?GetSurfaceArea@G4CutTubs@@UEAANXZ
	?GetSurfaceArea@G4Ellipsoid@@UEAANXZ
	?GetSurfaceArea@G4EllipticalCone@@UEAANXZ
	?GetSurfaceArea@G4EllipticalTube@@UEAANXZ
	?GetSurfaceArea@G4GenericTrap@@UEAANXZ
	?GetSurfaceArea@G4Hype@@UEAANXZ
	?GetSurfaceArea@G4MultiUnion@@UEAANXZ
	?GetSurfaceArea@G4Orb@@UEAANXZ
	?GetSurfaceArea@G4Para@@UEAANXZ
	?GetSurfaceArea@G4Paraboloid@@UEAANXZ
	?GetSurfaceArea@G4ScaledSolid@@UEAANXZ
	?GetSurfaceArea@G4Sphere@@UEAANXZ
	?GetSurfaceArea@G4TessellatedSolid@@UEAANXZ
	?GetSurfaceArea@G4Tet@@UEAANXZ
	?GetSurfaceArea@G4Torus@@UEAANXZ
	?GetSurfaceArea@G4Trap@@UEAANXZ
	?GetSurfaceArea@G4Trd@@UEAANXZ
	?GetSurfaceArea@G4Tubs@@UEAANXZ
	?GetSurfaceArea@G4TwistBoxSide@@EEAANXZ
	?GetSurfaceArea@G4TwistTrapAlphaSide@@EEAANXZ
	?GetSurfaceArea@G4TwistTrapFlatSide@@UEAANXZ
	?GetSurfaceArea@G4TwistTrapParallelSide@@EEAANXZ
	?GetSurfaceArea@G4TwistTubsFlatSide@@UEAANXZ
	?GetSurfaceArea@G4TwistTubsHypeSide@@UEAANXZ
	?GetSurfaceArea@G4TwistTubsSide@@UEAANXZ
	?GetSurfaceArea@G4TwistedTubs@@UEAANXZ
	?GetSurfaceArea@G4VCSGfaceted@@UEAANXZ
	?GetSurfaceArea@G4VSolid@@UEAANXZ
	?GetSurfaceArea@G4VTwistedFaceted@@UEAANXZ
	?GetSurfaceNormal@G4QuadrangularFacet@@UEBA?AVHep3Vector@CLHEP@@XZ
	?GetSurfaceNormal@G4TriangularFacet@@UEBA?AVHep3Vector@CLHEP@@XZ
	?GetSurfaceNormal@G4VIntersectionLocator@@IEAA?AVHep3Vector@CLHEP@@AEBV23@AEA_N@Z
	?GetSurfaceTable@G4LogicalBorderSurface@@SAPEBV?$vector@PEAVG4LogicalBorderSurface@@V?$allocator@PEAVG4LogicalBorderSurface@@@std@@@std@@XZ
	?GetSurfaceTable@G4LogicalSkinSurface@@SAPEBV?$vector@PEAVG4LogicalSkinSurface@@V?$allocator@PEAVG4LogicalSkinSurface@@@std@@@std@@XZ
	?GetSysTime@G4SmartVoxelStat@@QEBANXZ
	?GetTangentPlane@G4ErrorCylSurfaceTarget@@UEBA?AV?$Plane3D@N@HepGeom@@AEBVHep3Vector@CLHEP@@@Z
	?GetTangentPlane@G4ErrorPlaneSurfaceTarget@@UEBA?AV?$Plane3D@N@HepGeom@@AEBVHep3Vector@CLHEP@@@Z
	?GetTolerance@G4GeomTestVolume@@QEBANXZ
	?GetTotalTime@G4SmartVoxelStat@@QEBANXZ
	?GetTransform3D@G4ReflectedSolid@@QEBA?AVTransform3D@HepGeom@@XZ
	?GetTransform@G4DisplacedSolid@@QEBA?AVG4AffineTransform@@XZ
	?GetTranslation@G4GRSSolid@@UEBAAEBVHep3Vector@CLHEP@@H@Z
	?GetTranslation@G4GRSVolume@@UEBAAEBVHep3Vector@CLHEP@@H@Z
	?GetTranslation@G4PartialPhantomParameterisation@@QEBA?AVHep3Vector@CLHEP@@H@Z
	?GetTranslation@G4PhantomParameterisation@@QEBA?AVHep3Vector@CLHEP@@H@Z
	?GetTranslation@G4TouchableHistory@@UEBAAEBVHep3Vector@CLHEP@@H@Z
	?GetTranslation@G4VPhysicalVolume@@QEBA?BVHep3Vector@CLHEP@@XZ
	?GetTransportationManager@G4TransportationManager@@SAPEAV1@XZ
	?GetUnscaledSolid@G4ScaledSolid@@QEBAPEAVG4VSolid@@XZ
	?GetUserTime@G4SmartVoxelStat@@QEBANXZ
	?GetVerboseLevel@?$G4FSALIntegrationDriver@VG4RK547FEq1@@@@UEBAHXZ
	?GetVerboseLevel@?$G4IntegrationDriver@VG4HelixHeum@@@@UEBAHXZ
	?GetVerboseLevel@?$G4IntegrationDriver@VG4MagIntegratorStepper@@@@UEBAHXZ
	?GetVerboseLevel@?$G4InterpolationDriver@VG4DormandPrince745@@@@UEBAHXZ
	?GetVerboseLevel@G4BFieldIntegrationDriver@@UEBAHXZ
	?GetVerboseLevel@G4MagInt_Driver@@UEBAHXZ
	?GetVerboseLevel@G4NormalNavigation@@QEBAHXZ
	?GetVerboseLevel@G4ReflectionFactory@@QEBAHXZ
	?GetVerbosity@G4GeomTestVolume@@QEBA_NXZ
	?GetVertex@G4ExtrudedSolid@@AEBA?AVHep3Vector@CLHEP@@HH@Z
	?GetVertex@G4QuadrangularFacet@@UEBA?AVHep3Vector@CLHEP@@H@Z
	?GetVertex@G4TriangularFacet@@UEBA?AVHep3Vector@CLHEP@@H@Z
	?GetVertexIndex@G4QuadrangularFacet@@EEBAHH@Z
	?GetVertexIndex@G4TriangularFacet@@UEBAHH@Z
	?GetVertices@G4Tet@@QEBA?AV?$vector@VHep3Vector@CLHEP@@V?$allocator@VHep3Vector@CLHEP@@@std@@@std@@XZ
	?GetVertices@G4Trap@@AEBAXQEAVHep3Vector@CLHEP@@@Z
	?GetVolume@G4GRSVolume@@UEBAPEAVG4VPhysicalVolume@@H@Z
	?GetVolume@G4LogicalVolumeStore@@QEBAPEAVG4LogicalVolume@@AEBVG4String@@_N@Z
	?GetVolume@G4PhysicalVolumeStore@@QEBAPEAVG4VPhysicalVolume@@AEBVG4String@@_N@Z
	?GetVolume@G4SmartVoxelStat@@QEBAPEBVG4LogicalVolume@@XZ
	?GetVolume@G4TouchableHistory@@UEBAPEAVG4VPhysicalVolume@@H@Z
	?GetVolume@G4VTouchable@@UEBAPEAVG4VPhysicalVolume@@H@Z
	?GetVolumesNameExtension@G4ReflectionFactory@@QEBAAEBVG4String@@XZ
	?GetVoxel@G4SmartVoxelStat@@QEBAPEBVG4SmartVoxelHeader@@XZ
	?GetVoxel@G4Voxelizer@@QEBAXAEAV?$vector@HV?$allocator@H@std@@@std@@AEBVHep3Vector@CLHEP@@@Z
	?GetWorldVolume@G4IStore@@UEBAAEBVG4VPhysicalVolume@@XZ
	?GetWorldVolume@G4WeightWindowStore@@UEBAAEBVG4VPhysicalVolume@@XZ
	?GimmeThePointsAndForgetThem@G4VCurvedTrajectoryFilter@@QEAAPEAV?$vector@VHep3Vector@CLHEP@@V?$allocator@VHep3Vector@CLHEP@@@std@@@std@@XZ
	?GimmeTrajectoryVectorAndForgetIt@G4PropagatorInField@@QEBAPEAV?$vector@VHep3Vector@CLHEP@@V?$allocator@VHep3Vector@CLHEP@@@std@@@std@@XZ
	?GrowStepSize2@?$G4RKIntegrationDriver@VG4DormandPrince745@@@@IEBANNN@Z
	?GrowStepSize2@?$G4RKIntegrationDriver@VG4HelixHeum@@@@IEBANNN@Z
	?GrowStepSize2@?$G4RKIntegrationDriver@VG4MagIntegratorStepper@@@@IEBANNN@Z
	?GrowStepSize2@?$G4RKIntegrationDriver@VG4RK547FEq1@@@@IEBANNN@Z
	?GrowStepSize@?$G4RKIntegrationDriver@VG4DormandPrince745@@@@IEBANNN@Z
	?GrowStepSize@?$G4RKIntegrationDriver@VG4HelixHeum@@@@IEBANNN@Z
	?GrowStepSize@?$G4RKIntegrationDriver@VG4MagIntegratorStepper@@@@IEBANNN@Z
	?GrowStepSize@?$G4RKIntegrationDriver@VG4RK547FEq1@@@@IEBANNN@Z
	?HitOn@G4IntersectingCone@@QEAA_NNN@Z
	?InCone@G4PolyPhiFace@@IEAA_NPEAUG4PolyPhiFaceVertex@@0@Z
	?InFrontOf@G4ClippablePolygon@@UEBA_NAEBV1@W4EAxis@@@Z
	?InactivateAll@G4TransportationManager@@QEAAXXZ
	?IncreasePageSize@?$G4Allocator@V?$G4CountedObject@X@@@@UEAAXI@Z
	?IncreasePageSize@?$G4Allocator@VG4NavigationLevelRep@@@@UEAAXI@Z
	?IncreasePageSize@?$G4Allocator@VG4TouchableHistory@@@@UEAAXI@Z
	?Init@G4GeometryMessenger@@AEAAXXZ
	?InitialiseFieldChangesEnergy@G4FieldManager@@AEAAXXZ
	?InitialiseHelper@G4SafetyHelper@@QEAAXXZ
	?InitialiseNavigator@G4SafetyHelper@@QEAAXXZ
	?InitialisePhysicalVolumes@G4GeometryWorkspace@@IEAAXXZ
	?InitialiseSolids@G4SolidsWorkspace@@IEAAXXZ
	?InitialiseWorker@G4LogicalVolume@@QEAAXPEAV1@PEAVG4VSolid@@PEAVG4VSensitiveDetector@@@Z
	?InitialiseWorker@G4PVReplica@@QEAAXPEAV1@@Z
	?InitialiseWorker@G4VPhysicalVolume@@IEAAXPEAV1@PEAVHepRotation@CLHEP@@AEBVHep3Vector@3@@Z
	?InitialiseWorkspace@G4GeometryWorkspace@@QEAAXXZ
	?InitialiseWorkspace@G4SolidsWorkspace@@QEAAXXZ
	?Initialize@G4Orb@@IEAAXXZ
	?Initialize@G4TessellatedSolid@@AEAAXXZ
	?InitializeTrigonometry@G4Cons@@AEAAXXZ
	?InitializeTrigonometry@G4Tubs@@IEAAXXZ
	?Inside@G4Box@@UEBA?AW4EInside@@AEBVHep3Vector@CLHEP@@@Z
	?Inside@G4Cons@@UEBA?AW4EInside@@AEBVHep3Vector@CLHEP@@@Z
	?Inside@G4CutTubs@@UEBA?AW4EInside@@AEBVHep3Vector@CLHEP@@@Z
	?Inside@G4DisplacedSolid@@UEBA?AW4EInside@@AEBVHep3Vector@CLHEP@@@Z
	?Inside@G4Ellipsoid@@UEBA?AW4EInside@@AEBVHep3Vector@CLHEP@@@Z
	?Inside@G4EllipticalCone@@UEBA?AW4EInside@@AEBVHep3Vector@CLHEP@@@Z
	?Inside@G4EllipticalTube@@UEBA?AW4EInside@@AEBVHep3Vector@CLHEP@@@Z
	?Inside@G4ExtrudedSolid@@UEBA?AW4EInside@@AEBVHep3Vector@CLHEP@@@Z
	?Inside@G4GenericPolycone@@UEBA?AW4EInside@@AEBVHep3Vector@CLHEP@@@Z
	?Inside@G4GenericTrap@@UEBA?AW4EInside@@AEBVHep3Vector@CLHEP@@@Z
	?Inside@G4Hype@@UEBA?AW4EInside@@AEBVHep3Vector@CLHEP@@@Z
	?Inside@G4IntersectionSolid@@UEBA?AW4EInside@@AEBVHep3Vector@CLHEP@@@Z
	?Inside@G4MultiUnion@@UEBA?AW4EInside@@AEBVHep3Vector@CLHEP@@@Z
	?Inside@G4Orb@@UEBA?AW4EInside@@AEBVHep3Vector@CLHEP@@@Z
	?Inside@G4Para@@UEBA?AW4EInside@@AEBVHep3Vector@CLHEP@@@Z
	?Inside@G4Paraboloid@@UEBA?AW4EInside@@AEBVHep3Vector@CLHEP@@@Z
	?Inside@G4PolyPhiFace@@UEAA?AW4EInside@@AEBVHep3Vector@CLHEP@@NPEAN@Z
	?Inside@G4Polycone@@UEBA?AW4EInside@@AEBVHep3Vector@CLHEP@@@Z
	?Inside@G4PolyconeSide@@UEAA?AW4EInside@@AEBVHep3Vector@CLHEP@@NPEAN@Z
	?Inside@G4Polyhedra@@UEBA?AW4EInside@@AEBVHep3Vector@CLHEP@@@Z
	?Inside@G4PolyhedraSide@@UEAA?AW4EInside@@AEBVHep3Vector@CLHEP@@NPEAN@Z
	?Inside@G4ReflectedSolid@@UEBA?AW4EInside@@AEBVHep3Vector@CLHEP@@@Z
	?Inside@G4ReplicaNavigation@@QEBA?AW4EInside@@PEBVG4VPhysicalVolume@@HAEBVHep3Vector@CLHEP@@@Z
	?Inside@G4ScaledSolid@@UEBA?AW4EInside@@AEBVHep3Vector@CLHEP@@@Z
	?Inside@G4Sphere@@UEBA?AW4EInside@@AEBVHep3Vector@CLHEP@@@Z
	?Inside@G4SubtractionSolid@@UEBA?AW4EInside@@AEBVHep3Vector@CLHEP@@@Z
	?Inside@G4TessellatedSolid@@UEBA?AW4EInside@@AEBVHep3Vector@CLHEP@@@Z
	?Inside@G4Tet@@UEBA?AW4EInside@@AEBVHep3Vector@CLHEP@@@Z
	?Inside@G4Torus@@UEBA?AW4EInside@@AEBVHep3Vector@CLHEP@@@Z
	?Inside@G4Trap@@UEBA?AW4EInside@@AEBVHep3Vector@CLHEP@@@Z
	?Inside@G4Trd@@UEBA?AW4EInside@@AEBVHep3Vector@CLHEP@@@Z
	?Inside@G4Tubs@@UEBA?AW4EInside@@AEBVHep3Vector@CLHEP@@@Z
	?Inside@G4TwistTubsHypeSide@@UEAA?AW4EInside@@AEBVHep3Vector@CLHEP@@@Z
	?Inside@G4TwistedTubs@@UEBA?AW4EInside@@AEBVHep3Vector@CLHEP@@@Z
	?Inside@G4UnionSolid@@UEBA?AW4EInside@@AEBVHep3Vector@CLHEP@@@Z
	?Inside@G4VCSGfaceted@@UEBA?AW4EInside@@AEBVHep3Vector@CLHEP@@@Z
	?Inside@G4VExternalNavigation@@UEAA?AW4EInside@@PEBVG4VSolid@@AEBVHep3Vector@CLHEP@@1@Z
	?Inside@G4VTwistedFaceted@@UEBA?AW4EInside@@AEBVHep3Vector@CLHEP@@@Z
	?InsideEdges@G4PolyPhiFace@@IEAA_NNN@Z
	?InsideEdges@G4PolyPhiFace@@IEAA_NNNPEANPEAPEAUG4PolyPhiFaceVertex@@PEAPEAVHep3Vector@CLHEP@@@Z
	?InsideEdgesExact@G4PolyPhiFace@@IEAA_NNNNAEBVHep3Vector@CLHEP@@0@Z
	?InsideNoVoxels@G4MultiUnion@@QEBA?AW4EInside@@AEBVHep3Vector@CLHEP@@@Z
	?InsideNoVoxels@G4TessellatedSolid@@AEBA?AW4EInside@@AEBVHep3Vector@CLHEP@@@Z
	?InsidePolygone@G4GenericTrap@@AEBA?AW4EInside@@AEBVHep3Vector@CLHEP@@AEBV?$vector@VHep2Vector@CLHEP@@V?$allocator@VHep2Vector@CLHEP@@@std@@@std@@@Z
	?InsideVoxels@G4TessellatedSolid@@AEBA?AW4EInside@@AEBVHep3Vector@CLHEP@@@Z
	?InsideWithExclusion@G4MultiUnion@@AEBA?AW4EInside@@AEBVHep3Vector@CLHEP@@PEAVG4SurfBits@@@Z
	?Instance@?$G4ThreadLocalSingleton@VG4RegularNavigationHelper@@@@QEBAPEAVG4RegularNavigationHelper@@XZ
	?Instance@G4ReflectionFactory@@SAPEAV1@XZ
	?Instance@G4RegularNavigationHelper@@SAPEAV1@XZ
	?Instance@G4VPVDivisionFactory@@SAPEAV1@XZ
	?InstanceCountMinus@G4AssemblyVolume@@IEAAXXZ
	?InstanceCountPlus@G4AssemblyVolume@@IEAAXXZ
	?IntegratorOrder@G4BogackiShampine23@@UEBAHXZ
	?IntegratorOrder@G4BogackiShampine45@@UEBAHXZ
	?IntegratorOrder@G4CashKarpRKF45@@UEBAHXZ
	?IntegratorOrder@G4ClassicalRK4@@UEBAHXZ
	?IntegratorOrder@G4ConstRK4@@UEBAHXZ
	?IntegratorOrder@G4DoLoMcPriRK34@@UEBAHXZ
	?IntegratorOrder@G4DormandPrince745@@UEBAHXZ
	?IntegratorOrder@G4DormandPrinceRK56@@UEBAHXZ
	?IntegratorOrder@G4DormandPrinceRK78@@UEBAHXZ
	?IntegratorOrder@G4ExactHelixStepper@@UEBAHXZ
	?IntegratorOrder@G4ExplicitEuler@@UEBAHXZ
	?IntegratorOrder@G4FSALBogackiShampine45@@UEBAHXZ
	?IntegratorOrder@G4FSALDormandPrince745@@UEBAHXZ
	?IntegratorOrder@G4HelixExplicitEuler@@UEBAHXZ
	?IntegratorOrder@G4HelixHeum@@UEBAHXZ
	?IntegratorOrder@G4HelixImplicitEuler@@UEBAHXZ
	?IntegratorOrder@G4HelixMixedStepper@@UEBAHXZ
	?IntegratorOrder@G4HelixSimpleRunge@@UEBAHXZ
	?IntegratorOrder@G4ImplicitEuler@@UEBAHXZ
	?IntegratorOrder@G4NystromRK4@@UEBAHXZ
	?IntegratorOrder@G4RK547FEq1@@UEBAHXZ
	?IntegratorOrder@G4RK547FEq2@@UEBAHXZ
	?IntegratorOrder@G4RK547FEq3@@UEBAHXZ
	?IntegratorOrder@G4RKG3_Stepper@@UEBAHXZ
	?IntegratorOrder@G4SimpleHeum@@UEBAHXZ
	?IntegratorOrder@G4SimpleRunge@@UEBAHXZ
	?IntegratorOrder@G4TsitourasRK45@@UEBAHXZ
	?Interpolate4thOrder@G4DormandPrince745@@QEBAXQEANN@Z
	?Interpolate5thOrder@G4DormandPrince745@@QEBAXQEANN@Z
	?Interpolate@?$G4InterpolationDriver@VG4DormandPrince745@@@@AEBAXNAEAY0M@N@Z
	?Interpolate@G4DoLoMcPriRK34@@QEAAXNQEAN@Z
	?Interpolate@G4DoLoMcPriRK34@@QEAAXQEBN0NQEANN@Z
	?Interpolate@G4FSALDormandPrince745@@QEAAXQEBN0NQEANN@Z
	?Interpolate@G4TsitourasRK45@@QEAAXQEBN0NQEANN@Z
	?InterpolateHigh@G4BogackiShampine45@@QEBAXNQEAN@Z
	?InterpolateImpl@?$G4InterpolationDriver@VG4DormandPrince745@@@@AEBAXNV?$_Vector_const_iterator@V?$_Vector_val@U?$_Simple_types@UInterpStepper@?$G4InterpolationDriver@VG4DormandPrince745@@@@@std@@@std@@@std@@AEAY0M@N@Z
	?Interpolate_high@G4DormandPrinceRK56@@QEAAXQEBN0NQEANN@Z
	?Interpolate_low@G4DormandPrinceRK56@@QEAAXQEBN0NQEANN@Z
	?Intersect@G4ErrorPlaneSurfaceTarget@@UEBA?AVHep3Vector@CLHEP@@AEBV23@0@Z
	?Intersect@G4PolyPhiFace@@IEAA_NVHep2Vector@CLHEP@@000@Z
	?Intersect@G4PolyPhiFace@@UEAA_NAEBVHep3Vector@CLHEP@@0_NNAEAN2AEAV23@AEA_N@Z
	?Intersect@G4PolyconeSide@@UEAA_NAEBVHep3Vector@CLHEP@@0_NNAEAN2AEAV23@AEA_N@Z
	?Intersect@G4PolyhedraSide@@UEAA_NAEBVHep3Vector@CLHEP@@0_NNAEAN2AEAV23@AEA_N@Z
	?Intersect@G4QuadrangularFacet@@UEAA_NAEBVHep3Vector@CLHEP@@0_NAEAN2AEAV23@@Z
	?Intersect@G4TriangularFacet@@UEAA_NAEBVHep3Vector@CLHEP@@0_NAEAN2AEAV23@@Z
	?IntersectChord@G4VIntersectionLocator@@QEAA_NAEBVHep3Vector@CLHEP@@0AEAN1AEAV23@12PEA_N@Z
	?IntersectHype@G4Hype@@KAHAEBVHep3Vector@CLHEP@@0NNQEAN@Z
	?IntersectLineAndLineSegment2D@G4TessellatedGeometryAlgorithms@@SAHAEBVHep2Vector@CLHEP@@000QEAV23@@Z
	?IntersectLineAndTriangle2D@G4TessellatedGeometryAlgorithms@@SA_NAEBVHep2Vector@CLHEP@@0000QEAV23@@Z
	?IntersectLocal@G4ErrorCylSurfaceTarget@@UEBA?AVHep3Vector@CLHEP@@AEBV23@0@Z
	?IntersectProp@G4PolyPhiFace@@IEAA_NVHep2Vector@CLHEP@@000@Z
	?IntersectSidePlane@G4PolyhedraSide@@IEAA_NAEBVHep3Vector@CLHEP@@0AEBUsG4PolyhedraSideVec@1@NNAEAN2@Z
	?Inverse@G4AffineTransform@@QEBA?AV1@XZ
	?InverseProduct@G4AffineTransform@@QEAAAEAV1@AEBV1@0@Z
	?IsAncestor@G4LogicalVolume@@QEBA_NPEBVG4VPhysicalVolume@@@Z
	?IsConstituent@G4ReflectionFactory@@QEBA_NPEAVG4LogicalVolume@@@Z
	?IsConvex@G4GeomTools@@SA_NAEBV?$vector@VHep2Vector@CLHEP@@V?$allocator@VHep2Vector@CLHEP@@@std@@@std@@@Z
	?IsCrossingCutPlanes@G4CutTubs@@IEBA_NXZ
	?IsDefined@G4QuadrangularFacet@@UEBA_NXZ
	?IsDefined@G4TriangularFacet@@UEBA_NXZ
	?IsEmpty@Boundary@G4VTwistSurface@@QEBA_NXZ
	?IsExtended@G4LogicalCrystalVolume@@UEBA_NXZ
	?IsExtended@G4LogicalVolume@@UEBA_NXZ
	?IsGeometryClosed@G4GeometryManager@@SA_NXZ
	?IsInWorld@G4IStore@@AEBA_NAEBVG4VPhysicalVolume@@@Z
	?IsInWorld@G4WeightWindowStore@@AEBA_NAEBVG4VPhysicalVolume@@@Z
	?IsInside@G4VFacet@@QEBA_NAEBVHep3Vector@CLHEP@@@Z
	?IsKnown@G4IStore@@UEBA_NAEBVG4GeometryCell@@@Z
	?IsKnown@G4WeightWindowStore@@UEBA_NAEBVG4GeometryCell@@@Z
	?IsLattice@G4LogicalCrystalVolume@@SA_NPEAVG4LogicalVolume@@@Z
	?IsLimited@G4VoxelLimits@@QEBA_NXZ
	?IsMany@G4PVDivision@@UEBA_NXZ
	?IsMany@G4PVPlacement@@UEBA_NXZ
	?IsMany@G4PVReplica@@UEBA_NXZ
	?IsMany@G4ReplicatedSlice@@UEBA_NXZ
	?IsMany@G4VExternalPhysicalVolume@@UEBA_NXZ
	?IsModified@G4RegionStore@@QEBA_NXZ
	?IsNested@G4VNestedParameterisation@@UEBA_NXZ
	?IsNested@G4VPVParameterisation@@UEBA_NXZ
	?IsPVDivision@G4PVDivisionFactory@@UEBA_NPEBVG4VPhysicalVolume@@@Z
	?IsParameterised@G4PVDivision@@UEBA_NXZ
	?IsParameterised@G4PVParameterised@@UEBA_NXZ
	?IsParameterised@G4PVPlacement@@UEBA_NXZ
	?IsParameterised@G4PVReplica@@UEBA_NXZ
	?IsParameterised@G4ReplicatedSlice@@UEBA_NXZ
	?IsParameterised@G4VExternalPhysicalVolume@@UEBA_NXZ
	?IsPointInside@G4ExtrudedSolid@@AEBA_NAEBVHep2Vector@CLHEP@@000@Z
	?IsReflected@G4ReflectionFactory@@QEBA_NPEAVG4LogicalVolume@@@Z
	?IsReflection@G4ReflectionFactory@@AEBA_NAEBVScale3D@HepGeom@@@Z
	?IsRegularStructure@G4PVDivision@@UEBA_NXZ
	?IsRegularStructure@G4PVPlacement@@UEBA_NXZ
	?IsRegularStructure@G4PVReplica@@UEBA_NXZ
	?IsRegularStructure@G4ReplicatedSlice@@UEBA_NXZ
	?IsRegularStructure@G4VExternalPhysicalVolume@@UEBA_NXZ
	?IsReplicated@G4PVDivision@@UEBA_NXZ
	?IsReplicated@G4PVPlacement@@UEBA_NXZ
	?IsReplicated@G4PVReplica@@UEBA_NXZ
	?IsReplicated@G4ReplicatedSlice@@UEBA_NXZ
	?IsReplicated@G4VExternalPhysicalVolume@@UEBA_NXZ
	?IsSameBoundary@G4VTwistSurface@@QEBA_NPEAV1@H0H@Z
	?IsSameLine@G4ExtrudedSolid@@AEBA_NAEBVHep2Vector@CLHEP@@00@Z
	?IsSameLineSegment@G4ExtrudedSolid@@AEBA_NAEBVHep2Vector@CLHEP@@00@Z
	?IsSameSide@G4ExtrudedSolid@@AEBA_NAEBVHep2Vector@CLHEP@@000@Z
	?IsSegCrossing@G4GenericTrap@@AEBA_NAEBVHep2Vector@CLHEP@@000@Z
	?IsSegCrossingZ@G4GenericTrap@@AEBA_NAEBVHep2Vector@CLHEP@@000@Z
	?IsWorldExisting@G4TransportationManager@@QEAAPEAVG4VPhysicalVolume@@AEBVG4String@@@Z
	?Left@G4PolyPhiFace@@IEAA_NVHep2Vector@CLHEP@@00@Z
	?LeftOn@G4PolyPhiFace@@IEAA_NVHep2Vector@CLHEP@@00@Z
	?LevelLocate@G4NormalNavigation@@QEAA_NAEAVG4NavigationHistory@@PEBVG4VPhysicalVolume@@HAEBVHep3Vector@CLHEP@@PEBV45@_NAEAV45@@Z
	?LevelLocate@G4ParameterisedNavigation@@UEAA_NAEAVG4NavigationHistory@@PEBVG4VPhysicalVolume@@HAEBVHep3Vector@CLHEP@@PEBV45@_NAEAV45@@Z
	?LevelLocate@G4RegularNavigation@@QEAA_NAEAVG4NavigationHistory@@PEBVG4VPhysicalVolume@@HAEBVHep3Vector@CLHEP@@PEBV45@_NAEAV45@@Z
	?LevelLocate@G4VoxelNavigation@@UEAA_NAEAVG4NavigationHistory@@PEBVG4VPhysicalVolume@@HAEBVHep3Vector@CLHEP@@PEBV45@_NAEAV45@@Z
	?LimitedString@G4PathFinder@@QEAAAEAVG4String@@W4ELimited@@@Z
	?LineHitsCone1@G4IntersectingCone@@IEAAHAEBVHep3Vector@CLHEP@@0PEAN1@Z
	?LineHitsCone2@G4IntersectingCone@@IEAAHAEBVHep3Vector@CLHEP@@0PEAN1@Z
	?LineHitsCone@G4IntersectingCone@@QEAAHAEBVHep3Vector@CLHEP@@0PEAN1@Z
	?LineHitsSegments@G4PolyhedraSide@@IEAAHAEBVHep3Vector@CLHEP@@0PEAH1@Z
	?LoadFromArray@G4FieldTrack@@QEAAXQEBNH@Z
	?Locate@G4PathFinder@@QEAAXAEBVHep3Vector@CLHEP@@0_N@Z
	?Locate@G4SafetyHelper@@QEAAXAEBVHep3Vector@CLHEP@@0@Z
	?LocateGlobalPointAndSetup@G4MultiNavigator@@UEAAPEAVG4VPhysicalVolume@@AEBVHep3Vector@CLHEP@@PEBV34@_N2@Z
	?LocateGlobalPointAndSetup@G4Navigator@@UEAAPEAVG4VPhysicalVolume@@AEBVHep3Vector@CLHEP@@PEBV34@_N2@Z
	?LocateGlobalPointWithinVolume@G4MultiNavigator@@UEAAXAEBVHep3Vector@CLHEP@@@Z
	?LocateGlobalPointWithinVolume@G4Navigator@@UEAAXAEBVHep3Vector@CLHEP@@@Z
	?LocateGlobalPointWithinVolumeAndCheck@G4VIntersectionLocator@@IEAA_NAEBVHep3Vector@CLHEP@@@Z
	?LocateGlobalPointWithinVolumeCheckAndReport@G4VIntersectionLocator@@IEAAXAEBVHep3Vector@CLHEP@@AEBVG4String@@H@Z
	?LocateNextVoxel@G4ParameterisedNavigation@@AEAA_NAEBVHep3Vector@CLHEP@@0NW4EAxis@@@Z
	?LocateNextVoxel@G4VoxelNavigation@@IEAA_NAEBVHep3Vector@CLHEP@@0N@Z
	?MakeDownFacet@G4ExtrudedSolid@@AEBAPEAVG4VFacet@@HHH@Z
	?MakeDownFacet@G4GenericTrap@@AEBAPEAVG4VFacet@@AEBV?$vector@VHep3Vector@CLHEP@@V?$allocator@VHep3Vector@CLHEP@@@std@@@std@@HHH@Z
	?MakeFacets@G4ExtrudedSolid@@AEAA_NXZ
	?MakeImprint@G4AssemblyVolume@@AEAAXPEAV1@PEAVG4LogicalVolume@@AEAVTransform3D@HepGeom@@H_N@Z
	?MakeImprint@G4AssemblyVolume@@QEAAXPEAVG4LogicalVolume@@AEAVHep3Vector@CLHEP@@PEAVHepRotation@4@H_N@Z
	?MakeImprint@G4AssemblyVolume@@QEAAXPEAVG4LogicalVolume@@AEAVTransform3D@HepGeom@@H_N@Z
	?MakePlane@G4Trap@@IEAA_NAEBVHep3Vector@CLHEP@@000AEAUTrapSidePlane@@@Z
	?MakePlanes@G4Para@@AEAAXXZ
	?MakePlanes@G4Trap@@IEAAXQEBVHep3Vector@CLHEP@@@Z
	?MakePlanes@G4Trap@@IEAAXXZ
	?MakePlanes@G4Trd@@AEAAXXZ
	?MakeSideFacet@G4GenericTrap@@AEBAPEAVG4VFacet@@AEBVHep3Vector@CLHEP@@000@Z
	?MakeUpFacet@G4ExtrudedSolid@@AEBAPEAVG4VFacet@@HHH@Z
	?MakeUpFacet@G4GenericTrap@@AEBAPEAVG4VFacet@@AEBV?$vector@VHep3Vector@CLHEP@@V?$allocator@VHep3Vector@CLHEP@@@std@@@std@@HHH@Z
	?MinDistanceFacet@G4TessellatedSolid@@AEBANAEBVHep3Vector@CLHEP@@_NAEAPEAVG4VFacet@@@Z
	?MinDistanceToBox@G4Voxelizer@@SANAEBVHep3Vector@CLHEP@@0@Z
	?MoveFrom@G4TriangularFacet@@AEAAXAEAV1@@Z
	?MoveUpHistory@G4TouchableHistory@@UEAAHH@Z
	?MoveUpHistory@G4VTouchable@@UEAAHH@Z
	?MustBeOutside@G4EnclosingCylinder@@QEBA_NAEBVHep3Vector@CLHEP@@@Z
	?NewLevel@G4NavigationHistory@@QEAAXPEAVG4VPhysicalVolume@@W4EVolume@@H@Z
	?NewPtrRotMatrix@G4PVPlacement@@CAPEAVHepRotation@CLHEP@@AEBV23@@Z
	?NewStep@?$G4ChordFinderDelegate@V?$G4FSALIntegrationDriver@VG4RK547FEq1@@@@@@AEAANNNNAEAN@Z
	?NewStep@?$G4ChordFinderDelegate@V?$G4IntegrationDriver@VG4HelixHeum@@@@@@AEAANNNNAEAN@Z
	?NewStep@?$G4ChordFinderDelegate@V?$G4IntegrationDriver@VG4MagIntegratorStepper@@@@@@AEAANNNNAEAN@Z
	?NewStep@?$G4ChordFinderDelegate@VG4MagInt_Driver@@@@AEAANNNNAEAN@Z
	?NormAng@G4TwistBoxSide@@AEAA?AVHep3Vector@CLHEP@@NN@Z
	?NormAng@G4TwistTrapAlphaSide@@AEAA?AVHep3Vector@CLHEP@@NN@Z
	?NormAng@G4TwistTrapParallelSide@@AEAA?AVHep3Vector@CLHEP@@NN@Z
	?Normal@G4PolyPhiFace@@UEAA?AVHep3Vector@CLHEP@@AEBV23@PEAN@Z
	?Normal@G4PolyconeSide@@UEAA?AVHep3Vector@CLHEP@@AEBV23@PEAN@Z
	?Normal@G4PolyhedraSide@@UEAA?AVHep3Vector@CLHEP@@AEBV23@PEAN@Z
	?Normal@G4TessellatedSolid@@UEBA_NAEBVHep3Vector@CLHEP@@AEAV23@@Z
	?NormalToPlane@G4GenericTrap@@AEBA?AVHep3Vector@CLHEP@@AEBV23@H@Z
	?ObtainFinalStep@G4MultiNavigator@@QEAANHAEAN0AEAW4ELimited@@@Z
	?OffsetZ@G4VDivisionParameterisation@@IEBANXZ
	?OnComputeStep@?$G4FSALIntegrationDriver@VG4RK547FEq1@@@@UEAAXXZ
	?OnComputeStep@?$G4IntegrationDriver@VG4HelixHeum@@@@UEAAXXZ
	?OnComputeStep@?$G4IntegrationDriver@VG4MagIntegratorStepper@@@@UEAAXXZ
	?OnComputeStep@?$G4InterpolationDriver@VG4DormandPrince745@@@@UEAAXXZ
	?OnComputeStep@G4BFieldIntegrationDriver@@UEAAXXZ
	?OnComputeStep@G4MagInt_Driver@@UEAAXXZ
	?OnStartTracking@?$G4FSALIntegrationDriver@VG4RK547FEq1@@@@UEAAXXZ
	?OnStartTracking@?$G4IntegrationDriver@VG4HelixHeum@@@@UEAAXXZ
	?OnStartTracking@?$G4IntegrationDriver@VG4MagIntegratorStepper@@@@UEAAXXZ
	?OnStartTracking@?$G4InterpolationDriver@VG4DormandPrince745@@@@UEAAXXZ
	?OnStartTracking@G4BFieldIntegrationDriver@@UEAAXXZ
	?OnStartTracking@G4MagInt_Driver@@UEAAXXZ
	?OneGoodStep@?$G4FSALIntegrationDriver@VG4RK547FEq1@@@@QEAAXQEAN0AEANNN11@Z
	?OneGoodStep@?$G4IntegrationDriver@VG4HelixHeum@@@@QEAAXQEANQEBNAEANNN22@Z
	?OneGoodStep@?$G4IntegrationDriver@VG4MagIntegratorStepper@@@@QEAAXQEANQEBNAEANNN22@Z
	?OneGoodStep@?$G4InterpolationDriver@VG4DormandPrince745@@@@AEAANV?$_Vector_iterator@V?$_Vector_val@U?$_Simple_types@UInterpStepper@?$G4InterpolationDriver@VG4DormandPrince745@@@@@std@@@std@@@std@@AEAY0M@N1AEANNN@Z
	?OneGoodStep@G4MagInt_Driver@@QEAAXQEANQEBNAEANNN22@Z
	?OpenGeometry@G4GeometryManager@@QEAAXPEAVG4VPhysicalVolume@@@Z
	?OutCode@G4VoxelLimits@@QEBAHAEBVHep3Vector@CLHEP@@@Z
	?Output@G4SurfBits@@QEBAXAEAV?$basic_ostream@DU?$char_traits@D@std@@@std@@@Z
	?OutsideOfExtent@G4TessellatedSolid@@AEBA_NAEBVHep3Vector@CLHEP@@N@Z
	?ParamVoxelLocate@G4ParameterisedNavigation@@QEAAPEAVG4SmartVoxelNode@@PEAVG4SmartVoxelHeader@@AEBVHep3Vector@CLHEP@@@Z
	?PartialClip@G4ClippablePolygon@@UEAA_NAEBVG4VoxelLimits@@W4EAxis@@@Z
	?PhiSegment@G4PolyhedraSide@@IEAAHN@Z
	?Place@G4ReflectionFactory@@QEAA?AU?$pair@PEAVG4VPhysicalVolume@@PEAV1@@std@@AEBVTransform3D@HepGeom@@AEBVG4String@@PEAVG4LogicalVolume@@2_NH3@Z
	?PointInPolygon@G4ExtrudedSolid@@AEBA_NAEBVHep3Vector@CLHEP@@@Z
	?PointInPolygon@G4GeomTools@@SA_NAEBVHep2Vector@CLHEP@@AEBV?$vector@VHep2Vector@CLHEP@@V?$allocator@VHep2Vector@CLHEP@@@std@@@std@@@Z
	?PointInTriangle@G4GeomTools@@SA_NAEBVHep2Vector@CLHEP@@000@Z
	?PointInTriangle@G4GeomTools@@SA_NNNNNNNNN@Z
	?PointOnCone@G4PolyconeSide@@IEAA_NAEBVHep3Vector@CLHEP@@N00AEAV23@@Z
	?PolygonArea@G4GeomTools@@SANAEBV?$vector@VHep2Vector@CLHEP@@V?$allocator@VHep2Vector@CLHEP@@@std@@@std@@@Z
	?PolygonAreaNormal@G4GeomTools@@SA?AVHep3Vector@CLHEP@@AEBV?$vector@VHep3Vector@CLHEP@@V?$allocator@VHep3Vector@CLHEP@@@std@@@std@@@Z
	?PostComputeStepLog@G4NavigationLogger@@QEBAXPEBVG4VSolid@@AEBVHep3Vector@CLHEP@@1NN@Z
	?PreComputeStepLog@G4NavigationLogger@@QEBAXPEBVG4VPhysicalVolume@@NAEBVHep3Vector@CLHEP@@@Z
	?PrecalculateInsides@G4TessellatedSolid@@AEAAXXZ
	?PrepareConstants@G4BogackiShampine45@@QEAAXXZ
	?PrepareConstants@G4FSALBogackiShampine45@@AEAAXXZ
	?PrepareNavigators@G4MultiNavigator@@QEAAXXZ
	?PrepareNewTrack@G4MultiNavigator@@QEAAXVHep3Vector@CLHEP@@0@Z
	?PrepareNewTrack@G4PathFinder@@QEAAXAEBVHep3Vector@CLHEP@@0PEAVG4VPhysicalVolume@@@Z
	?Print@G4NavigationHistoryPool@@QEBAXXZ
	?Print@G4ReduciblePolygon@@QEAAXXZ
	?Print@G4SurfBits@@QEBAXXZ
	?PrintCalls@G4HelixMixedStepper@@QEAAXXZ
	?PrintConstituentLVMap@G4ReflectionFactory@@AEAAXXZ
	?PrintDaughterLog@G4NavigationLogger@@QEBAXPEBVG4VSolid@@AEBVHep3Vector@CLHEP@@N_N1N@Z
	?PrintLimited@G4MultiNavigator@@IEAAXXZ
	?PrintLimited@G4PathFinder@@IEAAXXZ
	?PrintStat_Aux@G4MagInt_Driver@@IEAAXAEBVG4FieldTrack@@NNHNN@Z
	?PrintState@G4Navigator@@QEBAXXZ
	?PrintStatistics@?$G4ChordFinderDelegate@V?$G4FSALIntegrationDriver@VG4RK547FEq1@@@@@@AEAAXXZ
	?PrintStatistics@?$G4ChordFinderDelegate@V?$G4IntegrationDriver@VG4HelixHeum@@@@@@AEAAXXZ
	?PrintStatistics@?$G4ChordFinderDelegate@V?$G4IntegrationDriver@VG4MagIntegratorStepper@@@@@@AEAAXXZ
	?PrintStatistics@?$G4ChordFinderDelegate@VG4MagInt_Driver@@@@AEAAXXZ
	?PrintStatistics@G4BFieldIntegrationDriver@@QEBAXXZ
	?PrintStatistics@G4TrialsCounter@@QEAAXXZ
	?PrintStatisticsReport@G4MagInt_Driver@@IEAAXXZ
	?PrintStatus@G4MagInt_Driver@@IEAAXAEBVG4FieldTrack@@0NH@Z
	?PrintStatus@G4MagInt_Driver@@IEAAXPEBNN0NNH@Z
	?PrintStepLengthDiagnostic@G4PropagatorInField@@IEAAXNNNAEBVG4FieldTrack@@@Z
	?ProjectPoint@G4ExtrudedSolid@@AEBA?AVHep2Vector@CLHEP@@AEBVHep3Vector@3@@Z
	?ProjectPoint@G4TwistBoxSide@@AEAA?AVHep3Vector@CLHEP@@AEBV23@_N@Z
	?ProjectPoint@G4TwistTrapAlphaSide@@AEAA?AVHep3Vector@CLHEP@@AEBV23@_N@Z
	?ProjectPoint@G4TwistTrapParallelSide@@AEAA?AVHep3Vector@CLHEP@@AEBV23@_N@Z
	?PushPostSafetyToPreSafety@G4PathFinder@@QEAAXXZ
	?QuadArea@G4GeomTools@@SANAEBVHep2Vector@CLHEP@@000@Z
	?QuadAreaNormal@G4GeomTools@@SA?AVHep3Vector@CLHEP@@AEBV23@000@Z
	?QuickAdvance@?$G4FSALIntegrationDriver@VG4RK547FEq1@@@@UEAA_NAEAVG4FieldTrack@@QEBNNAEAN2@Z
	?QuickAdvance@?$G4IntegrationDriver@VG4HelixHeum@@@@UEAA_NAEAVG4FieldTrack@@QEBNNAEAN2@Z
	?QuickAdvance@?$G4IntegrationDriver@VG4MagIntegratorStepper@@@@UEAA_NAEAVG4FieldTrack@@QEBNNAEAN2@Z
	?QuickAdvance@G4MagInt_Driver@@QEAA_NAEAVG4FieldTrack@@QEBNNAEAN22@Z
	?QuickAdvance@G4MagInt_Driver@@UEAA_NAEAVG4FieldTrack@@QEBNNAEAN2@Z
	?QuickAdvance@G4VIntegrationDriver@@UEAA_NAEAVG4FieldTrack@@QEBNNAEAN2@Z
	?ReEstimateEndpoint@G4VIntersectionLocator@@IEAA?AVG4FieldTrack@@AEBV2@0NN@Z
	?ReLocate@G4PathFinder@@QEAAXAEBVHep3Vector@CLHEP@@@Z
	?ReLocateWithinVolume@G4SafetyHelper@@QEAAXAEBVHep3Vector@CLHEP@@@Z
	?ReSetParameters@?$G4RKIntegrationDriver@VG4DormandPrince745@@@@QEAAXN@Z
	?ReSetParameters@?$G4RKIntegrationDriver@VG4HelixHeum@@@@QEAAXN@Z
	?ReSetParameters@?$G4RKIntegrationDriver@VG4MagIntegratorStepper@@@@QEAAXN@Z
	?ReSetParameters@?$G4RKIntegrationDriver@VG4RK547FEq1@@@@QEAAXN@Z
	?RecheckDistanceToCurrentBoundary@G4Navigator@@UEBA_NAEBVHep3Vector@CLHEP@@0NPEAN1@Z
	?RecheckDistanceToCurrentBoundary@G4PathFinder@@QEBA_NAEBVHep3Vector@CLHEP@@0NPEAN1@Z
	?RecheckDistanceToCurrentBoundary@G4SafetyHelper@@QEBA_NAEBVHep3Vector@CLHEP@@0NPEAN1@Z
	?RecursiveOverlapTest@G4GeometryMessenger@@AEAAXXZ
	?RefineNodes@G4SmartVoxelHeader@@IEAAXPEAVG4LogicalVolume@@VG4VoxelLimits@@@Z
	?ReflectDaughters@G4ReflectionFactory@@AEAAXPEAVG4LogicalVolume@@0_N@Z
	?ReflectLV@G4ReflectionFactory@@AEAAPEAVG4LogicalVolume@@PEAV2@_N@Z
	?ReflectPVDivision@G4ReflectionFactory@@AEAAXPEAVG4VPhysicalVolume@@PEAVG4LogicalVolume@@@Z
	?ReflectPVParameterised@G4ReflectionFactory@@AEAAXPEAVG4VPhysicalVolume@@PEAVG4LogicalVolume@@_N@Z
	?ReflectPVPlacement@G4ReflectionFactory@@AEAAXPEAVG4VPhysicalVolume@@PEAVG4LogicalVolume@@_N@Z
	?ReflectPVReplica@G4ReflectionFactory@@AEAAXPEAVG4VPhysicalVolume@@PEAVG4LogicalVolume@@@Z
	?RefreshIntersectionLocator@G4PropagatorInField@@QEAAXXZ
	?Register@?$G4ThreadLocalSingleton@VG4RegularNavigationHelper@@@@AEBAXPEAVG4RegularNavigationHelper@@@Z
	?Register@?$G4ThreadLocalSingleton@VHep3Vector@CLHEP@@@@AEBAXPEAVHep3Vector@CLHEP@@@Z
	?Register@?$G4ThreadLocalSingleton@VHepRotation@CLHEP@@@@AEBAXPEAVHepRotation@CLHEP@@@Z
	?Register@G4AssemblyStore@@SAXPEAVG4AssemblyVolume@@@Z
	?Register@G4FieldManagerStore@@SAXPEAVG4FieldManager@@@Z
	?Register@G4LogicalVolumeStore@@SAXPEAVG4LogicalVolume@@@Z
	?Register@G4PhysicalVolumeStore@@SAXPEAVG4VPhysicalVolume@@@Z
	?Register@G4RegionStore@@SAXPEAVG4Region@@@Z
	?Register@G4SolidStore@@SAXPEAVG4VSolid@@@Z
	?RegisterWorld@G4TransportationManager@@QEAA_NPEAVG4VPhysicalVolume@@@Z
	?ReleaseWorkspace@G4GeometryWorkspace@@QEAAXXZ
	?ReleaseWorkspace@G4SolidsWorkspace@@QEAAXXZ
	?RelocateWithinVolume@G4VExternalNavigation@@UEAAXPEAVG4VPhysicalVolume@@AEBVHep3Vector@CLHEP@@@Z
	?RemoveDaughter@G4LogicalVolume@@QEAAXPEBVG4VPhysicalVolume@@@Z
	?RemoveDuplicateVertices@G4ReduciblePolygon@@QEAA_NN@Z
	?RemoveRedundantVertices@G4GeomTools@@SAXAEAV?$vector@VHep2Vector@CLHEP@@V?$allocator@VHep2Vector@CLHEP@@@std@@@std@@AEAV?$vector@HV?$allocator@H@std@@@3@N@Z
	?RemoveRedundantVertices@G4ReduciblePolygon@@QEAA_NN@Z
	?RemoveRootLogicalVolume@G4Region@@QEAAXPEAVG4LogicalVolume@@_N@Z
	?RenewStepperAndAdjust@?$G4RKIntegrationDriver@VG4DormandPrince745@@@@UEAAXPEAVG4MagIntegratorStepper@@@Z
	?RenewStepperAndAdjust@?$G4RKIntegrationDriver@VG4HelixHeum@@@@UEAAXPEAVG4MagIntegratorStepper@@@Z
	?RenewStepperAndAdjust@?$G4RKIntegrationDriver@VG4MagIntegratorStepper@@@@UEAAXPEAVG4MagIntegratorStepper@@@Z
	?RenewStepperAndAdjust@?$G4RKIntegrationDriver@VG4RK547FEq1@@@@UEAAXPEAVG4MagIntegratorStepper@@@Z
	?RenewStepperAndAdjust@G4MagInt_Driver@@UEAAXPEAVG4MagIntegratorStepper@@@Z
	?RenewStepperAndAdjust@G4VIntegrationDriver@@UEAAXPEAVG4MagIntegratorStepper@@@Z
	?RenewStepperAndAdjustImpl@?$G4RKIntegrationDriver@VG4DormandPrince745@@@@AEAAXPEAVG4DormandPrince745@@@Z
	?RenewStepperAndAdjustImpl@?$G4RKIntegrationDriver@VG4HelixHeum@@@@AEAAXPEAVG4HelixHeum@@@Z
	?RenewStepperAndAdjustImpl@?$G4RKIntegrationDriver@VG4MagIntegratorStepper@@@@AEAAXPEAVG4MagIntegratorStepper@@@Z
	?RenewStepperAndAdjustImpl@?$G4RKIntegrationDriver@VG4RK547FEq1@@@@AEAAXPEAVG4RK547FEq1@@@Z
	?ReorderVertices@G4GenericTrap@@AEBAXAEAV?$vector@VHep3Vector@CLHEP@@V?$allocator@VHep3Vector@CLHEP@@@std@@@std@@@Z
	?Replicate@G4ReflectionFactory@@QEAA?AU?$pair@PEAVG4VPhysicalVolume@@PEAV1@@std@@AEBVG4String@@PEAVG4LogicalVolume@@1W4EAxis@@HNN@Z
	?ReportFieldValue@G4MultiLevelLocator@@AEAAXAEBVG4FieldTrack@@PEBDPEBVG4EquationOfMotion@@@Z
	?ReportImmediateHit@G4VIntersectionLocator@@IEAAXPEBDAEBVHep3Vector@CLHEP@@1NK@Z
	?ReportLoopingParticle@G4PropagatorInField@@IEAAXHNNPEBDVHep3Vector@CLHEP@@PEAVG4VPhysicalVolume@@@Z
	?ReportMove@G4PathFinder@@IEBAXAEBVHep3Vector@CLHEP@@0AEBVG4String@@@Z
	?ReportOutsideMother@G4NavigationLogger@@QEBAXAEBVHep3Vector@CLHEP@@0PEBVG4VPhysicalVolume@@N@Z
	?ReportProgress@G4VIntersectionLocator@@IEAAXAEAV?$basic_ostream@DU?$char_traits@D@std@@@std@@AEBVG4FieldTrack@@1H11NH@Z
	?ReportReversedPoints@G4VIntersectionLocator@@IEAAXAEAV?$basic_ostringstream@DU?$char_traits@D@std@@V?$allocator@D@2@@std@@AEBVG4FieldTrack@@1NN111AEBVHep3Vector@CLHEP@@1HHH@Z
	?ReportStatistics@G4CachedMagneticField@@QEAAXXZ
	?ReportStatistics@G4MultiLevelLocator@@QEAAXXZ
	?ReportStuckParticle@G4PropagatorInField@@IEAAXHNNPEAVG4VPhysicalVolume@@@Z
	?ReportTolerances@G4AuxiliaryNavServices@@SAXXZ
	?ReportTrialStep@G4VIntersectionLocator@@IEAAXHAEBVHep3Vector@CLHEP@@000_N@Z
	?ReportVolumeAndIntersection@G4NavigationLogger@@QEBAXAEAV?$basic_ostream@DU?$char_traits@D@std@@@std@@AEBVHep3Vector@CLHEP@@1PEBVG4VPhysicalVolume@@@Z
	?ReportVoxelStats@G4GeometryManager@@CAXAEAV?$vector@VG4SmartVoxelStat@@V?$allocator@VG4SmartVoxelStat@@@std@@@std@@N@Z
	?ReserveBytes@G4SurfBits@@IEAAXI@Z
	?Reset@G4GenericPolycone@@QEAA_NXZ
	?Reset@G4NavigationHistoryPool@@AEAAXXZ
	?Reset@G4Polycone@@QEAA_NXZ
	?Reset@G4Polyhedra@@QEAA_NXZ
	?Reset@G4ReflectionFactory@@QEAAXXZ
	?ResetAllBits@G4SurfBits@@QEAAX_N@Z
	?ResetHierarchyAndLocate@G4MultiNavigator@@UEAAPEAVG4VPhysicalVolume@@AEBVHep3Vector@CLHEP@@0AEBVG4TouchableHistory@@@Z
	?ResetHierarchyAndLocate@G4Navigator@@UEAAPEAVG4VPhysicalVolume@@AEBVHep3Vector@CLHEP@@0AEBVG4TouchableHistory@@@Z
	?ResetMass@G4LogicalVolume@@QEAAXXZ
	?ResetNavigator@G4GeometryMessenger@@AEAAXXZ
	?ResetRegionModified@G4RegionStore@@QEAAXXZ
	?ResetState@G4MultiNavigator@@MEAAXXZ
	?ResetState@G4Navigator@@MEAAXXZ
	?ResetStepEstimate@?$G4ChordFinderDelegate@V?$G4FSALIntegrationDriver@VG4RK547FEq1@@@@@@QEAAXXZ
	?ResetStepEstimate@?$G4ChordFinderDelegate@V?$G4IntegrationDriver@VG4HelixHeum@@@@@@QEAAXXZ
	?ResetStepEstimate@?$G4ChordFinderDelegate@V?$G4IntegrationDriver@VG4MagIntegratorStepper@@@@@@QEAAXXZ
	?ResetStepEstimate@?$G4ChordFinderDelegate@VG4MagInt_Driver@@@@QEAAXXZ
	?ResetStorage@?$G4Allocator@V?$G4CountedObject@X@@@@UEAAXXZ
	?ResetStorage@?$G4Allocator@VG4NavigationLevelRep@@@@UEAAXXZ
	?ResetStorage@?$G4Allocator@VG4TouchableHistory@@@@UEAAXXZ
	?ResetfDone@CurrentStatus@G4VTwistSurface@@QEAAXW4EValidate@2@PEBVHep3Vector@CLHEP@@1@Z
	?RestoreSavedState@G4Navigator@@IEAAXXZ
	?ReturnTotals@G4TrialsCounter@@QEAAHAEAH00@Z
	?ReverseOrder@G4ReduciblePolygon@@QEAAXXZ
	?RightHandSide@G4MagIntegratorStepper@@QEBAXQEBNQEAN@Z
	?RightHandSide@G4VFSALIntegrationStepper@@QEAAXQEBNQEAN@Z
	?RightHandSideConst@G4ConstRK4@@QEBAXQEBNQEAN@Z
	?RotateToLattice@G4LogicalCrystalVolume@@QEBAAEBVHep3Vector@CLHEP@@AEAV23@@Z
	?RotateToSolid@G4LogicalCrystalVolume@@QEBAAEBVHep3Vector@CLHEP@@AEAV23@@Z
	?SafetyForVoxelHeader@G4VoxelSafety@@IEAANPEBVG4SmartVoxelHeader@@AEBVHep3Vector@CLHEP@@NAEBVG4VPhysicalVolume@@NN@Z
	?SafetyForVoxelNode@G4VoxelSafety@@IEAANPEBVG4SmartVoxelNode@@AEBVHep3Vector@CLHEP@@@Z
	?SafetyFromInside@G4TessellatedSolid@@UEBANAEBVHep3Vector@CLHEP@@_N@Z
	?SafetyFromOutside@G4TessellatedSolid@@UEBANAEBVHep3Vector@CLHEP@@_N@Z
	?SafetyFromOutsideNumberNode@G4MultiUnion@@AEBAHAEBVHep3Vector@CLHEP@@AEAN@Z
	?SafetyToFace@G4GenericTrap@@AEBANAEBVHep3Vector@CLHEP@@H@Z
	?ScaleA@G4ReduciblePolygon@@QEAAXN@Z
	?ScaleB@G4ReduciblePolygon@@QEAAXN@Z
	?ScanVolumeTree@G4Region@@QEAAXPEAVG4LogicalVolume@@_N@Z
	?SetAllParameters@G4Para@@QEAAXNNNNNN@Z
	?SetAllParameters@G4Torus@@QEAAXNNNNN@Z
	?SetAllParameters@G4Trap@@QEAAXNNNNNNNNNNN@Z
	?SetAllParameters@G4Trd@@QEAAXNNNNN@Z
	?SetAllUsingStack@G4TessellatedSolid@@AEAAHAEBV?$vector@HV?$allocator@H@std@@@std@@0_NAEAVG4SurfBits@@@Z
	?SetAreaAccuracy@G4VCSGfaceted@@QEAAXN@Z
	?SetAreaStatistics@G4VCSGfaceted@@QEAAXH@Z
	?SetBitNumber@G4SurfBits@@QEAAXI_N@Z
	?SetBoundaries@G4TwistBoxSide@@EEAAXXZ
	?SetBoundaries@G4TwistTrapAlphaSide@@EEAAXXZ
	?SetBoundaries@G4TwistTrapFlatSide@@EEAAXXZ
	?SetBoundaries@G4TwistTrapParallelSide@@EEAAXXZ
	?SetBoundaries@G4TwistTubsFlatSide@@EEAAXXZ
	?SetBoundaries@G4TwistTubsHypeSide@@EEAAXXZ
	?SetBoundaries@G4TwistTubsSide@@EEAAXXZ
	?SetBoundary@G4VTwistSurface@@MEAAXAEBHAEBVHep3Vector@CLHEP@@10@Z
	?SetBoundingBoxVisAttributes@G4DrawVoxels@@QEAAXAEAVG4VisAttributes@@@Z
	?SetChargeAndMoments@G4FieldTrack@@QEAAXNNNN@Z
	?SetChargeMomentumMass@G4EqEMFieldWithEDM@@UEAAXVG4ChargeState@@NN@Z
	?SetChargeMomentumMass@G4EqEMFieldWithSpin@@UEAAXVG4ChargeState@@NN@Z
	?SetChargeMomentumMass@G4EqGravityField@@UEAAXVG4ChargeState@@NN@Z
	?SetChargeMomentumMass@G4EqMagElectricField@@UEAAXVG4ChargeState@@NN@Z
	?SetChargeMomentumMass@G4Mag_EqRhs@@UEAAXVG4ChargeState@@NN@Z
	?SetChargeMomentumMass@G4Mag_SpinEqRhs@@UEAAXVG4ChargeState@@NN@Z
	?SetChargeMomentumMass@G4Mag_UsualEqRhs@@UEAAXVG4ChargeState@@NN@Z
	?SetChargeMomentumMass@G4MonopoleEq@@UEAAXVG4ChargeState@@NN@Z
	?SetChargeMomentumMass@G4RepleteEofM@@UEAAXVG4ChargeState@@NN@Z
	?SetChargeSpinMoments@G4ChargeState@@QEAAXNNNNN@Z
	?SetCheckMode@G4GeometryMessenger@@AEAAXVG4String@@@Z
	?SetCopyNo@G4PVDivision@@UEAAXH@Z
	?SetCopyNo@G4PVPlacement@@UEAAXH@Z
	?SetCopyNo@G4PVReplica@@UEAAXH@Z
	?SetCopyNo@G4ReplicatedSlice@@UEAAXH@Z
	?SetCorner@G4VTwistSurface@@IEAAXHNNN@Z
	?SetCorners@G4TwistBoxSide@@EEAAXXZ
	?SetCorners@G4TwistTrapAlphaSide@@EEAAXXZ
	?SetCorners@G4TwistTrapFlatSide@@EEAAXXZ
	?SetCorners@G4TwistTrapParallelSide@@EEAAXXZ
	?SetCorners@G4TwistTubsFlatSide@@EEAAXXZ
	?SetCorners@G4TwistTubsHypeSide@@EEAAXQEAN0N00@Z
	?SetCorners@G4TwistTubsHypeSide@@EEAAXXZ
	?SetCorners@G4TwistTubsSide@@EEAAXQEAN000@Z
	?SetCorners@G4TwistTubsSide@@EEAAXXZ
	?SetCubVolEpsilon@G4VCSGfaceted@@QEAAXN@Z
	?SetCubVolStatistics@G4VCSGfaceted@@QEAAXH@Z
	?SetCurrentStatus@CurrentStatus@G4VTwistSurface@@QEAAXHAEAVHep3Vector@CLHEP@@AEANAEAHAEA_NHW4EValidate@2@PEBV34@5@Z
	?SetDefaultVoxelsCount@G4Voxelizer@@SAXH@Z
	?SetDeltaPhiAngle@G4Tubs@@QEAAXN@Z
	?SetDetectorField@G4FieldManager@@QEAA_NPEAVG4Field@@H@Z
	?SetDirectTransform3D@G4ReflectedSolid@@QEAAXAEAVTransform3D@HepGeom@@@Z
	?SetDirectTransform@G4DisplacedSolid@@QEAAXAEAVG4AffineTransform@@@Z
	?SetDistanceForConstantField@G4NystromRK4@@QEAAXN@Z
	?SetEquationOfMotion@?$G4RKIntegrationDriver@VG4DormandPrince745@@@@UEAAXPEAVG4EquationOfMotion@@@Z
	?SetEquationOfMotion@?$G4RKIntegrationDriver@VG4HelixHeum@@@@UEAAXPEAVG4EquationOfMotion@@@Z
	?SetEquationOfMotion@?$G4RKIntegrationDriver@VG4MagIntegratorStepper@@@@UEAAXPEAVG4EquationOfMotion@@@Z
	?SetEquationOfMotion@?$G4RKIntegrationDriver@VG4RK547FEq1@@@@UEAAXPEAVG4EquationOfMotion@@@Z
	?SetEquationOfMotion@G4BFieldIntegrationDriver@@UEAAXPEAVG4EquationOfMotion@@@Z
	?SetEquationOfMotion@G4MagInt_Driver@@UEAAXPEAVG4EquationOfMotion@@@Z
	?SetErrorsThreshold@G4GeomTestVolume@@QEAAXH@Z
	?SetExtremeFacets@G4TessellatedSolid@@AEAAXXZ
	?SetFastSimulationManager@G4Region@@QEAAXPEAVG4FastSimulationManager@@@Z
	?SetField@G4GlobalMagFieldMessenger@@AEAAXAEBVHep3Vector@CLHEP@@AEBVG4String@@@Z
	?SetFieldManager@G4LogicalVolume@@QEAAXPEAVG4FieldManager@@_N@Z
	?SetFieldManager@G4TransportationManager@@QEAAXPEAVG4FieldManager@@@Z
	?SetFieldValue@G4GlobalMagFieldMessenger@@QEAAXAEBVHep3Vector@CLHEP@@@Z
	?SetFieldValue@G4UniformMagField@@QEAAXAEBVHep3Vector@CLHEP@@@Z
	?SetFields@Boundary@G4VTwistSurface@@QEAAXAEBHAEBVHep3Vector@CLHEP@@10@Z
	?SetFields@G4TwistedTubs@@AEAAXNNNNN@Z
	?SetFirstEntry@G4NavigationHistory@@QEAAXPEAVG4VPhysicalVolume@@@Z
	?SetFirstTrackingNavigator@G4TransportationManager@@SAXPEAVG4Navigator@@@Z
	?SetFrameRotation@G4DisplacedSolid@@QEAAXAEBVHepRotation@CLHEP@@@Z
	?SetFrameTranslation@G4DisplacedSolid@@QEAAXAEBVHep3Vector@CLHEP@@@Z
	?SetGeneralUpperEnergyBounds@G4WeightWindowStore@@QEAAXAEBV?$set@NU?$less@N@std@@V?$allocator@N@2@@std@@@Z
	?SetGuidance@G4UIcommand@@QEAAXPEBD@Z
	?SetInnerRadius@G4Tubs@@QEAAXN@Z
	?SetInternalIterator@G4IStore@@AEBAXAEBVG4GeometryCell@@@Z
	?SetInternalIterator@G4WeightWindowStore@@AEBAXAEBVG4GeometryCell@@@Z
	?SetMany@G4VExternalPhysicalVolume@@QEAAX_N@Z
	?SetMaterial@G4LogicalVolume@@QEAAXPEAVG4Material@@@Z
	?SetMaterialCutsCouple@G4LogicalVolume@@QEAAXPEAVG4MaterialCutsCouple@@@Z
	?SetMaxVoxels@G4Voxelizer@@QEAAXAEBVHep3Vector@CLHEP@@@Z
	?SetMaxVoxels@G4Voxelizer@@QEAAXH@Z
	?SetMillerOrientation@G4LogicalCrystalVolume@@QEAAXHHHN@Z
	?SetNavigatorForTracking@G4TransportationManager@@QEAAXPEAVG4Navigator@@@Z
	?SetNewValue@G4GeometryMessenger@@UEAAXPEAVG4UIcommand@@VG4String@@@Z
	?SetNewValue@G4GlobalMagFieldMessenger@@UEAAXPEAVG4UIcommand@@VG4String@@@Z
	?SetNotifier@G4AssemblyStore@@SAXPEAVG4VNotifier@@@Z
	?SetNotifier@G4LogicalVolumeStore@@SAXPEAVG4VNotifier@@@Z
	?SetNotifier@G4PhysicalVolumeStore@@SAXPEAVG4VNotifier@@@Z
	?SetNotifier@G4RegionStore@@SAXPEAVG4VNotifier@@@Z
	?SetNotifier@G4SolidStore@@SAXPEAVG4VNotifier@@@Z
	?SetObjectRotation@G4DisplacedSolid@@QEAAXAEBVHepRotation@CLHEP@@@Z
	?SetObjectTranslation@G4DisplacedSolid@@QEAAXAEBVHep3Vector@CLHEP@@@Z
	?SetOriginalParameters@G4Polycone@@IEAA_NPEAVG4ReduciblePolygon@@@Z
	?SetOriginalParameters@G4Polyhedra@@IEAAXPEAVG4ReduciblePolygon@@@Z
	?SetOuterRadius@G4Tubs@@QEAAXN@Z
	?SetParallelWorldVolume@G4IStore@@QEAAXAEBVG4String@@@Z
	?SetParallelWorldVolume@G4WeightWindowStore@@QEAAXAEBVG4String@@@Z
	?SetParameterisation@G4PVDivision@@AEAAXPEAVG4LogicalVolume@@W4EAxis@@HNNW4DivisionType@@@Z
	?SetParameterisation@G4ReplicatedSlice@@AEAAXPEAVG4LogicalVolume@@W4EAxis@@HNNNW4DivisionType@@@Z
	?SetPushFlag@G4GeometryMessenger@@AEAAXVG4String@@@Z
	?SetRandomVectors@G4TessellatedSolid@@AEAAXXZ
	?SetReductionRatio@G4Voxelizer@@AEAAXHAEAVHep3Vector@CLHEP@@@Z
	?SetRegionalSteppingAction@G4Region@@QEAAXPEAVG4UserSteppingAction@@@Z
	?SetRegularStructureId@G4PVParameterised@@UEAAXH@Z
	?SetRegularStructureId@G4PVReplica@@UEAAXH@Z
	?SetResolution@G4GeomTestVolume@@QEAAXH@Z
	?SetRotation@G4VPhysicalVolume@@QEAAXPEAVHepRotation@CLHEP@@@Z
	?SetSavedState@G4Navigator@@IEAAXXZ
	?SetScalePrecision@G4ReflectionFactory@@QEAAXN@Z
	?SetScaleTransform@G4ScaledSolid@@QEAAXAEBVScale3D@HepGeom@@@Z
	?SetSensitiveDetector@G4LogicalVolume@@QEAAXPEAVG4VSensitiveDetector@@@Z
	?SetSmallestFraction@G4MagInt_Driver@@QEAAXN@Z
	?SetSolid@G4LogicalVolume@@QEAAXPEAVG4VSolid@@@Z
	?SetSolid@G4LogicalVolume@@SAXAEAVG4LVData@@PEAVG4VSolid@@@Z
	?SetSolidClosed@G4TessellatedSolid@@QEAAX_N@Z
	?SetSurfaceNormal@G4TriangularFacet@@QEAAXVHep3Vector@CLHEP@@@Z
	?SetTolerance@G4GeomTestVolume@@QEAAXN@Z
	?SetTrajectoryFilter@G4PropagatorInField@@QEAAXPEAVG4VCurvedTrajectoryFilter@@@Z
	?SetTransform@G4DisplacedSolid@@QEAAXAEAVG4AffineTransform@@@Z
	?SetTranslation@G4VPhysicalVolume@@QEAAXAEBVHep3Vector@CLHEP@@@Z
	?SetVerboseLevel@?$G4FSALIntegrationDriver@VG4RK547FEq1@@@@UEAAXH@Z
	?SetVerboseLevel@?$G4IntegrationDriver@VG4HelixHeum@@@@UEAAXH@Z
	?SetVerboseLevel@?$G4IntegrationDriver@VG4MagIntegratorStepper@@@@UEAAXH@Z
	?SetVerboseLevel@?$G4InterpolationDriver@VG4DormandPrince745@@@@UEAAXH@Z
	?SetVerboseLevel@G4BFieldIntegrationDriver@@UEAAXH@Z
	?SetVerboseLevel@G4MagInt_Driver@@UEAAXH@Z
	?SetVerboseLevel@G4NormalNavigation@@QEAAXH@Z
	?SetVerboseLevel@G4PropagatorInField@@QEAAHH@Z
	?SetVerboseLevel@G4ReflectionFactory@@QEAAXH@Z
	?SetVerboseLevel@G4VoxelNavigation@@QEAAXH@Z
	?SetVerbosity@G4GeomTestVolume@@QEAAX_N@Z
	?SetVerbosity@G4GeometryMessenger@@AEAAXVG4String@@@Z
	?SetVertex@G4QuadrangularFacet@@UEAAXHAEBVHep3Vector@CLHEP@@@Z
	?SetVertex@G4TriangularFacet@@UEAAXHAEBVHep3Vector@CLHEP@@@Z
	?SetVertexIndex@G4QuadrangularFacet@@EEAAXHH@Z
	?SetVertexIndex@G4TriangularFacet@@UEAAXHH@Z
	?SetVertices@G4QuadrangularFacet@@UEAAXPEAV?$vector@VHep3Vector@CLHEP@@V?$allocator@VHep3Vector@CLHEP@@@std@@@std@@@Z
	?SetVertices@G4TriangularFacet@@UEAAXPEAV?$vector@VHep3Vector@CLHEP@@V?$allocator@VHep3Vector@CLHEP@@@std@@@std@@@Z
	?SetVisAttributes@G4LogicalVolume@@QEAAXAEBVG4VisAttributes@@@Z
	?SetVolumesNameExtension@G4ReflectionFactory@@QEAAXAEBVG4String@@@Z
	?SetVoxelsVisAttributes@G4DrawVoxels@@QEAAXAEAVG4VisAttributes@@00@Z
	?SetWorld@G4Region@@QEAAXPEAVG4VPhysicalVolume@@@Z
	?SetWorldMaximumExtent@G4GeometryManager@@QEAAXN@Z
	?SetWorldVolume@G4IStore@@QEAAXXZ
	?SetWorldVolume@G4Navigator@@QEAAXPEAVG4VPhysicalVolume@@@Z
	?SetWorldVolume@G4RegionStore@@QEAAXXZ
	?SetWorldVolume@G4WeightWindowStore@@QEAAXXZ
	?SetXHalfLength@G4Box@@QEAAXN@Z
	?SetYHalfLength@G4Box@@QEAAXN@Z
	?SetZCuts@G4Ellipsoid@@QEAAXNN@Z
	?SetZHalfLength@G4Box@@QEAAXN@Z
	?SetZHalfLength@G4Tubs@@QEAAXN@Z
	?SetupHierarchy@G4MultiNavigator@@MEAAXXZ
	?SetupHierarchy@G4Navigator@@MEAAXXZ
	?SetupInterpolate@G4DoLoMcPriRK34@@QEAAXQEBN0N@Z
	?SetupInterpolate@G4FSALDormandPrince745@@QEAAXQEBN0N@Z
	?SetupInterpolate_high@G4DormandPrinceRK56@@QEAAXQEBN0N@Z
	?SetupInterpolate_low@G4DormandPrinceRK56@@QEAAXQEBN0N@Z
	?SetupInterpolation5thOrder@G4DormandPrince745@@QEAAXXZ
	?SetupInterpolation@G4DoLoMcPriRK34@@QEAAXXZ
	?SetupInterpolation@G4TsitourasRK45@@QEAAXXZ
	?SetupInterpolationHigh@G4BogackiShampine45@@QEAAXXZ
	?SetupStepper@G4HelixMixedStepper@@QEAAPEAVG4MagIntegratorStepper@@PEAVG4Mag_EqRhs@@H@Z
	?ShouldMiss@G4EnclosingCylinder@@QEBA_NAEBVHep3Vector@CLHEP@@0@Z
	?ShrinkStepSize2@?$G4RKIntegrationDriver@VG4DormandPrince745@@@@IEBANNN@Z
	?ShrinkStepSize2@?$G4RKIntegrationDriver@VG4HelixHeum@@@@IEBANNN@Z
	?ShrinkStepSize2@?$G4RKIntegrationDriver@VG4MagIntegratorStepper@@@@IEBANNN@Z
	?ShrinkStepSize2@?$G4RKIntegrationDriver@VG4RK547FEq1@@@@IEBANNN@Z
	?ShrinkStepSize@?$G4RKIntegrationDriver@VG4DormandPrince745@@@@IEBANNN@Z
	?ShrinkStepSize@?$G4RKIntegrationDriver@VG4HelixHeum@@@@IEBANNN@Z
	?ShrinkStepSize@?$G4RKIntegrationDriver@VG4MagIntegratorStepper@@@@IEBANNN@Z
	?ShrinkStepSize@?$G4RKIntegrationDriver@VG4RK547FEq1@@@@IEBANNN@Z
	?SolveNumericJT@G4Torus@@AEBANAEBVHep3Vector@CLHEP@@0N_N@Z
	?SphereExtent@G4GeomTools@@SA_NNNNNNNAEAVHep3Vector@CLHEP@@0@Z
	?StackPolyhedron@G4BooleanSolid@@IEBAPEAVG4Polyhedron@@AEAVHepPolyhedronProcessor@@PEBVG4VSolid@@@Z
	?StartWithZMin@G4ReduciblePolygon@@QEAAXXZ
	?StepNoErr@G4RKG3_Stepper@@QEAAXQEBN0NQEAN1@Z
	?StepWithEst@G4CashKarpRKF45@@AEAAXQEBN0NQEANAEAN201@Z
	?StepWithEst@G4ClassicalRK4@@AEAAXQEBN0NQEANAEAN201@Z
	?StepWithEst@G4RKG3_Stepper@@QEAAXQEBN0NQEANAEAN201@Z
	?Stepper@G4BogackiShampine23@@QEAAXQEBN0NQEAN11@Z
	?Stepper@G4BogackiShampine23@@UEAAXQEBN0NQEAN1@Z
	?Stepper@G4BogackiShampine45@@UEAAXQEBN0NQEAN1@Z
	?Stepper@G4CashKarpRKF45@@UEAAXQEBN0NQEAN1@Z
	?Stepper@G4ConstRK4@@UEAAXQEBN0NQEAN1@Z
	?Stepper@G4DoLoMcPriRK34@@UEAAXQEBN0NQEAN1@Z
	?Stepper@G4DormandPrince745@@QEAAXQEBN0NQEAN11@Z
	?Stepper@G4DormandPrince745@@UEAAXQEBN0NQEAN1@Z
	?Stepper@G4DormandPrinceRK56@@UEAAXQEBN0NQEAN1@Z
	?Stepper@G4DormandPrinceRK78@@UEAAXQEBN0NQEAN1@Z
	?Stepper@G4ExactHelixStepper@@UEAAXQEBN0NQEAN1@Z
	?Stepper@G4FSALBogackiShampine45@@UEAAXQEBN0NQEAN11@Z
	?Stepper@G4FSALDormandPrince745@@UEAAXQEBN0NQEAN11@Z
	?Stepper@G4HelixExplicitEuler@@UEAAXQEBNPEBNNQEAN2@Z
	?Stepper@G4HelixMixedStepper@@UEAAXQEBN0NQEAN1@Z
	?Stepper@G4MagErrorStepper@@UEAAXQEBN0NQEAN1@Z
	?Stepper@G4MagHelicalStepper@@UEAAXQEBN0NQEAN1@Z
	?Stepper@G4NystromRK4@@UEAAXQEBN0NQEAN1@Z
	?Stepper@G4RK547FEq1@@QEAAXQEBN0NQEAN11@Z
	?Stepper@G4RK547FEq1@@UEAAXQEBN0NQEAN1@Z
	?Stepper@G4RK547FEq2@@QEAAXQEBN0NQEAN11@Z
	?Stepper@G4RK547FEq2@@UEAAXQEBN0NQEAN1@Z
	?Stepper@G4RK547FEq3@@QEAAXQEBN0NQEAN11@Z
	?Stepper@G4RK547FEq3@@UEAAXQEBN0NQEAN1@Z
	?Stepper@G4RKG3_Stepper@@UEAAXQEBN0NQEAN1@Z
	?Stepper@G4TsitourasRK45@@UEAAXQEBN0NQEAN1@Z
	?StreamInfo@G4BooleanSolid@@UEBAAEAV?$basic_ostream@DU?$char_traits@D@std@@@std@@AEAV23@@Z
	?StreamInfo@G4Box@@UEBAAEAV?$basic_ostream@DU?$char_traits@D@std@@@std@@AEAV23@@Z
	?StreamInfo@G4CSGSolid@@UEBAAEAV?$basic_ostream@DU?$char_traits@D@std@@@std@@AEAV23@@Z
	?StreamInfo@G4Cons@@UEBAAEAV?$basic_ostream@DU?$char_traits@D@std@@@std@@AEAV23@@Z
	?StreamInfo@G4CutTubs@@UEBAAEAV?$basic_ostream@DU?$char_traits@D@std@@@std@@AEAV23@@Z
	?StreamInfo@G4DisplacedSolid@@UEBAAEAV?$basic_ostream@DU?$char_traits@D@std@@@std@@AEAV23@@Z
	?StreamInfo@G4Ellipsoid@@UEBAAEAV?$basic_ostream@DU?$char_traits@D@std@@@std@@AEAV23@@Z
	?StreamInfo@G4EllipticalCone@@UEBAAEAV?$basic_ostream@DU?$char_traits@D@std@@@std@@AEAV23@@Z
	?StreamInfo@G4EllipticalTube@@UEBAAEAV?$basic_ostream@DU?$char_traits@D@std@@@std@@AEAV23@@Z
	?StreamInfo@G4ExtrudedSolid@@UEBAAEAV?$basic_ostream@DU?$char_traits@D@std@@@std@@AEAV23@@Z
	?StreamInfo@G4GenericPolycone@@UEBAAEAV?$basic_ostream@DU?$char_traits@D@std@@@std@@AEAV23@@Z
	?StreamInfo@G4GenericTrap@@UEBAAEAV?$basic_ostream@DU?$char_traits@D@std@@@std@@AEAV23@@Z
	?StreamInfo@G4Hype@@UEBAAEAV?$basic_ostream@DU?$char_traits@D@std@@@std@@AEAV23@@Z
	?StreamInfo@G4MultiUnion@@UEBAAEAV?$basic_ostream@DU?$char_traits@D@std@@@std@@AEAV23@@Z
	?StreamInfo@G4Orb@@UEBAAEAV?$basic_ostream@DU?$char_traits@D@std@@@std@@AEAV23@@Z
	?StreamInfo@G4Para@@UEBAAEAV?$basic_ostream@DU?$char_traits@D@std@@@std@@AEAV23@@Z
	?StreamInfo@G4Paraboloid@@UEBAAEAV?$basic_ostream@DU?$char_traits@D@std@@@std@@AEAV23@@Z
	?StreamInfo@G4Polycone@@UEBAAEAV?$basic_ostream@DU?$char_traits@D@std@@@std@@AEAV23@@Z
	?StreamInfo@G4Polyhedra@@UEBAAEAV?$basic_ostream@DU?$char_traits@D@std@@@std@@AEAV23@@Z
	?StreamInfo@G4ReflectedSolid@@UEBAAEAV?$basic_ostream@DU?$char_traits@D@std@@@std@@AEAV23@@Z
	?StreamInfo@G4ScaledSolid@@UEBAAEAV?$basic_ostream@DU?$char_traits@D@std@@@std@@AEAV23@@Z
	?StreamInfo@G4Sphere@@UEBAAEAV?$basic_ostream@DU?$char_traits@D@std@@@std@@AEAV23@@Z
	?StreamInfo@G4TessellatedSolid@@UEBAAEAV?$basic_ostream@DU?$char_traits@D@std@@@std@@AEAV23@@Z
	?StreamInfo@G4Tet@@UEBAAEAV?$basic_ostream@DU?$char_traits@D@std@@@std@@AEAV23@@Z
	?StreamInfo@G4Torus@@UEBAAEAV?$basic_ostream@DU?$char_traits@D@std@@@std@@AEAV23@@Z
	?StreamInfo@G4Trap@@UEBAAEAV?$basic_ostream@DU?$char_traits@D@std@@@std@@AEAV23@@Z
	?StreamInfo@G4Trd@@UEBAAEAV?$basic_ostream@DU?$char_traits@D@std@@@std@@AEAV23@@Z
	?StreamInfo@G4Tubs@@UEBAAEAV?$basic_ostream@DU?$char_traits@D@std@@@std@@AEAV23@@Z
	?StreamInfo@G4TwistedBox@@UEBAAEAV?$basic_ostream@DU?$char_traits@D@std@@@std@@AEAV23@@Z
	?StreamInfo@G4TwistedTrap@@UEBAAEAV?$basic_ostream@DU?$char_traits@D@std@@@std@@AEAV23@@Z
	?StreamInfo@G4TwistedTrd@@UEBAAEAV?$basic_ostream@DU?$char_traits@D@std@@@std@@AEAV23@@Z
	?StreamInfo@G4TwistedTubs@@UEBAAEAV?$basic_ostream@DU?$char_traits@D@std@@@std@@AEAV23@@Z
	?StreamInfo@G4VCSGfaceted@@UEBAAEAV?$basic_ostream@DU?$char_traits@D@std@@@std@@AEAV23@@Z
	?StreamInfo@G4VFacet@@QEBAAEAV?$basic_ostream@DU?$char_traits@D@std@@@std@@AEAV23@@Z
	?StreamInfo@G4VTwistedFaceted@@UEBAAEAV?$basic_ostream@DU?$char_traits@D@std@@@std@@AEAV23@@Z
	?SurfaceArea@G4PolyPhiFace@@UEAANXZ
	?SurfaceArea@G4PolyconeSide@@UEAANXZ
	?SurfaceArea@G4PolyhedraSide@@UEAANXZ
	?SurfaceNormal@G4Box@@UEBA?AVHep3Vector@CLHEP@@AEBV23@@Z
	?SurfaceNormal@G4Cons@@UEBA?AVHep3Vector@CLHEP@@AEBV23@@Z
	?SurfaceNormal@G4CutTubs@@UEBA?AVHep3Vector@CLHEP@@AEBV23@@Z
	?SurfaceNormal@G4DisplacedSolid@@UEBA?AVHep3Vector@CLHEP@@AEBV23@@Z
	?SurfaceNormal@G4Ellipsoid@@UEBA?AVHep3Vector@CLHEP@@AEBV23@@Z
	?SurfaceNormal@G4EllipticalCone@@UEBA?AVHep3Vector@CLHEP@@AEBV23@@Z
	?SurfaceNormal@G4EllipticalTube@@UEBA?AVHep3Vector@CLHEP@@AEBV23@@Z
	?SurfaceNormal@G4ExtrudedSolid@@UEBA?AVHep3Vector@CLHEP@@AEBV23@@Z
	?SurfaceNormal@G4GenericTrap@@UEBA?AVHep3Vector@CLHEP@@AEBV23@@Z
	?SurfaceNormal@G4Hype@@UEBA?AVHep3Vector@CLHEP@@AEBV23@@Z
	?SurfaceNormal@G4IntersectionSolid@@UEBA?AVHep3Vector@CLHEP@@AEBV23@@Z
	?SurfaceNormal@G4MultiUnion@@UEBA?AVHep3Vector@CLHEP@@AEBV23@@Z
	?SurfaceNormal@G4Orb@@UEBA?AVHep3Vector@CLHEP@@AEBV23@@Z
	?SurfaceNormal@G4Para@@UEBA?AVHep3Vector@CLHEP@@AEBV23@@Z
	?SurfaceNormal@G4Paraboloid@@UEBA?AVHep3Vector@CLHEP@@AEBV23@@Z
	?SurfaceNormal@G4ReflectedSolid@@UEBA?AVHep3Vector@CLHEP@@AEBV23@@Z
	?SurfaceNormal@G4ScaledSolid@@UEBA?AVHep3Vector@CLHEP@@AEBV23@@Z
	?SurfaceNormal@G4Sphere@@UEBA?AVHep3Vector@CLHEP@@AEBV23@@Z
	?SurfaceNormal@G4SubtractionSolid@@UEBA?AVHep3Vector@CLHEP@@AEBV23@@Z
	?SurfaceNormal@G4TessellatedSolid@@UEBA?AVHep3Vector@CLHEP@@AEBV23@@Z
	?SurfaceNormal@G4Tet@@UEBA?AVHep3Vector@CLHEP@@AEBV23@@Z
	?SurfaceNormal@G4Torus@@UEBA?AVHep3Vector@CLHEP@@AEBV23@@Z
	?SurfaceNormal@G4Trap@@UEBA?AVHep3Vector@CLHEP@@AEBV23@@Z
	?SurfaceNormal@G4Trd@@UEBA?AVHep3Vector@CLHEP@@AEBV23@@Z
	?SurfaceNormal@G4Tubs@@UEBA?AVHep3Vector@CLHEP@@AEBV23@@Z
	?SurfaceNormal@G4TwistedTubs@@UEBA?AVHep3Vector@CLHEP@@AEBV23@@Z
	?SurfaceNormal@G4UnionSolid@@UEBA?AVHep3Vector@CLHEP@@AEBV23@@Z
	?SurfaceNormal@G4VCSGfaceted@@UEBA?AVHep3Vector@CLHEP@@AEBV23@@Z
	?SurfaceNormal@G4VTwistedFaceted@@UEBA?AVHep3Vector@CLHEP@@AEBV23@@Z
	?SurfacePoint@G4TwistBoxSide@@EEAA?AVHep3Vector@CLHEP@@NN_N@Z
	?SurfacePoint@G4TwistTrapAlphaSide@@EEAA?AVHep3Vector@CLHEP@@NN_N@Z
	?SurfacePoint@G4TwistTrapFlatSide@@UEAA?AVHep3Vector@CLHEP@@NN_N@Z
	?SurfacePoint@G4TwistTrapParallelSide@@EEAA?AVHep3Vector@CLHEP@@NN_N@Z
	?SurfacePoint@G4TwistTubsFlatSide@@UEAA?AVHep3Vector@CLHEP@@NN_N@Z
	?SurfacePoint@G4TwistTubsHypeSide@@UEAA?AVHep3Vector@CLHEP@@NN_N@Z
	?SurfacePoint@G4TwistTubsSide@@UEAA?AVHep3Vector@CLHEP@@NN_N@Z
	?SurfaceTriangle@G4PolyPhiFace@@QEAANVHep3Vector@CLHEP@@00PEAV23@@Z
	?SurfaceTriangle@G4PolyhedraSide@@QEAANVHep3Vector@CLHEP@@00PEAV23@@Z
	?TakeIntermediatePoint@G4IdentityTrajectoryFilter@@UEAAXVHep3Vector@CLHEP@@@Z
	?TargetReached@G4ErrorTarget@@UEAA_NPEBVG4Step@@@Z
	?TargetSafetyFromPoint@G4ErrorPropagationNavigator@@QEAANAEBVHep3Vector@CLHEP@@@Z
	?TerminateWorker@G4LogicalVolume@@QEAAXPEAV1@@Z
	?TerminateWorker@G4PVReplica@@QEAAXPEAV1@@Z
	?TerminateWorker@G4VPhysicalVolume@@IEAAXPEAV1@@Z
	?TestRecursiveOverlap@G4GeomTestVolume@@QEAAXHH@Z
	?TorusRootsJT@G4Torus@@AEBAXAEBVHep3Vector@CLHEP@@0NAEAV?$vector@NV?$allocator@N@std@@@std@@@Z
	?TotalVolumeEntities@G4LogicalVolume@@QEBAHXZ
	?TransformLimits@G4MultiUnion@@AEBAXAEAVHep3Vector@CLHEP@@0AEBVTransform3D@HepGeom@@@Z
	?TransformLimits@G4Voxelizer@@AEBAXAEAVHep3Vector@CLHEP@@0AEBVTransform3D@HepGeom@@@Z
	?TransformVertices@G4BoundingEnvelope@@AEBAXAEBVTransform3D@HepGeom@@AEAV?$vector@PEAV?$vector@V?$Point3D@N@HepGeom@@V?$allocator@V?$Point3D@N@HepGeom@@@std@@@std@@V?$allocator@PEAV?$vector@V?$Point3D@N@HepGeom@@V?$allocator@V?$Point3D@N@HepGeom@@@std@@@std@@@2@@std@@@Z
	?TriangleArea@G4GeomTools@@SANAEBVHep2Vector@CLHEP@@00@Z
	?TriangleArea@G4GeomTools@@SANNNNNNN@Z
	?TriangleAreaNormal@G4GeomTools@@SA?AVHep3Vector@CLHEP@@AEBV23@00@Z
	?Triangulate@G4PolyPhiFace@@IEAAXXZ
	?TriangulatePolygon@G4GeomTools@@SA_NAEBV?$vector@VHep2Vector@CLHEP@@V?$allocator@VHep2Vector@CLHEP@@@std@@@std@@AEAV23@@Z
	?TriangulatePolygon@G4GeomTools@@SA_NAEBV?$vector@VHep2Vector@CLHEP@@V?$allocator@VHep2Vector@CLHEP@@@std@@@std@@AEAV?$vector@HV?$allocator@H@std@@@3@@Z
	?UpdateCurrentVoxel@G4Voxelizer@@QEBA_NAEBVHep3Vector@CLHEP@@0AEAV?$vector@HV?$allocator@H@std@@@std@@@Z
	?UpdateErrorConstraints@?$G4RKIntegrationDriver@VG4DormandPrince745@@@@IEAAXXZ
	?UpdateErrorConstraints@?$G4RKIntegrationDriver@VG4HelixHeum@@@@IEAAXXZ
	?UpdateErrorConstraints@?$G4RKIntegrationDriver@VG4MagIntegratorStepper@@@@IEAAXXZ
	?UpdateErrorConstraints@?$G4RKIntegrationDriver@VG4RK547FEq1@@@@IEAAXXZ
	?UpdateMaterial@G4LogicalVolume@@QEAAXPEAVG4Material@@@Z
	?UpdateMaterialList@G4Region@@QEAAXXZ
	?UpdateMaterialList@G4RegionStore@@QEAAXPEAVG4VPhysicalVolume@@@Z
	?UpdateYourself@G4TouchableHistory@@UEAAXPEAVG4VPhysicalVolume@@PEBVG4NavigationHistory@@@Z
	?UpdateYourself@G4VTouchable@@UEAAXPEAVG4VPhysicalVolume@@PEBVG4NavigationHistory@@@Z
	?UseWorkspace@G4GeometryWorkspace@@QEAAXXZ
	?UseWorkspace@G4SolidsWorkspace@@QEAAXXZ
	?VolumeType@G4PVDivision@@UEBA?AW4EVolume@@XZ
	?VolumeType@G4PVParameterised@@UEBA?AW4EVolume@@XZ
	?VolumeType@G4PVPlacement@@UEBA?AW4EVolume@@XZ
	?VolumeType@G4PVReplica@@UEBA?AW4EVolume@@XZ
	?VolumeType@G4ReplicatedSlice@@UEBA?AW4EVolume@@XZ
	?VolumeType@G4VExternalPhysicalVolume@@UEBA?AW4EVolume@@XZ
	?VoxelLocate@G4ReplicaNavigation@@AEBAHPEBVG4SmartVoxelHeader@@AEBVHep3Vector@CLHEP@@H@Z
	?VoxelLocate@G4VoxelNavigation@@QEAAPEAVG4SmartVoxelNode@@PEAVG4SmartVoxelHeader@@AEBVHep3Vector@CLHEP@@@Z
	?Voxelize@G4MultiUnion@@QEAAXXZ
	?Voxelize@G4TessellatedSolid@@AEAAXXZ
	?Voxelize@G4Voxelizer@@QEAAXAEAV?$vector@PEAVG4VFacet@@V?$allocator@PEAVG4VFacet@@@std@@@std@@@Z
	?Voxelize@G4Voxelizer@@QEAAXAEAV?$vector@PEAVG4VSolid@@V?$allocator@PEAVG4VSolid@@@std@@@std@@AEAV?$vector@VTransform3D@HepGeom@@V?$allocator@VTransform3D@HepGeom@@@std@@@3@@Z
	?WarnEndPointTooFar@G4MagInt_Driver@@IEAAXNNNH@Z
	?WarnSmallStepSize@G4MagInt_Driver@@IEAAXNNNNH@Z
	?WarnTooManyStep@G4MagInt_Driver@@IEAAXNNN@Z
	?Warning@G4ImportanceAlgorithm@@AEBAXAEBVG4String@@@Z
	?WhichLimited@G4MultiNavigator@@IEAAXXZ
	?WhichLimited@G4PathFinder@@IEAAXXZ
	?Xcoef@G4VTwistedFaceted@@QEBANNNN@Z
	?_Become_small@?$basic_string@DU?$char_traits@D@std@@V?$allocator@D@2@@std@@AEAAXXZ
	?_Buy_raw@?$vector@HV?$allocator@H@std@@@std@@AEAAX_K@Z
	?_Change_array@?$vector@HV?$allocator@H@std@@@std@@AEAAXQEAH_K1@Z
	?_Change_array@?$vector@NV?$allocator@N@std@@@std@@AEAAXQEAN_K1@Z
	?_Change_array@?$vector@PEAV?$vector@VG4NavigationLevel@@V?$allocator@VG4NavigationLevel@@@std@@@std@@V?$allocator@PEAV?$vector@VG4NavigationLevel@@V?$allocator@VG4NavigationLevel@@@std@@@std@@@2@@std@@AEAAXQEAPEAV?$vector@VG4NavigationLevel@@V?$allocator@VG4NavigationLevel@@@std@@@2@_K1@Z
	?_Change_array@?$vector@PEAVG4AssemblyVolume@@V?$allocator@PEAVG4AssemblyVolume@@@std@@@std@@AEAAXQEAPEAVG4AssemblyVolume@@_K1@Z
	?_Change_array@?$vector@PEAVG4FieldManager@@V?$allocator@PEAVG4FieldManager@@@std@@@std@@AEAAXQEAPEAVG4FieldManager@@_K1@Z
	?_Change_array@?$vector@PEAVG4LogicalVolume@@V?$allocator@PEAVG4LogicalVolume@@@std@@@std@@AEAAXQEAPEAVG4LogicalVolume@@_K1@Z
	?_Change_array@?$vector@PEAVG4Region@@V?$allocator@PEAVG4Region@@@std@@@std@@AEAAXQEAPEAVG4Region@@_K1@Z
	?_Change_array@?$vector@PEAVG4SmartVoxelNode@@V?$allocator@PEAVG4SmartVoxelNode@@@std@@@std@@AEAAXQEAPEAVG4SmartVoxelNode@@_K1@Z
	?_Change_array@?$vector@PEAVG4SmartVoxelProxy@@V?$allocator@PEAVG4SmartVoxelProxy@@@std@@@std@@AEAAXQEAPEAVG4SmartVoxelProxy@@_K1@Z
	?_Change_array@?$vector@PEAVG4VPhysicalVolume@@V?$allocator@PEAVG4VPhysicalVolume@@@std@@@std@@AEAAXQEAPEAVG4VPhysicalVolume@@_K1@Z
	?_Change_array@?$vector@PEAVG4VSolid@@V?$allocator@PEAVG4VSolid@@@std@@@std@@AEAAXQEAPEAVG4VSolid@@_K1@Z
	?_Change_array@?$vector@U?$pair@PEAVG4VSolid@@VTransform3D@HepGeom@@@std@@V?$allocator@U?$pair@PEAVG4VSolid@@VTransform3D@HepGeom@@@std@@@2@@std@@AEAAXQEAU?$pair@PEAVG4VSolid@@VTransform3D@HepGeom@@@2@_K1@Z
	?_Change_array@?$vector@UG4VoxelBox@@V?$allocator@UG4VoxelBox@@@std@@@std@@AEAAXQEAUG4VoxelBox@@_K1@Z
	?_Change_array@?$vector@VHep2Vector@CLHEP@@V?$allocator@VHep2Vector@CLHEP@@@std@@@std@@AEAAXQEAVHep2Vector@CLHEP@@_K1@Z
	?_Change_array@?$vector@VHep3Vector@CLHEP@@V?$allocator@VHep3Vector@CLHEP@@@std@@@std@@AEAAXQEAVHep3Vector@CLHEP@@_K1@Z
	?_Destroy@?$vector@UInterpStepper@?$G4InterpolationDriver@VG4DormandPrince745@@@@V?$allocator@UInterpStepper@?$G4InterpolationDriver@VG4DormandPrince745@@@@@std@@@std@@AEAAXPEAUInterpStepper@?$G4InterpolationDriver@VG4DormandPrince745@@@@0@Z
	?_Destroy@?$vector@V?$vector@HV?$allocator@H@std@@@std@@V?$allocator@V?$vector@HV?$allocator@H@std@@@std@@@2@@std@@AEAAXPEAV?$vector@HV?$allocator@H@std@@@2@0@Z
	?_Destroy@?$vector@VG4NavigationLevel@@V?$allocator@VG4NavigationLevel@@@std@@@std@@AEAAXPEAVG4NavigationLevel@@0@Z
	?_Destroy@?$vector@VG4PlacedPolyhedron@@V?$allocator@VG4PlacedPolyhedron@@@std@@@std@@AEAAXPEAVG4PlacedPolyhedron@@0@Z
	?_Destroy@?$vector@VG4String@@V?$allocator@VG4String@@@std@@@std@@AEAAXPEAVG4String@@0@Z
	?_Extract@?$_Tree_val@U?$_Tree_simple_types@H@std@@@std@@QEAAPEAU?$_Tree_node@HPEAX@2@V?$_Tree_unchecked_const_iterator@V?$_Tree_val@U?$_Tree_simple_types@H@std@@@std@@U_Iterator_base0@2@@2@@Z
	?_Getal@?$_Tree@V?$_Tmap_traits@NNU?$less@N@std@@V?$allocator@U?$pair@$$CBNN@std@@@2@$0A@@std@@@std@@IEAAAEAV?$allocator@U?$_Tree_node@U?$pair@$$CBNN@std@@PEAX@std@@@2@XZ
	?_Getal@?$_Tree@V?$_Tset_traits@NU?$less@N@std@@V?$allocator@N@2@$0A@@std@@@std@@IEAAAEAV?$allocator@U?$_Tree_node@NPEAX@std@@@2@XZ
	?_Getal@?$vector@HV?$allocator@H@std@@@std@@AEAAAEAV?$allocator@H@2@XZ
	?_Getal@?$vector@NV?$allocator@N@std@@@std@@AEAAAEAV?$allocator@N@2@XZ
	?_Getal@?$vector@PEAV?$vector@VG4NavigationLevel@@V?$allocator@VG4NavigationLevel@@@std@@@std@@V?$allocator@PEAV?$vector@VG4NavigationLevel@@V?$allocator@VG4NavigationLevel@@@std@@@std@@@2@@std@@AEAAAEAV?$allocator@PEAV?$vector@VG4NavigationLevel@@V?$allocator@VG4NavigationLevel@@@std@@@std@@@2@XZ
	?_Getal@?$vector@PEAVG4AssemblyVolume@@V?$allocator@PEAVG4AssemblyVolume@@@std@@@std@@AEAAAEAV?$allocator@PEAVG4AssemblyVolume@@@2@XZ
	?_Getal@?$vector@PEAVG4FieldManager@@V?$allocator@PEAVG4FieldManager@@@std@@@std@@AEAAAEAV?$allocator@PEAVG4FieldManager@@@2@XZ
	?_Getal@?$vector@PEAVG4LogicalVolume@@V?$allocator@PEAVG4LogicalVolume@@@std@@@std@@AEAAAEAV?$allocator@PEAVG4LogicalVolume@@@2@XZ
	?_Getal@?$vector@PEAVG4Region@@V?$allocator@PEAVG4Region@@@std@@@std@@AEAAAEAV?$allocator@PEAVG4Region@@@2@XZ
	?_Getal@?$vector@PEAVG4RegularNavigationHelper@@V?$allocator@PEAVG4RegularNavigationHelper@@@std@@@std@@AEAAAEAV?$allocator@PEAVG4RegularNavigationHelper@@@2@XZ
	?_Getal@?$vector@PEAVG4SmartVoxelNode@@V?$allocator@PEAVG4SmartVoxelNode@@@std@@@std@@AEAAAEAV?$allocator@PEAVG4SmartVoxelNode@@@2@XZ
	?_Getal@?$vector@PEAVG4SmartVoxelProxy@@V?$allocator@PEAVG4SmartVoxelProxy@@@std@@@std@@AEAAAEAV?$allocator@PEAVG4SmartVoxelProxy@@@2@XZ
	?_Getal@?$vector@PEAVG4VPhysicalVolume@@V?$allocator@PEAVG4VPhysicalVolume@@@std@@@std@@AEAAAEAV?$allocator@PEAVG4VPhysicalVolume@@@2@XZ
	?_Getal@?$vector@PEAVG4VSolid@@V?$allocator@PEAVG4VSolid@@@std@@@std@@AEAAAEAV?$allocator@PEAVG4VSolid@@@2@XZ
	?_Getal@?$vector@PEAVHep3Vector@CLHEP@@V?$allocator@PEAVHep3Vector@CLHEP@@@std@@@std@@AEAAAEAV?$allocator@PEAVHep3Vector@CLHEP@@@2@XZ
	?_Getal@?$vector@PEAVHepRotation@CLHEP@@V?$allocator@PEAVHepRotation@CLHEP@@@std@@@std@@AEAAAEAV?$allocator@PEAVHepRotation@CLHEP@@@2@XZ
	?_Getal@?$vector@PEAVmutex@std@@V?$allocator@PEAVmutex@std@@@2@@std@@AEAAAEAV?$allocator@PEAVmutex@std@@@2@XZ
	?_Getal@?$vector@PEBV?$vector@VHep3Vector@CLHEP@@V?$allocator@VHep3Vector@CLHEP@@@std@@@std@@V?$allocator@PEBV?$vector@VHep3Vector@CLHEP@@V?$allocator@VHep3Vector@CLHEP@@@std@@@std@@@2@@std@@AEAAAEAV?$allocator@PEBV?$vector@VHep3Vector@CLHEP@@V?$allocator@VHep3Vector@CLHEP@@@std@@@std@@@2@XZ
	?_Getal@?$vector@U?$pair@PEAVG4VSolid@@VTransform3D@HepGeom@@@std@@V?$allocator@U?$pair@PEAVG4VSolid@@VTransform3D@HepGeom@@@std@@@2@@std@@AEAAAEAV?$allocator@U?$pair@PEAVG4VSolid@@VTransform3D@HepGeom@@@std@@@2@XZ
	?_Getal@?$vector@U?$pair@V?$Point3D@N@HepGeom@@V12@@std@@V?$allocator@U?$pair@V?$Point3D@N@HepGeom@@V12@@std@@@2@@std@@AEAAAEAV?$allocator@U?$pair@V?$Point3D@N@HepGeom@@V12@@std@@@2@XZ
	?_Getal@?$vector@UG4VoxelBox@@V?$allocator@UG4VoxelBox@@@std@@@std@@AEAAAEAV?$allocator@UG4VoxelBox@@@2@XZ
	?_Getal@?$vector@Uline@G4ExtrudedSolid@@V?$allocator@Uline@G4ExtrudedSolid@@@std@@@std@@AEAAAEAV?$allocator@Uline@G4ExtrudedSolid@@@2@XZ
	?_Getal@?$vector@Uplane@G4ExtrudedSolid@@V?$allocator@Uplane@G4ExtrudedSolid@@@std@@@std@@AEAAAEAV?$allocator@Uplane@G4ExtrudedSolid@@@2@XZ
	?_Getal@?$vector@VG4NavigationLevel@@V?$allocator@VG4NavigationLevel@@@std@@@std@@AEAAAEAV?$allocator@VG4NavigationLevel@@@2@XZ
	?_Getal@?$vector@VHep2Vector@CLHEP@@V?$allocator@VHep2Vector@CLHEP@@@std@@@std@@AEAAAEAV?$allocator@VHep2Vector@CLHEP@@@2@XZ
	?_Getal@?$vector@VHep3Vector@CLHEP@@V?$allocator@VHep3Vector@CLHEP@@@std@@@std@@AEAAAEAV?$allocator@VHep3Vector@CLHEP@@@2@XZ
	?_Growmap@?$deque@V?$vector@HV?$allocator@H@std@@@std@@V?$allocator@V?$vector@HV?$allocator@H@std@@@std@@@2@@std@@AEAAX_K@Z
	?_Insert_node@?$_Tree_val@U?$_Tree_simple_types@H@std@@@std@@QEAAPEAU?$_Tree_node@HPEAX@2@U?$_Tree_id@PEAU?$_Tree_node@HPEAX@std@@@2@QEAU32@@Z
	?_Insert_node@?$_Tree_val@U?$_Tree_simple_types@PEAVG4VFacet@@@std@@@std@@QEAAPEAU?$_Tree_node@PEAVG4VFacet@@PEAX@2@U?$_Tree_id@PEAU?$_Tree_node@PEAVG4VFacet@@PEAX@std@@@2@QEAU32@@Z
	?_Insert_node@?$_Tree_val@U?$_Tree_simple_types@U?$pair@$$CBHV?$vector@HV?$allocator@H@std@@@std@@@std@@@std@@@std@@QEAAPEAU?$_Tree_node@U?$pair@$$CBHV?$vector@HV?$allocator@H@std@@@std@@@std@@PEAX@2@U?$_Tree_id@PEAU?$_Tree_node@U?$pair@$$CBHV?$vector@HV?$allocator@H@std@@@std@@@std@@PEAX@std@@@2@QEAU32@@Z
	?_Insert_node@?$_Tree_val@U?$_Tree_simple_types@U?$pair@$$CBIVTransform3D@HepGeom@@@std@@@std@@@std@@QEAAPEAU?$_Tree_node@U?$pair@$$CBIVTransform3D@HepGeom@@@std@@PEAX@2@U?$_Tree_id@PEAU?$_Tree_node@U?$pair@$$CBIVTransform3D@HepGeom@@@std@@PEAX@std@@@2@QEAU32@@Z
	?_Insert_node@?$_Tree_val@U?$_Tree_simple_types@U?$pair@$$CBNN@std@@@std@@@std@@QEAAPEAU?$_Tree_node@U?$pair@$$CBNN@std@@PEAX@2@U?$_Tree_id@PEAU?$_Tree_node@U?$pair@$$CBNN@std@@PEAX@std@@@2@QEAU32@@Z
	?_Insert_node@?$_Tree_val@U?$_Tree_simple_types@U?$pair@$$CBVG4GeometryCell@@N@std@@@std@@@std@@QEAAPEAU?$_Tree_node@U?$pair@$$CBVG4GeometryCell@@N@std@@PEAX@2@U?$_Tree_id@PEAU?$_Tree_node@U?$pair@$$CBVG4GeometryCell@@N@std@@PEAX@std@@@2@QEAU32@@Z
	?_Insert_node@?$_Tree_val@U?$_Tree_simple_types@U?$pair@$$CBVG4GeometryCell@@V?$map@NNU?$less@N@std@@V?$allocator@U?$pair@$$CBNN@std@@@2@@std@@@std@@@std@@@std@@QEAAPEAU?$_Tree_node@U?$pair@$$CBVG4GeometryCell@@V?$map@NNU?$less@N@std@@V?$allocator@U?$pair@$$CBNN@std@@@2@@std@@@std@@PEAX@2@U?$_Tree_id@PEAU?$_Tree_node@U?$pair@$$CBVG4GeometryCell@@V?$map@NNU?$less@N@std@@V?$allocator@U?$pair@$$CBNN@std@@@2@@std@@@std@@PEAX@std@@@2@QEAU32@@Z
	?_Insert_node@?$_Tree_val@U?$_Tree_simple_types@U?$pair@QEAVG4LogicalVolume@@PEAV1@@std@@@std@@@std@@QEAAPEAU?$_Tree_node@U?$pair@QEAVG4LogicalVolume@@PEAV1@@std@@PEAX@2@U?$_Tree_id@PEAU?$_Tree_node@U?$pair@QEAVG4LogicalVolume@@PEAV1@@std@@PEAX@std@@@2@QEAU32@@Z
	?_Insert_node@?$_Tree_val@U?$_Tree_simple_types@UG4VertexInfo@@@std@@@std@@QEAAPEAU?$_Tree_node@UG4VertexInfo@@PEAX@2@U?$_Tree_id@PEAU?$_Tree_node@UG4VertexInfo@@PEAX@std@@@2@QEAU32@@Z
	?_Lrotate@?$_Tree_val@U?$_Tree_simple_types@H@std@@@std@@QEAAXPEAU?$_Tree_node@HPEAX@2@@Z
	?_Maklocwcs@std@@YAPEA_WPEB_W@Z
	?_Reallocate_exactly@?$vector@HV?$allocator@H@std@@@std@@AEAAX_K@Z
	?_Reallocate_exactly@?$vector@PEAV?$vector@VG4NavigationLevel@@V?$allocator@VG4NavigationLevel@@@std@@@std@@V?$allocator@PEAV?$vector@VG4NavigationLevel@@V?$allocator@VG4NavigationLevel@@@std@@@std@@@2@@std@@AEAAX_K@Z
	?_Reallocate_exactly@?$vector@PEAVG4AssemblyVolume@@V?$allocator@PEAVG4AssemblyVolume@@@std@@@std@@AEAAX_K@Z
	?_Reallocate_exactly@?$vector@PEAVG4FieldManager@@V?$allocator@PEAVG4FieldManager@@@std@@@std@@AEAAX_K@Z
	?_Reallocate_exactly@?$vector@PEAVG4LogicalVolume@@V?$allocator@PEAVG4LogicalVolume@@@std@@@std@@AEAAX_K@Z
	?_Reallocate_exactly@?$vector@PEAVG4Region@@V?$allocator@PEAVG4Region@@@std@@@std@@AEAAX_K@Z
	?_Reallocate_exactly@?$vector@PEAVG4SmartVoxelNode@@V?$allocator@PEAVG4SmartVoxelNode@@@std@@@std@@AEAAX_K@Z
	?_Reallocate_exactly@?$vector@PEAVG4SmartVoxelProxy@@V?$allocator@PEAVG4SmartVoxelProxy@@@std@@@std@@AEAAX_K@Z
	?_Reallocate_exactly@?$vector@PEAVG4VPhysicalVolume@@V?$allocator@PEAVG4VPhysicalVolume@@@std@@@std@@AEAAX_K@Z
	?_Reallocate_exactly@?$vector@PEAVG4VSolid@@V?$allocator@PEAVG4VSolid@@@std@@@std@@AEAAX_K@Z
	?_Reallocate_exactly@?$vector@VHep3Vector@CLHEP@@V?$allocator@VHep3Vector@CLHEP@@@std@@@std@@AEAAX_K@Z
	?_Rrotate@?$_Tree_val@U?$_Tree_simple_types@H@std@@@std@@QEAAXPEAU?$_Tree_node@HPEAX@2@@Z
	?_Throw_bad_array_new_length@std@@YAXXZ
	?_Throw_tree_length_error@std@@YAXXZ
	?_Tidy@?$vector@UG4VoxelInfo@@V?$allocator@UG4VoxelInfo@@@std@@@std@@AEAAXXZ
	?_Tidy@?$vector@V?$Point3D@N@HepGeom@@V?$allocator@V?$Point3D@N@HepGeom@@@std@@@std@@AEAAXXZ
	?_Tidy@?$vector@V?$vector@HV?$allocator@H@std@@@std@@V?$allocator@V?$vector@HV?$allocator@H@std@@@std@@@2@@std@@AEAAXXZ
	?_Tidy@?$vector@VG4AssemblyTriplet@@V?$allocator@VG4AssemblyTriplet@@@std@@@std@@AEAAXXZ
	?_Tidy@?$vector@VG4NavigationLevel@@V?$allocator@VG4NavigationLevel@@@std@@@std@@AEAAXXZ
	?_Tidy@?$vector@VHep3Vector@CLHEP@@V?$allocator@VHep3Vector@CLHEP@@@std@@@std@@AEAAXXZ
	?_Trim@?$vector@_NV?$allocator@_N@std@@@std@@QEAAX_K@Z
	?_Ufill@?$vector@U?$pair@PEAVG4VSolid@@VTransform3D@HepGeom@@@std@@V?$allocator@U?$pair@PEAVG4VSolid@@VTransform3D@HepGeom@@@std@@@2@@std@@AEAAPEAU?$pair@PEAVG4VSolid@@VTransform3D@HepGeom@@@2@PEAU32@_KU_Value_init_tag@2@@Z
	?_Ufill@?$vector@U?$pair@V?$Point3D@N@HepGeom@@V12@@std@@V?$allocator@U?$pair@V?$Point3D@N@HepGeom@@V12@@std@@@2@@std@@AEAAPEAU?$pair@V?$Point3D@N@HepGeom@@V12@@2@PEAU32@_KU_Value_init_tag@2@@Z
	?_Ufill@?$vector@UG4VoxelBox@@V?$allocator@UG4VoxelBox@@@std@@@std@@AEAAPEAUG4VoxelBox@@PEAU3@_KU_Value_init_tag@2@@Z
	?_Ufill@?$vector@VG4NavigationLevel@@V?$allocator@VG4NavigationLevel@@@std@@@std@@AEAAPEAVG4NavigationLevel@@PEAV3@_KU_Value_init_tag@2@@Z
	?_Umove@?$vector@U?$pair@PEAVG4VSolid@@VTransform3D@HepGeom@@@std@@V?$allocator@U?$pair@PEAVG4VSolid@@VTransform3D@HepGeom@@@std@@@2@@std@@AEAAPEAU?$pair@PEAVG4VSolid@@VTransform3D@HepGeom@@@2@PEAU32@00@Z
	?_Umove@?$vector@V?$vector@HV?$allocator@H@std@@@std@@V?$allocator@V?$vector@HV?$allocator@H@std@@@std@@@2@@std@@AEAAPEAV?$vector@HV?$allocator@H@std@@@2@PEAV32@00@Z
	?_Umove@?$vector@VG4AssemblyTriplet@@V?$allocator@VG4AssemblyTriplet@@@std@@@std@@AEAAPEAVG4AssemblyTriplet@@PEAV3@00@Z
	?_Umove@?$vector@VG4PlacedPolyhedron@@V?$allocator@VG4PlacedPolyhedron@@@std@@@std@@AEAAPEAVG4PlacedPolyhedron@@PEAV3@00@Z
	?_Umove_if_noexcept@?$vector@U?$pair@PEAVG4VSolid@@VTransform3D@HepGeom@@@std@@V?$allocator@U?$pair@PEAVG4VSolid@@VTransform3D@HepGeom@@@std@@@2@@std@@AEAAXPEAU?$pair@PEAVG4VSolid@@VTransform3D@HepGeom@@@2@00@Z
	?_Xlen@?$basic_string@DU?$char_traits@D@std@@V?$allocator@D@2@@std@@CAXXZ
	?_Xlen@?$deque@V?$vector@HV?$allocator@H@std@@@std@@V?$allocator@V?$vector@HV?$allocator@H@std@@@std@@@2@@std@@AEBAXXZ
	?_Xlen@?$vector@_NV?$allocator@_N@std@@@std@@QEBAXXZ
	?_Xlength@?$vector@HV?$allocator@H@std@@@std@@CAXXZ
	?_Xlength@?$vector@NV?$allocator@N@std@@@std@@CAXXZ
	?_Xlength@?$vector@PEAHV?$allocator@PEAH@std@@@std@@CAXXZ
	?_Xlength@?$vector@PEAV?$vector@V?$Point3D@N@HepGeom@@V?$allocator@V?$Point3D@N@HepGeom@@@std@@@std@@V?$allocator@PEAV?$vector@V?$Point3D@N@HepGeom@@V?$allocator@V?$Point3D@N@HepGeom@@@std@@@std@@@2@@std@@CAXXZ
	?_Xlength@?$vector@PEAV?$vector@VG4NavigationLevel@@V?$allocator@VG4NavigationLevel@@@std@@@std@@V?$allocator@PEAV?$vector@VG4NavigationLevel@@V?$allocator@VG4NavigationLevel@@@std@@@std@@@2@@std@@CAXXZ
	?_Xlength@?$vector@PEAVG4AssemblyVolume@@V?$allocator@PEAVG4AssemblyVolume@@@std@@@std@@CAXXZ
	?_Xlength@?$vector@PEAVG4FieldManager@@V?$allocator@PEAVG4FieldManager@@@std@@@std@@CAXXZ
	?_Xlength@?$vector@PEAVG4LogicalBorderSurface@@V?$allocator@PEAVG4LogicalBorderSurface@@@std@@@std@@CAXXZ
	?_Xlength@?$vector@PEAVG4LogicalSkinSurface@@V?$allocator@PEAVG4LogicalSkinSurface@@@std@@@std@@CAXXZ
	?_Xlength@?$vector@PEAVG4LogicalVolume@@V?$allocator@PEAVG4LogicalVolume@@@std@@@std@@CAXXZ
	?_Xlength@?$vector@PEAVG4Material@@V?$allocator@PEAVG4Material@@@std@@@std@@CAXXZ
	?_Xlength@?$vector@PEAVG4Navigator@@V?$allocator@PEAVG4Navigator@@@std@@@std@@CAXXZ
	?_Xlength@?$vector@PEAVG4Region@@V?$allocator@PEAVG4Region@@@std@@@std@@CAXXZ
	?_Xlength@?$vector@PEAVG4RegularNavigationHelper@@V?$allocator@PEAVG4RegularNavigationHelper@@@std@@@std@@CAXXZ
	?_Xlength@?$vector@PEAVG4SmartVoxelNode@@V?$allocator@PEAVG4SmartVoxelNode@@@std@@@std@@CAXXZ
	?_Xlength@?$vector@PEAVG4SmartVoxelProxy@@V?$allocator@PEAVG4SmartVoxelProxy@@@std@@@std@@CAXXZ
	?_Xlength@?$vector@PEAVG4VFacet@@V?$allocator@PEAVG4VFacet@@@std@@@std@@CAXXZ
	?_Xlength@?$vector@PEAVG4VPhysicalVolume@@V?$allocator@PEAVG4VPhysicalVolume@@@std@@@std@@CAXXZ
	?_Xlength@?$vector@PEAVG4VSolid@@V?$allocator@PEAVG4VSolid@@@std@@@std@@CAXXZ
	?_Xlength@?$vector@PEAVHep3Vector@CLHEP@@V?$allocator@PEAVHep3Vector@CLHEP@@@std@@@std@@CAXXZ
	?_Xlength@?$vector@PEAVHepRotation@CLHEP@@V?$allocator@PEAVHepRotation@CLHEP@@@std@@@std@@CAXXZ
	?_Xlength@?$vector@PEAVmutex@std@@V?$allocator@PEAVmutex@std@@@2@@std@@CAXXZ
	?_Xlength@?$vector@PEBV?$vector@VHep3Vector@CLHEP@@V?$allocator@VHep3Vector@CLHEP@@@std@@@std@@V?$allocator@PEBV?$vector@VHep3Vector@CLHEP@@V?$allocator@VHep3Vector@CLHEP@@@std@@@std@@@2@@std@@CAXXZ
	?_Xlength@?$vector@U?$pair@HN@std@@V?$allocator@U?$pair@HN@std@@@2@@std@@CAXXZ
	?_Xlength@?$vector@U?$pair@PEAVG4VSolid@@VTransform3D@HepGeom@@@std@@V?$allocator@U?$pair@PEAVG4VSolid@@VTransform3D@HepGeom@@@std@@@2@@std@@CAXXZ
	?_Xlength@?$vector@U?$pair@V?$Point3D@N@HepGeom@@V12@@std@@V?$allocator@U?$pair@V?$Point3D@N@HepGeom@@V12@@std@@@2@@std@@CAXXZ
	?_Xlength@?$vector@U?$pair@VHep2Vector@CLHEP@@H@std@@V?$allocator@U?$pair@VHep2Vector@CLHEP@@H@std@@@2@@std@@CAXXZ
	?_Xlength@?$vector@UG4MultiUnionSurface@G4MultiUnion@@V?$allocator@UG4MultiUnionSurface@G4MultiUnion@@@std@@@std@@CAXXZ
	?_Xlength@?$vector@UG4VoxelBox@@V?$allocator@UG4VoxelBox@@@std@@@std@@CAXXZ
	?_Xlength@?$vector@UG4VoxelInfo@@V?$allocator@UG4VoxelInfo@@@std@@@std@@CAXXZ
	?_Xlength@?$vector@UInterpStepper@?$G4InterpolationDriver@VG4DormandPrince745@@@@V?$allocator@UInterpStepper@?$G4InterpolationDriver@VG4DormandPrince745@@@@@std@@@std@@CAXXZ
	?_Xlength@?$vector@UIntersection@@V?$allocator@UIntersection@@@std@@@std@@CAXXZ
	?_Xlength@?$vector@UZSection@G4ExtrudedSolid@@V?$allocator@UZSection@G4ExtrudedSolid@@@std@@@std@@CAXXZ
	?_Xlength@?$vector@Uline@G4ExtrudedSolid@@V?$allocator@Uline@G4ExtrudedSolid@@@std@@@std@@CAXXZ
	?_Xlength@?$vector@Uplane@G4ExtrudedSolid@@V?$allocator@Uplane@G4ExtrudedSolid@@@std@@@std@@CAXXZ
	?_Xlength@?$vector@V?$Plane3D@N@HepGeom@@V?$allocator@V?$Plane3D@N@HepGeom@@@std@@@std@@CAXXZ
	?_Xlength@?$vector@V?$Point3D@N@HepGeom@@V?$allocator@V?$Point3D@N@HepGeom@@@std@@@std@@CAXXZ
	?_Xlength@?$vector@V?$vector@HV?$allocator@H@std@@@std@@V?$allocator@V?$vector@HV?$allocator@H@std@@@std@@@2@@std@@CAXXZ
	?_Xlength@?$vector@VG4AssemblyTriplet@@V?$allocator@VG4AssemblyTriplet@@@std@@@std@@CAXXZ
	?_Xlength@?$vector@VG4NavigationLevel@@V?$allocator@VG4NavigationLevel@@@std@@@std@@CAXXZ
	?_Xlength@?$vector@VG4PlacedPolyhedron@@V?$allocator@VG4PlacedPolyhedron@@@std@@@std@@CAXXZ
	?_Xlength@?$vector@VG4SmartVoxelStat@@V?$allocator@VG4SmartVoxelStat@@@std@@@std@@CAXXZ
	?_Xlength@?$vector@VG4String@@V?$allocator@VG4String@@@std@@@std@@CAXXZ
	?_Xlength@?$vector@VHep2Vector@CLHEP@@V?$allocator@VHep2Vector@CLHEP@@@std@@@std@@CAXXZ
	?_Xlength@?$vector@VHep3Vector@CLHEP@@V?$allocator@VHep3Vector@CLHEP@@@std@@@std@@CAXXZ
	?_Xlength@?$vector@VTransform3D@HepGeom@@V?$allocator@VTransform3D@HepGeom@@@std@@@std@@CAXXZ
	?_Xran@?$_String_val@U?$_Simple_types@D@std@@@std@@SAXXZ
	?__empty_global_delete@@YAXPEAX@Z
	?__empty_global_delete@@YAXPEAXW4align_val_t@std@@@Z
	?__empty_global_delete@@YAXPEAX_K@Z
	?__empty_global_delete@@YAXPEAX_KW4align_val_t@std@@@Z
	?aNavigHistoryAllocator@@YAAEAPEAV?$G4Allocator@VG4NavigationHistory@@@@XZ
	?aNavigLevelRepAllocator@@YAAEAPEAV?$G4Allocator@VG4NavigationLevelRep@@@@XZ
	?aNavigationLevelAllocator@@YAAEAPEAV?$G4Allocator@VG4NavigationLevel@@@@XZ
	?aTouchableHistoryAllocator@@YAAEAPEAV?$G4Allocator@VG4TouchableHistory@@@@XZ
	?absoluteError@field_utils@@YANQEBN0N@Z
	?allocate@?$allocator@D@std@@QEAAPEAD_K@Z
	?allocate@?$allocator@H@std@@QEAAPEAH_K@Z
	?allocate@?$allocator@N@std@@QEAAPEAN_K@Z
	?allocate@?$allocator@PEAV?$vector@VG4NavigationLevel@@V?$allocator@VG4NavigationLevel@@@std@@@std@@@std@@QEAAPEAPEAV?$vector@VG4NavigationLevel@@V?$allocator@VG4NavigationLevel@@@std@@@2@_K@Z
	?allocate@?$allocator@PEAVG4AssemblyVolume@@@std@@QEAAPEAPEAVG4AssemblyVolume@@_K@Z
	?allocate@?$allocator@PEAVG4FieldManager@@@std@@QEAAPEAPEAVG4FieldManager@@_K@Z
	?allocate@?$allocator@PEAVG4LogicalVolume@@@std@@QEAAPEAPEAVG4LogicalVolume@@_K@Z
	?allocate@?$allocator@PEAVG4Region@@@std@@QEAAPEAPEAVG4Region@@_K@Z
	?allocate@?$allocator@PEAVG4SmartVoxelNode@@@std@@QEAAPEAPEAVG4SmartVoxelNode@@_K@Z
	?allocate@?$allocator@PEAVG4SmartVoxelProxy@@@std@@QEAAPEAPEAVG4SmartVoxelProxy@@_K@Z
	?allocate@?$allocator@PEAVG4VPhysicalVolume@@@std@@QEAAPEAPEAVG4VPhysicalVolume@@_K@Z
	?allocate@?$allocator@PEAVG4VSolid@@@std@@QEAAPEAPEAVG4VSolid@@_K@Z
	?allocate@?$allocator@PEBV?$vector@VHep3Vector@CLHEP@@V?$allocator@VHep3Vector@CLHEP@@@std@@@std@@@std@@QEAAPEAPEBV?$vector@VHep3Vector@CLHEP@@V?$allocator@VHep3Vector@CLHEP@@@std@@@2@_K@Z
	?allocate@?$allocator@U?$pair@PEAVG4VSolid@@VTransform3D@HepGeom@@@std@@@std@@QEAAPEAU?$pair@PEAVG4VSolid@@VTransform3D@HepGeom@@@2@_K@Z
	?allocate@?$allocator@U?$pair@V?$Point3D@N@HepGeom@@V12@@std@@@std@@QEAAPEAU?$pair@V?$Point3D@N@HepGeom@@V12@@2@_K@Z
	?allocate@?$allocator@UG4VoxelBox@@@std@@QEAAPEAUG4VoxelBox@@_K@Z
	?allocate@?$allocator@UZSection@G4ExtrudedSolid@@@std@@QEAAPEAUZSection@G4ExtrudedSolid@@_K@Z
	?allocate@?$allocator@Uline@G4ExtrudedSolid@@@std@@QEAAPEAUline@G4ExtrudedSolid@@_K@Z
	?allocate@?$allocator@Uplane@G4ExtrudedSolid@@@std@@QEAAPEAUplane@G4ExtrudedSolid@@_K@Z
	?allocate@?$allocator@V?$vector@HV?$allocator@H@std@@@std@@@std@@QEAAPEAV?$vector@HV?$allocator@H@std@@@2@_K@Z
	?allocate@?$allocator@VG4AssemblyTriplet@@@std@@QEAAPEAVG4AssemblyTriplet@@_K@Z
	?allocate@?$allocator@VG4NavigationLevel@@@std@@QEAAPEAVG4NavigationLevel@@_K@Z
	?allocate@?$allocator@VHep2Vector@CLHEP@@@std@@QEAAPEAVHep2Vector@CLHEP@@_K@Z
	?allocate@?$allocator@VHep3Vector@CLHEP@@@std@@QEAAPEAVHep3Vector@CLHEP@@_K@Z
	?append@?$basic_string@DU?$char_traits@D@std@@V?$allocator@D@2@@std@@QEAAAEAV12@QEBD_K@Z
	?asinh@G4Hype@@AEAANN@Z
	?assign@?$basic_string@DU?$char_traits@D@std@@V?$allocator@D@2@@std@@QEAAAEAV12@QEBD_K@Z
	?cache@?$G4CacheReference@PEAVG4RegularNavigationHelper@@@@CAAEAPEAV?$vector@PEAVG4RegularNavigationHelper@@V?$allocator@PEAVG4RegularNavigationHelper@@@std@@@std@@XZ
	?cache@?$G4CacheReference@PEAVHep3Vector@CLHEP@@@@CAAEAPEAV?$vector@PEAVHep3Vector@CLHEP@@V?$allocator@PEAVHep3Vector@CLHEP@@@std@@@std@@XZ
	?cache@?$G4CacheReference@PEAVHepRotation@CLHEP@@@@CAAEAPEAV?$vector@PEAVHepRotation@CLHEP@@V?$allocator@PEAVHepRotation@CLHEP@@@std@@@std@@XZ
	?calc_h_opt@G4BulirschStoer@@AEBANNN_K@Z
	?comp_ellint_2@G4GeomTools@@CANN@Z
	?copy@G4ModifiedMidpoint@@AEBAXQEANQEBN@Z
	?copy@field_utils@@YAXQEANQEBN_K@Z
	?cross@G4TessellatedGeometryAlgorithms@@SANAEBVHep2Vector@CLHEP@@0@Z
	?deallocate@?$allocator@D@std@@QEAAXQEAD_K@Z
	?deallocate@?$allocator@H@std@@QEAAXQEAH_K@Z
	?deallocate@?$allocator@N@std@@QEAAXQEAN_K@Z
	?deallocate@?$allocator@PEAH@std@@QEAAXQEAPEAH_K@Z
	?deallocate@?$allocator@PEAV?$vector@VG4NavigationLevel@@V?$allocator@VG4NavigationLevel@@@std@@@std@@@std@@QEAAXQEAPEAV?$vector@VG4NavigationLevel@@V?$allocator@VG4NavigationLevel@@@std@@@2@_K@Z
	?deallocate@?$allocator@PEAVG4AssemblyVolume@@@std@@QEAAXQEAPEAVG4AssemblyVolume@@_K@Z
	?deallocate@?$allocator@PEAVG4FieldManager@@@std@@QEAAXQEAPEAVG4FieldManager@@_K@Z
	?deallocate@?$allocator@PEAVG4LogicalBorderSurface@@@std@@QEAAXQEAPEAVG4LogicalBorderSurface@@_K@Z
	?deallocate@?$allocator@PEAVG4LogicalSkinSurface@@@std@@QEAAXQEAPEAVG4LogicalSkinSurface@@_K@Z
	?deallocate@?$allocator@PEAVG4LogicalVolume@@@std@@QEAAXQEAPEAVG4LogicalVolume@@_K@Z
	?deallocate@?$allocator@PEAVG4Material@@@std@@QEAAXQEAPEAVG4Material@@_K@Z
	?deallocate@?$allocator@PEAVG4Navigator@@@std@@QEAAXQEAPEAVG4Navigator@@_K@Z
	?deallocate@?$allocator@PEAVG4Region@@@std@@QEAAXQEAPEAVG4Region@@_K@Z
	?deallocate@?$allocator@PEAVG4RegularNavigationHelper@@@std@@QEAAXQEAPEAVG4RegularNavigationHelper@@_K@Z
	?deallocate@?$allocator@PEAVG4SmartVoxelNode@@@std@@QEAAXQEAPEAVG4SmartVoxelNode@@_K@Z
	?deallocate@?$allocator@PEAVG4SmartVoxelProxy@@@std@@QEAAXQEAPEAVG4SmartVoxelProxy@@_K@Z
	?deallocate@?$allocator@PEAVG4VFacet@@@std@@QEAAXQEAPEAVG4VFacet@@_K@Z
	?deallocate@?$allocator@PEAVG4VPhysicalVolume@@@std@@QEAAXQEAPEAVG4VPhysicalVolume@@_K@Z
	?deallocate@?$allocator@PEAVG4VSolid@@@std@@QEAAXQEAPEAVG4VSolid@@_K@Z
	?deallocate@?$allocator@PEAVHep3Vector@CLHEP@@@std@@QEAAXQEAPEAVHep3Vector@CLHEP@@_K@Z
	?deallocate@?$allocator@PEAVHepRotation@CLHEP@@@std@@QEAAXQEAPEAVHepRotation@CLHEP@@_K@Z
	?deallocate@?$allocator@PEAVmutex@std@@@std@@QEAAXQEAPEAVmutex@2@_K@Z
	?deallocate@?$allocator@PEBV?$vector@VHep3Vector@CLHEP@@V?$allocator@VHep3Vector@CLHEP@@@std@@@std@@@std@@QEAAXQEAPEBV?$vector@VHep3Vector@CLHEP@@V?$allocator@VHep3Vector@CLHEP@@@std@@@2@_K@Z
	?deallocate@?$allocator@U?$pair@HN@std@@@std@@QEAAXQEAU?$pair@HN@2@_K@Z
	?deallocate@?$allocator@U?$pair@PEAVG4VSolid@@VTransform3D@HepGeom@@@std@@@std@@QEAAXQEAU?$pair@PEAVG4VSolid@@VTransform3D@HepGeom@@@2@_K@Z
	?deallocate@?$allocator@U?$pair@V?$Point3D@N@HepGeom@@V12@@std@@@std@@QEAAXQEAU?$pair@V?$Point3D@N@HepGeom@@V12@@2@_K@Z
	?deallocate@?$allocator@U?$pair@VHep2Vector@CLHEP@@H@std@@@std@@QEAAXQEAU?$pair@VHep2Vector@CLHEP@@H@2@_K@Z
	?deallocate@?$allocator@UG4MultiUnionSurface@G4MultiUnion@@@std@@QEAAXQEAUG4MultiUnionSurface@G4MultiUnion@@_K@Z
	?deallocate@?$allocator@UG4VoxelBox@@@std@@QEAAXQEAUG4VoxelBox@@_K@Z
	?deallocate@?$allocator@UInterpStepper@?$G4InterpolationDriver@VG4DormandPrince745@@@@@std@@QEAAXQEAUInterpStepper@?$G4InterpolationDriver@VG4DormandPrince745@@@@_K@Z
	?deallocate@?$allocator@UIntersection@@@std@@QEAAXQEAUIntersection@@_K@Z
	?deallocate@?$allocator@UZSection@G4ExtrudedSolid@@@std@@QEAAXQEAUZSection@G4ExtrudedSolid@@_K@Z
	?deallocate@?$allocator@Uline@G4ExtrudedSolid@@@std@@QEAAXQEAUline@G4ExtrudedSolid@@_K@Z
	?deallocate@?$allocator@Uplane@G4ExtrudedSolid@@@std@@QEAAXQEAUplane@G4ExtrudedSolid@@_K@Z
	?deallocate@?$allocator@V?$Plane3D@N@HepGeom@@@std@@QEAAXQEAV?$Plane3D@N@HepGeom@@_K@Z
	?deallocate@?$allocator@V?$vector@HV?$allocator@H@std@@@std@@@std@@QEAAXQEAV?$vector@HV?$allocator@H@std@@@2@_K@Z
	?deallocate@?$allocator@VG4AssemblyTriplet@@@std@@QEAAXQEAVG4AssemblyTriplet@@_K@Z
	?deallocate@?$allocator@VG4NavigationLevel@@@std@@QEAAXQEAVG4NavigationLevel@@_K@Z
	?deallocate@?$allocator@VG4PlacedPolyhedron@@@std@@QEAAXQEAVG4PlacedPolyhedron@@_K@Z
	?deallocate@?$allocator@VG4SmartVoxelStat@@@std@@QEAAXQEAVG4SmartVoxelStat@@_K@Z
	?deallocate@?$allocator@VG4String@@@std@@QEAAXQEAVG4String@@_K@Z
	?deallocate@?$allocator@VHep2Vector@CLHEP@@@std@@QEAAXQEAVHep2Vector@CLHEP@@_K@Z
	?deallocate@?$allocator@VHep3Vector@CLHEP@@@std@@QEAAXQEAVHep3Vector@CLHEP@@_K@Z
	?deallocate@?$allocator@VTransform3D@HepGeom@@@std@@QEAAXQEAVTransform3D@HepGeom@@_K@Z
	?dec@std@@YAAEAVios_base@1@AEAV21@@Z
	?extrapolate@G4BulirschStoer@@AEAAX_KQEAN@Z
	?hex@std@@YAAEAVios_base@1@AEAV21@@Z
	?in_convergence_window@G4BulirschStoer@@AEBA_NH@Z
	?increasefNORHSCalls@G4VFSALIntegrationStepper@@QEAAXXZ
	?insert@?$basic_string@DU?$char_traits@D@std@@V?$allocator@D@2@@std@@QEAAAEAV12@_KQEBD0@Z
	?interpolate@G4FSALBogackiShampine45@@QEAAXQEBN0QEANNN@Z
	?interpolate@G4FSALDormandPrince745@@QEAAXQEBN0QEANNN@Z
	?inverseCurvatureRadius@field_utils@@YANNNN@Z
	?makeStep@G4BogackiShampine23@@AEBAXQEBN0NQEANPEAN2@Z
	?makeStep@G4RK547FEq1@@AEBAXQEBN0NQEANPEAN2@Z
	?makeStep@G4RK547FEq2@@AEBAXQEBN0NQEANPEAN2@Z
	?makeStep@G4RK547FEq3@@AEBAXQEBN0NQEANPEAN2@Z
	?overflow@?$basic_stringbuf@DU?$char_traits@D@std@@V?$allocator@D@2@@std@@MEAAHH@Z
	?pbackfail@?$basic_stringbuf@DU?$char_traits@D@std@@V?$allocator@D@2@@std@@MEAAHH@Z
	?pop_back@?$deque@V?$vector@HV?$allocator@H@std@@@std@@V?$allocator@V?$vector@HV?$allocator@H@std@@@std@@@2@@std@@QEAAXXZ
	?printStatus@G4PropagatorInField@@QEAAXAEBVG4FieldTrack@@0NNHPEAVG4VPhysicalVolume@@@Z
	?printStatus@G4VIntersectionLocator@@QEAAXAEBVG4FieldTrack@@0NNH@Z
	?printStatus@G4VIntersectionLocator@@SAXAEBVG4FieldTrack@@0NNHAEAV?$basic_ostream@DU?$char_traits@D@std@@@std@@H@Z
	?push_back@?$vector@VG4PlacedPolyhedron@@V?$allocator@VG4PlacedPolyhedron@@@std@@@std@@QEAAX$$QEAVG4PlacedPolyhedron@@@Z
	?relativeError2@field_utils@@YANQEBN0NN@Z
	?relativeError@field_utils@@YANQEBN0NN@Z
	?reserve@?$basic_string@DU?$char_traits@D@std@@V?$allocator@D@2@@std@@QEAAX_K@Z
	?reset@G4BulirschStoer@@QEAAXXZ
	?resize@?$vector@HV?$allocator@H@std@@@std@@QEAAX_K@Z
	?resize@?$vector@U?$pair@PEAVG4VSolid@@VTransform3D@HepGeom@@@std@@V?$allocator@U?$pair@PEAVG4VSolid@@VTransform3D@HepGeom@@@std@@@2@@std@@QEAAX_K@Z
	?resize@?$vector@U?$pair@V?$Point3D@N@HepGeom@@V12@@std@@V?$allocator@U?$pair@V?$Point3D@N@HepGeom@@V12@@std@@@2@@std@@QEAAX_K@Z
	?resize@?$vector@UG4VoxelBox@@V?$allocator@UG4VoxelBox@@@std@@@std@@QEAAX_K@Z
	?resize@?$vector@VG4NavigationLevel@@V?$allocator@VG4NavigationLevel@@@std@@@std@@QEAAX_K@Z
	?resize@?$vector@VHep2Vector@CLHEP@@V?$allocator@VHep2Vector@CLHEP@@@std@@@std@@QEAAX_K@Z
	?seekoff@?$basic_stringbuf@DU?$char_traits@D@std@@V?$allocator@D@2@@std@@MEAA?AV?$fpos@U_Mbstatet@@@2@_JHH@Z
	?seekpos@?$basic_stringbuf@DU?$char_traits@D@std@@V?$allocator@D@2@@std@@MEAA?AV?$fpos@U_Mbstatet@@@2@V32@H@Z
	?set@G4SurfBits@@QEAAXIPEBD@Z
	?set@G4SurfBits@@QEAAXIPEBH@Z
	?set_k_opt@G4BulirschStoer@@AEAA_N_KAEAN@Z
	?should_reject@G4BulirschStoer@@AEBA_NNH@Z
	?try_step@G4BulirschStoer@@QEAA?AW4step_result@1@QEBN0AEANQEAN1@Z
	?underflow@?$basic_stringbuf@DU?$char_traits@D@std@@V?$allocator@D@2@@std@@MEAAHXZ
	?unit@Hep3Vector@CLHEP@@QEBA?AV12@XZ
	?what@exception@std@@UEBAPEBDXZ
