EXPORTS 
	?$TSS0@?1???$_cid_std_vector@V?$basic_string@DU?$char_traits@D@std@@V?$allocator@D@2@@std@@@tools@@YAGXZ@4HA 	 DATA
	?$TSS0@?1???$get_color_black@Vcolorf@tools@@@tools@@YAAEBVcolorf@1@XZ@4HA 	 DATA
	?$TSS0@?1???$get_color_blue@Vcolorf@tools@@@tools@@YAAEBVcolorf@1@XZ@4HA 	 DATA
	?$TSS0@?1???$get_color_grey@Vcolorf@tools@@@tools@@YAAEBVcolorf@1@XZ@4HA 	 DATA
	?$TSS0@?1???$get_color_lightgrey@Vcolorf@tools@@@tools@@YAAEBVcolorf@1@XZ@4HA 	 DATA
	?$TSS0@?1???$get_color_red@Vcolorf@tools@@@tools@@YAAEBVcolorf@1@XZ@4HA 	 DATA
	?$TSS0@?1???$get_color_white@Vcolorf@tools@@@tools@@YAAEBVcolorf@1@XZ@4HA 	 DATA
	?$TSS0@?1??TTree_cls@rroot@tools@@YAAEBV?$basic_string@DU?$char_traits@D@std@@V?$allocator@D@2@@std@@XZ@4HA 	 DATA
	?$TSS0@?1??branch_element_store_class@wroot@tools@@YAAEBV?$basic_string@DU?$char_traits@D@std@@V?$allocator@D@2@@std@@XZ@4HA 	 DATA
	?$TSS0@?1??encoding_PAW@sg@tools@@YAAEBV?$basic_string@DU?$char_traits@D@std@@V?$allocator@D@2@@std@@XZ@4HA 	 DATA
	?$TSS0@?1??encoding_none@sg@tools@@YAAEBV?$basic_string@DU?$char_traits@D@std@@V?$allocator@D@2@@std@@XZ@4HA 	 DATA
	?$TSS0@?1??fdeg2rad@tools@@YAMXZ@4HA 	 DATA
	?$TSS0@?1??font_arial_ttf@sg@tools@@YAAEBV?$basic_string@DU?$char_traits@D@std@@V?$allocator@D@2@@std@@XZ@4HA 	 DATA
	?$TSS0@?1??font_arialbd_ttf@sg@tools@@YAAEBV?$basic_string@DU?$char_traits@D@std@@V?$allocator@D@2@@std@@XZ@4HA 	 DATA
	?$TSS0@?1??font_helvetica_ttf@sg@tools@@YAAEBV?$basic_string@DU?$char_traits@D@std@@V?$allocator@D@2@@std@@XZ@4HA 	 DATA
	?$TSS0@?1??font_hershey@sg@tools@@YAAEBV?$basic_string@DU?$char_traits@D@std@@V?$allocator@D@2@@std@@XZ@4HA 	 DATA
	?$TSS0@?1??font_stixgeneral_otf@sg@tools@@YAAEBV?$basic_string@DU?$char_traits@D@std@@V?$allocator@D@2@@std@@XZ@4HA 	 DATA
	?$TSS0@?1??font_symbol_ttf@sg@tools@@YAAEBV?$basic_string@DU?$char_traits@D@std@@V?$allocator@D@2@@std@@XZ@4HA 	 DATA
	?$TSS0@?1??font_times_roman_ttf@sg@tools@@YAAEBV?$basic_string@DU?$char_traits@D@std@@V?$allocator@D@2@@std@@XZ@4HA 	 DATA
	?$TSS0@?1??font_timesbd_ttf@sg@tools@@YAAEBV?$basic_string@DU?$char_traits@D@std@@V?$allocator@D@2@@std@@XZ@4HA 	 DATA
	?$TSS0@?1??id_class@?$column@V?$basic_string@DU?$char_traits@D@std@@V?$allocator@D@2@@std@@@ntuple@rcsv@tools@@SAGXZ@4HA 	 DATA
	?$TSS0@?1??id_class@?$column@V?$basic_string@DU?$char_traits@D@std@@V?$allocator@D@2@@std@@@ntuple@wcsv@tools@@SAGXZ@4HA 	 DATA
	?$TSS0@?1??id_class@?$column@V?$vector@DV?$allocator@D@std@@@std@@@ntuple@rcsv@tools@@SAGXZ@4HA 	 DATA
	?$TSS0@?1??id_class@?$column@V?$vector@EV?$allocator@E@std@@@std@@@ntuple@rcsv@tools@@SAGXZ@4HA 	 DATA
	?$TSS0@?1??id_class@?$column@V?$vector@FV?$allocator@F@std@@@std@@@ntuple@rcsv@tools@@SAGXZ@4HA 	 DATA
	?$TSS0@?1??id_class@?$column@V?$vector@GV?$allocator@G@std@@@std@@@ntuple@rcsv@tools@@SAGXZ@4HA 	 DATA
	?$TSS0@?1??id_class@?$column@V?$vector@HV?$allocator@H@std@@@std@@@ntuple@rcsv@tools@@SAGXZ@4HA 	 DATA
	?$TSS0@?1??id_class@?$column@V?$vector@IV?$allocator@I@std@@@std@@@ntuple@rcsv@tools@@SAGXZ@4HA 	 DATA
	?$TSS0@?1??id_class@?$column@V?$vector@MV?$allocator@M@std@@@std@@@ntuple@rcsv@tools@@SAGXZ@4HA 	 DATA
	?$TSS0@?1??id_class@?$column@V?$vector@NV?$allocator@N@std@@@std@@@ntuple@rcsv@tools@@SAGXZ@4HA 	 DATA
	?$TSS0@?1??id_class@?$column@V?$vector@V?$basic_string@DU?$char_traits@D@std@@V?$allocator@D@2@@std@@V?$allocator@V?$basic_string@DU?$char_traits@D@std@@V?$allocator@D@2@@std@@@2@@std@@@ntuple@rcsv@tools@@SAGXZ@4HA 	 DATA
	?$TSS0@?1??id_class@?$column@V?$vector@_JV?$allocator@_J@std@@@std@@@ntuple@rcsv@tools@@SAGXZ@4HA 	 DATA
	?$TSS0@?1??id_class@?$column@V?$vector@_KV?$allocator@_K@std@@@std@@@ntuple@rcsv@tools@@SAGXZ@4HA 	 DATA
	?$TSS0@?1??id_class@?$column@V?$vector@_NV?$allocator@_N@std@@@std@@@ntuple@rcsv@tools@@SAGXZ@4HA 	 DATA
	?$TSS0@?1??id_class@?$column@Vcsv_time@tools@@@ntuple@rcsv@tools@@SAGXZ@4HA 	 DATA
	?$TSS0@?1??id_class@?$column_ref@V?$basic_string@DU?$char_traits@D@std@@V?$allocator@D@2@@std@@@ntuple@wcsv@tools@@SAGXZ@4HA 	 DATA
	?$TSS0@?1??id_class@?$icolumn@V?$basic_string@DU?$char_traits@D@std@@V?$allocator@D@2@@std@@@read@tools@@SAGXZ@4HA 	 DATA
	?$TSS0@?1??id_class@?$icolumn@V?$vector@DV?$allocator@D@std@@@std@@@read@tools@@SAGXZ@4HA 	 DATA
	?$TSS0@?1??id_class@?$icolumn@V?$vector@EV?$allocator@E@std@@@std@@@read@tools@@SAGXZ@4HA 	 DATA
	?$TSS0@?1??id_class@?$icolumn@V?$vector@FV?$allocator@F@std@@@std@@@read@tools@@SAGXZ@4HA 	 DATA
	?$TSS0@?1??id_class@?$icolumn@V?$vector@GV?$allocator@G@std@@@std@@@read@tools@@SAGXZ@4HA 	 DATA
	?$TSS0@?1??id_class@?$icolumn@V?$vector@HV?$allocator@H@std@@@std@@@read@tools@@SAGXZ@4HA 	 DATA
	?$TSS0@?1??id_class@?$icolumn@V?$vector@IV?$allocator@I@std@@@std@@@read@tools@@SAGXZ@4HA 	 DATA
	?$TSS0@?1??id_class@?$icolumn@V?$vector@MV?$allocator@M@std@@@std@@@read@tools@@SAGXZ@4HA 	 DATA
	?$TSS0@?1??id_class@?$icolumn@V?$vector@NV?$allocator@N@std@@@std@@@read@tools@@SAGXZ@4HA 	 DATA
	?$TSS0@?1??id_class@?$icolumn@V?$vector@V?$basic_string@DU?$char_traits@D@std@@V?$allocator@D@2@@std@@V?$allocator@V?$basic_string@DU?$char_traits@D@std@@V?$allocator@D@2@@std@@@2@@std@@@read@tools@@SAGXZ@4HA 	 DATA
	?$TSS0@?1??id_class@?$icolumn@V?$vector@_JV?$allocator@_J@std@@@std@@@read@tools@@SAGXZ@4HA 	 DATA
	?$TSS0@?1??id_class@?$icolumn@V?$vector@_KV?$allocator@_K@std@@@std@@@read@tools@@SAGXZ@4HA 	 DATA
	?$TSS0@?1??id_class@?$icolumn@V?$vector@_NV?$allocator@_N@std@@@std@@@read@tools@@SAGXZ@4HA 	 DATA
	?$TSS0@?1??id_class@column_string@base_pntuple@wroot@tools@@SAGXZ@4HA 	 DATA
	?$TSS0@?1??id_class@column_string@ntuple@rroot@tools@@SAGXZ@4HA 	 DATA
	?$TSS0@?1??id_class@column_string@ntuple@wroot@tools@@SAGXZ@4HA 	 DATA
	?$TSS0@?1??id_class@column_string_ref@base_pntuple@wroot@tools@@SAGXZ@4HA 	 DATA
	?$TSS0@?1??id_class@column_string_ref@ntuple@rroot@tools@@SAGXZ@4HA 	 DATA
	?$TSS0@?1??id_class@column_string_ref@ntuple@wroot@tools@@SAGXZ@4HA 	 DATA
	?$TSS0@?1??id_orientation@base_camera@sg@tools@@KAAEBV?$vec4@M@4@XZ@4HA 	 DATA
	?$TSS0@?1??infos_modeling_ROOT@sg@tools@@YAAEBV?$basic_string@DU?$char_traits@D@std@@V?$allocator@D@2@@std@@XZ@4HA 	 DATA
	?$TSS0@?1??key_axis_x_title@histo@tools@@YAAEBV?$basic_string@DU?$char_traits@D@std@@V?$allocator@D@2@@std@@XZ@4HA 	 DATA
	?$TSS0@?1??key_axis_y_title@histo@tools@@YAAEBV?$basic_string@DU?$char_traits@D@std@@V?$allocator@D@2@@std@@XZ@4HA 	 DATA
	?$TSS0@?1??key_axis_z_title@histo@tools@@YAAEBV?$basic_string@DU?$char_traits@D@std@@V?$allocator@D@2@@std@@XZ@4HA 	 DATA
	?$TSS0@?1??leaf_element_store_class@wroot@tools@@YAAEBV?$basic_string@DU?$char_traits@D@std@@V?$allocator@D@2@@std@@XZ@4HA 	 DATA
	?$TSS0@?1??leaf_store_class@rroot@tools@@YAAEBV?$basic_string@DU?$char_traits@D@std@@V?$allocator@D@2@@std@@D@Z@4HA 	 DATA
	?$TSS0@?1??leaf_store_class@rroot@tools@@YAAEBV?$basic_string@DU?$char_traits@D@std@@V?$allocator@D@2@@std@@F@Z@4HA 	 DATA
	?$TSS0@?1??leaf_store_class@rroot@tools@@YAAEBV?$basic_string@DU?$char_traits@D@std@@V?$allocator@D@2@@std@@H@Z@4HA 	 DATA
	?$TSS0@?1??leaf_store_class@rroot@tools@@YAAEBV?$basic_string@DU?$char_traits@D@std@@V?$allocator@D@2@@std@@M@Z@4HA 	 DATA
	?$TSS0@?1??leaf_store_class@rroot@tools@@YAAEBV?$basic_string@DU?$char_traits@D@std@@V?$allocator@D@2@@std@@N@Z@4HA 	 DATA
	?$TSS0@?1??leaf_store_class@rroot@tools@@YAAEBV?$basic_string@DU?$char_traits@D@std@@V?$allocator@D@2@@std@@_N@Z@4HA 	 DATA
	?$TSS0@?1??leaf_store_class@wroot@tools@@YAAEBV?$basic_string@DU?$char_traits@D@std@@V?$allocator@D@2@@std@@D@Z@4HA 	 DATA
	?$TSS0@?1??leaf_store_class@wroot@tools@@YAAEBV?$basic_string@DU?$char_traits@D@std@@V?$allocator@D@2@@std@@F@Z@4HA 	 DATA
	?$TSS0@?1??leaf_store_class@wroot@tools@@YAAEBV?$basic_string@DU?$char_traits@D@std@@V?$allocator@D@2@@std@@H@Z@4HA 	 DATA
	?$TSS0@?1??leaf_store_class@wroot@tools@@YAAEBV?$basic_string@DU?$char_traits@D@std@@V?$allocator@D@2@@std@@M@Z@4HA 	 DATA
	?$TSS0@?1??leaf_store_class@wroot@tools@@YAAEBV?$basic_string@DU?$char_traits@D@std@@V?$allocator@D@2@@std@@N@Z@4HA 	 DATA
	?$TSS0@?1??leaf_string_store_class@wroot@tools@@YAAEBV?$basic_string@DU?$char_traits@D@std@@V?$allocator@D@2@@std@@XZ@4HA 	 DATA
	?$TSS0@?1??light_model_base_color@sg@tools@@YAAEBV?$basic_string@DU?$char_traits@D@std@@V?$allocator@D@2@@std@@XZ@4HA 	 DATA
	?$TSS0@?1??light_model_phong@sg@tools@@YAAEBV?$basic_string@DU?$char_traits@D@std@@V?$allocator@D@2@@std@@XZ@4HA 	 DATA
	?$TSS0@?1??modeling_bar_chart@sg@tools@@YAAEBV?$basic_string@DU?$char_traits@D@std@@V?$allocator@D@2@@std@@XZ@4HA 	 DATA
	?$TSS0@?1??modeling_boxes@sg@tools@@YAAEBV?$basic_string@DU?$char_traits@D@std@@V?$allocator@D@2@@std@@XZ@4HA 	 DATA
	?$TSS0@?1??modeling_curve@sg@tools@@YAAEBV?$basic_string@DU?$char_traits@D@std@@V?$allocator@D@2@@std@@XZ@4HA 	 DATA
	?$TSS0@?1??modeling_filled_curve@sg@tools@@YAAEBV?$basic_string@DU?$char_traits@D@std@@V?$allocator@D@2@@std@@XZ@4HA 	 DATA
	?$TSS0@?1??modeling_lines@sg@tools@@YAAEBV?$basic_string@DU?$char_traits@D@std@@V?$allocator@D@2@@std@@XZ@4HA 	 DATA
	?$TSS0@?1??modeling_markers@sg@tools@@YAAEBV?$basic_string@DU?$char_traits@D@std@@V?$allocator@D@2@@std@@XZ@4HA 	 DATA
	?$TSS0@?1??modeling_plus@sg@tools@@YAAEBV?$basic_string@DU?$char_traits@D@std@@V?$allocator@D@2@@std@@XZ@4HA 	 DATA
	?$TSS0@?1??modeling_points@sg@tools@@YAAEBV?$basic_string@DU?$char_traits@D@std@@V?$allocator@D@2@@std@@XZ@4HA 	 DATA
	?$TSS0@?1??modeling_solid@sg@tools@@YAAEBV?$basic_string@DU?$char_traits@D@std@@V?$allocator@D@2@@std@@XZ@4HA 	 DATA
	?$TSS0@?1??modeling_texts@sg@tools@@YAAEBV?$basic_string@DU?$char_traits@D@std@@V?$allocator@D@2@@std@@XZ@4HA 	 DATA
	?$TSS0@?1??modeling_top_lines@sg@tools@@YAAEBV?$basic_string@DU?$char_traits@D@std@@V?$allocator@D@2@@std@@XZ@4HA 	 DATA
	?$TSS0@?1??modeling_top_lines_boxes@sg@tools@@YAAEBV?$basic_string@DU?$char_traits@D@std@@V?$allocator@D@2@@std@@XZ@4HA 	 DATA
	?$TSS0@?1??modeling_wire_boxes@sg@tools@@YAAEBV?$basic_string@DU?$char_traits@D@std@@V?$allocator@D@2@@std@@XZ@4HA 	 DATA
	?$TSS0@?1??node_desc_fields@_switch@sg@tools@@UEBAAEBVdesc_fields@34@XZ@4HA 	 DATA
	?$TSS0@?1??node_desc_fields@atb_vertices@sg@tools@@UEBAAEBVdesc_fields@34@XZ@4HA 	 DATA
	?$TSS0@?1??node_desc_fields@axis@sg@tools@@UEBAAEBVdesc_fields@34@XZ@4HA 	 DATA
	?$TSS0@?1??node_desc_fields@back_area@sg@tools@@UEBAAEBVdesc_fields@34@XZ@4HA 	 DATA
	?$TSS0@?1??node_desc_fields@base_camera@sg@tools@@UEBAAEBVdesc_fields@34@XZ@4HA 	 DATA
	?$TSS0@?1??node_desc_fields@base_freetype@sg@tools@@UEBAAEBVdesc_fields@34@XZ@4HA 	 DATA
	?$TSS0@?1??node_desc_fields@base_text@sg@tools@@UEBAAEBVdesc_fields@34@XZ@4HA 	 DATA
	?$TSS0@?1??node_desc_fields@cube@sg@tools@@UEBAAEBVdesc_fields@34@XZ@4HA 	 DATA
	?$TSS0@?1??node_desc_fields@draw_style@sg@tools@@UEBAAEBVdesc_fields@34@XZ@4HA 	 DATA
	?$TSS0@?1??node_desc_fields@ellipse@sg@tools@@UEBAAEBVdesc_fields@34@XZ@4HA 	 DATA
	?$TSS0@?1??node_desc_fields@infos_box@sg@tools@@UEBAAEBVdesc_fields@34@XZ@4HA 	 DATA
	?$TSS0@?1??node_desc_fields@legend@sg@tools@@UEBAAEBVdesc_fields@34@XZ@4HA 	 DATA
	?$TSS0@?1??node_desc_fields@line_style@sg@tools@@UEBAAEBVdesc_fields@34@XZ@4HA 	 DATA
	?$TSS0@?1??node_desc_fields@markers@sg@tools@@UEBAAEBVdesc_fields@34@XZ@4HA 	 DATA
	?$TSS0@?1??node_desc_fields@matrix@sg@tools@@UEBAAEBVdesc_fields@34@XZ@4HA 	 DATA
	?$TSS0@?1??node_desc_fields@node@sg@tools@@UEBAAEBVdesc_fields@34@XZ@4HA 	 DATA
	?$TSS0@?1??node_desc_fields@normal@sg@tools@@UEBAAEBVdesc_fields@34@XZ@4HA 	 DATA
	?$TSS0@?1??node_desc_fields@ortho@sg@tools@@UEBAAEBVdesc_fields@34@XZ@4HA 	 DATA
	?$TSS0@?1??node_desc_fields@plots@sg@tools@@UEBAAEBVdesc_fields@34@XZ@4HA 	 DATA
	?$TSS0@?1??node_desc_fields@plotter@sg@tools@@UEBAAEBVdesc_fields@34@XZ@4HA 	 DATA
	?$TSS0@?1??node_desc_fields@rgba@sg@tools@@UEBAAEBVdesc_fields@34@XZ@4HA 	 DATA
	?$TSS0@?1??node_desc_fields@style@sg@tools@@UEBAAEBVdesc_fields@34@XZ@4HA 	 DATA
	?$TSS0@?1??node_desc_fields@tex_rect@sg@tools@@UEBAAEBVdesc_fields@34@XZ@4HA 	 DATA
	?$TSS0@?1??node_desc_fields@text@sg@tools@@UEBAAEBVdesc_fields@34@XZ@4HA 	 DATA
	?$TSS0@?1??node_desc_fields@text_hershey@sg@tools@@UEBAAEBVdesc_fields@34@XZ@4HA 	 DATA
	?$TSS0@?1??node_desc_fields@text_style@sg@tools@@UEBAAEBVdesc_fields@34@XZ@4HA 	 DATA
	?$TSS0@?1??node_desc_fields@text_valop@sg@tools@@UEBAAEBVdesc_fields@34@XZ@4HA 	 DATA
	?$TSS0@?1??node_desc_fields@torche@sg@tools@@UEBAAEBVdesc_fields@34@XZ@4HA 	 DATA
	?$TSS0@?1??node_desc_fields@vertices@sg@tools@@UEBAAEBVdesc_fields@34@XZ@4HA 	 DATA
	?$TSS0@?1??s_aida@aidas@xml@tools@@KAAEBV?$basic_string@DU?$char_traits@D@std@@V?$allocator@D@2@@std@@XZ@4HA 	 DATA
	?$TSS0@?1??s_aida_type@aida@tools@@YAAEBV?$basic_string@DU?$char_traits@D@std@@V?$allocator@D@2@@std@@AEBV45@@Z@4HA 	 DATA
	?$TSS0@?1??s_aida_type@aida@tools@@YAAEBV?$basic_string@DU?$char_traits@D@std@@V?$allocator@D@2@@std@@F@Z@4HA 	 DATA
	?$TSS0@?1??s_aida_type@aida@tools@@YAAEBV?$basic_string@DU?$char_traits@D@std@@V?$allocator@D@2@@std@@G@Z@4HA 	 DATA
	?$TSS0@?1??s_aida_type@aida@tools@@YAAEBV?$basic_string@DU?$char_traits@D@std@@V?$allocator@D@2@@std@@H@Z@4HA 	 DATA
	?$TSS0@?1??s_aida_type@aida@tools@@YAAEBV?$basic_string@DU?$char_traits@D@std@@V?$allocator@D@2@@std@@I@Z@4HA 	 DATA
	?$TSS0@?1??s_aida_type@aida@tools@@YAAEBV?$basic_string@DU?$char_traits@D@std@@V?$allocator@D@2@@std@@M@Z@4HA 	 DATA
	?$TSS0@?1??s_aida_type@aida@tools@@YAAEBV?$basic_string@DU?$char_traits@D@std@@V?$allocator@D@2@@std@@N@Z@4HA 	 DATA
	?$TSS0@?1??s_aida_type@aida@tools@@YAAEBV?$basic_string@DU?$char_traits@D@std@@V?$allocator@D@2@@std@@_J@Z@4HA 	 DATA
	?$TSS0@?1??s_aida_type@aida@tools@@YAAEBV?$basic_string@DU?$char_traits@D@std@@V?$allocator@D@2@@std@@_K@Z@4HA 	 DATA
	?$TSS0@?1??s_aida_type@aida@tools@@YAAEBV?$basic_string@DU?$char_traits@D@std@@V?$allocator@D@2@@std@@_N@Z@4HA 	 DATA
	?$TSS0@?1??s_aida_type@ntuple@waxml@tools@@KAAEBV?$basic_string@DU?$char_traits@D@std@@V?$allocator@D@2@@std@@AEBV56@@Z@4HA 	 DATA
	?$TSS0@?1??s_aida_type@ntuple@waxml@tools@@KAAEBV?$basic_string@DU?$char_traits@D@std@@V?$allocator@D@2@@std@@H@Z@4HA 	 DATA
	?$TSS0@?1??s_aida_type@ntuple@waxml@tools@@KAAEBV?$basic_string@DU?$char_traits@D@std@@V?$allocator@D@2@@std@@M@Z@4HA 	 DATA
	?$TSS0@?1??s_aida_type@ntuple@waxml@tools@@KAAEBV?$basic_string@DU?$char_traits@D@std@@V?$allocator@D@2@@std@@N@Z@4HA 	 DATA
	?$TSS0@?1??s_aida_type_ituple@aida@tools@@YAAEBV?$basic_string@DU?$char_traits@D@std@@V?$allocator@D@2@@std@@XZ@4HA 	 DATA
	?$TSS0@?1??s_annotation@aidas@xml@tools@@KAAEBV?$basic_string@DU?$char_traits@D@std@@V?$allocator@D@2@@std@@XZ@4HA 	 DATA
	?$TSS0@?1??s_axis@aidas@xml@tools@@KAAEBV?$basic_string@DU?$char_traits@D@std@@V?$allocator@D@2@@std@@XZ@4HA 	 DATA
	?$TSS0@?1??s_binBorder@aidas@xml@tools@@KAAEBV?$basic_string@DU?$char_traits@D@std@@V?$allocator@D@2@@std@@XZ@4HA 	 DATA
	?$TSS0@?1??s_booking@aidas@xml@tools@@KAAEBV?$basic_string@DU?$char_traits@D@std@@V?$allocator@D@2@@std@@XZ@4HA 	 DATA
	?$TSS0@?1??s_class@?$aida_col@F@aida@tools@@SAAEBV?$basic_string@DU?$char_traits@D@std@@V?$allocator@D@2@@std@@XZ@4HA 	 DATA
	?$TSS0@?1??s_class@?$aida_col@G@aida@tools@@SAAEBV?$basic_string@DU?$char_traits@D@std@@V?$allocator@D@2@@std@@XZ@4HA 	 DATA
	?$TSS0@?1??s_class@?$aida_col@H@aida@tools@@SAAEBV?$basic_string@DU?$char_traits@D@std@@V?$allocator@D@2@@std@@XZ@4HA 	 DATA
	?$TSS0@?1??s_class@?$aida_col@I@aida@tools@@SAAEBV?$basic_string@DU?$char_traits@D@std@@V?$allocator@D@2@@std@@XZ@4HA 	 DATA
	?$TSS0@?1??s_class@?$aida_col@M@aida@tools@@SAAEBV?$basic_string@DU?$char_traits@D@std@@V?$allocator@D@2@@std@@XZ@4HA 	 DATA
	?$TSS0@?1??s_class@?$aida_col@N@aida@tools@@SAAEBV?$basic_string@DU?$char_traits@D@std@@V?$allocator@D@2@@std@@XZ@4HA 	 DATA
	?$TSS0@?1??s_class@?$aida_col@V?$basic_string@DU?$char_traits@D@std@@V?$allocator@D@2@@std@@@aida@tools@@SAAEBV?$basic_string@DU?$char_traits@D@std@@V?$allocator@D@2@@std@@XZ@4HA 	 DATA
	?$TSS0@?1??s_class@?$aida_col@_J@aida@tools@@SAAEBV?$basic_string@DU?$char_traits@D@std@@V?$allocator@D@2@@std@@XZ@4HA 	 DATA
	?$TSS0@?1??s_class@?$aida_col@_K@aida@tools@@SAAEBV?$basic_string@DU?$char_traits@D@std@@V?$allocator@D@2@@std@@XZ@4HA 	 DATA
	?$TSS0@?1??s_class@?$aida_col@_N@aida@tools@@SAAEBV?$basic_string@DU?$char_traits@D@std@@V?$allocator@D@2@@std@@XZ@4HA 	 DATA
	?$TSS0@?1??s_class@?$bmf@M@sg@tools@@SAAEBV?$basic_string@DU?$char_traits@D@std@@V?$allocator@D@2@@std@@XZ@4HA 	 DATA
	?$TSS0@?1??s_class@?$bmf@V?$basic_string@DU?$char_traits@D@std@@V?$allocator@D@2@@std@@@sg@tools@@SAAEBV?$basic_string@DU?$char_traits@D@std@@V?$allocator@D@2@@std@@XZ@4HA 	 DATA
	?$TSS0@?1??s_class@?$bmf@V?$vector@IV?$allocator@I@std@@@std@@@sg@tools@@SAAEBV?$basic_string@DU?$char_traits@D@std@@V?$allocator@D@2@@std@@XZ@4HA 	 DATA
	?$TSS0@?1??s_class@?$bmf@Vvec2f@tools@@@sg@tools@@SAAEBV?$basic_string@DU?$char_traits@D@std@@V?$allocator@D@2@@std@@XZ@4HA 	 DATA
	?$TSS0@?1??s_class@?$bmf@W4unit_type@plotter@sg@tools@@@sg@tools@@SAAEBV?$basic_string@DU?$char_traits@D@std@@V?$allocator@D@2@@std@@XZ@4HA 	 DATA
	?$TSS0@?1??s_class@?$bsf@E@sg@tools@@SAAEBV?$basic_string@DU?$char_traits@D@std@@V?$allocator@D@2@@std@@XZ@4HA 	 DATA
	?$TSS0@?1??s_class@?$bsf@G@sg@tools@@SAAEBV?$basic_string@DU?$char_traits@D@std@@V?$allocator@D@2@@std@@XZ@4HA 	 DATA
	?$TSS0@?1??s_class@?$bsf@H@sg@tools@@SAAEBV?$basic_string@DU?$char_traits@D@std@@V?$allocator@D@2@@std@@XZ@4HA 	 DATA
	?$TSS0@?1??s_class@?$bsf@I@sg@tools@@SAAEBV?$basic_string@DU?$char_traits@D@std@@V?$allocator@D@2@@std@@XZ@4HA 	 DATA
	?$TSS0@?1??s_class@?$bsf@M@sg@tools@@SAAEBV?$basic_string@DU?$char_traits@D@std@@V?$allocator@D@2@@std@@XZ@4HA 	 DATA
	?$TSS0@?1??s_class@?$bsf@N@sg@tools@@SAAEBV?$basic_string@DU?$char_traits@D@std@@V?$allocator@D@2@@std@@XZ@4HA 	 DATA
	?$TSS0@?1??s_class@?$bsf@V?$basic_string@DU?$char_traits@D@std@@V?$allocator@D@2@@std@@@sg@tools@@SAAEBV?$basic_string@DU?$char_traits@D@std@@V?$allocator@D@2@@std@@XZ@4HA 	 DATA
	?$TSS0@?1??s_class@?$bsf@V?$img@E@tools@@@sg@tools@@SAAEBV?$basic_string@DU?$char_traits@D@std@@V?$allocator@D@2@@std@@XZ@4HA 	 DATA
	?$TSS0@?1??s_class@?$bsf@Vcolorf@tools@@@sg@tools@@SAAEBV?$basic_string@DU?$char_traits@D@std@@V?$allocator@D@2@@std@@XZ@4HA 	 DATA
	?$TSS0@?1??s_class@?$bsf@Vmat4f@tools@@@sg@tools@@SAAEBV?$basic_string@DU?$char_traits@D@std@@V?$allocator@D@2@@std@@XZ@4HA 	 DATA
	?$TSS0@?1??s_class@?$bsf@Vrotf@tools@@@sg@tools@@SAAEBV?$basic_string@DU?$char_traits@D@std@@V?$allocator@D@2@@std@@XZ@4HA 	 DATA
	?$TSS0@?1??s_class@?$bsf@Vvec3f@tools@@@sg@tools@@SAAEBV?$basic_string@DU?$char_traits@D@std@@V?$allocator@D@2@@std@@XZ@4HA 	 DATA
	?$TSS0@?1??s_class@?$bsf@Vvec4f@tools@@@sg@tools@@SAAEBV?$basic_string@DU?$char_traits@D@std@@V?$allocator@D@2@@std@@XZ@4HA 	 DATA
	?$TSS0@?1??s_class@?$bsf@W4area_style@sg@tools@@@sg@tools@@SAAEBV?$basic_string@DU?$char_traits@D@std@@V?$allocator@D@2@@std@@XZ@4HA 	 DATA
	?$TSS0@?1??s_class@?$bsf@W4colormap_axis_labeling_type@plotter@sg@tools@@@sg@tools@@SAAEBV?$basic_string@DU?$char_traits@D@std@@V?$allocator@D@2@@std@@XZ@4HA 	 DATA
	?$TSS0@?1??s_class@?$bsf@W4draw_type@sg@tools@@@sg@tools@@SAAEBV?$basic_string@DU?$char_traits@D@std@@V?$allocator@D@2@@std@@XZ@4HA 	 DATA
	?$TSS0@?1??s_class@?$bsf@W4font_modeling@sg@tools@@@sg@tools@@SAAEBV?$basic_string@DU?$char_traits@D@std@@V?$allocator@D@2@@std@@XZ@4HA 	 DATA
	?$TSS0@?1??s_class@?$bsf@W4font_type@sg@tools@@@sg@tools@@SAAEBV?$basic_string@DU?$char_traits@D@std@@V?$allocator@D@2@@std@@XZ@4HA 	 DATA
	?$TSS0@?1??s_class@?$bsf@W4hatching_policy@sg@tools@@@sg@tools@@SAAEBV?$basic_string@DU?$char_traits@D@std@@V?$allocator@D@2@@std@@XZ@4HA 	 DATA
	?$TSS0@?1??s_class@?$bsf@W4hjust@sg@tools@@@sg@tools@@SAAEBV?$basic_string@DU?$char_traits@D@std@@V?$allocator@D@2@@std@@XZ@4HA 	 DATA
	?$TSS0@?1??s_class@?$bsf@W4marker_style@sg@tools@@@sg@tools@@SAAEBV?$basic_string@DU?$char_traits@D@std@@V?$allocator@D@2@@std@@XZ@4HA 	 DATA
	?$TSS0@?1??s_class@?$bsf@W4painting_policy@sg@tools@@@sg@tools@@SAAEBV?$basic_string@DU?$char_traits@D@std@@V?$allocator@D@2@@std@@XZ@4HA 	 DATA
	?$TSS0@?1??s_class@?$bsf@W4projection_type@sg@tools@@@sg@tools@@SAAEBV?$basic_string@DU?$char_traits@D@std@@V?$allocator@D@2@@std@@XZ@4HA 	 DATA
	?$TSS0@?1??s_class@?$bsf@W4shape_type@plotter@sg@tools@@@sg@tools@@SAAEBV?$basic_string@DU?$char_traits@D@std@@V?$allocator@D@2@@std@@XZ@4HA 	 DATA
	?$TSS0@?1??s_class@?$bsf@W4vjust@sg@tools@@@sg@tools@@SAAEBV?$basic_string@DU?$char_traits@D@std@@V?$allocator@D@2@@std@@XZ@4HA 	 DATA
	?$TSS0@?1??s_class@?$bsf@W4winding_type@sg@tools@@@sg@tools@@SAAEBV?$basic_string@DU?$char_traits@D@std@@V?$allocator@D@2@@std@@XZ@4HA 	 DATA
	?$TSS0@?1??s_class@?$bsf@_N@sg@tools@@SAAEBV?$basic_string@DU?$char_traits@D@std@@V?$allocator@D@2@@std@@XZ@4HA 	 DATA
	?$TSS0@?1??s_class@?$leaf@D@rroot@tools@@SAAEBV?$basic_string@DU?$char_traits@D@std@@V?$allocator@D@2@@std@@XZ@4HA 	 DATA
	?$TSS0@?1??s_class@?$leaf@F@rroot@tools@@SAAEBV?$basic_string@DU?$char_traits@D@std@@V?$allocator@D@2@@std@@XZ@4HA 	 DATA
	?$TSS0@?1??s_class@?$leaf@H@rroot@tools@@SAAEBV?$basic_string@DU?$char_traits@D@std@@V?$allocator@D@2@@std@@XZ@4HA 	 DATA
	?$TSS0@?1??s_class@?$leaf@M@rroot@tools@@SAAEBV?$basic_string@DU?$char_traits@D@std@@V?$allocator@D@2@@std@@XZ@4HA 	 DATA
	?$TSS0@?1??s_class@?$leaf@N@rroot@tools@@SAAEBV?$basic_string@DU?$char_traits@D@std@@V?$allocator@D@2@@std@@XZ@4HA 	 DATA
	?$TSS0@?1??s_class@?$leaf@_N@rroot@tools@@SAAEBV?$basic_string@DU?$char_traits@D@std@@V?$allocator@D@2@@std@@XZ@4HA 	 DATA
	?$TSS0@?1??s_class@?$mf@M@sg@tools@@SAAEBV?$basic_string@DU?$char_traits@D@std@@V?$allocator@D@2@@std@@XZ@4HA 	 DATA
	?$TSS0@?1??s_class@?$mf_enum@W4unit_type@plotter@sg@tools@@@sg@tools@@SAAEBV?$basic_string@DU?$char_traits@D@std@@V?$allocator@D@2@@std@@XZ@4HA 	 DATA
	?$TSS0@?1??s_class@?$mf_std_vec@I@sg@tools@@SAAEBV?$basic_string@DU?$char_traits@D@std@@V?$allocator@D@2@@std@@XZ@4HA 	 DATA
	?$TSS0@?1??s_class@?$mf_vec@Vvec2f@tools@@M@sg@tools@@SAAEBV?$basic_string@DU?$char_traits@D@std@@V?$allocator@D@2@@std@@XZ@4HA 	 DATA
	?$TSS0@?1??s_class@?$obj_array@Vbase_leaf@rroot@tools@@@rroot@tools@@SAAEBV?$basic_string@DU?$char_traits@D@std@@V?$allocator@D@2@@std@@XZ@4HA 	 DATA
	?$TSS0@?1??s_class@?$obj_array@Vbasket@rroot@tools@@@rroot@tools@@SAAEBV?$basic_string@DU?$char_traits@D@std@@V?$allocator@D@2@@std@@XZ@4HA 	 DATA
	?$TSS0@?1??s_class@?$obj_array@Vbranch@rroot@tools@@@rroot@tools@@SAAEBV?$basic_string@DU?$char_traits@D@std@@V?$allocator@D@2@@std@@XZ@4HA 	 DATA
	?$TSS0@?1??s_class@?$obj_array@Vstreamer_element@rroot@tools@@@rroot@tools@@SAAEBV?$basic_string@DU?$char_traits@D@std@@V?$allocator@D@2@@std@@XZ@4HA 	 DATA
	?$TSS0@?1??s_class@?$sf@E@sg@tools@@SAAEBV?$basic_string@DU?$char_traits@D@std@@V?$allocator@D@2@@std@@XZ@4HA 	 DATA
	?$TSS0@?1??s_class@?$sf@G@sg@tools@@SAAEBV?$basic_string@DU?$char_traits@D@std@@V?$allocator@D@2@@std@@XZ@4HA 	 DATA
	?$TSS0@?1??s_class@?$sf@H@sg@tools@@SAAEBV?$basic_string@DU?$char_traits@D@std@@V?$allocator@D@2@@std@@XZ@4HA 	 DATA
	?$TSS0@?1??s_class@?$sf@I@sg@tools@@SAAEBV?$basic_string@DU?$char_traits@D@std@@V?$allocator@D@2@@std@@XZ@4HA 	 DATA
	?$TSS0@?1??s_class@?$sf@M@sg@tools@@SAAEBV?$basic_string@DU?$char_traits@D@std@@V?$allocator@D@2@@std@@XZ@4HA 	 DATA
	?$TSS0@?1??s_class@?$sf@N@sg@tools@@SAAEBV?$basic_string@DU?$char_traits@D@std@@V?$allocator@D@2@@std@@XZ@4HA 	 DATA
	?$TSS0@?1??s_class@?$sf@_N@sg@tools@@SAAEBV?$basic_string@DU?$char_traits@D@std@@V?$allocator@D@2@@std@@XZ@4HA 	 DATA
	?$TSS0@?1??s_class@?$sf_enum@W4area_style@sg@tools@@@sg@tools@@SAAEBV?$basic_string@DU?$char_traits@D@std@@V?$allocator@D@2@@std@@XZ@4HA 	 DATA
	?$TSS0@?1??s_class@?$sf_enum@W4colormap_axis_labeling_type@plotter@sg@tools@@@sg@tools@@SAAEBV?$basic_string@DU?$char_traits@D@std@@V?$allocator@D@2@@std@@XZ@4HA 	 DATA
	?$TSS0@?1??s_class@?$sf_enum@W4draw_type@sg@tools@@@sg@tools@@SAAEBV?$basic_string@DU?$char_traits@D@std@@V?$allocator@D@2@@std@@XZ@4HA 	 DATA
	?$TSS0@?1??s_class@?$sf_enum@W4font_modeling@sg@tools@@@sg@tools@@SAAEBV?$basic_string@DU?$char_traits@D@std@@V?$allocator@D@2@@std@@XZ@4HA 	 DATA
	?$TSS0@?1??s_class@?$sf_enum@W4font_type@sg@tools@@@sg@tools@@SAAEBV?$basic_string@DU?$char_traits@D@std@@V?$allocator@D@2@@std@@XZ@4HA 	 DATA
	?$TSS0@?1??s_class@?$sf_enum@W4hatching_policy@sg@tools@@@sg@tools@@SAAEBV?$basic_string@DU?$char_traits@D@std@@V?$allocator@D@2@@std@@XZ@4HA 	 DATA
	?$TSS0@?1??s_class@?$sf_enum@W4hjust@sg@tools@@@sg@tools@@SAAEBV?$basic_string@DU?$char_traits@D@std@@V?$allocator@D@2@@std@@XZ@4HA 	 DATA
	?$TSS0@?1??s_class@?$sf_enum@W4marker_style@sg@tools@@@sg@tools@@SAAEBV?$basic_string@DU?$char_traits@D@std@@V?$allocator@D@2@@std@@XZ@4HA 	 DATA
	?$TSS0@?1??s_class@?$sf_enum@W4painting_policy@sg@tools@@@sg@tools@@SAAEBV?$basic_string@DU?$char_traits@D@std@@V?$allocator@D@2@@std@@XZ@4HA 	 DATA
	?$TSS0@?1??s_class@?$sf_enum@W4projection_type@sg@tools@@@sg@tools@@SAAEBV?$basic_string@DU?$char_traits@D@std@@V?$allocator@D@2@@std@@XZ@4HA 	 DATA
	?$TSS0@?1??s_class@?$sf_enum@W4shape_type@plotter@sg@tools@@@sg@tools@@SAAEBV?$basic_string@DU?$char_traits@D@std@@V?$allocator@D@2@@std@@XZ@4HA 	 DATA
	?$TSS0@?1??s_class@?$sf_enum@W4vjust@sg@tools@@@sg@tools@@SAAEBV?$basic_string@DU?$char_traits@D@std@@V?$allocator@D@2@@std@@XZ@4HA 	 DATA
	?$TSS0@?1??s_class@?$sf_enum@W4winding_type@sg@tools@@@sg@tools@@SAAEBV?$basic_string@DU?$char_traits@D@std@@V?$allocator@D@2@@std@@XZ@4HA 	 DATA
	?$TSS0@?1??s_class@?$sf_img@E@sg@tools@@SAAEBV?$basic_string@DU?$char_traits@D@std@@V?$allocator@D@2@@std@@XZ@4HA 	 DATA
	?$TSS0@?1??s_class@?$sf_vec@Vcolorf@tools@@M@sg@tools@@SAAEBV?$basic_string@DU?$char_traits@D@std@@V?$allocator@D@2@@std@@XZ@4HA 	 DATA
	?$TSS0@?1??s_class@?$sf_vec@Vmat4f@tools@@M@sg@tools@@SAAEBV?$basic_string@DU?$char_traits@D@std@@V?$allocator@D@2@@std@@XZ@4HA 	 DATA
	?$TSS0@?1??s_class@?$sf_vec@Vvec3f@tools@@M@sg@tools@@SAAEBV?$basic_string@DU?$char_traits@D@std@@V?$allocator@D@2@@std@@XZ@4HA 	 DATA
	?$TSS0@?1??s_class@?$sf_vec@Vvec4f@tools@@M@sg@tools@@SAAEBV?$basic_string@DU?$char_traits@D@std@@V?$allocator@D@2@@std@@XZ@4HA 	 DATA
	?$TSS0@?1??s_class@?$stl_vector@F@rroot@tools@@SAAEBV?$basic_string@DU?$char_traits@D@std@@V?$allocator@D@2@@std@@XZ@4HA 	 DATA
	?$TSS0@?1??s_class@?$stl_vector@G@rroot@tools@@SAAEBV?$basic_string@DU?$char_traits@D@std@@V?$allocator@D@2@@std@@XZ@4HA 	 DATA
	?$TSS0@?1??s_class@?$stl_vector@H@rroot@tools@@SAAEBV?$basic_string@DU?$char_traits@D@std@@V?$allocator@D@2@@std@@XZ@4HA 	 DATA
	?$TSS0@?1??s_class@?$stl_vector@I@rroot@tools@@SAAEBV?$basic_string@DU?$char_traits@D@std@@V?$allocator@D@2@@std@@XZ@4HA 	 DATA
	?$TSS0@?1??s_class@?$stl_vector@M@rroot@tools@@SAAEBV?$basic_string@DU?$char_traits@D@std@@V?$allocator@D@2@@std@@XZ@4HA 	 DATA
	?$TSS0@?1??s_class@?$stl_vector@N@rroot@tools@@SAAEBV?$basic_string@DU?$char_traits@D@std@@V?$allocator@D@2@@std@@XZ@4HA 	 DATA
	?$TSS0@?1??s_class@?$stl_vector@_K@rroot@tools@@SAAEBV?$basic_string@DU?$char_traits@D@std@@V?$allocator@D@2@@std@@XZ@4HA 	 DATA
	?$TSS0@?1??s_class@?$stl_vector_vector@F@rroot@tools@@SAAEBV?$basic_string@DU?$char_traits@D@std@@V?$allocator@D@2@@std@@XZ@4HA 	 DATA
	?$TSS0@?1??s_class@?$stl_vector_vector@G@rroot@tools@@SAAEBV?$basic_string@DU?$char_traits@D@std@@V?$allocator@D@2@@std@@XZ@4HA 	 DATA
	?$TSS0@?1??s_class@?$stl_vector_vector@H@rroot@tools@@SAAEBV?$basic_string@DU?$char_traits@D@std@@V?$allocator@D@2@@std@@XZ@4HA 	 DATA
	?$TSS0@?1??s_class@?$stl_vector_vector@I@rroot@tools@@SAAEBV?$basic_string@DU?$char_traits@D@std@@V?$allocator@D@2@@std@@XZ@4HA 	 DATA
	?$TSS0@?1??s_class@?$stl_vector_vector@M@rroot@tools@@SAAEBV?$basic_string@DU?$char_traits@D@std@@V?$allocator@D@2@@std@@XZ@4HA 	 DATA
	?$TSS0@?1??s_class@?$stl_vector_vector@N@rroot@tools@@SAAEBV?$basic_string@DU?$char_traits@D@std@@V?$allocator@D@2@@std@@XZ@4HA 	 DATA
	?$TSS0@?1??s_class@_switch@sg@tools@@SAAEBV?$basic_string@DU?$char_traits@D@std@@V?$allocator@D@2@@std@@XZ@4HA 	 DATA
	?$TSS0@?1??s_class@aida_base_col@aida@tools@@SAAEBV?$basic_string@DU?$char_traits@D@std@@V?$allocator@D@2@@std@@XZ@4HA 	 DATA
	?$TSS0@?1??s_class@aida_col_ntu@aida@tools@@SAAEBV?$basic_string@DU?$char_traits@D@std@@V?$allocator@D@2@@std@@XZ@4HA 	 DATA
	?$TSS0@?1??s_class@atb_vertices@sg@tools@@SAAEBV?$basic_string@DU?$char_traits@D@std@@V?$allocator@D@2@@std@@XZ@4HA 	 DATA
	?$TSS0@?1??s_class@axis@sg@tools@@SAAEBV?$basic_string@DU?$char_traits@D@std@@V?$allocator@D@2@@std@@XZ@4HA 	 DATA
	?$TSS0@?1??s_class@back_area@sg@tools@@SAAEBV?$basic_string@DU?$char_traits@D@std@@V?$allocator@D@2@@std@@XZ@4HA 	 DATA
	?$TSS0@?1??s_class@base_camera@sg@tools@@SAAEBV?$basic_string@DU?$char_traits@D@std@@V?$allocator@D@2@@std@@XZ@4HA 	 DATA
	?$TSS0@?1??s_class@base_col@aida@tools@@SAAEBV?$basic_string@DU?$char_traits@D@std@@V?$allocator@D@2@@std@@XZ@4HA 	 DATA
	?$TSS0@?1??s_class@base_freetype@sg@tools@@SAAEBV?$basic_string@DU?$char_traits@D@std@@V?$allocator@D@2@@std@@XZ@4HA 	 DATA
	?$TSS0@?1??s_class@base_leaf@rroot@tools@@SAAEBV?$basic_string@DU?$char_traits@D@std@@V?$allocator@D@2@@std@@XZ@4HA 	 DATA
	?$TSS0@?1??s_class@base_ntu@aida@tools@@SAAEBV?$basic_string@DU?$char_traits@D@std@@V?$allocator@D@2@@std@@XZ@4HA 	 DATA
	?$TSS0@?1??s_class@base_tex@sg@tools@@SAAEBV?$basic_string@DU?$char_traits@D@std@@V?$allocator@D@2@@std@@XZ@4HA 	 DATA
	?$TSS0@?1??s_class@basket@rroot@tools@@SAAEBV?$basic_string@DU?$char_traits@D@std@@V?$allocator@D@2@@std@@XZ@4HA 	 DATA
	?$TSS0@?1??s_class@bins1D@sg@tools@@SAAEBV?$basic_string@DU?$char_traits@D@std@@V?$allocator@D@2@@std@@XZ@4HA 	 DATA
	?$TSS0@?1??s_class@bins2D@sg@tools@@SAAEBV?$basic_string@DU?$char_traits@D@std@@V?$allocator@D@2@@std@@XZ@4HA 	 DATA
	?$TSS0@?1??s_class@branch@rroot@tools@@SAAEBV?$basic_string@DU?$char_traits@D@std@@V?$allocator@D@2@@std@@XZ@4HA 	 DATA
	?$TSS0@?1??s_class@branch_element@rroot@tools@@SAAEBV?$basic_string@DU?$char_traits@D@std@@V?$allocator@D@2@@std@@XZ@4HA 	 DATA
	?$TSS0@?1??s_class@branch_object@rroot@tools@@SAAEBV?$basic_string@DU?$char_traits@D@std@@V?$allocator@D@2@@std@@XZ@4HA 	 DATA
	?$TSS0@?1??s_class@bsf_enum@sg@tools@@SAAEBV?$basic_string@DU?$char_traits@D@std@@V?$allocator@D@2@@std@@XZ@4HA 	 DATA
	?$TSS0@?1??s_class@by_value_colormap@sg@tools@@SAAEBV?$basic_string@DU?$char_traits@D@std@@V?$allocator@D@2@@std@@XZ@4HA 	 DATA
	?$TSS0@?1??s_class@c1d@histo@tools@@SAAEBV?$basic_string@DU?$char_traits@D@std@@V?$allocator@D@2@@std@@XZ@4HA 	 DATA
	?$TSS0@?1??s_class@c2d@histo@tools@@SAAEBV?$basic_string@DU?$char_traits@D@std@@V?$allocator@D@2@@std@@XZ@4HA 	 DATA
	?$TSS0@?1??s_class@c3d@histo@tools@@SAAEBV?$basic_string@DU?$char_traits@D@std@@V?$allocator@D@2@@std@@XZ@4HA 	 DATA
	?$TSS0@?1??s_class@colorf@tools@@SAAEBV?$basic_string@DU?$char_traits@D@std@@V?$allocator@D@2@@std@@XZ@4HA 	 DATA
	?$TSS0@?1??s_class@const_colormap@sg@tools@@SAAEBV?$basic_string@DU?$char_traits@D@std@@V?$allocator@D@2@@std@@XZ@4HA 	 DATA
	?$TSS0@?1??s_class@cube@sg@tools@@SAAEBV?$basic_string@DU?$char_traits@D@std@@V?$allocator@D@2@@std@@XZ@4HA 	 DATA
	?$TSS0@?1??s_class@curve@tools@@SAAEBV?$basic_string@DU?$char_traits@D@std@@V?$allocator@D@2@@std@@XZ@4HA 	 DATA
	?$TSS0@?1??s_class@dps@histo@tools@@SAAEBV?$basic_string@DU?$char_traits@D@std@@V?$allocator@D@2@@std@@XZ@4HA 	 DATA
	?$TSS0@?1??s_class@draw_style@sg@tools@@SAAEBV?$basic_string@DU?$char_traits@D@std@@V?$allocator@D@2@@std@@XZ@4HA 	 DATA
	?$TSS0@?1??s_class@dummy@rroot@tools@@SAAEBV?$basic_string@DU?$char_traits@D@std@@V?$allocator@D@2@@std@@XZ@4HA 	 DATA
	?$TSS0@?1??s_class@dummy_freetype@sg@tools@@SAAEBV?$basic_string@DU?$char_traits@D@std@@V?$allocator@D@2@@std@@XZ@4HA 	 DATA
	?$TSS0@?1??s_class@ellipse@sg@tools@@SAAEBV?$basic_string@DU?$char_traits@D@std@@V?$allocator@D@2@@std@@XZ@4HA 	 DATA
	?$TSS0@?1??s_class@field@sg@tools@@SAAEBV?$basic_string@DU?$char_traits@D@std@@V?$allocator@D@2@@std@@XZ@4HA 	 DATA
	?$TSS0@?1??s_class@file@rroot@tools@@SAAEBV?$basic_string@DU?$char_traits@D@std@@V?$allocator@D@2@@std@@XZ@4HA 	 DATA
	?$TSS0@?1??s_class@file@wroot@tools@@SAAEBV?$basic_string@DU?$char_traits@D@std@@V?$allocator@D@2@@std@@XZ@4HA 	 DATA
	?$TSS0@?1??s_class@func1D@sg@tools@@SAAEBV?$basic_string@DU?$char_traits@D@std@@V?$allocator@D@2@@std@@XZ@4HA 	 DATA
	?$TSS0@?1??s_class@func2D@sg@tools@@SAAEBV?$basic_string@DU?$char_traits@D@std@@V?$allocator@D@2@@std@@XZ@4HA 	 DATA
	?$TSS0@?1??s_class@gl2ps_manager@sg@tools@@SAAEBV?$basic_string@DU?$char_traits@D@std@@V?$allocator@D@2@@std@@XZ@4HA 	 DATA
	?$TSS0@?1??s_class@graph@rroot@tools@@SAAEBV?$basic_string@DU?$char_traits@D@std@@V?$allocator@D@2@@std@@XZ@4HA 	 DATA
	?$TSS0@?1??s_class@grey_scale_colormap@sg@tools@@SAAEBV?$basic_string@DU?$char_traits@D@std@@V?$allocator@D@2@@std@@XZ@4HA 	 DATA
	?$TSS0@?1??s_class@grey_scale_inverse_colormap@sg@tools@@SAAEBV?$basic_string@DU?$char_traits@D@std@@V?$allocator@D@2@@std@@XZ@4HA 	 DATA
	?$TSS0@?1??s_class@group@sg@tools@@SAAEBV?$basic_string@DU?$char_traits@D@std@@V?$allocator@D@2@@std@@XZ@4HA 	 DATA
	?$TSS0@?1??s_class@h1d2plot@sg@tools@@SAAEBV?$basic_string@DU?$char_traits@D@std@@V?$allocator@D@2@@std@@XZ@4HA 	 DATA
	?$TSS0@?1??s_class@h1d@histo@tools@@SAAEBV?$basic_string@DU?$char_traits@D@std@@V?$allocator@D@2@@std@@XZ@4HA 	 DATA
	?$TSS0@?1??s_class@h2d2plot@sg@tools@@SAAEBV?$basic_string@DU?$char_traits@D@std@@V?$allocator@D@2@@std@@XZ@4HA 	 DATA
	?$TSS0@?1??s_class@h2d@histo@tools@@SAAEBV?$basic_string@DU?$char_traits@D@std@@V?$allocator@D@2@@std@@XZ@4HA 	 DATA
	?$TSS0@?1??s_class@h3d@histo@tools@@SAAEBV?$basic_string@DU?$char_traits@D@std@@V?$allocator@D@2@@std@@XZ@4HA 	 DATA
	?$TSS0@?1??s_class@infos_box@sg@tools@@SAAEBV?$basic_string@DU?$char_traits@D@std@@V?$allocator@D@2@@std@@XZ@4HA 	 DATA
	?$TSS0@?1??s_class@iros@rroot@tools@@SAAEBV?$basic_string@DU?$char_traits@D@std@@V?$allocator@D@2@@std@@XZ@4HA 	 DATA
	?$TSS0@?1??s_class@leaf_element@rroot@tools@@SAAEBV?$basic_string@DU?$char_traits@D@std@@V?$allocator@D@2@@std@@XZ@4HA 	 DATA
	?$TSS0@?1??s_class@leaf_object@rroot@tools@@SAAEBV?$basic_string@DU?$char_traits@D@std@@V?$allocator@D@2@@std@@XZ@4HA 	 DATA
	?$TSS0@?1??s_class@leaf_string@rroot@tools@@SAAEBV?$basic_string@DU?$char_traits@D@std@@V?$allocator@D@2@@std@@XZ@4HA 	 DATA
	?$TSS0@?1??s_class@legend@sg@tools@@SAAEBV?$basic_string@DU?$char_traits@D@std@@V?$allocator@D@2@@std@@XZ@4HA 	 DATA
	?$TSS0@?1??s_class@line_style@sg@tools@@SAAEBV?$basic_string@DU?$char_traits@D@std@@V?$allocator@D@2@@std@@XZ@4HA 	 DATA
	?$TSS0@?1??s_class@markers@sg@tools@@SAAEBV?$basic_string@DU?$char_traits@D@std@@V?$allocator@D@2@@std@@XZ@4HA 	 DATA
	?$TSS0@?1??s_class@matrix@rroot@tools@@SAAEBV?$basic_string@DU?$char_traits@D@std@@V?$allocator@D@2@@std@@XZ@4HA 	 DATA
	?$TSS0@?1??s_class@matrix@sg@tools@@SAAEBV?$basic_string@DU?$char_traits@D@std@@V?$allocator@D@2@@std@@XZ@4HA 	 DATA
	?$TSS0@?1??s_class@mf_string@sg@tools@@SAAEBV?$basic_string@DU?$char_traits@D@std@@V?$allocator@D@2@@std@@XZ@4HA 	 DATA
	?$TSS0@?1??s_class@named@rroot@tools@@SAAEBV?$basic_string@DU?$char_traits@D@std@@V?$allocator@D@2@@std@@XZ@4HA 	 DATA
	?$TSS0@?1??s_class@node@sg@tools@@SAAEBV?$basic_string@DU?$char_traits@D@std@@V?$allocator@D@2@@std@@XZ@4HA 	 DATA
	?$TSS0@?1??s_class@noderef@sg@tools@@SAAEBV?$basic_string@DU?$char_traits@D@std@@V?$allocator@D@2@@std@@XZ@4HA 	 DATA
	?$TSS0@?1??s_class@normal@sg@tools@@SAAEBV?$basic_string@DU?$char_traits@D@std@@V?$allocator@D@2@@std@@XZ@4HA 	 DATA
	?$TSS0@?1??s_class@ntuple@aida@tools@@SAAEBV?$basic_string@DU?$char_traits@D@std@@V?$allocator@D@2@@std@@XZ@4HA 	 DATA
	?$TSS0@?1??s_class@ntuple@rroot@tools@@SAAEBV?$basic_string@DU?$char_traits@D@std@@V?$allocator@D@2@@std@@XZ@4HA 	 DATA
	?$TSS0@?1??s_class@ntuple@wcsv@tools@@SAAEBV?$basic_string@DU?$char_traits@D@std@@V?$allocator@D@2@@std@@XZ@4HA 	 DATA
	?$TSS0@?1??s_class@obj_list@rroot@tools@@SAAEBV?$basic_string@DU?$char_traits@D@std@@V?$allocator@D@2@@std@@XZ@4HA 	 DATA
	?$TSS0@?1??s_class@ortho@sg@tools@@SAAEBV?$basic_string@DU?$char_traits@D@std@@V?$allocator@D@2@@std@@XZ@4HA 	 DATA
	?$TSS0@?1??s_class@p1d2plot@sg@tools@@SAAEBV?$basic_string@DU?$char_traits@D@std@@V?$allocator@D@2@@std@@XZ@4HA 	 DATA
	?$TSS0@?1??s_class@p1d@histo@tools@@SAAEBV?$basic_string@DU?$char_traits@D@std@@V?$allocator@D@2@@std@@XZ@4HA 	 DATA
	?$TSS0@?1??s_class@p2d@histo@tools@@SAAEBV?$basic_string@DU?$char_traits@D@std@@V?$allocator@D@2@@std@@XZ@4HA 	 DATA
	?$TSS0@?1??s_class@plots@sg@tools@@SAAEBV?$basic_string@DU?$char_traits@D@std@@V?$allocator@D@2@@std@@XZ@4HA 	 DATA
	?$TSS0@?1??s_class@plots_viewer@sg@tools@@SAAEBV?$basic_string@DU?$char_traits@D@std@@V?$allocator@D@2@@std@@XZ@4HA 	 DATA
	?$TSS0@?1??s_class@plottable@sg@tools@@SAAEBV?$basic_string@DU?$char_traits@D@std@@V?$allocator@D@2@@std@@XZ@4HA 	 DATA
	?$TSS0@?1??s_class@plottable_box@sg@tools@@SAAEBV?$basic_string@DU?$char_traits@D@std@@V?$allocator@D@2@@std@@XZ@4HA 	 DATA
	?$TSS0@?1??s_class@plottable_ellipse@sg@tools@@SAAEBV?$basic_string@DU?$char_traits@D@std@@V?$allocator@D@2@@std@@XZ@4HA 	 DATA
	?$TSS0@?1??s_class@plottable_img@sg@tools@@SAAEBV?$basic_string@DU?$char_traits@D@std@@V?$allocator@D@2@@std@@XZ@4HA 	 DATA
	?$TSS0@?1??s_class@plottable_text@sg@tools@@SAAEBV?$basic_string@DU?$char_traits@D@std@@V?$allocator@D@2@@std@@XZ@4HA 	 DATA
	?$TSS0@?1??s_class@plotter@sg@tools@@SAAEBV?$basic_string@DU?$char_traits@D@std@@V?$allocator@D@2@@std@@XZ@4HA 	 DATA
	?$TSS0@?1??s_class@points2D@sg@tools@@SAAEBV?$basic_string@DU?$char_traits@D@std@@V?$allocator@D@2@@std@@XZ@4HA 	 DATA
	?$TSS0@?1??s_class@points3D@sg@tools@@SAAEBV?$basic_string@DU?$char_traits@D@std@@V?$allocator@D@2@@std@@XZ@4HA 	 DATA
	?$TSS0@?1??s_class@rbuf@rroot@tools@@CAAEBV?$basic_string@DU?$char_traits@D@std@@V?$allocator@D@2@@std@@XZ@4HA 	 DATA
	?$TSS0@?1??s_class@rgba@sg@tools@@SAAEBV?$basic_string@DU?$char_traits@D@std@@V?$allocator@D@2@@std@@XZ@4HA 	 DATA
	?$TSS0@?1??s_class@separator@sg@tools@@SAAEBV?$basic_string@DU?$char_traits@D@std@@V?$allocator@D@2@@std@@XZ@4HA 	 DATA
	?$TSS0@?1??s_class@sf_mat4f@sg@tools@@SAAEBV?$basic_string@DU?$char_traits@D@std@@V?$allocator@D@2@@std@@XZ@4HA 	 DATA
	?$TSS0@?1??s_class@sf_rotf@sg@tools@@SAAEBV?$basic_string@DU?$char_traits@D@std@@V?$allocator@D@2@@std@@XZ@4HA 	 DATA
	?$TSS0@?1??s_class@sf_string@sg@tools@@SAAEBV?$basic_string@DU?$char_traits@D@std@@V?$allocator@D@2@@std@@XZ@4HA 	 DATA
	?$TSS0@?1??s_class@sf_vec3f@sg@tools@@SAAEBV?$basic_string@DU?$char_traits@D@std@@V?$allocator@D@2@@std@@XZ@4HA 	 DATA
	?$TSS0@?1??s_class@sf_vec4f@sg@tools@@SAAEBV?$basic_string@DU?$char_traits@D@std@@V?$allocator@D@2@@std@@XZ@4HA 	 DATA
	?$TSS0@?1??s_class@stl_vector_string@rroot@tools@@SAAEBV?$basic_string@DU?$char_traits@D@std@@V?$allocator@D@2@@std@@XZ@4HA 	 DATA
	?$TSS0@?1??s_class@streamer_element@rroot@tools@@SAAEBV?$basic_string@DU?$char_traits@D@std@@V?$allocator@D@2@@std@@XZ@4HA 	 DATA
	?$TSS0@?1??s_class@streamer_info@rroot@tools@@SAAEBV?$basic_string@DU?$char_traits@D@std@@V?$allocator@D@2@@std@@XZ@4HA 	 DATA
	?$TSS0@?1??s_class@style@sg@tools@@SAAEBV?$basic_string@DU?$char_traits@D@std@@V?$allocator@D@2@@std@@XZ@4HA 	 DATA
	?$TSS0@?1??s_class@tex_rect@sg@tools@@SAAEBV?$basic_string@DU?$char_traits@D@std@@V?$allocator@D@2@@std@@XZ@4HA 	 DATA
	?$TSS0@?1??s_class@text@sg@tools@@SAAEBV?$basic_string@DU?$char_traits@D@std@@V?$allocator@D@2@@std@@XZ@4HA 	 DATA
	?$TSS0@?1??s_class@text_hershey@sg@tools@@SAAEBV?$basic_string@DU?$char_traits@D@std@@V?$allocator@D@2@@std@@XZ@4HA 	 DATA
	?$TSS0@?1??s_class@text_style@sg@tools@@SAAEBV?$basic_string@DU?$char_traits@D@std@@V?$allocator@D@2@@std@@XZ@4HA 	 DATA
	?$TSS0@?1??s_class@text_valop@sg@tools@@SAAEBV?$basic_string@DU?$char_traits@D@std@@V?$allocator@D@2@@std@@XZ@4HA 	 DATA
	?$TSS0@?1??s_class@torche@sg@tools@@SAAEBV?$basic_string@DU?$char_traits@D@std@@V?$allocator@D@2@@std@@XZ@4HA 	 DATA
	?$TSS0@?1??s_class@tree@rroot@tools@@SAAEBV?$basic_string@DU?$char_traits@D@std@@V?$allocator@D@2@@std@@XZ@4HA 	 DATA
	?$TSS0@?1??s_class@tree@xml@tools@@SAAEBV?$basic_string@DU?$char_traits@D@std@@V?$allocator@D@2@@std@@XZ@4HA 	 DATA
	?$TSS0@?1??s_class@tree_index@rroot@tools@@SAAEBV?$basic_string@DU?$char_traits@D@std@@V?$allocator@D@2@@std@@XZ@4HA 	 DATA
	?$TSS0@?1??s_class@vec2f@tools@@SAAEBV?$basic_string@DU?$char_traits@D@std@@V?$allocator@D@2@@std@@XZ@4HA 	 DATA
	?$TSS0@?1??s_class@vec3f@tools@@SAAEBV?$basic_string@DU?$char_traits@D@std@@V?$allocator@D@2@@std@@XZ@4HA 	 DATA
	?$TSS0@?1??s_class@vec4f@tools@@SAAEBV?$basic_string@DU?$char_traits@D@std@@V?$allocator@D@2@@std@@XZ@4HA 	 DATA
	?$TSS0@?1??s_class@vector3@rroot@tools@@SAAEBV?$basic_string@DU?$char_traits@D@std@@V?$allocator@D@2@@std@@XZ@4HA 	 DATA
	?$TSS0@?1??s_class@vertices@sg@tools@@SAAEBV?$basic_string@DU?$char_traits@D@std@@V?$allocator@D@2@@std@@XZ@4HA 	 DATA
	?$TSS0@?1??s_class@viewer@sg@tools@@SAAEBV?$basic_string@DU?$char_traits@D@std@@V?$allocator@D@2@@std@@XZ@4HA 	 DATA
	?$TSS0@?1??s_class@violet_to_red_colormap@sg@tools@@SAAEBV?$basic_string@DU?$char_traits@D@std@@V?$allocator@D@2@@std@@XZ@4HA 	 DATA
	?$TSS0@?1??s_class@wbuf@wroot@tools@@CAAEBV?$basic_string@DU?$char_traits@D@std@@V?$allocator@D@2@@std@@XZ@4HA 	 DATA
	?$TSS0@?1??s_class@zb_manager@sg@tools@@SAAEBV?$basic_string@DU?$char_traits@D@std@@V?$allocator@D@2@@std@@XZ@4HA 	 DATA
	?$TSS0@?1??s_cloud1d@aidas@xml@tools@@KAAEBV?$basic_string@DU?$char_traits@D@std@@V?$allocator@D@2@@std@@XZ@4HA 	 DATA
	?$TSS0@?1??s_cloud2d@aidas@xml@tools@@KAAEBV?$basic_string@DU?$char_traits@D@std@@V?$allocator@D@2@@std@@XZ@4HA 	 DATA
	?$TSS0@?1??s_cloud3d@aidas@xml@tools@@KAAEBV?$basic_string@DU?$char_traits@D@std@@V?$allocator@D@2@@std@@XZ@4HA 	 DATA
	?$TSS0@?1??s_columns@aidas@xml@tools@@KAAEBV?$basic_string@DU?$char_traits@D@std@@V?$allocator@D@2@@std@@XZ@4HA 	 DATA
	?$TSS0@?1??s_data1d@aidas@xml@tools@@KAAEBV?$basic_string@DU?$char_traits@D@std@@V?$allocator@D@2@@std@@XZ@4HA 	 DATA
	?$TSS0@?1??s_data2d@aidas@xml@tools@@KAAEBV?$basic_string@DU?$char_traits@D@std@@V?$allocator@D@2@@std@@XZ@4HA 	 DATA
	?$TSS0@?1??s_data3d@aidas@xml@tools@@KAAEBV?$basic_string@DU?$char_traits@D@std@@V?$allocator@D@2@@std@@XZ@4HA 	 DATA
	?$TSS0@?1??s_dataPoint@aidas@xml@tools@@KAAEBV?$basic_string@DU?$char_traits@D@std@@V?$allocator@D@2@@std@@XZ@4HA 	 DATA
	?$TSS0@?1??s_dataPointSet@aidas@xml@tools@@KAAEBV?$basic_string@DU?$char_traits@D@std@@V?$allocator@D@2@@std@@XZ@4HA 	 DATA
	?$TSS0@?1??s_default@aidas@xml@tools@@KAAEBV?$basic_string@DU?$char_traits@D@std@@V?$allocator@D@2@@std@@XZ@4HA 	 DATA
	?$TSS0@?1??s_default@style_default_colormap@sg@tools@@SAAEBV?$basic_string@DU?$char_traits@D@std@@V?$allocator@D@2@@std@@XZ@4HA 	 DATA
	?$TSS0@?1??s_dimension@aidas@xml@tools@@KAAEBV?$basic_string@DU?$char_traits@D@std@@V?$allocator@D@2@@std@@XZ@4HA 	 DATA
	?$TSS0@?1??s_direction@aidas@xml@tools@@KAAEBV?$basic_string@DU?$char_traits@D@std@@V?$allocator@D@2@@std@@XZ@4HA 	 DATA
	?$TSS0@?1??s_empty@value@tools@@CAAEBV?$basic_string@DU?$char_traits@D@std@@V?$allocator@D@2@@std@@XZ@4HA 	 DATA
	?$TSS0@?1??s_entries1d@aidas@xml@tools@@KAAEBV?$basic_string@DU?$char_traits@D@std@@V?$allocator@D@2@@std@@XZ@4HA 	 DATA
	?$TSS0@?1??s_entries2d@aidas@xml@tools@@KAAEBV?$basic_string@DU?$char_traits@D@std@@V?$allocator@D@2@@std@@XZ@4HA 	 DATA
	?$TSS0@?1??s_entries3d@aidas@xml@tools@@KAAEBV?$basic_string@DU?$char_traits@D@std@@V?$allocator@D@2@@std@@XZ@4HA 	 DATA
	?$TSS0@?1??s_entries@aidas@xml@tools@@KAAEBV?$basic_string@DU?$char_traits@D@std@@V?$allocator@D@2@@std@@XZ@4HA 	 DATA
	?$TSS0@?1??s_entry1d@aidas@xml@tools@@KAAEBV?$basic_string@DU?$char_traits@D@std@@V?$allocator@D@2@@std@@XZ@4HA 	 DATA
	?$TSS0@?1??s_entry2d@aidas@xml@tools@@KAAEBV?$basic_string@DU?$char_traits@D@std@@V?$allocator@D@2@@std@@XZ@4HA 	 DATA
	?$TSS0@?1??s_entry3d@aidas@xml@tools@@KAAEBV?$basic_string@DU?$char_traits@D@std@@V?$allocator@D@2@@std@@XZ@4HA 	 DATA
	?$TSS0@?1??s_entry@aidas@xml@tools@@KAAEBV?$basic_string@DU?$char_traits@D@std@@V?$allocator@D@2@@std@@XZ@4HA 	 DATA
	?$TSS0@?1??s_entryITuple@aidas@xml@tools@@KAAEBV?$basic_string@DU?$char_traits@D@std@@V?$allocator@D@2@@std@@XZ@4HA 	 DATA
	?$TSS0@?1??s_entryTuple@aidas@xml@tools@@KAAEBV?$basic_string@DU?$char_traits@D@std@@V?$allocator@D@2@@std@@XZ@4HA 	 DATA
	?$TSS0@?1??s_error@aidas@xml@tools@@KAAEBV?$basic_string@DU?$char_traits@D@std@@V?$allocator@D@2@@std@@XZ@4HA 	 DATA
	?$TSS0@?1??s_errorMinus@aidas@xml@tools@@KAAEBV?$basic_string@DU?$char_traits@D@std@@V?$allocator@D@2@@std@@XZ@4HA 	 DATA
	?$TSS0@?1??s_errorPlus@aidas@xml@tools@@KAAEBV?$basic_string@DU?$char_traits@D@std@@V?$allocator@D@2@@std@@XZ@4HA 	 DATA
	?$TSS0@?1??s_font_filled@sg@tools@@YAAEBV?$basic_string@DU?$char_traits@D@std@@V?$allocator@D@2@@std@@XZ@4HA 	 DATA
	?$TSS0@?1??s_font_outline@sg@tools@@YAAEBV?$basic_string@DU?$char_traits@D@std@@V?$allocator@D@2@@std@@XZ@4HA 	 DATA
	?$TSS0@?1??s_font_pixmap@sg@tools@@YAAEBV?$basic_string@DU?$char_traits@D@std@@V?$allocator@D@2@@std@@XZ@4HA 	 DATA
	?$TSS0@?1??s_gamma@tools@@YAAEBV?$basic_string@DU?$char_traits@D@std@@V?$allocator@D@2@@std@@XZ@4HA 	 DATA
	?$TSS0@?1??s_h_bar@tools@@YAAEBV?$basic_string@DU?$char_traits@D@std@@V?$allocator@D@2@@std@@XZ@4HA 	 DATA
	?$TSS0@?1??s_height@aidas@xml@tools@@KAAEBV?$basic_string@DU?$char_traits@D@std@@V?$allocator@D@2@@std@@XZ@4HA 	 DATA
	?$TSS0@?1??s_histogram1d@aidas@xml@tools@@KAAEBV?$basic_string@DU?$char_traits@D@std@@V?$allocator@D@2@@std@@XZ@4HA 	 DATA
	?$TSS0@?1??s_histogram2d@aidas@xml@tools@@KAAEBV?$basic_string@DU?$char_traits@D@std@@V?$allocator@D@2@@std@@XZ@4HA 	 DATA
	?$TSS0@?1??s_histogram3d@aidas@xml@tools@@KAAEBV?$basic_string@DU?$char_traits@D@std@@V?$allocator@D@2@@std@@XZ@4HA 	 DATA
	?$TSS0@?1??s_infos_what_def@plotter@sg@tools@@CAAEBV?$basic_string@DU?$char_traits@D@std@@V?$allocator@D@2@@std@@XZ@4HA 	 DATA
	?$TSS0@?1??s_max@aidas@xml@tools@@KAAEBV?$basic_string@DU?$char_traits@D@std@@V?$allocator@D@2@@std@@XZ@4HA 	 DATA
	?$TSS0@?1??s_maxEntries@aidas@xml@tools@@KAAEBV?$basic_string@DU?$char_traits@D@std@@V?$allocator@D@2@@std@@XZ@4HA 	 DATA
	?$TSS0@?1??s_mean@aidas@xml@tools@@KAAEBV?$basic_string@DU?$char_traits@D@std@@V?$allocator@D@2@@std@@XZ@4HA 	 DATA
	?$TSS0@?1??s_measurement@aidas@xml@tools@@KAAEBV?$basic_string@DU?$char_traits@D@std@@V?$allocator@D@2@@std@@XZ@4HA 	 DATA
	?$TSS0@?1??s_min@aidas@xml@tools@@KAAEBV?$basic_string@DU?$char_traits@D@std@@V?$allocator@D@2@@std@@XZ@4HA 	 DATA
	?$TSS0@?1??s_mu@tools@@YAAEBV?$basic_string@DU?$char_traits@D@std@@V?$allocator@D@2@@std@@XZ@4HA 	 DATA
	?$TSS0@?1??s_name@aidas@xml@tools@@KAAEBV?$basic_string@DU?$char_traits@D@std@@V?$allocator@D@2@@std@@XZ@4HA 	 DATA
	?$TSS0@?1??s_numberOfBins@aidas@xml@tools@@KAAEBV?$basic_string@DU?$char_traits@D@std@@V?$allocator@D@2@@std@@XZ@4HA 	 DATA
	?$TSS0@?1??s_partial_derivative@tools@@YAAEBV?$basic_string@DU?$char_traits@D@std@@V?$allocator@D@2@@std@@XZ@4HA 	 DATA
	?$TSS0@?1??s_path@aidas@xml@tools@@KAAEBV?$basic_string@DU?$char_traits@D@std@@V?$allocator@D@2@@std@@XZ@4HA 	 DATA
	?$TSS0@?1??s_pow@tools@@YAAEBV?$basic_string@DU?$char_traits@D@std@@V?$allocator@D@2@@std@@XZ@4HA 	 DATA
	?$TSS0@?1??s_profile1d@aidas@xml@tools@@KAAEBV?$basic_string@DU?$char_traits@D@std@@V?$allocator@D@2@@std@@XZ@4HA 	 DATA
	?$TSS0@?1??s_profile2d@aidas@xml@tools@@KAAEBV?$basic_string@DU?$char_traits@D@std@@V?$allocator@D@2@@std@@XZ@4HA 	 DATA
	?$TSS0@?1??s_psi@tools@@YAAEBV?$basic_string@DU?$char_traits@D@std@@V?$allocator@D@2@@std@@XZ@4HA 	 DATA
	?$TSS0@?1??s_rms@aidas@xml@tools@@KAAEBV?$basic_string@DU?$char_traits@D@std@@V?$allocator@D@2@@std@@XZ@4HA 	 DATA
	?$TSS0@?1??s_row@aidas@xml@tools@@KAAEBV?$basic_string@DU?$char_traits@D@std@@V?$allocator@D@2@@std@@XZ@4HA 	 DATA
	?$TSS0@?1??s_rows@aidas@xml@tools@@KAAEBV?$basic_string@DU?$char_traits@D@std@@V?$allocator@D@2@@std@@XZ@4HA 	 DATA
	?$TSS0@?1??s_sqrt@tools@@YAAEBV?$basic_string@DU?$char_traits@D@std@@V?$allocator@D@2@@std@@XZ@4HA 	 DATA
	?$TSS0@?1??s_statistic@aidas@xml@tools@@KAAEBV?$basic_string@DU?$char_traits@D@std@@V?$allocator@D@2@@std@@XZ@4HA 	 DATA
	?$TSS0@?1??s_statistics@aidas@xml@tools@@KAAEBV?$basic_string@DU?$char_traits@D@std@@V?$allocator@D@2@@std@@XZ@4HA 	 DATA
	?$TSS0@?1??s_store_class@?$obj_array@Vbase_leaf@rroot@tools@@@rroot@tools@@CAAEBV?$basic_string@DU?$char_traits@D@std@@V?$allocator@D@2@@std@@XZ@4HA 	 DATA
	?$TSS0@?1??s_store_class@?$obj_array@Vbasket@rroot@tools@@@rroot@tools@@CAAEBV?$basic_string@DU?$char_traits@D@std@@V?$allocator@D@2@@std@@XZ@4HA 	 DATA
	?$TSS0@?1??s_store_class@?$obj_array@Vbranch@rroot@tools@@@rroot@tools@@CAAEBV?$basic_string@DU?$char_traits@D@std@@V?$allocator@D@2@@std@@XZ@4HA 	 DATA
	?$TSS0@?1??s_store_class@?$obj_array@Vstreamer_element@rroot@tools@@@rroot@tools@@CAAEBV?$basic_string@DU?$char_traits@D@std@@V?$allocator@D@2@@std@@XZ@4HA 	 DATA
	?$TSS0@?1??s_store_class@?$stl_vector@F@rroot@tools@@CAAEBV?$basic_string@DU?$char_traits@D@std@@V?$allocator@D@2@@std@@XZ@4HA 	 DATA
	?$TSS0@?1??s_store_class@?$stl_vector@G@rroot@tools@@CAAEBV?$basic_string@DU?$char_traits@D@std@@V?$allocator@D@2@@std@@XZ@4HA 	 DATA
	?$TSS0@?1??s_store_class@?$stl_vector@H@rroot@tools@@CAAEBV?$basic_string@DU?$char_traits@D@std@@V?$allocator@D@2@@std@@XZ@4HA 	 DATA
	?$TSS0@?1??s_store_class@?$stl_vector@I@rroot@tools@@CAAEBV?$basic_string@DU?$char_traits@D@std@@V?$allocator@D@2@@std@@XZ@4HA 	 DATA
	?$TSS0@?1??s_store_class@?$stl_vector@M@rroot@tools@@CAAEBV?$basic_string@DU?$char_traits@D@std@@V?$allocator@D@2@@std@@XZ@4HA 	 DATA
	?$TSS0@?1??s_store_class@?$stl_vector@N@rroot@tools@@CAAEBV?$basic_string@DU?$char_traits@D@std@@V?$allocator@D@2@@std@@XZ@4HA 	 DATA
	?$TSS0@?1??s_store_class@?$stl_vector@_K@rroot@tools@@CAAEBV?$basic_string@DU?$char_traits@D@std@@V?$allocator@D@2@@std@@XZ@4HA 	 DATA
	?$TSS0@?1??s_store_class@?$stl_vector_vector@F@rroot@tools@@CAAEBV?$basic_string@DU?$char_traits@D@std@@V?$allocator@D@2@@std@@XZ@4HA 	 DATA
	?$TSS0@?1??s_store_class@?$stl_vector_vector@G@rroot@tools@@CAAEBV?$basic_string@DU?$char_traits@D@std@@V?$allocator@D@2@@std@@XZ@4HA 	 DATA
	?$TSS0@?1??s_store_class@?$stl_vector_vector@H@rroot@tools@@CAAEBV?$basic_string@DU?$char_traits@D@std@@V?$allocator@D@2@@std@@XZ@4HA 	 DATA
	?$TSS0@?1??s_store_class@?$stl_vector_vector@I@rroot@tools@@CAAEBV?$basic_string@DU?$char_traits@D@std@@V?$allocator@D@2@@std@@XZ@4HA 	 DATA
	?$TSS0@?1??s_store_class@?$stl_vector_vector@M@rroot@tools@@CAAEBV?$basic_string@DU?$char_traits@D@std@@V?$allocator@D@2@@std@@XZ@4HA 	 DATA
	?$TSS0@?1??s_store_class@?$stl_vector_vector@N@rroot@tools@@CAAEBV?$basic_string@DU?$char_traits@D@std@@V?$allocator@D@2@@std@@XZ@4HA 	 DATA
	?$TSS0@?1??s_store_class@graph@rroot@tools@@CAAEBV?$basic_string@DU?$char_traits@D@std@@V?$allocator@D@2@@std@@XZ@4HA 	 DATA
	?$TSS0@?1??s_store_class@iros@rroot@tools@@SAAEBV?$basic_string@DU?$char_traits@D@std@@V?$allocator@D@2@@std@@XZ@4HA 	 DATA
	?$TSS0@?1??s_store_class@leaf_element@rroot@tools@@CAAEBV?$basic_string@DU?$char_traits@D@std@@V?$allocator@D@2@@std@@XZ@4HA 	 DATA
	?$TSS0@?1??s_store_class@leaf_object@rroot@tools@@CAAEBV?$basic_string@DU?$char_traits@D@std@@V?$allocator@D@2@@std@@XZ@4HA 	 DATA
	?$TSS0@?1??s_store_class@leaf_string@rroot@tools@@CAAEBV?$basic_string@DU?$char_traits@D@std@@V?$allocator@D@2@@std@@XZ@4HA 	 DATA
	?$TSS0@?1??s_store_class@matrix@rroot@tools@@CAAEBV?$basic_string@DU?$char_traits@D@std@@V?$allocator@D@2@@std@@XZ@4HA 	 DATA
	?$TSS0@?1??s_store_class@obj_list@rroot@tools@@SAAEBV?$basic_string@DU?$char_traits@D@std@@V?$allocator@D@2@@std@@XZ@4HA 	 DATA
	?$TSS0@?1??s_store_class@stl_vector_string@rroot@tools@@CAAEBV?$basic_string@DU?$char_traits@D@std@@V?$allocator@D@2@@std@@XZ@4HA 	 DATA
	?$TSS0@?1??s_store_class@streamer_element@rroot@tools@@CAAEBV?$basic_string@DU?$char_traits@D@std@@V?$allocator@D@2@@std@@XZ@4HA 	 DATA
	?$TSS0@?1??s_store_class@streamer_info@rroot@tools@@CAAEBV?$basic_string@DU?$char_traits@D@std@@V?$allocator@D@2@@std@@XZ@4HA 	 DATA
	?$TSS0@?1??s_store_class@tree_index@rroot@tools@@CAAEBV?$basic_string@DU?$char_traits@D@std@@V?$allocator@D@2@@std@@XZ@4HA 	 DATA
	?$TSS0@?1??s_store_class@vector3@rroot@tools@@CAAEBV?$basic_string@DU?$char_traits@D@std@@V?$allocator@D@2@@std@@XZ@4HA 	 DATA
	?$TSS0@?1??s_title@aidas@xml@tools@@KAAEBV?$basic_string@DU?$char_traits@D@std@@V?$allocator@D@2@@std@@XZ@4HA 	 DATA
	?$TSS0@?1??s_tools_sg_fit2plot@sg@tools@@YAAEBV?$basic_string@DU?$char_traits@D@std@@V?$allocator@D@2@@std@@XZ@4HA 	 DATA
	?$TSS0@?1??s_tuple@aidas@xml@tools@@KAAEBV?$basic_string@DU?$char_traits@D@std@@V?$allocator@D@2@@std@@XZ@4HA 	 DATA
	?$TSS0@?1??s_type@aidas@xml@tools@@KAAEBV?$basic_string@DU?$char_traits@D@std@@V?$allocator@D@2@@std@@XZ@4HA 	 DATA
	?$TSS0@?1??s_upper_delta@tools@@YAAEBV?$basic_string@DU?$char_traits@D@std@@V?$allocator@D@2@@std@@XZ@4HA 	 DATA
	?$TSS0@?1??s_value@aidas@xml@tools@@KAAEBV?$basic_string@DU?$char_traits@D@std@@V?$allocator@D@2@@std@@XZ@4HA 	 DATA
	?$TSS0@?1??s_valueX@aidas@xml@tools@@KAAEBV?$basic_string@DU?$char_traits@D@std@@V?$allocator@D@2@@std@@XZ@4HA 	 DATA
	?$TSS0@?1??s_valueY@aidas@xml@tools@@KAAEBV?$basic_string@DU?$char_traits@D@std@@V?$allocator@D@2@@std@@XZ@4HA 	 DATA
	?$TSS0@?1??s_valueZ@aidas@xml@tools@@KAAEBV?$basic_string@DU?$char_traits@D@std@@V?$allocator@D@2@@std@@XZ@4HA 	 DATA
	?$TSS0@?1??s_weight@aidas@xml@tools@@KAAEBV?$basic_string@DU?$char_traits@D@std@@V?$allocator@D@2@@std@@XZ@4HA 	 DATA
	?$TSS0@?1??s_weightedMean@aidas@xml@tools@@KAAEBV?$basic_string@DU?$char_traits@D@std@@V?$allocator@D@2@@std@@XZ@4HA 	 DATA
	?$TSS0@?1??s_weightedMeanX@aidas@xml@tools@@KAAEBV?$basic_string@DU?$char_traits@D@std@@V?$allocator@D@2@@std@@XZ@4HA 	 DATA
	?$TSS0@?1??s_weightedMeanY@aidas@xml@tools@@KAAEBV?$basic_string@DU?$char_traits@D@std@@V?$allocator@D@2@@std@@XZ@4HA 	 DATA
	?$TSS0@?1??s_weightedMeanZ@aidas@xml@tools@@KAAEBV?$basic_string@DU?$char_traits@D@std@@V?$allocator@D@2@@std@@XZ@4HA 	 DATA
	?$TSS0@?1??s_weightedRms@aidas@xml@tools@@KAAEBV?$basic_string@DU?$char_traits@D@std@@V?$allocator@D@2@@std@@XZ@4HA 	 DATA
	?$TSS0@?1??s_weightedRmsX@aidas@xml@tools@@KAAEBV?$basic_string@DU?$char_traits@D@std@@V?$allocator@D@2@@std@@XZ@4HA 	 DATA
	?$TSS0@?1??s_weightedRmsY@aidas@xml@tools@@KAAEBV?$basic_string@DU?$char_traits@D@std@@V?$allocator@D@2@@std@@XZ@4HA 	 DATA
	?$TSS0@?1??s_weightedRmsZ@aidas@xml@tools@@KAAEBV?$basic_string@DU?$char_traits@D@std@@V?$allocator@D@2@@std@@XZ@4HA 	 DATA
	?$TSS0@?1??store_class_name@tree@rroot@tools@@UEBAAEBV?$basic_string@DU?$char_traits@D@std@@V?$allocator@D@2@@std@@XZ@4HA 	 DATA
	?$TSS0@?1??store_class_name@tree@wroot@tools@@UEBAAEBV?$basic_string@DU?$char_traits@D@std@@V?$allocator@D@2@@std@@XZ@4HA 	 DATA
	?$TSS0@?1??store_cls@?$obj_array@Vbase_leaf@wroot@tools@@@wroot@tools@@UEBAAEBV?$basic_string@DU?$char_traits@D@std@@V?$allocator@D@2@@std@@XZ@4HA 	 DATA
	?$TSS0@?1??store_cls@?$obj_array@Vbasket@wroot@tools@@@wroot@tools@@UEBAAEBV?$basic_string@DU?$char_traits@D@std@@V?$allocator@D@2@@std@@XZ@4HA 	 DATA
	?$TSS0@?1??store_cls@?$obj_array@Vbranch@wroot@tools@@@wroot@tools@@UEBAAEBV?$basic_string@DU?$char_traits@D@std@@V?$allocator@D@2@@std@@XZ@4HA 	 DATA
	?$TSS0@?1??store_cls@?$obj_array@Vstreamer_element@wroot@tools@@@wroot@tools@@UEBAAEBV?$basic_string@DU?$char_traits@D@std@@V?$allocator@D@2@@std@@XZ@4HA 	 DATA
	?$TSS0@?1??store_cls@?$obj_list@Vstreamer_info@wroot@tools@@@wroot@tools@@UEBAAEBV?$basic_string@DU?$char_traits@D@std@@V?$allocator@D@2@@std@@XZ@4HA 	 DATA
	?$TSS0@?1??store_cls@basket@wroot@tools@@UEBAAEBV?$basic_string@DU?$char_traits@D@std@@V?$allocator@D@2@@std@@XZ@4HA 	 DATA
	?$TSS0@?1??store_cls@branch@wroot@tools@@UEBAAEBV?$basic_string@DU?$char_traits@D@std@@V?$allocator@D@2@@std@@XZ@4HA 	 DATA
	?$TSS0@?1??store_cls@streamer_STL@wroot@tools@@UEBAAEBV?$basic_string@DU?$char_traits@D@std@@V?$allocator@D@2@@std@@XZ@4HA 	 DATA
	?$TSS0@?1??store_cls@streamer_base@wroot@tools@@UEBAAEBV?$basic_string@DU?$char_traits@D@std@@V?$allocator@D@2@@std@@XZ@4HA 	 DATA
	?$TSS0@?1??store_cls@streamer_basic_pointer@wroot@tools@@UEBAAEBV?$basic_string@DU?$char_traits@D@std@@V?$allocator@D@2@@std@@XZ@4HA 	 DATA
	?$TSS0@?1??store_cls@streamer_basic_type@wroot@tools@@UEBAAEBV?$basic_string@DU?$char_traits@D@std@@V?$allocator@D@2@@std@@XZ@4HA 	 DATA
	?$TSS0@?1??store_cls@streamer_element@wroot@tools@@UEBAAEBV?$basic_string@DU?$char_traits@D@std@@V?$allocator@D@2@@std@@XZ@4HA 	 DATA
	?$TSS0@?1??store_cls@streamer_info@wroot@tools@@UEBAAEBV?$basic_string@DU?$char_traits@D@std@@V?$allocator@D@2@@std@@XZ@4HA 	 DATA
	?$TSS0@?1??store_cls@streamer_object@wroot@tools@@UEBAAEBV?$basic_string@DU?$char_traits@D@std@@V?$allocator@D@2@@std@@XZ@4HA 	 DATA
	?$TSS0@?1??store_cls@streamer_object_any@wroot@tools@@UEBAAEBV?$basic_string@DU?$char_traits@D@std@@V?$allocator@D@2@@std@@XZ@4HA 	 DATA
	?$TSS0@?1??store_cls@streamer_object_pointer@wroot@tools@@UEBAAEBV?$basic_string@DU?$char_traits@D@std@@V?$allocator@D@2@@std@@XZ@4HA 	 DATA
	?$TSS0@?1??store_cls@streamer_string@wroot@tools@@UEBAAEBV?$basic_string@DU?$char_traits@D@std@@V?$allocator@D@2@@std@@XZ@4HA 	 DATA
	?$TSS0@?1??stype@tools@@YAAEBV?$basic_string@DU?$char_traits@D@std@@V?$allocator@D@2@@std@@AEBV34@@Z@4HA 	 DATA
	?$TSS0@?1??stype@tools@@YAAEBV?$basic_string@DU?$char_traits@D@std@@V?$allocator@D@2@@std@@AEBVmat4f@2@@Z@4HA 	 DATA
	?$TSS0@?1??stype@tools@@YAAEBV?$basic_string@DU?$char_traits@D@std@@V?$allocator@D@2@@std@@D@Z@4HA 	 DATA
	?$TSS0@?1??stype@tools@@YAAEBV?$basic_string@DU?$char_traits@D@std@@V?$allocator@D@2@@std@@E@Z@4HA 	 DATA
	?$TSS0@?1??stype@tools@@YAAEBV?$basic_string@DU?$char_traits@D@std@@V?$allocator@D@2@@std@@F@Z@4HA 	 DATA
	?$TSS0@?1??stype@tools@@YAAEBV?$basic_string@DU?$char_traits@D@std@@V?$allocator@D@2@@std@@G@Z@4HA 	 DATA
	?$TSS0@?1??stype@tools@@YAAEBV?$basic_string@DU?$char_traits@D@std@@V?$allocator@D@2@@std@@H@Z@4HA 	 DATA
	?$TSS0@?1??stype@tools@@YAAEBV?$basic_string@DU?$char_traits@D@std@@V?$allocator@D@2@@std@@I@Z@4HA 	 DATA
	?$TSS0@?1??stype@tools@@YAAEBV?$basic_string@DU?$char_traits@D@std@@V?$allocator@D@2@@std@@M@Z@4HA 	 DATA
	?$TSS0@?1??stype@tools@@YAAEBV?$basic_string@DU?$char_traits@D@std@@V?$allocator@D@2@@std@@N@Z@4HA 	 DATA
	?$TSS0@?1??stype@tools@@YAAEBV?$basic_string@DU?$char_traits@D@std@@V?$allocator@D@2@@std@@_J@Z@4HA 	 DATA
	?$TSS0@?1??stype@tools@@YAAEBV?$basic_string@DU?$char_traits@D@std@@V?$allocator@D@2@@std@@_K@Z@4HA 	 DATA
	?$TSS0@?1??stype@tools@@YAAEBV?$basic_string@DU?$char_traits@D@std@@V?$allocator@D@2@@std@@_N@Z@4HA 	 DATA
	?$TSS0@?1??tick_modeling_hippo@sg@tools@@YAAEBV?$basic_string@DU?$char_traits@D@std@@V?$allocator@D@2@@std@@XZ@4HA 	 DATA
	?$TSS0@?1??tick_modeling_hplot@sg@tools@@YAAEBV?$basic_string@DU?$char_traits@D@std@@V?$allocator@D@2@@std@@XZ@4HA 	 DATA
	?$TSS0@?1??tick_modeling_none@sg@tools@@YAAEBV?$basic_string@DU?$char_traits@D@std@@V?$allocator@D@2@@std@@XZ@4HA 	 DATA
	?$TSS0@?1??two_to_minus_32@rtausmef@tools@@KAMXZ@4HA 	 DATA
	?$TSS0@?1??virtual_index_s_store_class@tree_index@rroot@tools@@KAAEBV?$basic_string@DU?$char_traits@D@std@@V?$allocator@D@2@@std@@XZ@4HA 	 DATA
	?$TSS1@?1??node_desc_fields@_switch@sg@tools@@UEBAAEBVdesc_fields@34@XZ@4HA 	 DATA
	?$TSS1@?1??node_desc_fields@atb_vertices@sg@tools@@UEBAAEBVdesc_fields@34@XZ@4HA 	 DATA
	?$TSS1@?1??node_desc_fields@axis@sg@tools@@UEBAAEBVdesc_fields@34@XZ@4HA 	 DATA
	?$TSS1@?1??node_desc_fields@back_area@sg@tools@@UEBAAEBVdesc_fields@34@XZ@4HA 	 DATA
	?$TSS1@?1??node_desc_fields@base_camera@sg@tools@@UEBAAEBVdesc_fields@34@XZ@4HA 	 DATA
	?$TSS1@?1??node_desc_fields@base_freetype@sg@tools@@UEBAAEBVdesc_fields@34@XZ@4HA 	 DATA
	?$TSS1@?1??node_desc_fields@base_text@sg@tools@@UEBAAEBVdesc_fields@34@XZ@4HA 	 DATA
	?$TSS1@?1??node_desc_fields@cube@sg@tools@@UEBAAEBVdesc_fields@34@XZ@4HA 	 DATA
	?$TSS1@?1??node_desc_fields@draw_style@sg@tools@@UEBAAEBVdesc_fields@34@XZ@4HA 	 DATA
	?$TSS1@?1??node_desc_fields@ellipse@sg@tools@@UEBAAEBVdesc_fields@34@XZ@4HA 	 DATA
	?$TSS1@?1??node_desc_fields@infos_box@sg@tools@@UEBAAEBVdesc_fields@34@XZ@4HA 	 DATA
	?$TSS1@?1??node_desc_fields@legend@sg@tools@@UEBAAEBVdesc_fields@34@XZ@4HA 	 DATA
	?$TSS1@?1??node_desc_fields@line_style@sg@tools@@UEBAAEBVdesc_fields@34@XZ@4HA 	 DATA
	?$TSS1@?1??node_desc_fields@markers@sg@tools@@UEBAAEBVdesc_fields@34@XZ@4HA 	 DATA
	?$TSS1@?1??node_desc_fields@matrix@sg@tools@@UEBAAEBVdesc_fields@34@XZ@4HA 	 DATA
	?$TSS1@?1??node_desc_fields@normal@sg@tools@@UEBAAEBVdesc_fields@34@XZ@4HA 	 DATA
	?$TSS1@?1??node_desc_fields@ortho@sg@tools@@UEBAAEBVdesc_fields@34@XZ@4HA 	 DATA
	?$TSS1@?1??node_desc_fields@plots@sg@tools@@UEBAAEBVdesc_fields@34@XZ@4HA 	 DATA
	?$TSS1@?1??node_desc_fields@plotter@sg@tools@@UEBAAEBVdesc_fields@34@XZ@4HA 	 DATA
	?$TSS1@?1??node_desc_fields@rgba@sg@tools@@UEBAAEBVdesc_fields@34@XZ@4HA 	 DATA
	?$TSS1@?1??node_desc_fields@style@sg@tools@@UEBAAEBVdesc_fields@34@XZ@4HA 	 DATA
	?$TSS1@?1??node_desc_fields@tex_rect@sg@tools@@UEBAAEBVdesc_fields@34@XZ@4HA 	 DATA
	?$TSS1@?1??node_desc_fields@text@sg@tools@@UEBAAEBVdesc_fields@34@XZ@4HA 	 DATA
	?$TSS1@?1??node_desc_fields@text_hershey@sg@tools@@UEBAAEBVdesc_fields@34@XZ@4HA 	 DATA
	?$TSS1@?1??node_desc_fields@text_style@sg@tools@@UEBAAEBVdesc_fields@34@XZ@4HA 	 DATA
	?$TSS1@?1??node_desc_fields@text_valop@sg@tools@@UEBAAEBVdesc_fields@34@XZ@4HA 	 DATA
	?$TSS1@?1??node_desc_fields@torche@sg@tools@@UEBAAEBVdesc_fields@34@XZ@4HA 	 DATA
	?$TSS1@?1??node_desc_fields@vertices@sg@tools@@UEBAAEBVdesc_fields@34@XZ@4HA 	 DATA
	??_R0?AU?$pair@V?$basic_string@DU?$char_traits@D@std@@V?$allocator@D@2@@std@@Vcolorf@tools@@@std@@@8 	 DATA
	??_R0?AV?$G4THnManager@Vh1d@histo@tools@@@@@8 	 DATA
	??_R0?AV?$G4THnManager@Vh2d@histo@tools@@@@@8 	 DATA
	??_R0?AV?$G4THnManager@Vh3d@histo@tools@@@@@8 	 DATA
	??_R0?AV?$G4THnManager@Vp1d@histo@tools@@@@@8 	 DATA
	??_R0?AV?$G4THnManager@Vp2d@histo@tools@@@@@8 	 DATA
	??_R0?AV?$G4TNtupleManager@Vntuple@waxml@tools@@@@@8 	 DATA
	??_R0?AV?$G4TNtupleManager@Vntuple@wcsv@tools@@@@@8 	 DATA
	??_R0?AV?$G4TNtupleManager@Vntuple@wroot@tools@@@@@8 	 DATA
	??_R0?AV?$G4TRNtupleManager@Vntuple@aida@tools@@@@@8 	 DATA
	??_R0?AV?$G4TRNtupleManager@Vntuple@rcsv@tools@@@@@8 	 DATA
	??_R0?AV?$G4TRNtupleManager@Vntuple@rroot@tools@@@@@8 	 DATA
	??_R0?AV?$_Iosb@H@std@@@8 	 DATA
	??_R0?AV?$_Ref_count_obj2@V?$basic_ofstream@DU?$char_traits@D@std@@@std@@@std@@@8 	 DATA
	??_R0?AV?$_Ref_count_obj2@VG4CsvFileManager@@@std@@@8 	 DATA
	??_R0?AV?$_Ref_count_obj2@VG4HnManager@@@std@@@8 	 DATA
	??_R0?AV?$_Ref_count_obj2@VG4PlotManager@@@std@@@8 	 DATA
	??_R0?AV?$_Ref_count_obj2@VG4RootFileManager@@@std@@@8 	 DATA
	??_R0?AV?$_Ref_count_obj2@VG4XmlFileManager@@@std@@@8 	 DATA
	??_R0?AV?$_Ref_count_obj2@Vfile@wroot@tools@@@std@@@8 	 DATA
	??_R0?AV?$_Tree@V?$_Tmap_traits@IVstyle_color@sg@tools@@U?$less@I@std@@V?$allocator@U?$pair@$$CBIVstyle_color@sg@tools@@@std@@@5@$0A@@std@@@std@@@8 	 DATA
	??_R0?AV?$aida_col@F@aida@tools@@@8 	 DATA
	??_R0?AV?$aida_col@G@aida@tools@@@8 	 DATA
	??_R0?AV?$aida_col@H@aida@tools@@@8 	 DATA
	??_R0?AV?$aida_col@I@aida@tools@@@8 	 DATA
	??_R0?AV?$aida_col@M@aida@tools@@@8 	 DATA
	??_R0?AV?$aida_col@N@aida@tools@@@8 	 DATA
	??_R0?AV?$aida_col@V?$basic_string@DU?$char_traits@D@std@@V?$allocator@D@2@@std@@@aida@tools@@@8 	 DATA
	??_R0?AV?$aida_col@_J@aida@tools@@@8 	 DATA
	??_R0?AV?$aida_col@_K@aida@tools@@@8 	 DATA
	??_R0?AV?$aida_col@_N@aida@tools@@@8 	 DATA
	??_R0?AV?$array@F@tools@@@8 	 DATA
	??_R0?AV?$array@G@tools@@@8 	 DATA
	??_R0?AV?$array@H@tools@@@8 	 DATA
	??_R0?AV?$array@I@tools@@@8 	 DATA
	??_R0?AV?$array@M@tools@@@8 	 DATA
	??_R0?AV?$array@N@tools@@@8 	 DATA
	??_R0?AV?$array@V?$basic_string@DU?$char_traits@D@std@@V?$allocator@D@2@@std@@@tools@@@8 	 DATA
	??_R0?AV?$array@_J@tools@@@8 	 DATA
	??_R0?AV?$array@_K@tools@@@8 	 DATA
	??_R0?AV?$array@_N@tools@@@8 	 DATA
	??_R0?AV?$axis@NI@histo@tools@@@8 	 DATA
	??_R0?AV?$b1@NIINN@histo@tools@@@8 	 DATA
	??_R0?AV?$b2@NIINN@histo@tools@@@8 	 DATA
	??_R0?AV?$b3@NIINN@histo@tools@@@8 	 DATA
	??_R0?AV?$base_histo@NIINN@histo@tools@@@8 	 DATA
	??_R0?AV?$basic_filebuf@DU?$char_traits@D@std@@@std@@@8 	 DATA
	??_R0?AV?$basic_ifstream@DU?$char_traits@D@std@@@std@@@8 	 DATA
	??_R0?AV?$basic_ios@DU?$char_traits@D@std@@@std@@@8 	 DATA
	??_R0?AV?$basic_istream@DU?$char_traits@D@std@@@std@@@8 	 DATA
	??_R0?AV?$basic_istringstream@DU?$char_traits@D@std@@V?$allocator@D@2@@std@@@8 	 DATA
	??_R0?AV?$basic_ofstream@DU?$char_traits@D@std@@@std@@@8 	 DATA
	??_R0?AV?$basic_ostream@DU?$char_traits@D@std@@@std@@@8 	 DATA
	??_R0?AV?$basic_ostringstream@DU?$char_traits@D@std@@V?$allocator@D@2@@std@@@8 	 DATA
	??_R0?AV?$basic_streambuf@DU?$char_traits@D@std@@@std@@@8 	 DATA
	??_R0?AV?$basic_stringbuf@DU?$char_traits@D@std@@V?$allocator@D@2@@std@@@8 	 DATA
	??_R0?AV?$bmf@M@sg@tools@@@8 	 DATA
	??_R0?AV?$bmf@V?$basic_string@DU?$char_traits@D@std@@V?$allocator@D@2@@std@@@sg@tools@@@8 	 DATA
	??_R0?AV?$bmf@V?$vector@IV?$allocator@I@std@@@std@@@sg@tools@@@8 	 DATA
	??_R0?AV?$bmf@Vvec2f@tools@@@sg@tools@@@8 	 DATA
	??_R0?AV?$bmf@W4unit_type@plotter@sg@tools@@@sg@tools@@@8 	 DATA
	??_R0?AV?$box3@Vvec3f@tools@@@tools@@@8 	 DATA
	??_R0?AV?$bsf@E@sg@tools@@@8 	 DATA
	??_R0?AV?$bsf@G@sg@tools@@@8 	 DATA
	??_R0?AV?$bsf@H@sg@tools@@@8 	 DATA
	??_R0?AV?$bsf@I@sg@tools@@@8 	 DATA
	??_R0?AV?$bsf@M@sg@tools@@@8 	 DATA
	??_R0?AV?$bsf@N@sg@tools@@@8 	 DATA
	??_R0?AV?$bsf@V?$basic_string@DU?$char_traits@D@std@@V?$allocator@D@2@@std@@@sg@tools@@@8 	 DATA
	??_R0?AV?$bsf@V?$img@E@tools@@@sg@tools@@@8 	 DATA
	??_R0?AV?$bsf@Vcolorf@tools@@@sg@tools@@@8 	 DATA
	??_R0?AV?$bsf@Vmat4f@tools@@@sg@tools@@@8 	 DATA
	??_R0?AV?$bsf@Vrotf@tools@@@sg@tools@@@8 	 DATA
	??_R0?AV?$bsf@Vvec3f@tools@@@sg@tools@@@8 	 DATA
	??_R0?AV?$bsf@Vvec4f@tools@@@sg@tools@@@8 	 DATA
	??_R0?AV?$bsf@W4area_style@sg@tools@@@sg@tools@@@8 	 DATA
	??_R0?AV?$bsf@W4colormap_axis_labeling_type@plotter@sg@tools@@@sg@tools@@@8 	 DATA
	??_R0?AV?$bsf@W4draw_type@sg@tools@@@sg@tools@@@8 	 DATA
	??_R0?AV?$bsf@W4font_modeling@sg@tools@@@sg@tools@@@8 	 DATA
	??_R0?AV?$bsf@W4font_type@sg@tools@@@sg@tools@@@8 	 DATA
	??_R0?AV?$bsf@W4hatching_policy@sg@tools@@@sg@tools@@@8 	 DATA
	??_R0?AV?$bsf@W4hjust@sg@tools@@@sg@tools@@@8 	 DATA
	??_R0?AV?$bsf@W4marker_style@sg@tools@@@sg@tools@@@8 	 DATA
	??_R0?AV?$bsf@W4painting_policy@sg@tools@@@sg@tools@@@8 	 DATA
	??_R0?AV?$bsf@W4projection_type@sg@tools@@@sg@tools@@@8 	 DATA
	??_R0?AV?$bsf@W4shape_type@plotter@sg@tools@@@sg@tools@@@8 	 DATA
	??_R0?AV?$bsf@W4vjust@sg@tools@@@sg@tools@@@8 	 DATA
	??_R0?AV?$bsf@W4winding_type@sg@tools@@@sg@tools@@@8 	 DATA
	??_R0?AV?$bsf@_N@sg@tools@@@8 	 DATA
	??_R0?AV?$clip@Vvec3f@tools@@@tools@@@8 	 DATA
	??_R0?AV?$column@D@base_pntuple@wroot@tools@@@8 	 DATA
	??_R0?AV?$column@D@ntuple@rcsv@tools@@@8 	 DATA
	??_R0?AV?$column@D@ntuple@wcsv@tools@@@8 	 DATA
	??_R0?AV?$column@D@ntuple@wroot@tools@@@8 	 DATA
	??_R0?AV?$column@DV?$leaf@D@rroot@tools@@@ntuple@rroot@tools@@@8 	 DATA
	??_R0?AV?$column@E@ntuple@rcsv@tools@@@8 	 DATA
	??_R0?AV?$column@E@ntuple@wcsv@tools@@@8 	 DATA
	??_R0?AV?$column@F@base_pntuple@wroot@tools@@@8 	 DATA
	??_R0?AV?$column@F@ntuple@rcsv@tools@@@8 	 DATA
	??_R0?AV?$column@F@ntuple@wcsv@tools@@@8 	 DATA
	??_R0?AV?$column@F@ntuple@wroot@tools@@@8 	 DATA
	??_R0?AV?$column@FV?$leaf@F@rroot@tools@@@ntuple@rroot@tools@@@8 	 DATA
	??_R0?AV?$column@G@ntuple@rcsv@tools@@@8 	 DATA
	??_R0?AV?$column@G@ntuple@wcsv@tools@@@8 	 DATA
	??_R0?AV?$column@H@base_pntuple@wroot@tools@@@8 	 DATA
	??_R0?AV?$column@H@ntuple@rcsv@tools@@@8 	 DATA
	??_R0?AV?$column@H@ntuple@waxml@tools@@@8 	 DATA
	??_R0?AV?$column@H@ntuple@wcsv@tools@@@8 	 DATA
	??_R0?AV?$column@H@ntuple@wroot@tools@@@8 	 DATA
	??_R0?AV?$column@HV?$leaf@H@rroot@tools@@@ntuple@rroot@tools@@@8 	 DATA
	??_R0?AV?$column@I@ntuple@rcsv@tools@@@8 	 DATA
	??_R0?AV?$column@I@ntuple@wcsv@tools@@@8 	 DATA
	??_R0?AV?$column@M@base_pntuple@wroot@tools@@@8 	 DATA
	??_R0?AV?$column@M@ntuple@rcsv@tools@@@8 	 DATA
	??_R0?AV?$column@M@ntuple@waxml@tools@@@8 	 DATA
	??_R0?AV?$column@M@ntuple@wcsv@tools@@@8 	 DATA
	??_R0?AV?$column@M@ntuple@wroot@tools@@@8 	 DATA
	??_R0?AV?$column@MV?$leaf@M@rroot@tools@@@ntuple@rroot@tools@@@8 	 DATA
	??_R0?AV?$column@N@base_pntuple@wroot@tools@@@8 	 DATA
	??_R0?AV?$column@N@ntuple@rcsv@tools@@@8 	 DATA
	??_R0?AV?$column@N@ntuple@waxml@tools@@@8 	 DATA
	??_R0?AV?$column@N@ntuple@wcsv@tools@@@8 	 DATA
	??_R0?AV?$column@N@ntuple@wroot@tools@@@8 	 DATA
	??_R0?AV?$column@NV?$leaf@D@rroot@tools@@@ntuple@rroot@tools@@@8 	 DATA
	??_R0?AV?$column@NV?$leaf@F@rroot@tools@@@ntuple@rroot@tools@@@8 	 DATA
	??_R0?AV?$column@NV?$leaf@H@rroot@tools@@@ntuple@rroot@tools@@@8 	 DATA
	??_R0?AV?$column@NV?$leaf@M@rroot@tools@@@ntuple@rroot@tools@@@8 	 DATA
	??_R0?AV?$column@NV?$leaf@N@rroot@tools@@@ntuple@rroot@tools@@@8 	 DATA
	??_R0?AV?$column@V?$basic_string@DU?$char_traits@D@std@@V?$allocator@D@2@@std@@@ntuple@rcsv@tools@@@8 	 DATA
	??_R0?AV?$column@V?$basic_string@DU?$char_traits@D@std@@V?$allocator@D@2@@std@@@ntuple@waxml@tools@@@8 	 DATA
	??_R0?AV?$column@V?$basic_string@DU?$char_traits@D@std@@V?$allocator@D@2@@std@@@ntuple@wcsv@tools@@@8 	 DATA
	??_R0?AV?$column@V?$vector@DV?$allocator@D@std@@@std@@@ntuple@rcsv@tools@@@8 	 DATA
	??_R0?AV?$column@V?$vector@EV?$allocator@E@std@@@std@@@ntuple@rcsv@tools@@@8 	 DATA
	??_R0?AV?$column@V?$vector@FV?$allocator@F@std@@@std@@@ntuple@rcsv@tools@@@8 	 DATA
	??_R0?AV?$column@V?$vector@GV?$allocator@G@std@@@std@@@ntuple@rcsv@tools@@@8 	 DATA
	??_R0?AV?$column@V?$vector@HV?$allocator@H@std@@@std@@@ntuple@rcsv@tools@@@8 	 DATA
	??_R0?AV?$column@V?$vector@IV?$allocator@I@std@@@std@@@ntuple@rcsv@tools@@@8 	 DATA
	??_R0?AV?$column@V?$vector@MV?$allocator@M@std@@@std@@@ntuple@rcsv@tools@@@8 	 DATA
	??_R0?AV?$column@V?$vector@NV?$allocator@N@std@@@std@@@ntuple@rcsv@tools@@@8 	 DATA
	??_R0?AV?$column@V?$vector@V?$basic_string@DU?$char_traits@D@std@@V?$allocator@D@2@@std@@V?$allocator@V?$basic_string@DU?$char_traits@D@std@@V?$allocator@D@2@@std@@@2@@std@@@ntuple@rcsv@tools@@@8 	 DATA
	??_R0?AV?$column@V?$vector@_JV?$allocator@_J@std@@@std@@@ntuple@rcsv@tools@@@8 	 DATA
	??_R0?AV?$column@V?$vector@_KV?$allocator@_K@std@@@std@@@ntuple@rcsv@tools@@@8 	 DATA
	??_R0?AV?$column@V?$vector@_NV?$allocator@_N@std@@@std@@@ntuple@rcsv@tools@@@8 	 DATA
	??_R0?AV?$column@_J@ntuple@rcsv@tools@@@8 	 DATA
	??_R0?AV?$column@_J@ntuple@wcsv@tools@@@8 	 DATA
	??_R0?AV?$column@_K@ntuple@rcsv@tools@@@8 	 DATA
	??_R0?AV?$column@_K@ntuple@wcsv@tools@@@8 	 DATA
	??_R0?AV?$column@_N@ntuple@rcsv@tools@@@8 	 DATA
	??_R0?AV?$column@_N@ntuple@wcsv@tools@@@8 	 DATA
	??_R0?AV?$column_element@V?$stl_vector@D@rroot@tools@@V?$vector@DV?$allocator@D@std@@@std@@@ntuple@rroot@tools@@@8 	 DATA
	??_R0?AV?$column_element@V?$stl_vector@F@rroot@tools@@V?$vector@FV?$allocator@F@std@@@std@@@ntuple@rroot@tools@@@8 	 DATA
	??_R0?AV?$column_element@V?$stl_vector@H@rroot@tools@@V?$vector@HV?$allocator@H@std@@@std@@@ntuple@rroot@tools@@@8 	 DATA
	??_R0?AV?$column_element@V?$stl_vector@M@rroot@tools@@V?$vector@MV?$allocator@M@std@@@std@@@ntuple@rroot@tools@@@8 	 DATA
	??_R0?AV?$column_element@V?$stl_vector@N@rroot@tools@@V?$vector@NV?$allocator@N@std@@@std@@@ntuple@rroot@tools@@@8 	 DATA
	??_R0?AV?$column_element_ref@V?$stl_vector@D@rroot@tools@@V?$vector@DV?$allocator@D@std@@@std@@@ntuple@rroot@tools@@@8 	 DATA
	??_R0?AV?$column_element_ref@V?$stl_vector@F@rroot@tools@@V?$vector@FV?$allocator@F@std@@@std@@@ntuple@rroot@tools@@@8 	 DATA
	??_R0?AV?$column_element_ref@V?$stl_vector@H@rroot@tools@@V?$vector@HV?$allocator@H@std@@@std@@@ntuple@rroot@tools@@@8 	 DATA
	??_R0?AV?$column_element_ref@V?$stl_vector@M@rroot@tools@@V?$vector@MV?$allocator@M@std@@@std@@@ntuple@rroot@tools@@@8 	 DATA
	??_R0?AV?$column_element_ref@V?$stl_vector@N@rroot@tools@@V?$vector@NV?$allocator@N@std@@@std@@@ntuple@rroot@tools@@@8 	 DATA
	??_R0?AV?$column_ref@D@base_pntuple@wroot@tools@@@8 	 DATA
	??_R0?AV?$column_ref@D@ntuple@wcsv@tools@@@8 	 DATA
	??_R0?AV?$column_ref@D@ntuple@wroot@tools@@@8 	 DATA
	??_R0?AV?$column_ref@DV?$leaf@D@rroot@tools@@@ntuple@rroot@tools@@@8 	 DATA
	??_R0?AV?$column_ref@E@ntuple@wcsv@tools@@@8 	 DATA
	??_R0?AV?$column_ref@F@base_pntuple@wroot@tools@@@8 	 DATA
	??_R0?AV?$column_ref@F@ntuple@wcsv@tools@@@8 	 DATA
	??_R0?AV?$column_ref@F@ntuple@wroot@tools@@@8 	 DATA
	??_R0?AV?$column_ref@FV?$leaf@F@rroot@tools@@@ntuple@rroot@tools@@@8 	 DATA
	??_R0?AV?$column_ref@G@ntuple@wcsv@tools@@@8 	 DATA
	??_R0?AV?$column_ref@H@base_pntuple@wroot@tools@@@8 	 DATA
	??_R0?AV?$column_ref@H@ntuple@wcsv@tools@@@8 	 DATA
	??_R0?AV?$column_ref@H@ntuple@wroot@tools@@@8 	 DATA
	??_R0?AV?$column_ref@HV?$leaf@H@rroot@tools@@@ntuple@rroot@tools@@@8 	 DATA
	??_R0?AV?$column_ref@I@ntuple@wcsv@tools@@@8 	 DATA
	??_R0?AV?$column_ref@M@base_pntuple@wroot@tools@@@8 	 DATA
	??_R0?AV?$column_ref@M@ntuple@wcsv@tools@@@8 	 DATA
	??_R0?AV?$column_ref@M@ntuple@wroot@tools@@@8 	 DATA
	??_R0?AV?$column_ref@MV?$leaf@M@rroot@tools@@@ntuple@rroot@tools@@@8 	 DATA
	??_R0?AV?$column_ref@N@base_pntuple@wroot@tools@@@8 	 DATA
	??_R0?AV?$column_ref@N@ntuple@wcsv@tools@@@8 	 DATA
	??_R0?AV?$column_ref@N@ntuple@wroot@tools@@@8 	 DATA
	??_R0?AV?$column_ref@NV?$leaf@D@rroot@tools@@@ntuple@rroot@tools@@@8 	 DATA
	??_R0?AV?$column_ref@NV?$leaf@F@rroot@tools@@@ntuple@rroot@tools@@@8 	 DATA
	??_R0?AV?$column_ref@NV?$leaf@H@rroot@tools@@@ntuple@rroot@tools@@@8 	 DATA
	??_R0?AV?$column_ref@NV?$leaf@M@rroot@tools@@@ntuple@rroot@tools@@@8 	 DATA
	??_R0?AV?$column_ref@NV?$leaf@N@rroot@tools@@@ntuple@rroot@tools@@@8 	 DATA
	??_R0?AV?$column_ref@V?$basic_string@DU?$char_traits@D@std@@V?$allocator@D@2@@std@@@ntuple@wcsv@tools@@@8 	 DATA
	??_R0?AV?$column_ref@_J@ntuple@wcsv@tools@@@8 	 DATA
	??_R0?AV?$column_ref@_K@ntuple@wcsv@tools@@@8 	 DATA
	??_R0?AV?$column_ref@_N@ntuple@wcsv@tools@@@8 	 DATA
	??_R0?AV?$h1@NIINN@histo@tools@@@8 	 DATA
	??_R0?AV?$h2@NIINN@histo@tools@@@8 	 DATA
	??_R0?AV?$h3@NIINN@histo@tools@@@8 	 DATA
	??_R0?AV?$handle@Vc1d@histo@tools@@@tools@@@8 	 DATA
	??_R0?AV?$handle@Vc2d@histo@tools@@@tools@@@8 	 DATA
	??_R0?AV?$handle@Vc3d@histo@tools@@@tools@@@8 	 DATA
	??_R0?AV?$handle@Vdps@histo@tools@@@tools@@@8 	 DATA
	??_R0?AV?$handle@Vh1d@histo@tools@@@tools@@@8 	 DATA
	??_R0?AV?$handle@Vh2d@histo@tools@@@tools@@@8 	 DATA
	??_R0?AV?$handle@Vh3d@histo@tools@@@tools@@@8 	 DATA
	??_R0?AV?$handle@Vntuple@aida@tools@@@tools@@@8 	 DATA
	??_R0?AV?$handle@Vp1d@histo@tools@@@tools@@@8 	 DATA
	??_R0?AV?$handle@Vp2d@histo@tools@@@tools@@@8 	 DATA
	??_R0?AV?$histo_data@NIIN@histo@tools@@@8 	 DATA
	??_R0?AV?$icolumn@D@read@tools@@@8 	 DATA
	??_R0?AV?$icolumn@E@read@tools@@@8 	 DATA
	??_R0?AV?$icolumn@F@read@tools@@@8 	 DATA
	??_R0?AV?$icolumn@G@read@tools@@@8 	 DATA
	??_R0?AV?$icolumn@H@read@tools@@@8 	 DATA
	??_R0?AV?$icolumn@I@read@tools@@@8 	 DATA
	??_R0?AV?$icolumn@M@read@tools@@@8 	 DATA
	??_R0?AV?$icolumn@N@read@tools@@@8 	 DATA
	??_R0?AV?$icolumn@V?$basic_string@DU?$char_traits@D@std@@V?$allocator@D@2@@std@@@read@tools@@@8 	 DATA
	??_R0?AV?$icolumn@V?$vector@DV?$allocator@D@std@@@std@@@read@tools@@@8 	 DATA
	??_R0?AV?$icolumn@V?$vector@EV?$allocator@E@std@@@std@@@read@tools@@@8 	 DATA
	??_R0?AV?$icolumn@V?$vector@FV?$allocator@F@std@@@std@@@read@tools@@@8 	 DATA
	??_R0?AV?$icolumn@V?$vector@GV?$allocator@G@std@@@std@@@read@tools@@@8 	 DATA
	??_R0?AV?$icolumn@V?$vector@HV?$allocator@H@std@@@std@@@read@tools@@@8 	 DATA
	??_R0?AV?$icolumn@V?$vector@IV?$allocator@I@std@@@std@@@read@tools@@@8 	 DATA
	??_R0?AV?$icolumn@V?$vector@MV?$allocator@M@std@@@std@@@read@tools@@@8 	 DATA
	??_R0?AV?$icolumn@V?$vector@NV?$allocator@N@std@@@std@@@read@tools@@@8 	 DATA
	??_R0?AV?$icolumn@V?$vector@V?$basic_string@DU?$char_traits@D@std@@V?$allocator@D@2@@std@@V?$allocator@V?$basic_string@DU?$char_traits@D@std@@V?$allocator@D@2@@std@@@2@@std@@@read@tools@@@8 	 DATA
	??_R0?AV?$icolumn@V?$vector@_JV?$allocator@_J@std@@@std@@@read@tools@@@8 	 DATA
	??_R0?AV?$icolumn@V?$vector@_KV?$allocator@_K@std@@@std@@@read@tools@@@8 	 DATA
	??_R0?AV?$icolumn@V?$vector@_NV?$allocator@_N@std@@@std@@@read@tools@@@8 	 DATA
	??_R0?AV?$icolumn@_J@read@tools@@@8 	 DATA
	??_R0?AV?$icolumn@_K@read@tools@@@8 	 DATA
	??_R0?AV?$icolumn@_N@read@tools@@@8 	 DATA
	??_R0?AV?$img@E@tools@@@8 	 DATA
	??_R0?AV?$leaf@D@rroot@tools@@@8 	 DATA
	??_R0?AV?$leaf@F@rroot@tools@@@8 	 DATA
	??_R0?AV?$leaf@H@rroot@tools@@@8 	 DATA
	??_R0?AV?$leaf@H@wroot@tools@@@8 	 DATA
	??_R0?AV?$leaf@M@rroot@tools@@@8 	 DATA
	??_R0?AV?$leaf@N@rroot@tools@@@8 	 DATA
	??_R0?AV?$leaf@_N@rroot@tools@@@8 	 DATA
	??_R0?AV?$leaf_ref@D@wroot@tools@@@8 	 DATA
	??_R0?AV?$leaf_ref@F@wroot@tools@@@8 	 DATA
	??_R0?AV?$leaf_ref@H@wroot@tools@@@8 	 DATA
	??_R0?AV?$leaf_ref@M@wroot@tools@@@8 	 DATA
	??_R0?AV?$leaf_ref@N@wroot@tools@@@8 	 DATA
	??_R0?AV?$leaf_std_vector_ref@D@wroot@tools@@@8 	 DATA
	??_R0?AV?$leaf_std_vector_ref@F@wroot@tools@@@8 	 DATA
	??_R0?AV?$leaf_std_vector_ref@H@wroot@tools@@@8 	 DATA
	??_R0?AV?$leaf_std_vector_ref@M@wroot@tools@@@8 	 DATA
	??_R0?AV?$leaf_std_vector_ref@N@wroot@tools@@@8 	 DATA
	??_R0?AV?$line@Vvec3f@tools@@@tools@@@8 	 DATA
	??_R0?AV?$map@IVstyle_color@sg@tools@@U?$less@I@std@@V?$allocator@U?$pair@$$CBIVstyle_color@sg@tools@@@std@@@5@@std@@@8 	 DATA
	??_R0?AV?$mat4@M@tools@@@8 	 DATA
	??_R0?AV?$mat@M$03@tools@@@8 	 DATA
	??_R0?AV?$mf@M@sg@tools@@@8 	 DATA
	??_R0?AV?$mf_enum@W4unit_type@plotter@sg@tools@@@sg@tools@@@8 	 DATA
	??_R0?AV?$mf_std_vec@I@sg@tools@@@8 	 DATA
	??_R0?AV?$mf_vec@Vvec2f@tools@@M@sg@tools@@@8 	 DATA
	??_R0?AV?$obj_array@Vbase_leaf@rroot@tools@@@rroot@tools@@@8 	 DATA
	??_R0?AV?$obj_array@Vbase_leaf@wroot@tools@@@wroot@tools@@@8 	 DATA
	??_R0?AV?$obj_array@Vbasket@rroot@tools@@@rroot@tools@@@8 	 DATA
	??_R0?AV?$obj_array@Vbasket@wroot@tools@@@wroot@tools@@@8 	 DATA
	??_R0?AV?$obj_array@Vbranch@rroot@tools@@@rroot@tools@@@8 	 DATA
	??_R0?AV?$obj_array@Vbranch@wroot@tools@@@wroot@tools@@@8 	 DATA
	??_R0?AV?$obj_array@Vstreamer_element@rroot@tools@@@rroot@tools@@@8 	 DATA
	??_R0?AV?$obj_array@Vstreamer_element@wroot@tools@@@wroot@tools@@@8 	 DATA
	??_R0?AV?$obj_list@Vstreamer_info@wroot@tools@@@wroot@tools@@@8 	 DATA
	??_R0?AV?$p1@NIINNN@histo@tools@@@8 	 DATA
	??_R0?AV?$p2@NIINNN@histo@tools@@@8 	 DATA
	??_R0?AV?$plane@Vvec3d@tools@@@tools@@@8 	 DATA
	??_R0?AV?$plane@Vvec3f@tools@@@tools@@@8 	 DATA
	??_R0?AV?$profile_data@NIINN@histo@tools@@@8 	 DATA
	??_R0?AV?$qrot@Vvec3f@tools@@Vvec4f@2@@tools@@@8 	 DATA
	??_R0?AV?$sf@E@sg@tools@@@8 	 DATA
	??_R0?AV?$sf@G@sg@tools@@@8 	 DATA
	??_R0?AV?$sf@H@sg@tools@@@8 	 DATA
	??_R0?AV?$sf@I@sg@tools@@@8 	 DATA
	??_R0?AV?$sf@M@sg@tools@@@8 	 DATA
	??_R0?AV?$sf@N@sg@tools@@@8 	 DATA
	??_R0?AV?$sf@_N@sg@tools@@@8 	 DATA
	??_R0?AV?$sf_enum@W4area_style@sg@tools@@@sg@tools@@@8 	 DATA
	??_R0?AV?$sf_enum@W4colormap_axis_labeling_type@plotter@sg@tools@@@sg@tools@@@8 	 DATA
	??_R0?AV?$sf_enum@W4draw_type@sg@tools@@@sg@tools@@@8 	 DATA
	??_R0?AV?$sf_enum@W4font_modeling@sg@tools@@@sg@tools@@@8 	 DATA
	??_R0?AV?$sf_enum@W4font_type@sg@tools@@@sg@tools@@@8 	 DATA
	??_R0?AV?$sf_enum@W4hatching_policy@sg@tools@@@sg@tools@@@8 	 DATA
	??_R0?AV?$sf_enum@W4hjust@sg@tools@@@sg@tools@@@8 	 DATA
	??_R0?AV?$sf_enum@W4marker_style@sg@tools@@@sg@tools@@@8 	 DATA
	??_R0?AV?$sf_enum@W4painting_policy@sg@tools@@@sg@tools@@@8 	 DATA
	??_R0?AV?$sf_enum@W4projection_type@sg@tools@@@sg@tools@@@8 	 DATA
	??_R0?AV?$sf_enum@W4shape_type@plotter@sg@tools@@@sg@tools@@@8 	 DATA
	??_R0?AV?$sf_enum@W4vjust@sg@tools@@@sg@tools@@@8 	 DATA
	??_R0?AV?$sf_enum@W4winding_type@sg@tools@@@sg@tools@@@8 	 DATA
	??_R0?AV?$sf_img@E@sg@tools@@@8 	 DATA
	??_R0?AV?$sf_vec@Vcolorf@tools@@M@sg@tools@@@8 	 DATA
	??_R0?AV?$sf_vec@Vmat4f@tools@@M@sg@tools@@@8 	 DATA
	??_R0?AV?$sf_vec@Vvec3f@tools@@M@sg@tools@@@8 	 DATA
	??_R0?AV?$sf_vec@Vvec4f@tools@@M@sg@tools@@@8 	 DATA
	??_R0?AV?$std_vector_be_pointer@D@wroot@tools@@@8 	 DATA
	??_R0?AV?$std_vector_be_pointer@F@wroot@tools@@@8 	 DATA
	??_R0?AV?$std_vector_be_pointer@H@wroot@tools@@@8 	 DATA
	??_R0?AV?$std_vector_be_pointer@M@wroot@tools@@@8 	 DATA
	??_R0?AV?$std_vector_be_pointer@N@wroot@tools@@@8 	 DATA
	??_R0?AV?$std_vector_be_ref@D@wroot@tools@@@8 	 DATA
	??_R0?AV?$std_vector_be_ref@F@wroot@tools@@@8 	 DATA
	??_R0?AV?$std_vector_be_ref@H@wroot@tools@@@8 	 DATA
	??_R0?AV?$std_vector_be_ref@M@wroot@tools@@@8 	 DATA
	??_R0?AV?$std_vector_be_ref@N@wroot@tools@@@8 	 DATA
	??_R0?AV?$std_vector_column@D@base_pntuple@wroot@tools@@@8 	 DATA
	??_R0?AV?$std_vector_column@D@ntuple@wcsv@tools@@@8 	 DATA
	??_R0?AV?$std_vector_column@D@ntuple@wroot@tools@@@8 	 DATA
	??_R0?AV?$std_vector_column@E@ntuple@wcsv@tools@@@8 	 DATA
	??_R0?AV?$std_vector_column@F@base_pntuple@wroot@tools@@@8 	 DATA
	??_R0?AV?$std_vector_column@F@ntuple@wcsv@tools@@@8 	 DATA
	??_R0?AV?$std_vector_column@F@ntuple@wroot@tools@@@8 	 DATA
	??_R0?AV?$std_vector_column@G@ntuple@wcsv@tools@@@8 	 DATA
	??_R0?AV?$std_vector_column@H@base_pntuple@wroot@tools@@@8 	 DATA
	??_R0?AV?$std_vector_column@H@ntuple@waxml@tools@@@8 	 DATA
	??_R0?AV?$std_vector_column@H@ntuple@wcsv@tools@@@8 	 DATA
	??_R0?AV?$std_vector_column@H@ntuple@wroot@tools@@@8 	 DATA
	??_R0?AV?$std_vector_column@I@ntuple@wcsv@tools@@@8 	 DATA
	??_R0?AV?$std_vector_column@M@base_pntuple@wroot@tools@@@8 	 DATA
	??_R0?AV?$std_vector_column@M@ntuple@waxml@tools@@@8 	 DATA
	??_R0?AV?$std_vector_column@M@ntuple@wcsv@tools@@@8 	 DATA
	??_R0?AV?$std_vector_column@M@ntuple@wroot@tools@@@8 	 DATA
	??_R0?AV?$std_vector_column@N@base_pntuple@wroot@tools@@@8 	 DATA
	??_R0?AV?$std_vector_column@N@ntuple@waxml@tools@@@8 	 DATA
	??_R0?AV?$std_vector_column@N@ntuple@wcsv@tools@@@8 	 DATA
	??_R0?AV?$std_vector_column@N@ntuple@wroot@tools@@@8 	 DATA
	??_R0?AV?$std_vector_column@V?$basic_string@DU?$char_traits@D@std@@V?$allocator@D@2@@std@@@ntuple@wcsv@tools@@@8 	 DATA
	??_R0?AV?$std_vector_column@_J@ntuple@wcsv@tools@@@8 	 DATA
	??_R0?AV?$std_vector_column@_K@ntuple@wcsv@tools@@@8 	 DATA
	??_R0?AV?$std_vector_column@_N@ntuple@wcsv@tools@@@8 	 DATA
	??_R0?AV?$std_vector_column_ref@D@base_pntuple@wroot@tools@@@8 	 DATA
	??_R0?AV?$std_vector_column_ref@D@ntuple@rroot@tools@@@8 	 DATA
	??_R0?AV?$std_vector_column_ref@D@ntuple@wroot@tools@@@8 	 DATA
	??_R0?AV?$std_vector_column_ref@F@base_pntuple@wroot@tools@@@8 	 DATA
	??_R0?AV?$std_vector_column_ref@F@ntuple@rroot@tools@@@8 	 DATA
	??_R0?AV?$std_vector_column_ref@F@ntuple@wroot@tools@@@8 	 DATA
	??_R0?AV?$std_vector_column_ref@H@base_pntuple@wroot@tools@@@8 	 DATA
	??_R0?AV?$std_vector_column_ref@H@ntuple@rroot@tools@@@8 	 DATA
	??_R0?AV?$std_vector_column_ref@H@ntuple@wroot@tools@@@8 	 DATA
	??_R0?AV?$std_vector_column_ref@M@base_pntuple@wroot@tools@@@8 	 DATA
	??_R0?AV?$std_vector_column_ref@M@ntuple@rroot@tools@@@8 	 DATA
	??_R0?AV?$std_vector_column_ref@M@ntuple@wroot@tools@@@8 	 DATA
	??_R0?AV?$std_vector_column_ref@N@base_pntuple@wroot@tools@@@8 	 DATA
	??_R0?AV?$std_vector_column_ref@N@ntuple@rroot@tools@@@8 	 DATA
	??_R0?AV?$std_vector_column_ref@N@ntuple@wroot@tools@@@8 	 DATA
	??_R0?AV?$stl_vector@F@rroot@tools@@@8 	 DATA
	??_R0?AV?$stl_vector@G@rroot@tools@@@8 	 DATA
	??_R0?AV?$stl_vector@H@rroot@tools@@@8 	 DATA
	??_R0?AV?$stl_vector@I@rroot@tools@@@8 	 DATA
	??_R0?AV?$stl_vector@M@rroot@tools@@@8 	 DATA
	??_R0?AV?$stl_vector@N@rroot@tools@@@8 	 DATA
	??_R0?AV?$stl_vector@_K@rroot@tools@@@8 	 DATA
	??_R0?AV?$stl_vector_vector@F@rroot@tools@@@8 	 DATA
	??_R0?AV?$stl_vector_vector@G@rroot@tools@@@8 	 DATA
	??_R0?AV?$stl_vector_vector@H@rroot@tools@@@8 	 DATA
	??_R0?AV?$stl_vector_vector@I@rroot@tools@@@8 	 DATA
	??_R0?AV?$stl_vector_vector@M@rroot@tools@@@8 	 DATA
	??_R0?AV?$stl_vector_vector@N@rroot@tools@@@8 	 DATA
	??_R0?AV?$vec2@M@tools@@@8 	 DATA
	??_R0?AV?$vec3@M@tools@@@8 	 DATA
	??_R0?AV?$vec3@N@tools@@@8 	 DATA
	??_R0?AV?$vec4@M@tools@@@8 	 DATA
	??_R0?AV?$vector@FV?$allocator@F@std@@@std@@@8 	 DATA
	??_R0?AV?$vector@GV?$allocator@G@std@@@std@@@8 	 DATA
	??_R0?AV?$vector@HV?$allocator@H@std@@@std@@@8 	 DATA
	??_R0?AV?$vector@IV?$allocator@I@std@@@std@@@8 	 DATA
	??_R0?AV?$vector@MV?$allocator@M@std@@@std@@@8 	 DATA
	??_R0?AV?$vector@NV?$allocator@N@std@@@std@@@8 	 DATA
	??_R0?AV?$vector@PEAVbase_leaf@rroot@tools@@V?$allocator@PEAVbase_leaf@rroot@tools@@@std@@@std@@@8 	 DATA
	??_R0?AV?$vector@PEAVbase_leaf@wroot@tools@@V?$allocator@PEAVbase_leaf@wroot@tools@@@std@@@std@@@8 	 DATA
	??_R0?AV?$vector@PEAVbasket@rroot@tools@@V?$allocator@PEAVbasket@rroot@tools@@@std@@@std@@@8 	 DATA
	??_R0?AV?$vector@PEAVbasket@wroot@tools@@V?$allocator@PEAVbasket@wroot@tools@@@std@@@std@@@8 	 DATA
	??_R0?AV?$vector@PEAVbranch@rroot@tools@@V?$allocator@PEAVbranch@rroot@tools@@@std@@@std@@@8 	 DATA
	??_R0?AV?$vector@PEAVbranch@wroot@tools@@V?$allocator@PEAVbranch@wroot@tools@@@std@@@std@@@8 	 DATA
	??_R0?AV?$vector@PEAViro@rroot@tools@@V?$allocator@PEAViro@rroot@tools@@@std@@@std@@@8 	 DATA
	??_R0?AV?$vector@PEAVstreamer_element@rroot@tools@@V?$allocator@PEAVstreamer_element@rroot@tools@@@std@@@std@@@8 	 DATA
	??_R0?AV?$vector@PEAVstreamer_element@wroot@tools@@V?$allocator@PEAVstreamer_element@wroot@tools@@@std@@@std@@@8 	 DATA
	??_R0?AV?$vector@PEAVstreamer_info@wroot@tools@@V?$allocator@PEAVstreamer_info@wroot@tools@@@std@@@std@@@8 	 DATA
	??_R0?AV?$vector@V?$basic_string@DU?$char_traits@D@std@@V?$allocator@D@2@@std@@V?$allocator@V?$basic_string@DU?$char_traits@D@std@@V?$allocator@D@2@@std@@@2@@std@@@8 	 DATA
	??_R0?AV?$vector@V?$vector@FV?$allocator@F@std@@@std@@V?$allocator@V?$vector@FV?$allocator@F@std@@@std@@@2@@std@@@8 	 DATA
	??_R0?AV?$vector@V?$vector@GV?$allocator@G@std@@@std@@V?$allocator@V?$vector@GV?$allocator@G@std@@@std@@@2@@std@@@8 	 DATA
	??_R0?AV?$vector@V?$vector@HV?$allocator@H@std@@@std@@V?$allocator@V?$vector@HV?$allocator@H@std@@@std@@@2@@std@@@8 	 DATA
	??_R0?AV?$vector@V?$vector@IV?$allocator@I@std@@@std@@V?$allocator@V?$vector@IV?$allocator@I@std@@@std@@@2@@std@@@8 	 DATA
	??_R0?AV?$vector@V?$vector@MV?$allocator@M@std@@@std@@V?$allocator@V?$vector@MV?$allocator@M@std@@@std@@@2@@std@@@8 	 DATA
	??_R0?AV?$vector@V?$vector@NV?$allocator@N@std@@@std@@V?$allocator@V?$vector@NV?$allocator@N@std@@@std@@@2@@std@@@8 	 DATA
	??_R0?AV?$vector@Vfield_desc@sg@tools@@V?$allocator@Vfield_desc@sg@tools@@@std@@@std@@@8 	 DATA
	??_R0?AV?$vector@_KV?$allocator@_K@std@@@std@@@8 	 DATA
	??_R0?AVFILE_reader@tools@@@8 	 DATA
	??_R0?AVG4AccumulableManager@@@8 	 DATA
	??_R0?AVG4AnalysisMessenger@@@8 	 DATA
	??_R0?AVG4BaseAnalysisManager@@@8 	 DATA
	??_R0?AVG4BaseFileManager@@@8 	 DATA
	??_R0?AVG4BaseNtupleManager@@@8 	 DATA
	??_R0?AVG4BaseRNtupleManager@@@8 	 DATA
	??_R0?AVG4CsvAnalysisManager@@@8 	 DATA
	??_R0?AVG4CsvAnalysisReader@@@8 	 DATA
	??_R0?AVG4CsvFileManager@@@8 	 DATA
	??_R0?AVG4CsvNtupleManager@@@8 	 DATA
	??_R0?AVG4CsvRFileManager@@@8 	 DATA
	??_R0?AVG4CsvRNtupleManager@@@8 	 DATA
	??_R0?AVG4FileMessenger@@@8 	 DATA
	??_R0?AVG4H1Messenger@@@8 	 DATA
	??_R0?AVG4H1ToolsManager@@@8 	 DATA
	??_R0?AVG4H2Messenger@@@8 	 DATA
	??_R0?AVG4H2ToolsManager@@@8 	 DATA
	??_R0?AVG4H3Messenger@@@8 	 DATA
	??_R0?AVG4H3ToolsManager@@@8 	 DATA
	??_R0?AVG4HnManager@@@8 	 DATA
	??_R0?AVG4HnMessenger@@@8 	 DATA
	??_R0?AVG4MPIToolsManager@@@8 	 DATA
	??_R0?AVG4NtupleMessenger@@@8 	 DATA
	??_R0?AVG4P1Messenger@@@8 	 DATA
	??_R0?AVG4P1ToolsManager@@@8 	 DATA
	??_R0?AVG4P2Messenger@@@8 	 DATA
	??_R0?AVG4P2ToolsManager@@@8 	 DATA
	??_R0?AVG4PlotMessenger@@@8 	 DATA
	??_R0?AVG4RootAnalysisManager@@@8 	 DATA
	??_R0?AVG4RootAnalysisReader@@@8 	 DATA
	??_R0?AVG4RootFileManager@@@8 	 DATA
	??_R0?AVG4RootMainNtupleManager@@@8 	 DATA
	??_R0?AVG4RootNtupleManager@@@8 	 DATA
	??_R0?AVG4RootPNtupleManager@@@8 	 DATA
	??_R0?AVG4RootRFileManager@@@8 	 DATA
	??_R0?AVG4RootRNtupleManager@@@8 	 DATA
	??_R0?AVG4ToolsAnalysisManager@@@8 	 DATA
	??_R0?AVG4ToolsAnalysisReader@@@8 	 DATA
	??_R0?AVG4UImessenger@@@8 	 DATA
	??_R0?AVG4VAnalysisManager@@@8 	 DATA
	??_R0?AVG4VAnalysisReader@@@8 	 DATA
	??_R0?AVG4VFileManager@@@8 	 DATA
	??_R0?AVG4VH1Manager@@@8 	 DATA
	??_R0?AVG4VH2Manager@@@8 	 DATA
	??_R0?AVG4VH3Manager@@@8 	 DATA
	??_R0?AVG4VNtupleManager@@@8 	 DATA
	??_R0?AVG4VP1Manager@@@8 	 DATA
	??_R0?AVG4VP2Manager@@@8 	 DATA
	??_R0?AVG4VRNtupleManager@@@8 	 DATA
	??_R0?AVG4XmlAnalysisManager@@@8 	 DATA
	??_R0?AVG4XmlAnalysisReader@@@8 	 DATA
	??_R0?AVG4XmlFileManager@@@8 	 DATA
	??_R0?AVG4XmlNtupleManager@@@8 	 DATA
	??_R0?AVG4XmlRFileManager@@@8 	 DATA
	??_R0?AVG4XmlRNtupleManager@@@8 	 DATA
	??_R0?AV_Ref_count_base@std@@@8 	 DATA
	??_R0?AV_switch@sg@tools@@@8 	 DATA
	??_R0?AV_text@hplot@tools@@@8 	 DATA
	??_R0?AVaction@sg@tools@@@8 	 DATA
	??_R0?AVaida_base_col@aida@tools@@@8 	 DATA
	??_R0?AVaida_col_ntu@aida@tools@@@8 	 DATA
	??_R0?AVaidas@xml@tools@@@8 	 DATA
	??_R0?AVatb_vertices@sg@tools@@@8 	 DATA
	??_R0?AVaxis@hplot@tools@@@8 	 DATA
	??_R0?AVaxis@sg@tools@@@8 	 DATA
	??_R0?AVback_area@sg@tools@@@8 	 DATA
	??_R0?AVbad_alloc@std@@@8 	 DATA
	??_R0?AVbad_array_new_length@std@@@8 	 DATA
	??_R0?AVbad_cast@std@@@8 	 DATA
	??_R0?AVbase_camera@sg@tools@@@8 	 DATA
	??_R0?AVbase_cloud@histo@tools@@@8 	 DATA
	??_R0?AVbase_col@aida@tools@@@8 	 DATA
	??_R0?AVbase_colormap@sg@tools@@@8 	 DATA
	??_R0?AVbase_freetype@sg@tools@@@8 	 DATA
	??_R0?AVbase_handle@tools@@@8 	 DATA
	??_R0?AVbase_leaf@rroot@tools@@@8 	 DATA
	??_R0?AVbase_leaf@wroot@tools@@@8 	 DATA
	??_R0?AVbase_ntu@aida@tools@@@8 	 DATA
	??_R0?AVbase_pntuple@wroot@tools@@@8 	 DATA
	??_R0?AVbase_pntuple_column_wise@wroot@tools@@@8 	 DATA
	??_R0?AVbase_pntuple_row_wise@wroot@tools@@@8 	 DATA
	??_R0?AVbase_poly@spline@tools@@@8 	 DATA
	??_R0?AVbase_spline@spline@tools@@@8 	 DATA
	??_R0?AVbase_tex@sg@tools@@@8 	 DATA
	??_R0?AVbase_text@sg@tools@@@8 	 DATA
	??_R0?AVbasket@rroot@tools@@@8 	 DATA
	??_R0?AVbasket@wroot@tools@@@8 	 DATA
	??_R0?AVbasket_add@mt_ntuple_column_wise@wroot@tools@@@8 	 DATA
	??_R0?AVbbox_action@sg@tools@@@8 	 DATA
	??_R0?AVbins1D@sg@tools@@@8 	 DATA
	??_R0?AVbins2D@sg@tools@@@8 	 DATA
	??_R0?AVbox3f@tools@@@8 	 DATA
	??_R0?AVbranch@rroot@tools@@@8 	 DATA
	??_R0?AVbranch@wroot@tools@@@8 	 DATA
	??_R0?AVbranch_element@rroot@tools@@@8 	 DATA
	??_R0?AVbranch_element@wroot@tools@@@8 	 DATA
	??_R0?AVbranch_object@rroot@tools@@@8 	 DATA
	??_R0?AVbsf_enum@sg@tools@@@8 	 DATA
	??_R0?AVbuffer@rroot@tools@@@8 	 DATA
	??_R0?AVbuffer@wroot@tools@@@8 	 DATA
	??_R0?AVbuffer@zb@tools@@@8 	 DATA
	??_R0?AVbufobj@wroot@tools@@@8 	 DATA
	??_R0?AVby_value_colormap@sg@tools@@@8 	 DATA
	??_R0?AVc1d@histo@tools@@@8 	 DATA
	??_R0?AVc2d@histo@tools@@@8 	 DATA
	??_R0?AVc3d@histo@tools@@@8 	 DATA
	??_R0?AVccontour@tools@@@8 	 DATA
	??_R0?AVclist_contour@tools@@@8 	 DATA
	??_R0?AVcolorf@tools@@@8 	 DATA
	??_R0?AVcolumn_binding@tools@@@8 	 DATA
	??_R0?AVcolumn_booking@tools@@@8 	 DATA
	??_R0?AVcolumn_string@base_pntuple@wroot@tools@@@8 	 DATA
	??_R0?AVcolumn_string@ntuple@rroot@tools@@@8 	 DATA
	??_R0?AVcolumn_string@ntuple@wroot@tools@@@8 	 DATA
	??_R0?AVcolumn_string_ref@base_pntuple@wroot@tools@@@8 	 DATA
	??_R0?AVcolumn_string_ref@ntuple@rroot@tools@@@8 	 DATA
	??_R0?AVcolumn_string_ref@ntuple@wroot@tools@@@8 	 DATA
	??_R0?AVcolumn_vector_string@base_pntuple@wroot@tools@@@8 	 DATA
	??_R0?AVcolumn_vector_string@ntuple@rroot@tools@@@8 	 DATA
	??_R0?AVcolumn_vector_string@ntuple@wroot@tools@@@8 	 DATA
	??_R0?AVcolumn_vector_string_ref@base_pntuple@wroot@tools@@@8 	 DATA
	??_R0?AVcolumn_vector_string_ref@ntuple@rroot@tools@@@8 	 DATA
	??_R0?AVcolumn_vector_string_ref@ntuple@wroot@tools@@@8 	 DATA
	??_R0?AVconst_colormap@sg@tools@@@8 	 DATA
	??_R0?AVcube@sg@tools@@@8 	 DATA
	??_R0?AVcubic@spline@tools@@@8 	 DATA
	??_R0?AVcubic_poly@spline@tools@@@8 	 DATA
	??_R0?AVcurve@tools@@@8 	 DATA
	??_R0?AVdata_axis@tools@@@8 	 DATA
	??_R0?AVdata_point@histo@tools@@@8 	 DATA
	??_R0?AVdefault_factory@xml@tools@@@8 	 DATA
	??_R0?AVdesc_fields@sg@tools@@@8 	 DATA
	??_R0?AVdirectory@rroot@tools@@@8 	 DATA
	??_R0?AVdirectory@wroot@tools@@@8 	 DATA
	??_R0?AVdps@histo@tools@@@8 	 DATA
	??_R0?AVdraw_style@sg@tools@@@8 	 DATA
	??_R0?AVdummy@rroot@tools@@@8 	 DATA
	??_R0?AVdummy_fac@rroot@tools@@@8 	 DATA
	??_R0?AVdummy_freetype@sg@tools@@@8 	 DATA
	??_R0?AVdummy_streamer_element@rroot@tools@@@8 	 DATA
	??_R0?AVelement@xml@tools@@@8 	 DATA
	??_R0?AVellipse@sg@tools@@@8 	 DATA
	??_R0?AVevent@sg@tools@@@8 	 DATA
	??_R0?AVevent_action@sg@tools@@@8 	 DATA
	??_R0?AVexception@std@@@8 	 DATA
	??_R0?AVextra@plots@sg@tools@@@8 	 DATA
	??_R0?AVfac@rroot@tools@@@8 	 DATA
	??_R0?AVfactory@xml@tools@@@8 	 DATA
	??_R0?AVfield@sg@tools@@@8 	 DATA
	??_R0?AVfield_desc@sg@tools@@@8 	 DATA
	??_R0?AVfield_desc_enums@sg@tools@@@8 	 DATA
	??_R0?AVfield_desc_opts@sg@tools@@@8 	 DATA
	??_R0?AVfile@base_pntuple_column_wise@wroot@tools@@@8 	 DATA
	??_R0?AVfile@rroot@tools@@@8 	 DATA
	??_R0?AVfile@wroot@tools@@@8 	 DATA
	??_R0?AVfinder@columns@tools@@@8 	 DATA
	??_R0?AVfree_seg@wroot@tools@@@8 	 DATA
	??_R0?AVgl2ps_manager@sg@tools@@@8 	 DATA
	??_R0?AVgraph@rroot@tools@@@8 	 DATA
	??_R0?AVgrey_scale_colormap@sg@tools@@@8 	 DATA
	??_R0?AVgrey_scale_inverse_colormap@sg@tools@@@8 	 DATA
	??_R0?AVgroup@sg@tools@@@8 	 DATA
	??_R0?AVgstos@sg@tools@@@8 	 DATA
	??_R0?AVgstos_add@sg@tools@@@8 	 DATA
	??_R0?AVh1d2plot@sg@tools@@@8 	 DATA
	??_R0?AVh1d@histo@tools@@@8 	 DATA
	??_R0?AVh2d2plot@sg@tools@@@8 	 DATA
	??_R0?AVh2d@histo@tools@@@8 	 DATA
	??_R0?AVh3d@histo@tools@@@8 	 DATA
	??_R0?AVhatcher@tools@@@8 	 DATA
	??_R0?AVhchar@sg@tools@@@8 	 DATA
	??_R0?AVhisto@rcsv@tools@@@8 	 DATA
	??_R0?AViadd_basket@branch@wroot@tools@@@8 	 DATA
	??_R0?AVibo@wroot@tools@@@8 	 DATA
	??_R0?AVicol@ntuple@wcsv@tools@@@8 	 DATA
	??_R0?AVicol@read@tools@@@8 	 DATA
	??_R0?AVicol@wroot@tools@@@8 	 DATA
	??_R0?AVidir@wroot@tools@@@8 	 DATA
	??_R0?AVielem@xml@tools@@@8 	 DATA
	??_R0?AVifac@rroot@tools@@@8 	 DATA
	??_R0?AVifile@rroot@tools@@@8 	 DATA
	??_R0?AVifile@wroot@tools@@@8 	 DATA
	??_R0?AVimt_ntuple@wroot@tools@@@8 	 DATA
	??_R0?AVimutex@wroot@tools@@@8 	 DATA
	??_R0?AVinfos_box@sg@tools@@@8 	 DATA
	??_R0?AVintuple@read@tools@@@8 	 DATA
	??_R0?AViobj@ntuple@waxml@tools@@@8 	 DATA
	??_R0?AViobject@rroot@tools@@@8 	 DATA
	??_R0?AViobject@wroot@tools@@@8 	 DATA
	??_R0?AVios_base@std@@@8 	 DATA
	??_R0?AViro@rroot@tools@@@8 	 DATA
	??_R0?AViros@rroot@tools@@@8 	 DATA
	??_R0?AVitree@wroot@tools@@@8 	 DATA
	??_R0?AVkey@rroot@tools@@@8 	 DATA
	??_R0?AVkey@wroot@tools@@@8 	 DATA
	??_R0?AVleaf@ntuple@waxml@tools@@@8 	 DATA
	??_R0?AVleaf_element@rroot@tools@@@8 	 DATA
	??_R0?AVleaf_element@wroot@tools@@@8 	 DATA
	??_R0?AVleaf_object@rroot@tools@@@8 	 DATA
	??_R0?AVleaf_string@rroot@tools@@@8 	 DATA
	??_R0?AVleaf_string_ref@wroot@tools@@@8 	 DATA
	??_R0?AVlegend@sg@tools@@@8 	 DATA
	??_R0?AVline_style@sg@tools@@@8 	 DATA
	??_R0?AVloader@xml@tools@@@8 	 DATA
	??_R0?AVlooper@xml@tools@@@8 	 DATA
	??_R0?AVmarkers@sg@tools@@@8 	 DATA
	??_R0?AVmat4f@tools@@@8 	 DATA
	??_R0?AVmatrix@rroot@tools@@@8 	 DATA
	??_R0?AVmatrix@sg@tools@@@8 	 DATA
	??_R0?AVmatrix_action@sg@tools@@@8 	 DATA
	??_R0?AVmeasurement@histo@tools@@@8 	 DATA
	??_R0?AVmf_string@sg@tools@@@8 	 DATA
	??_R0?AVmt_basket_add@wroot@tools@@@8 	 DATA
	??_R0?AVmt_ntuple_column_wise@wroot@tools@@@8 	 DATA
	??_R0?AVmt_ntuple_row_wise@wroot@tools@@@8 	 DATA
	??_R0?AVmutex@@@8 	 DATA
	??_R0?AVnamed@rroot@tools@@@8 	 DATA
	??_R0?AVnode@sg@tools@@@8 	 DATA
	??_R0?AVnode_desc@sg@tools@@@8 	 DATA
	??_R0?AVnoderef@sg@tools@@@8 	 DATA
	??_R0?AVnormal@sg@tools@@@8 	 DATA
	??_R0?AVnostream@tools@@@8 	 DATA
	??_R0?AVntuple@aida@tools@@@8 	 DATA
	??_R0?AVntuple@rcsv@tools@@@8 	 DATA
	??_R0?AVntuple@rroot@tools@@@8 	 DATA
	??_R0?AVntuple@waxml@tools@@@8 	 DATA
	??_R0?AVntuple@wcsv@tools@@@8 	 DATA
	??_R0?AVntuple@wroot@tools@@@8 	 DATA
	??_R0?AVntuple_binding@tools@@@8 	 DATA
	??_R0?AVntuple_booking@tools@@@8 	 DATA
	??_R0?AVobj_list@rroot@tools@@@8 	 DATA
	??_R0?AVortho@sg@tools@@@8 	 DATA
	??_R0?AVp1d2plot@sg@tools@@@8 	 DATA
	??_R0?AVp1d@histo@tools@@@8 	 DATA
	??_R0?AVp2d@histo@tools@@@8 	 DATA
	??_R0?AVparser@columns@tools@@@8 	 DATA
	??_R0?AVpick_action@sg@tools@@@8 	 DATA
	??_R0?AVpick_element@sg@tools@@@8 	 DATA
	??_R0?AVplots@sg@tools@@@8 	 DATA
	??_R0?AVplots_viewer@sg@tools@@@8 	 DATA
	??_R0?AVplottable@sg@tools@@@8 	 DATA
	??_R0?AVplotter@sg@tools@@@8 	 DATA
	??_R0?AVpoint_writer@buffer@zb@tools@@@8 	 DATA
	??_R0?AVpolygon@zb@tools@@@8 	 DATA
	??_R0?AVprimitive_visitor@sg@tools@@@8 	 DATA
	??_R0?AVprimvis@zb_action@sg@tools@@@8 	 DATA
	??_R0?AVraxml@tools@@@8 	 DATA
	??_R0?AVraxml_out@tools@@@8 	 DATA
	??_R0?AVrbuf@rroot@tools@@@8 	 DATA
	??_R0?AVreader@file@tools@@@8 	 DATA
	??_R0?AVrender_action@sg@tools@@@8 	 DATA
	??_R0?AVrender_gstos@sg@tools@@@8 	 DATA
	??_R0?AVrender_manager@sg@tools@@@8 	 DATA
	??_R0?AVrgba@sg@tools@@@8 	 DATA
	??_R0?AVrotf@tools@@@8 	 DATA
	??_R0?AVrtausmef@tools@@@8 	 DATA
	??_R0?AVrtausmeui@tools@@@8 	 DATA
	??_R0?AVscan_writer@buffer@zb@tools@@@8 	 DATA
	??_R0?AVscan_writer_1@buffer@zb@tools@@@8 	 DATA
	??_R0?AVscan_writer_2@buffer@zb@tools@@@8 	 DATA
	??_R0?AVscan_writer_3@buffer@zb@tools@@@8 	 DATA
	??_R0?AVscan_writer_4@buffer@zb@tools@@@8 	 DATA
	??_R0?AVseparator@sg@tools@@@8 	 DATA
	??_R0?AVsf_mat4f@sg@tools@@@8 	 DATA
	??_R0?AVsf_rotf@sg@tools@@@8 	 DATA
	??_R0?AVsf_string@sg@tools@@@8 	 DATA
	??_R0?AVsf_vec3f@sg@tools@@@8 	 DATA
	??_R0?AVsf_vec4f@sg@tools@@@8 	 DATA
	??_R0?AVsize_event@sg@tools@@@8 	 DATA
	??_R0?AVstate@sg@tools@@@8 	 DATA
	??_R0?AVstates@sg@tools@@@8 	 DATA
	??_R0?AVstl_vector_string@rroot@tools@@@8 	 DATA
	??_R0?AVstreamer_STL@wroot@tools@@@8 	 DATA
	??_R0?AVstreamer_base@wroot@tools@@@8 	 DATA
	??_R0?AVstreamer_basic_pointer@wroot@tools@@@8 	 DATA
	??_R0?AVstreamer_basic_type@wroot@tools@@@8 	 DATA
	??_R0?AVstreamer_bool@wroot@tools@@@8 	 DATA
	??_R0?AVstreamer_double@wroot@tools@@@8 	 DATA
	??_R0?AVstreamer_element@rroot@tools@@@8 	 DATA
	??_R0?AVstreamer_element@wroot@tools@@@8 	 DATA
	??_R0?AVstreamer_fac@rroot@tools@@@8 	 DATA
	??_R0?AVstreamer_float@wroot@tools@@@8 	 DATA
	??_R0?AVstreamer_info@rroot@tools@@@8 	 DATA
	??_R0?AVstreamer_info@wroot@tools@@@8 	 DATA
	??_R0?AVstreamer_int@wroot@tools@@@8 	 DATA
	??_R0?AVstreamer_object@wroot@tools@@@8 	 DATA
	??_R0?AVstreamer_object_any@wroot@tools@@@8 	 DATA
	??_R0?AVstreamer_object_pointer@wroot@tools@@@8 	 DATA
	??_R0?AVstreamer_short@wroot@tools@@@8 	 DATA
	??_R0?AVstreamer_stat_t@wroot@tools@@@8 	 DATA
	??_R0?AVstreamer_string@wroot@tools@@@8 	 DATA
	??_R0?AVstreamer_uint@wroot@tools@@@8 	 DATA
	??_R0?AVstyle@sg@tools@@@8 	 DATA
	??_R0?AVstyle_color@sg@tools@@@8 	 DATA
	??_R0?AVstyle_colormap@sg@tools@@@8 	 DATA
	??_R0?AVstyle_default_colormap@sg@tools@@@8 	 DATA
	??_R0?AVstyle_parser@sg@tools@@@8 	 DATA
	??_R0?AVstyles@xml@tools@@@8 	 DATA
	??_R0?AVtess_contour@tools@@@8 	 DATA
	??_R0?AVtex_rect@sg@tools@@@8 	 DATA
	??_R0?AVtext@sg@tools@@@8 	 DATA
	??_R0?AVtext_hershey@sg@tools@@@8 	 DATA
	??_R0?AVtext_style@sg@tools@@@8 	 DATA
	??_R0?AVtext_valop@sg@tools@@@8 	 DATA
	??_R0?AVtorche@sg@tools@@@8 	 DATA
	??_R0?AVtree@columns@tools@@@8 	 DATA
	??_R0?AVtree@rroot@tools@@@8 	 DATA
	??_R0?AVtree@wroot@tools@@@8 	 DATA
	??_R0?AVtree@xml@tools@@@8 	 DATA
	??_R0?AVtree_index@rroot@tools@@@8 	 DATA
	??_R0?AVvalop2sg@tools@@@8 	 DATA
	??_R0?AVvalop@tools@@@8 	 DATA
	??_R0?AVvalop_visitor@tools@@@8 	 DATA
	??_R0?AVvalue@tools@@@8 	 DATA
	??_R0?AVvec2f@tools@@@8 	 DATA
	??_R0?AVvec3d@tools@@@8 	 DATA
	??_R0?AVvec3f@tools@@@8 	 DATA
	??_R0?AVvec4f@tools@@@8 	 DATA
	??_R0?AVvector3@rroot@tools@@@8 	 DATA
	??_R0?AVvertices@sg@tools@@@8 	 DATA
	??_R0?AVviewer@sg@tools@@@8 	 DATA
	??_R0?AVviewplot@tools@@@8 	 DATA
	??_R0?AVviolet_to_red_colormap@sg@tools@@@8 	 DATA
	??_R0?AVwbuf@wroot@tools@@@8 	 DATA
	??_R0?AVwin_action@sg@tools@@@8 	 DATA
	??_R0?AVwps@tools@@@8 	 DATA
	??_R0?AVwriter@buffer@zb@tools@@@8 	 DATA
	??_R0?AVzb_action@sg@tools@@@8 	 DATA
	??_R0?AVzb_manager@sg@tools@@@8 	 DATA
	?_OptionsStorage@?1??__local_stdio_printf_options@@9@4_KA 	 DATA
	?_OptionsStorage@?1??__local_stdio_scanf_options@@9@4_KA 	 DATA
	?_Psave@?$_Facetptr@V?$codecvt@DDU_Mbstatet@@@std@@@std@@2PEBVfacet@locale@2@EB 	 DATA
	?_Stinit@?1??_Init@?$basic_filebuf@DU?$char_traits@D@std@@@std@@IEAAXPEAU_iobuf@@W4_Initfl@23@@Z@4U_Mbstatet@@A 	 DATA
	?csz__fixed_bd@@3HA 	 DATA
	?csz__fixed_bl@@3HA 	 DATA
	?csz__fixed_td@@3PEAUhuft@@EA 	 DATA
	?csz__fixed_tl@@3PEAUhuft@@EA 	 DATA
	?fgInstance@G4AccumulableManager@@0PEAV1@EA 	 DATA
	?fgInstance@G4CsvAnalysisManager@@0PEAV1@EA 	 DATA
	?fgInstance@G4CsvAnalysisReader@@0PEAV1@EA 	 DATA
	?fgInstance@G4RootAnalysisManager@@0PEAV1@EA 	 DATA
	?fgInstance@G4RootAnalysisReader@@0PEAV1@EA 	 DATA
	?fgInstance@G4XmlAnalysisManager@@0PEAV1@EA 	 DATA
	?fgInstance@G4XmlAnalysisReader@@0PEAV1@EA 	 DATA
	?fgMasterInstance@G4AccumulableManager@@0PEAV1@EA 	 DATA
	?fgMasterInstance@G4CsvAnalysisManager@@0PEAV1@EA 	 DATA
	?fgMasterInstance@G4CsvAnalysisReader@@0PEAV1@EA 	 DATA
	?fgMasterInstance@G4RootAnalysisManager@@0PEAV1@EA 	 DATA
	?fgMasterInstance@G4RootAnalysisReader@@0PEAV1@EA 	 DATA
	?fgMasterInstance@G4XmlAnalysisManager@@0PEAV1@EA 	 DATA
	?fgMasterInstance@G4XmlAnalysisReader@@0PEAV1@EA 	 DATA
	?fgToolsInstance@G4ToolsAnalysisManager@@1PEAV1@EA 	 DATA
	?kBits@?1??read_leaves@branch_element@rroot@tools@@UEAA_NAEAVifile@34@AEAVbuffer@34@@Z@4HA 	 DATA
	?kDouble32@?1??read_leaves@branch_element@rroot@tools@@UEAA_NAEAVifile@34@AEAVbuffer@34@@Z@4HA 	 DATA
	?kDouble@?1??read_leaves@branch_element@rroot@tools@@UEAA_NAEAVifile@34@AEAVbuffer@34@@Z@4HA 	 DATA
	?kInt@?1??read_leaves@branch_element@rroot@tools@@UEAA_NAEAVifile@34@AEAVbuffer@34@@Z@4HA 	 DATA
	?kObject@?1??read_leaves@branch_element@rroot@tools@@UEAA_NAEAVifile@34@AEAVbuffer@34@@Z@4HA 	 DATA
	?kObjectP@?1??read_leaves@branch_element@rroot@tools@@UEAA_NAEAVifile@34@AEAVbuffer@34@@Z@4HA 	 DATA
	?kUInt@?1??read_leaves@branch_element@rroot@tools@@UEAA_NAEAVifile@34@AEAVbuffer@34@@Z@4HA 	 DATA
	?s_gl_funcs@?1??tools_gl2ps_get_s_funcs@@YAAEAUtools_gl2ps_gl_funcs_t@@XZ@4U2@A 	 DATA
	?s_node_class@?1??node_desc_fields@_switch@sg@tools@@UEBAAEBVdesc_fields@34@XZ@4V?$basic_string@DU?$char_traits@D@std@@V?$allocator@D@2@@std@@B 	 DATA
	?s_node_class@?1??node_desc_fields@atb_vertices@sg@tools@@UEBAAEBVdesc_fields@34@XZ@4V?$basic_string@DU?$char_traits@D@std@@V?$allocator@D@2@@std@@B 	 DATA
	?s_node_class@?1??node_desc_fields@axis@sg@tools@@UEBAAEBVdesc_fields@34@XZ@4V?$basic_string@DU?$char_traits@D@std@@V?$allocator@D@2@@std@@B 	 DATA
	?s_node_class@?1??node_desc_fields@back_area@sg@tools@@UEBAAEBVdesc_fields@34@XZ@4V?$basic_string@DU?$char_traits@D@std@@V?$allocator@D@2@@std@@B 	 DATA
	?s_node_class@?1??node_desc_fields@base_camera@sg@tools@@UEBAAEBVdesc_fields@34@XZ@4V?$basic_string@DU?$char_traits@D@std@@V?$allocator@D@2@@std@@B 	 DATA
	?s_node_class@?1??node_desc_fields@base_freetype@sg@tools@@UEBAAEBVdesc_fields@34@XZ@4V?$basic_string@DU?$char_traits@D@std@@V?$allocator@D@2@@std@@B 	 DATA
	?s_node_class@?1??node_desc_fields@base_text@sg@tools@@UEBAAEBVdesc_fields@34@XZ@4V?$basic_string@DU?$char_traits@D@std@@V?$allocator@D@2@@std@@B 	 DATA
	?s_node_class@?1??node_desc_fields@cube@sg@tools@@UEBAAEBVdesc_fields@34@XZ@4V?$basic_string@DU?$char_traits@D@std@@V?$allocator@D@2@@std@@B 	 DATA
	?s_node_class@?1??node_desc_fields@draw_style@sg@tools@@UEBAAEBVdesc_fields@34@XZ@4V?$basic_string@DU?$char_traits@D@std@@V?$allocator@D@2@@std@@B 	 DATA
	?s_node_class@?1??node_desc_fields@ellipse@sg@tools@@UEBAAEBVdesc_fields@34@XZ@4V?$basic_string@DU?$char_traits@D@std@@V?$allocator@D@2@@std@@B 	 DATA
	?s_node_class@?1??node_desc_fields@infos_box@sg@tools@@UEBAAEBVdesc_fields@34@XZ@4V?$basic_string@DU?$char_traits@D@std@@V?$allocator@D@2@@std@@B 	 DATA
	?s_node_class@?1??node_desc_fields@legend@sg@tools@@UEBAAEBVdesc_fields@34@XZ@4V?$basic_string@DU?$char_traits@D@std@@V?$allocator@D@2@@std@@B 	 DATA
	?s_node_class@?1??node_desc_fields@line_style@sg@tools@@UEBAAEBVdesc_fields@34@XZ@4V?$basic_string@DU?$char_traits@D@std@@V?$allocator@D@2@@std@@B 	 DATA
	?s_node_class@?1??node_desc_fields@markers@sg@tools@@UEBAAEBVdesc_fields@34@XZ@4V?$basic_string@DU?$char_traits@D@std@@V?$allocator@D@2@@std@@B 	 DATA
	?s_node_class@?1??node_desc_fields@matrix@sg@tools@@UEBAAEBVdesc_fields@34@XZ@4V?$basic_string@DU?$char_traits@D@std@@V?$allocator@D@2@@std@@B 	 DATA
	?s_node_class@?1??node_desc_fields@normal@sg@tools@@UEBAAEBVdesc_fields@34@XZ@4V?$basic_string@DU?$char_traits@D@std@@V?$allocator@D@2@@std@@B 	 DATA
	?s_node_class@?1??node_desc_fields@ortho@sg@tools@@UEBAAEBVdesc_fields@34@XZ@4V?$basic_string@DU?$char_traits@D@std@@V?$allocator@D@2@@std@@B 	 DATA
	?s_node_class@?1??node_desc_fields@plots@sg@tools@@UEBAAEBVdesc_fields@34@XZ@4V?$basic_string@DU?$char_traits@D@std@@V?$allocator@D@2@@std@@B 	 DATA
	?s_node_class@?1??node_desc_fields@plotter@sg@tools@@UEBAAEBVdesc_fields@34@XZ@4V?$basic_string@DU?$char_traits@D@std@@V?$allocator@D@2@@std@@B 	 DATA
	?s_node_class@?1??node_desc_fields@rgba@sg@tools@@UEBAAEBVdesc_fields@34@XZ@4V?$basic_string@DU?$char_traits@D@std@@V?$allocator@D@2@@std@@B 	 DATA
	?s_node_class@?1??node_desc_fields@style@sg@tools@@UEBAAEBVdesc_fields@34@XZ@4V?$basic_string@DU?$char_traits@D@std@@V?$allocator@D@2@@std@@B 	 DATA
	?s_node_class@?1??node_desc_fields@tex_rect@sg@tools@@UEBAAEBVdesc_fields@34@XZ@4V?$basic_string@DU?$char_traits@D@std@@V?$allocator@D@2@@std@@B 	 DATA
	?s_node_class@?1??node_desc_fields@text@sg@tools@@UEBAAEBVdesc_fields@34@XZ@4V?$basic_string@DU?$char_traits@D@std@@V?$allocator@D@2@@std@@B 	 DATA
	?s_node_class@?1??node_desc_fields@text_hershey@sg@tools@@UEBAAEBVdesc_fields@34@XZ@4V?$basic_string@DU?$char_traits@D@std@@V?$allocator@D@2@@std@@B 	 DATA
	?s_node_class@?1??node_desc_fields@text_style@sg@tools@@UEBAAEBVdesc_fields@34@XZ@4V?$basic_string@DU?$char_traits@D@std@@V?$allocator@D@2@@std@@B 	 DATA
	?s_node_class@?1??node_desc_fields@text_valop@sg@tools@@UEBAAEBVdesc_fields@34@XZ@4V?$basic_string@DU?$char_traits@D@std@@V?$allocator@D@2@@std@@B 	 DATA
	?s_node_class@?1??node_desc_fields@torche@sg@tools@@UEBAAEBVdesc_fields@34@XZ@4V?$basic_string@DU?$char_traits@D@std@@V?$allocator@D@2@@std@@B 	 DATA
	?s_node_class@?1??node_desc_fields@vertices@sg@tools@@UEBAAEBVdesc_fields@34@XZ@4V?$basic_string@DU?$char_traits@D@std@@V?$allocator@D@2@@std@@B 	 DATA
	?s_v@?1???$_cid_std_vector@V?$basic_string@DU?$char_traits@D@std@@V?$allocator@D@2@@std@@@tools@@YAGXZ@4V?$basic_string@DU?$char_traits@D@std@@V?$allocator@D@2@@std@@B 	 DATA
	?s_v@?1???$get_color_black@Vcolorf@tools@@@tools@@YAAEBVcolorf@1@XZ@4V21@B 	 DATA
	?s_v@?1???$get_color_blue@Vcolorf@tools@@@tools@@YAAEBVcolorf@1@XZ@4V21@B 	 DATA
	?s_v@?1???$get_color_grey@Vcolorf@tools@@@tools@@YAAEBVcolorf@1@XZ@4V21@B 	 DATA
	?s_v@?1???$get_color_lightgrey@Vcolorf@tools@@@tools@@YAAEBVcolorf@1@XZ@4V21@B 	 DATA
	?s_v@?1???$get_color_red@Vcolorf@tools@@@tools@@YAAEBVcolorf@1@XZ@4V21@B 	 DATA
	?s_v@?1???$get_color_white@Vcolorf@tools@@@tools@@YAAEBVcolorf@1@XZ@4V21@B 	 DATA
	?s_v@?1??TTree_cls@rroot@tools@@YAAEBV?$basic_string@DU?$char_traits@D@std@@V?$allocator@D@2@@std@@XZ@4V45@B 	 DATA
	?s_v@?1??branch_element_store_class@wroot@tools@@YAAEBV?$basic_string@DU?$char_traits@D@std@@V?$allocator@D@2@@std@@XZ@4V45@B 	 DATA
	?s_v@?1??encoding_PAW@sg@tools@@YAAEBV?$basic_string@DU?$char_traits@D@std@@V?$allocator@D@2@@std@@XZ@4V45@B 	 DATA
	?s_v@?1??encoding_none@sg@tools@@YAAEBV?$basic_string@DU?$char_traits@D@std@@V?$allocator@D@2@@std@@XZ@4V45@B 	 DATA
	?s_v@?1??fdeg2rad@tools@@YAMXZ@4MB 	 DATA
	?s_v@?1??font_arial_ttf@sg@tools@@YAAEBV?$basic_string@DU?$char_traits@D@std@@V?$allocator@D@2@@std@@XZ@4V45@B 	 DATA
	?s_v@?1??font_arialbd_ttf@sg@tools@@YAAEBV?$basic_string@DU?$char_traits@D@std@@V?$allocator@D@2@@std@@XZ@4V45@B 	 DATA
	?s_v@?1??font_helvetica_ttf@sg@tools@@YAAEBV?$basic_string@DU?$char_traits@D@std@@V?$allocator@D@2@@std@@XZ@4V45@B 	 DATA
	?s_v@?1??font_hershey@sg@tools@@YAAEBV?$basic_string@DU?$char_traits@D@std@@V?$allocator@D@2@@std@@XZ@4V45@B 	 DATA
	?s_v@?1??font_stixgeneral_otf@sg@tools@@YAAEBV?$basic_string@DU?$char_traits@D@std@@V?$allocator@D@2@@std@@XZ@4V45@B 	 DATA
	?s_v@?1??font_symbol_ttf@sg@tools@@YAAEBV?$basic_string@DU?$char_traits@D@std@@V?$allocator@D@2@@std@@XZ@4V45@B 	 DATA
	?s_v@?1??font_times_roman_ttf@sg@tools@@YAAEBV?$basic_string@DU?$char_traits@D@std@@V?$allocator@D@2@@std@@XZ@4V45@B 	 DATA
	?s_v@?1??font_timesbd_ttf@sg@tools@@YAAEBV?$basic_string@DU?$char_traits@D@std@@V?$allocator@D@2@@std@@XZ@4V45@B 	 DATA
	?s_v@?1??id_class@?$column@V?$basic_string@DU?$char_traits@D@std@@V?$allocator@D@2@@std@@@ntuple@rcsv@tools@@SAGXZ@4V?$basic_string@DU?$char_traits@D@std@@V?$allocator@D@2@@std@@B 	 DATA
	?s_v@?1??id_class@?$column@V?$basic_string@DU?$char_traits@D@std@@V?$allocator@D@2@@std@@@ntuple@wcsv@tools@@SAGXZ@4V?$basic_string@DU?$char_traits@D@std@@V?$allocator@D@2@@std@@B 	 DATA
	?s_v@?1??id_class@?$column@V?$vector@DV?$allocator@D@std@@@std@@@ntuple@rcsv@tools@@SAGXZ@4V?$vector@DV?$allocator@D@std@@@std@@B 	 DATA
	?s_v@?1??id_class@?$column@V?$vector@EV?$allocator@E@std@@@std@@@ntuple@rcsv@tools@@SAGXZ@4V?$vector@EV?$allocator@E@std@@@std@@B 	 DATA
	?s_v@?1??id_class@?$column@V?$vector@FV?$allocator@F@std@@@std@@@ntuple@rcsv@tools@@SAGXZ@4V?$vector@FV?$allocator@F@std@@@std@@B 	 DATA
	?s_v@?1??id_class@?$column@V?$vector@GV?$allocator@G@std@@@std@@@ntuple@rcsv@tools@@SAGXZ@4V?$vector@GV?$allocator@G@std@@@std@@B 	 DATA
	?s_v@?1??id_class@?$column@V?$vector@HV?$allocator@H@std@@@std@@@ntuple@rcsv@tools@@SAGXZ@4V?$vector@HV?$allocator@H@std@@@std@@B 	 DATA
	?s_v@?1??id_class@?$column@V?$vector@IV?$allocator@I@std@@@std@@@ntuple@rcsv@tools@@SAGXZ@4V?$vector@IV?$allocator@I@std@@@std@@B 	 DATA
	?s_v@?1??id_class@?$column@V?$vector@MV?$allocator@M@std@@@std@@@ntuple@rcsv@tools@@SAGXZ@4V?$vector@MV?$allocator@M@std@@@std@@B 	 DATA
	?s_v@?1??id_class@?$column@V?$vector@NV?$allocator@N@std@@@std@@@ntuple@rcsv@tools@@SAGXZ@4V?$vector@NV?$allocator@N@std@@@std@@B 	 DATA
	?s_v@?1??id_class@?$column@V?$vector@V?$basic_string@DU?$char_traits@D@std@@V?$allocator@D@2@@std@@V?$allocator@V?$basic_string@DU?$char_traits@D@std@@V?$allocator@D@2@@std@@@2@@std@@@ntuple@rcsv@tools@@SAGXZ@4V?$vector@V?$basic_string@DU?$char_traits@D@std@@V?$allocator@D@2@@std@@V?$allocator@V?$basic_string@DU?$char_traits@D@std@@V?$allocator@D@2@@std@@@2@@std@@B 	 DATA
	?s_v@?1??id_class@?$column@V?$vector@_JV?$allocator@_J@std@@@std@@@ntuple@rcsv@tools@@SAGXZ@4V?$vector@_JV?$allocator@_J@std@@@std@@B 	 DATA
	?s_v@?1??id_class@?$column@V?$vector@_KV?$allocator@_K@std@@@std@@@ntuple@rcsv@tools@@SAGXZ@4V?$vector@_KV?$allocator@_K@std@@@std@@B 	 DATA
	?s_v@?1??id_class@?$column@V?$vector@_NV?$allocator@_N@std@@@std@@@ntuple@rcsv@tools@@SAGXZ@4V?$vector@_NV?$allocator@_N@std@@@std@@B 	 DATA
	?s_v@?1??id_class@?$column@Vcsv_time@tools@@@ntuple@rcsv@tools@@SAGXZ@4Vcsv_time@5@B 	 DATA
	?s_v@?1??id_class@?$column_ref@V?$basic_string@DU?$char_traits@D@std@@V?$allocator@D@2@@std@@@ntuple@wcsv@tools@@SAGXZ@4V?$basic_string@DU?$char_traits@D@std@@V?$allocator@D@2@@std@@B 	 DATA
	?s_v@?1??id_class@?$icolumn@V?$basic_string@DU?$char_traits@D@std@@V?$allocator@D@2@@std@@@read@tools@@SAGXZ@4V?$basic_string@DU?$char_traits@D@std@@V?$allocator@D@2@@std@@B 	 DATA
	?s_v@?1??id_class@?$icolumn@V?$vector@DV?$allocator@D@std@@@std@@@read@tools@@SAGXZ@4V?$vector@DV?$allocator@D@std@@@std@@B 	 DATA
	?s_v@?1??id_class@?$icolumn@V?$vector@EV?$allocator@E@std@@@std@@@read@tools@@SAGXZ@4V?$vector@EV?$allocator@E@std@@@std@@B 	 DATA
	?s_v@?1??id_class@?$icolumn@V?$vector@FV?$allocator@F@std@@@std@@@read@tools@@SAGXZ@4V?$vector@FV?$allocator@F@std@@@std@@B 	 DATA
	?s_v@?1??id_class@?$icolumn@V?$vector@GV?$allocator@G@std@@@std@@@read@tools@@SAGXZ@4V?$vector@GV?$allocator@G@std@@@std@@B 	 DATA
	?s_v@?1??id_class@?$icolumn@V?$vector@HV?$allocator@H@std@@@std@@@read@tools@@SAGXZ@4V?$vector@HV?$allocator@H@std@@@std@@B 	 DATA
	?s_v@?1??id_class@?$icolumn@V?$vector@IV?$allocator@I@std@@@std@@@read@tools@@SAGXZ@4V?$vector@IV?$allocator@I@std@@@std@@B 	 DATA
	?s_v@?1??id_class@?$icolumn@V?$vector@MV?$allocator@M@std@@@std@@@read@tools@@SAGXZ@4V?$vector@MV?$allocator@M@std@@@std@@B 	 DATA
	?s_v@?1??id_class@?$icolumn@V?$vector@NV?$allocator@N@std@@@std@@@read@tools@@SAGXZ@4V?$vector@NV?$allocator@N@std@@@std@@B 	 DATA
	?s_v@?1??id_class@?$icolumn@V?$vector@V?$basic_string@DU?$char_traits@D@std@@V?$allocator@D@2@@std@@V?$allocator@V?$basic_string@DU?$char_traits@D@std@@V?$allocator@D@2@@std@@@2@@std@@@read@tools@@SAGXZ@4V?$vector@V?$basic_string@DU?$char_traits@D@std@@V?$allocator@D@2@@std@@V?$allocator@V?$basic_string@DU?$char_traits@D@std@@V?$allocator@D@2@@std@@@2@@std@@B 	 DATA
	?s_v@?1??id_class@?$icolumn@V?$vector@_JV?$allocator@_J@std@@@std@@@read@tools@@SAGXZ@4V?$vector@_JV?$allocator@_J@std@@@std@@B 	 DATA
	?s_v@?1??id_class@?$icolumn@V?$vector@_KV?$allocator@_K@std@@@std@@@read@tools@@SAGXZ@4V?$vector@_KV?$allocator@_K@std@@@std@@B 	 DATA
	?s_v@?1??id_class@?$icolumn@V?$vector@_NV?$allocator@_N@std@@@std@@@read@tools@@SAGXZ@4V?$vector@_NV?$allocator@_N@std@@@std@@B 	 DATA
	?s_v@?1??id_class@column_string@base_pntuple@wroot@tools@@SAGXZ@4V?$basic_string@DU?$char_traits@D@std@@V?$allocator@D@2@@std@@B 	 DATA
	?s_v@?1??id_class@column_string@ntuple@rroot@tools@@SAGXZ@4V?$basic_string@DU?$char_traits@D@std@@V?$allocator@D@2@@std@@B 	 DATA
	?s_v@?1??id_class@column_string@ntuple@wroot@tools@@SAGXZ@4V?$basic_string@DU?$char_traits@D@std@@V?$allocator@D@2@@std@@B 	 DATA
	?s_v@?1??id_class@column_string_ref@base_pntuple@wroot@tools@@SAGXZ@4V?$basic_string@DU?$char_traits@D@std@@V?$allocator@D@2@@std@@B 	 DATA
	?s_v@?1??id_class@column_string_ref@ntuple@rroot@tools@@SAGXZ@4V?$basic_string@DU?$char_traits@D@std@@V?$allocator@D@2@@std@@B 	 DATA
	?s_v@?1??id_class@column_string_ref@ntuple@wroot@tools@@SAGXZ@4V?$basic_string@DU?$char_traits@D@std@@V?$allocator@D@2@@std@@B 	 DATA
	?s_v@?1??id_orientation@base_camera@sg@tools@@KAAEBV?$vec4@M@4@XZ@4V54@B 	 DATA
	?s_v@?1??infos_modeling_ROOT@sg@tools@@YAAEBV?$basic_string@DU?$char_traits@D@std@@V?$allocator@D@2@@std@@XZ@4V45@B 	 DATA
	?s_v@?1??key_axis_x_title@histo@tools@@YAAEBV?$basic_string@DU?$char_traits@D@std@@V?$allocator@D@2@@std@@XZ@4V45@B 	 DATA
	?s_v@?1??key_axis_y_title@histo@tools@@YAAEBV?$basic_string@DU?$char_traits@D@std@@V?$allocator@D@2@@std@@XZ@4V45@B 	 DATA
	?s_v@?1??key_axis_z_title@histo@tools@@YAAEBV?$basic_string@DU?$char_traits@D@std@@V?$allocator@D@2@@std@@XZ@4V45@B 	 DATA
	?s_v@?1??leaf_element_store_class@wroot@tools@@YAAEBV?$basic_string@DU?$char_traits@D@std@@V?$allocator@D@2@@std@@XZ@4V45@B 	 DATA
	?s_v@?1??leaf_store_class@rroot@tools@@YAAEBV?$basic_string@DU?$char_traits@D@std@@V?$allocator@D@2@@std@@D@Z@4V45@B 	 DATA
	?s_v@?1??leaf_store_class@rroot@tools@@YAAEBV?$basic_string@DU?$char_traits@D@std@@V?$allocator@D@2@@std@@F@Z@4V45@B 	 DATA
	?s_v@?1??leaf_store_class@rroot@tools@@YAAEBV?$basic_string@DU?$char_traits@D@std@@V?$allocator@D@2@@std@@H@Z@4V45@B 	 DATA
	?s_v@?1??leaf_store_class@rroot@tools@@YAAEBV?$basic_string@DU?$char_traits@D@std@@V?$allocator@D@2@@std@@M@Z@4V45@B 	 DATA
	?s_v@?1??leaf_store_class@rroot@tools@@YAAEBV?$basic_string@DU?$char_traits@D@std@@V?$allocator@D@2@@std@@N@Z@4V45@B 	 DATA
	?s_v@?1??leaf_store_class@rroot@tools@@YAAEBV?$basic_string@DU?$char_traits@D@std@@V?$allocator@D@2@@std@@_N@Z@4V45@B 	 DATA
	?s_v@?1??leaf_store_class@wroot@tools@@YAAEBV?$basic_string@DU?$char_traits@D@std@@V?$allocator@D@2@@std@@D@Z@4V45@B 	 DATA
	?s_v@?1??leaf_store_class@wroot@tools@@YAAEBV?$basic_string@DU?$char_traits@D@std@@V?$allocator@D@2@@std@@F@Z@4V45@B 	 DATA
	?s_v@?1??leaf_store_class@wroot@tools@@YAAEBV?$basic_string@DU?$char_traits@D@std@@V?$allocator@D@2@@std@@H@Z@4V45@B 	 DATA
	?s_v@?1??leaf_store_class@wroot@tools@@YAAEBV?$basic_string@DU?$char_traits@D@std@@V?$allocator@D@2@@std@@M@Z@4V45@B 	 DATA
	?s_v@?1??leaf_store_class@wroot@tools@@YAAEBV?$basic_string@DU?$char_traits@D@std@@V?$allocator@D@2@@std@@N@Z@4V45@B 	 DATA
	?s_v@?1??leaf_string_store_class@wroot@tools@@YAAEBV?$basic_string@DU?$char_traits@D@std@@V?$allocator@D@2@@std@@XZ@4V45@B 	 DATA
	?s_v@?1??light_model_base_color@sg@tools@@YAAEBV?$basic_string@DU?$char_traits@D@std@@V?$allocator@D@2@@std@@XZ@4V45@B 	 DATA
	?s_v@?1??light_model_phong@sg@tools@@YAAEBV?$basic_string@DU?$char_traits@D@std@@V?$allocator@D@2@@std@@XZ@4V45@B 	 DATA
	?s_v@?1??modeling_bar_chart@sg@tools@@YAAEBV?$basic_string@DU?$char_traits@D@std@@V?$allocator@D@2@@std@@XZ@4V45@B 	 DATA
	?s_v@?1??modeling_boxes@sg@tools@@YAAEBV?$basic_string@DU?$char_traits@D@std@@V?$allocator@D@2@@std@@XZ@4V45@B 	 DATA
	?s_v@?1??modeling_curve@sg@tools@@YAAEBV?$basic_string@DU?$char_traits@D@std@@V?$allocator@D@2@@std@@XZ@4V45@B 	 DATA
	?s_v@?1??modeling_filled_curve@sg@tools@@YAAEBV?$basic_string@DU?$char_traits@D@std@@V?$allocator@D@2@@std@@XZ@4V45@B 	 DATA
	?s_v@?1??modeling_lines@sg@tools@@YAAEBV?$basic_string@DU?$char_traits@D@std@@V?$allocator@D@2@@std@@XZ@4V45@B 	 DATA
	?s_v@?1??modeling_markers@sg@tools@@YAAEBV?$basic_string@DU?$char_traits@D@std@@V?$allocator@D@2@@std@@XZ@4V45@B 	 DATA
	?s_v@?1??modeling_plus@sg@tools@@YAAEBV?$basic_string@DU?$char_traits@D@std@@V?$allocator@D@2@@std@@XZ@4V45@B 	 DATA
	?s_v@?1??modeling_points@sg@tools@@YAAEBV?$basic_string@DU?$char_traits@D@std@@V?$allocator@D@2@@std@@XZ@4V45@B 	 DATA
	?s_v@?1??modeling_solid@sg@tools@@YAAEBV?$basic_string@DU?$char_traits@D@std@@V?$allocator@D@2@@std@@XZ@4V45@B 	 DATA
	?s_v@?1??modeling_texts@sg@tools@@YAAEBV?$basic_string@DU?$char_traits@D@std@@V?$allocator@D@2@@std@@XZ@4V45@B 	 DATA
	?s_v@?1??modeling_top_lines@sg@tools@@YAAEBV?$basic_string@DU?$char_traits@D@std@@V?$allocator@D@2@@std@@XZ@4V45@B 	 DATA
	?s_v@?1??modeling_top_lines_boxes@sg@tools@@YAAEBV?$basic_string@DU?$char_traits@D@std@@V?$allocator@D@2@@std@@XZ@4V45@B 	 DATA
	?s_v@?1??modeling_wire_boxes@sg@tools@@YAAEBV?$basic_string@DU?$char_traits@D@std@@V?$allocator@D@2@@std@@XZ@4V45@B 	 DATA
	?s_v@?1??node_desc_fields@_switch@sg@tools@@UEBAAEBVdesc_fields@34@XZ@4V534@B 	 DATA
	?s_v@?1??node_desc_fields@atb_vertices@sg@tools@@UEBAAEBVdesc_fields@34@XZ@4V534@B 	 DATA
	?s_v@?1??node_desc_fields@axis@sg@tools@@UEBAAEBVdesc_fields@34@XZ@4V534@B 	 DATA
	?s_v@?1??node_desc_fields@back_area@sg@tools@@UEBAAEBVdesc_fields@34@XZ@4V534@B 	 DATA
	?s_v@?1??node_desc_fields@base_camera@sg@tools@@UEBAAEBVdesc_fields@34@XZ@4V534@B 	 DATA
	?s_v@?1??node_desc_fields@base_freetype@sg@tools@@UEBAAEBVdesc_fields@34@XZ@4V534@B 	 DATA
	?s_v@?1??node_desc_fields@base_text@sg@tools@@UEBAAEBVdesc_fields@34@XZ@4V534@B 	 DATA
	?s_v@?1??node_desc_fields@cube@sg@tools@@UEBAAEBVdesc_fields@34@XZ@4V534@B 	 DATA
	?s_v@?1??node_desc_fields@draw_style@sg@tools@@UEBAAEBVdesc_fields@34@XZ@4V534@B 	 DATA
	?s_v@?1??node_desc_fields@ellipse@sg@tools@@UEBAAEBVdesc_fields@34@XZ@4V534@B 	 DATA
	?s_v@?1??node_desc_fields@infos_box@sg@tools@@UEBAAEBVdesc_fields@34@XZ@4V534@B 	 DATA
	?s_v@?1??node_desc_fields@legend@sg@tools@@UEBAAEBVdesc_fields@34@XZ@4V534@B 	 DATA
	?s_v@?1??node_desc_fields@line_style@sg@tools@@UEBAAEBVdesc_fields@34@XZ@4V534@B 	 DATA
	?s_v@?1??node_desc_fields@markers@sg@tools@@UEBAAEBVdesc_fields@34@XZ@4V534@B 	 DATA
	?s_v@?1??node_desc_fields@matrix@sg@tools@@UEBAAEBVdesc_fields@34@XZ@4V534@B 	 DATA
	?s_v@?1??node_desc_fields@node@sg@tools@@UEBAAEBVdesc_fields@34@XZ@4V534@B 	 DATA
	?s_v@?1??node_desc_fields@normal@sg@tools@@UEBAAEBVdesc_fields@34@XZ@4V534@B 	 DATA
	?s_v@?1??node_desc_fields@ortho@sg@tools@@UEBAAEBVdesc_fields@34@XZ@4V534@B 	 DATA
	?s_v@?1??node_desc_fields@plots@sg@tools@@UEBAAEBVdesc_fields@34@XZ@4V534@B 	 DATA
	?s_v@?1??node_desc_fields@plotter@sg@tools@@UEBAAEBVdesc_fields@34@XZ@4V534@B 	 DATA
	?s_v@?1??node_desc_fields@rgba@sg@tools@@UEBAAEBVdesc_fields@34@XZ@4V534@B 	 DATA
	?s_v@?1??node_desc_fields@style@sg@tools@@UEBAAEBVdesc_fields@34@XZ@4V534@B 	 DATA
	?s_v@?1??node_desc_fields@tex_rect@sg@tools@@UEBAAEBVdesc_fields@34@XZ@4V534@B 	 DATA
	?s_v@?1??node_desc_fields@text@sg@tools@@UEBAAEBVdesc_fields@34@XZ@4V534@B 	 DATA
	?s_v@?1??node_desc_fields@text_hershey@sg@tools@@UEBAAEBVdesc_fields@34@XZ@4V534@B 	 DATA
	?s_v@?1??node_desc_fields@text_style@sg@tools@@UEBAAEBVdesc_fields@34@XZ@4V534@B 	 DATA
	?s_v@?1??node_desc_fields@text_valop@sg@tools@@UEBAAEBVdesc_fields@34@XZ@4V534@B 	 DATA
	?s_v@?1??node_desc_fields@torche@sg@tools@@UEBAAEBVdesc_fields@34@XZ@4V534@B 	 DATA
	?s_v@?1??node_desc_fields@vertices@sg@tools@@UEBAAEBVdesc_fields@34@XZ@4V534@B 	 DATA
	?s_v@?1??s_aida@aidas@xml@tools@@KAAEBV?$basic_string@DU?$char_traits@D@std@@V?$allocator@D@2@@std@@XZ@4V56@B 	 DATA
	?s_v@?1??s_aida_type@aida@tools@@YAAEBV?$basic_string@DU?$char_traits@D@std@@V?$allocator@D@2@@std@@AEBV45@@Z@4V45@B 	 DATA
	?s_v@?1??s_aida_type@aida@tools@@YAAEBV?$basic_string@DU?$char_traits@D@std@@V?$allocator@D@2@@std@@F@Z@4V45@B 	 DATA
	?s_v@?1??s_aida_type@aida@tools@@YAAEBV?$basic_string@DU?$char_traits@D@std@@V?$allocator@D@2@@std@@G@Z@4V45@B 	 DATA
	?s_v@?1??s_aida_type@aida@tools@@YAAEBV?$basic_string@DU?$char_traits@D@std@@V?$allocator@D@2@@std@@H@Z@4V45@B 	 DATA
	?s_v@?1??s_aida_type@aida@tools@@YAAEBV?$basic_string@DU?$char_traits@D@std@@V?$allocator@D@2@@std@@I@Z@4V45@B 	 DATA
	?s_v@?1??s_aida_type@aida@tools@@YAAEBV?$basic_string@DU?$char_traits@D@std@@V?$allocator@D@2@@std@@M@Z@4V45@B 	 DATA
	?s_v@?1??s_aida_type@aida@tools@@YAAEBV?$basic_string@DU?$char_traits@D@std@@V?$allocator@D@2@@std@@N@Z@4V45@B 	 DATA
	?s_v@?1??s_aida_type@aida@tools@@YAAEBV?$basic_string@DU?$char_traits@D@std@@V?$allocator@D@2@@std@@_J@Z@4V45@B 	 DATA
	?s_v@?1??s_aida_type@aida@tools@@YAAEBV?$basic_string@DU?$char_traits@D@std@@V?$allocator@D@2@@std@@_K@Z@4V45@B 	 DATA
	?s_v@?1??s_aida_type@aida@tools@@YAAEBV?$basic_string@DU?$char_traits@D@std@@V?$allocator@D@2@@std@@_N@Z@4V45@B 	 DATA
	?s_v@?1??s_aida_type@ntuple@waxml@tools@@KAAEBV?$basic_string@DU?$char_traits@D@std@@V?$allocator@D@2@@std@@AEBV56@@Z@4V56@B 	 DATA
	?s_v@?1??s_aida_type@ntuple@waxml@tools@@KAAEBV?$basic_string@DU?$char_traits@D@std@@V?$allocator@D@2@@std@@H@Z@4V56@B 	 DATA
	?s_v@?1??s_aida_type@ntuple@waxml@tools@@KAAEBV?$basic_string@DU?$char_traits@D@std@@V?$allocator@D@2@@std@@M@Z@4V56@B 	 DATA
	?s_v@?1??s_aida_type@ntuple@waxml@tools@@KAAEBV?$basic_string@DU?$char_traits@D@std@@V?$allocator@D@2@@std@@N@Z@4V56@B 	 DATA
	?s_v@?1??s_aida_type_ituple@aida@tools@@YAAEBV?$basic_string@DU?$char_traits@D@std@@V?$allocator@D@2@@std@@XZ@4V45@B 	 DATA
	?s_v@?1??s_annotation@aidas@xml@tools@@KAAEBV?$basic_string@DU?$char_traits@D@std@@V?$allocator@D@2@@std@@XZ@4V56@B 	 DATA
	?s_v@?1??s_axis@aidas@xml@tools@@KAAEBV?$basic_string@DU?$char_traits@D@std@@V?$allocator@D@2@@std@@XZ@4V56@B 	 DATA
	?s_v@?1??s_binBorder@aidas@xml@tools@@KAAEBV?$basic_string@DU?$char_traits@D@std@@V?$allocator@D@2@@std@@XZ@4V56@B 	 DATA
	?s_v@?1??s_booking@aidas@xml@tools@@KAAEBV?$basic_string@DU?$char_traits@D@std@@V?$allocator@D@2@@std@@XZ@4V56@B 	 DATA
	?s_v@?1??s_class@?$aida_col@F@aida@tools@@SAAEBV?$basic_string@DU?$char_traits@D@std@@V?$allocator@D@2@@std@@XZ@4V56@B 	 DATA
	?s_v@?1??s_class@?$aida_col@G@aida@tools@@SAAEBV?$basic_string@DU?$char_traits@D@std@@V?$allocator@D@2@@std@@XZ@4V56@B 	 DATA
	?s_v@?1??s_class@?$aida_col@H@aida@tools@@SAAEBV?$basic_string@DU?$char_traits@D@std@@V?$allocator@D@2@@std@@XZ@4V56@B 	 DATA
	?s_v@?1??s_class@?$aida_col@I@aida@tools@@SAAEBV?$basic_string@DU?$char_traits@D@std@@V?$allocator@D@2@@std@@XZ@4V56@B 	 DATA
	?s_v@?1??s_class@?$aida_col@M@aida@tools@@SAAEBV?$basic_string@DU?$char_traits@D@std@@V?$allocator@D@2@@std@@XZ@4V56@B 	 DATA
	?s_v@?1??s_class@?$aida_col@N@aida@tools@@SAAEBV?$basic_string@DU?$char_traits@D@std@@V?$allocator@D@2@@std@@XZ@4V56@B 	 DATA
	?s_v@?1??s_class@?$aida_col@V?$basic_string@DU?$char_traits@D@std@@V?$allocator@D@2@@std@@@aida@tools@@SAAEBV?$basic_string@DU?$char_traits@D@std@@V?$allocator@D@2@@std@@XZ@4V56@B 	 DATA
	?s_v@?1??s_class@?$aida_col@_J@aida@tools@@SAAEBV?$basic_string@DU?$char_traits@D@std@@V?$allocator@D@2@@std@@XZ@4V56@B 	 DATA
	?s_v@?1??s_class@?$aida_col@_K@aida@tools@@SAAEBV?$basic_string@DU?$char_traits@D@std@@V?$allocator@D@2@@std@@XZ@4V56@B 	 DATA
	?s_v@?1??s_class@?$aida_col@_N@aida@tools@@SAAEBV?$basic_string@DU?$char_traits@D@std@@V?$allocator@D@2@@std@@XZ@4V56@B 	 DATA
	?s_v@?1??s_class@?$bmf@M@sg@tools@@SAAEBV?$basic_string@DU?$char_traits@D@std@@V?$allocator@D@2@@std@@XZ@4V56@B 	 DATA
	?s_v@?1??s_class@?$bmf@V?$basic_string@DU?$char_traits@D@std@@V?$allocator@D@2@@std@@@sg@tools@@SAAEBV?$basic_string@DU?$char_traits@D@std@@V?$allocator@D@2@@std@@XZ@4V56@B 	 DATA
	?s_v@?1??s_class@?$bmf@V?$vector@IV?$allocator@I@std@@@std@@@sg@tools@@SAAEBV?$basic_string@DU?$char_traits@D@std@@V?$allocator@D@2@@std@@XZ@4V56@B 	 DATA
	?s_v@?1??s_class@?$bmf@Vvec2f@tools@@@sg@tools@@SAAEBV?$basic_string@DU?$char_traits@D@std@@V?$allocator@D@2@@std@@XZ@4V56@B 	 DATA
	?s_v@?1??s_class@?$bmf@W4unit_type@plotter@sg@tools@@@sg@tools@@SAAEBV?$basic_string@DU?$char_traits@D@std@@V?$allocator@D@2@@std@@XZ@4V56@B 	 DATA
	?s_v@?1??s_class@?$bsf@E@sg@tools@@SAAEBV?$basic_string@DU?$char_traits@D@std@@V?$allocator@D@2@@std@@XZ@4V56@B 	 DATA
	?s_v@?1??s_class@?$bsf@G@sg@tools@@SAAEBV?$basic_string@DU?$char_traits@D@std@@V?$allocator@D@2@@std@@XZ@4V56@B 	 DATA
	?s_v@?1??s_class@?$bsf@H@sg@tools@@SAAEBV?$basic_string@DU?$char_traits@D@std@@V?$allocator@D@2@@std@@XZ@4V56@B 	 DATA
	?s_v@?1??s_class@?$bsf@I@sg@tools@@SAAEBV?$basic_string@DU?$char_traits@D@std@@V?$allocator@D@2@@std@@XZ@4V56@B 	 DATA
	?s_v@?1??s_class@?$bsf@M@sg@tools@@SAAEBV?$basic_string@DU?$char_traits@D@std@@V?$allocator@D@2@@std@@XZ@4V56@B 	 DATA
	?s_v@?1??s_class@?$bsf@N@sg@tools@@SAAEBV?$basic_string@DU?$char_traits@D@std@@V?$allocator@D@2@@std@@XZ@4V56@B 	 DATA
	?s_v@?1??s_class@?$bsf@V?$basic_string@DU?$char_traits@D@std@@V?$allocator@D@2@@std@@@sg@tools@@SAAEBV?$basic_string@DU?$char_traits@D@std@@V?$allocator@D@2@@std@@XZ@4V56@B 	 DATA
	?s_v@?1??s_class@?$bsf@V?$img@E@tools@@@sg@tools@@SAAEBV?$basic_string@DU?$char_traits@D@std@@V?$allocator@D@2@@std@@XZ@4V56@B 	 DATA
	?s_v@?1??s_class@?$bsf@Vcolorf@tools@@@sg@tools@@SAAEBV?$basic_string@DU?$char_traits@D@std@@V?$allocator@D@2@@std@@XZ@4V56@B 	 DATA
	?s_v@?1??s_class@?$bsf@Vmat4f@tools@@@sg@tools@@SAAEBV?$basic_string@DU?$char_traits@D@std@@V?$allocator@D@2@@std@@XZ@4V56@B 	 DATA
	?s_v@?1??s_class@?$bsf@Vrotf@tools@@@sg@tools@@SAAEBV?$basic_string@DU?$char_traits@D@std@@V?$allocator@D@2@@std@@XZ@4V56@B 	 DATA
	?s_v@?1??s_class@?$bsf@Vvec3f@tools@@@sg@tools@@SAAEBV?$basic_string@DU?$char_traits@D@std@@V?$allocator@D@2@@std@@XZ@4V56@B 	 DATA
	?s_v@?1??s_class@?$bsf@Vvec4f@tools@@@sg@tools@@SAAEBV?$basic_string@DU?$char_traits@D@std@@V?$allocator@D@2@@std@@XZ@4V56@B 	 DATA
	?s_v@?1??s_class@?$bsf@W4area_style@sg@tools@@@sg@tools@@SAAEBV?$basic_string@DU?$char_traits@D@std@@V?$allocator@D@2@@std@@XZ@4V56@B 	 DATA
	?s_v@?1??s_class@?$bsf@W4colormap_axis_labeling_type@plotter@sg@tools@@@sg@tools@@SAAEBV?$basic_string@DU?$char_traits@D@std@@V?$allocator@D@2@@std@@XZ@4V56@B 	 DATA
	?s_v@?1??s_class@?$bsf@W4draw_type@sg@tools@@@sg@tools@@SAAEBV?$basic_string@DU?$char_traits@D@std@@V?$allocator@D@2@@std@@XZ@4V56@B 	 DATA
	?s_v@?1??s_class@?$bsf@W4font_modeling@sg@tools@@@sg@tools@@SAAEBV?$basic_string@DU?$char_traits@D@std@@V?$allocator@D@2@@std@@XZ@4V56@B 	 DATA
	?s_v@?1??s_class@?$bsf@W4font_type@sg@tools@@@sg@tools@@SAAEBV?$basic_string@DU?$char_traits@D@std@@V?$allocator@D@2@@std@@XZ@4V56@B 	 DATA
	?s_v@?1??s_class@?$bsf@W4hatching_policy@sg@tools@@@sg@tools@@SAAEBV?$basic_string@DU?$char_traits@D@std@@V?$allocator@D@2@@std@@XZ@4V56@B 	 DATA
	?s_v@?1??s_class@?$bsf@W4hjust@sg@tools@@@sg@tools@@SAAEBV?$basic_string@DU?$char_traits@D@std@@V?$allocator@D@2@@std@@XZ@4V56@B 	 DATA
	?s_v@?1??s_class@?$bsf@W4marker_style@sg@tools@@@sg@tools@@SAAEBV?$basic_string@DU?$char_traits@D@std@@V?$allocator@D@2@@std@@XZ@4V56@B 	 DATA
	?s_v@?1??s_class@?$bsf@W4painting_policy@sg@tools@@@sg@tools@@SAAEBV?$basic_string@DU?$char_traits@D@std@@V?$allocator@D@2@@std@@XZ@4V56@B 	 DATA
	?s_v@?1??s_class@?$bsf@W4projection_type@sg@tools@@@sg@tools@@SAAEBV?$basic_string@DU?$char_traits@D@std@@V?$allocator@D@2@@std@@XZ@4V56@B 	 DATA
	?s_v@?1??s_class@?$bsf@W4shape_type@plotter@sg@tools@@@sg@tools@@SAAEBV?$basic_string@DU?$char_traits@D@std@@V?$allocator@D@2@@std@@XZ@4V56@B 	 DATA
	?s_v@?1??s_class@?$bsf@W4vjust@sg@tools@@@sg@tools@@SAAEBV?$basic_string@DU?$char_traits@D@std@@V?$allocator@D@2@@std@@XZ@4V56@B 	 DATA
	?s_v@?1??s_class@?$bsf@W4winding_type@sg@tools@@@sg@tools@@SAAEBV?$basic_string@DU?$char_traits@D@std@@V?$allocator@D@2@@std@@XZ@4V56@B 	 DATA
	?s_v@?1??s_class@?$bsf@_N@sg@tools@@SAAEBV?$basic_string@DU?$char_traits@D@std@@V?$allocator@D@2@@std@@XZ@4V56@B 	 DATA
	?s_v@?1??s_class@?$leaf@D@rroot@tools@@SAAEBV?$basic_string@DU?$char_traits@D@std@@V?$allocator@D@2@@std@@XZ@4V56@B 	 DATA
	?s_v@?1??s_class@?$leaf@F@rroot@tools@@SAAEBV?$basic_string@DU?$char_traits@D@std@@V?$allocator@D@2@@std@@XZ@4V56@B 	 DATA
	?s_v@?1??s_class@?$leaf@H@rroot@tools@@SAAEBV?$basic_string@DU?$char_traits@D@std@@V?$allocator@D@2@@std@@XZ@4V56@B 	 DATA
	?s_v@?1??s_class@?$leaf@M@rroot@tools@@SAAEBV?$basic_string@DU?$char_traits@D@std@@V?$allocator@D@2@@std@@XZ@4V56@B 	 DATA
	?s_v@?1??s_class@?$leaf@N@rroot@tools@@SAAEBV?$basic_string@DU?$char_traits@D@std@@V?$allocator@D@2@@std@@XZ@4V56@B 	 DATA
	?s_v@?1??s_class@?$leaf@_N@rroot@tools@@SAAEBV?$basic_string@DU?$char_traits@D@std@@V?$allocator@D@2@@std@@XZ@4V56@B 	 DATA
	?s_v@?1??s_class@?$mf@M@sg@tools@@SAAEBV?$basic_string@DU?$char_traits@D@std@@V?$allocator@D@2@@std@@XZ@4V56@B 	 DATA
	?s_v@?1??s_class@?$mf_enum@W4unit_type@plotter@sg@tools@@@sg@tools@@SAAEBV?$basic_string@DU?$char_traits@D@std@@V?$allocator@D@2@@std@@XZ@4V56@B 	 DATA
	?s_v@?1??s_class@?$mf_std_vec@I@sg@tools@@SAAEBV?$basic_string@DU?$char_traits@D@std@@V?$allocator@D@2@@std@@XZ@4V56@B 	 DATA
	?s_v@?1??s_class@?$mf_vec@Vvec2f@tools@@M@sg@tools@@SAAEBV?$basic_string@DU?$char_traits@D@std@@V?$allocator@D@2@@std@@XZ@4V56@B 	 DATA
	?s_v@?1??s_class@?$obj_array@Vbase_leaf@rroot@tools@@@rroot@tools@@SAAEBV?$basic_string@DU?$char_traits@D@std@@V?$allocator@D@2@@std@@XZ@4V56@B 	 DATA
	?s_v@?1??s_class@?$obj_array@Vbasket@rroot@tools@@@rroot@tools@@SAAEBV?$basic_string@DU?$char_traits@D@std@@V?$allocator@D@2@@std@@XZ@4V56@B 	 DATA
	?s_v@?1??s_class@?$obj_array@Vbranch@rroot@tools@@@rroot@tools@@SAAEBV?$basic_string@DU?$char_traits@D@std@@V?$allocator@D@2@@std@@XZ@4V56@B 	 DATA
	?s_v@?1??s_class@?$obj_array@Vstreamer_element@rroot@tools@@@rroot@tools@@SAAEBV?$basic_string@DU?$char_traits@D@std@@V?$allocator@D@2@@std@@XZ@4V56@B 	 DATA
	?s_v@?1??s_class@?$sf@E@sg@tools@@SAAEBV?$basic_string@DU?$char_traits@D@std@@V?$allocator@D@2@@std@@XZ@4V56@B 	 DATA
	?s_v@?1??s_class@?$sf@G@sg@tools@@SAAEBV?$basic_string@DU?$char_traits@D@std@@V?$allocator@D@2@@std@@XZ@4V56@B 	 DATA
	?s_v@?1??s_class@?$sf@H@sg@tools@@SAAEBV?$basic_string@DU?$char_traits@D@std@@V?$allocator@D@2@@std@@XZ@4V56@B 	 DATA
	?s_v@?1??s_class@?$sf@I@sg@tools@@SAAEBV?$basic_string@DU?$char_traits@D@std@@V?$allocator@D@2@@std@@XZ@4V56@B 	 DATA
	?s_v@?1??s_class@?$sf@M@sg@tools@@SAAEBV?$basic_string@DU?$char_traits@D@std@@V?$allocator@D@2@@std@@XZ@4V56@B 	 DATA
	?s_v@?1??s_class@?$sf@N@sg@tools@@SAAEBV?$basic_string@DU?$char_traits@D@std@@V?$allocator@D@2@@std@@XZ@4V56@B 	 DATA
	?s_v@?1??s_class@?$sf@_N@sg@tools@@SAAEBV?$basic_string@DU?$char_traits@D@std@@V?$allocator@D@2@@std@@XZ@4V56@B 	 DATA
	?s_v@?1??s_class@?$sf_enum@W4area_style@sg@tools@@@sg@tools@@SAAEBV?$basic_string@DU?$char_traits@D@std@@V?$allocator@D@2@@std@@XZ@4V56@B 	 DATA
	?s_v@?1??s_class@?$sf_enum@W4colormap_axis_labeling_type@plotter@sg@tools@@@sg@tools@@SAAEBV?$basic_string@DU?$char_traits@D@std@@V?$allocator@D@2@@std@@XZ@4V56@B 	 DATA
	?s_v@?1??s_class@?$sf_enum@W4draw_type@sg@tools@@@sg@tools@@SAAEBV?$basic_string@DU?$char_traits@D@std@@V?$allocator@D@2@@std@@XZ@4V56@B 	 DATA
	?s_v@?1??s_class@?$sf_enum@W4font_modeling@sg@tools@@@sg@tools@@SAAEBV?$basic_string@DU?$char_traits@D@std@@V?$allocator@D@2@@std@@XZ@4V56@B 	 DATA
	?s_v@?1??s_class@?$sf_enum@W4font_type@sg@tools@@@sg@tools@@SAAEBV?$basic_string@DU?$char_traits@D@std@@V?$allocator@D@2@@std@@XZ@4V56@B 	 DATA
	?s_v@?1??s_class@?$sf_enum@W4hatching_policy@sg@tools@@@sg@tools@@SAAEBV?$basic_string@DU?$char_traits@D@std@@V?$allocator@D@2@@std@@XZ@4V56@B 	 DATA
	?s_v@?1??s_class@?$sf_enum@W4hjust@sg@tools@@@sg@tools@@SAAEBV?$basic_string@DU?$char_traits@D@std@@V?$allocator@D@2@@std@@XZ@4V56@B 	 DATA
	?s_v@?1??s_class@?$sf_enum@W4marker_style@sg@tools@@@sg@tools@@SAAEBV?$basic_string@DU?$char_traits@D@std@@V?$allocator@D@2@@std@@XZ@4V56@B 	 DATA
	?s_v@?1??s_class@?$sf_enum@W4painting_policy@sg@tools@@@sg@tools@@SAAEBV?$basic_string@DU?$char_traits@D@std@@V?$allocator@D@2@@std@@XZ@4V56@B 	 DATA
	?s_v@?1??s_class@?$sf_enum@W4projection_type@sg@tools@@@sg@tools@@SAAEBV?$basic_string@DU?$char_traits@D@std@@V?$allocator@D@2@@std@@XZ@4V56@B 	 DATA
	?s_v@?1??s_class@?$sf_enum@W4shape_type@plotter@sg@tools@@@sg@tools@@SAAEBV?$basic_string@DU?$char_traits@D@std@@V?$allocator@D@2@@std@@XZ@4V56@B 	 DATA
	?s_v@?1??s_class@?$sf_enum@W4vjust@sg@tools@@@sg@tools@@SAAEBV?$basic_string@DU?$char_traits@D@std@@V?$allocator@D@2@@std@@XZ@4V56@B 	 DATA
	?s_v@?1??s_class@?$sf_enum@W4winding_type@sg@tools@@@sg@tools@@SAAEBV?$basic_string@DU?$char_traits@D@std@@V?$allocator@D@2@@std@@XZ@4V56@B 	 DATA
	?s_v@?1??s_class@?$sf_img@E@sg@tools@@SAAEBV?$basic_string@DU?$char_traits@D@std@@V?$allocator@D@2@@std@@XZ@4V56@B 	 DATA
	?s_v@?1??s_class@?$sf_vec@Vcolorf@tools@@M@sg@tools@@SAAEBV?$basic_string@DU?$char_traits@D@std@@V?$allocator@D@2@@std@@XZ@4V56@B 	 DATA
	?s_v@?1??s_class@?$sf_vec@Vmat4f@tools@@M@sg@tools@@SAAEBV?$basic_string@DU?$char_traits@D@std@@V?$allocator@D@2@@std@@XZ@4V56@B 	 DATA
	?s_v@?1??s_class@?$sf_vec@Vvec3f@tools@@M@sg@tools@@SAAEBV?$basic_string@DU?$char_traits@D@std@@V?$allocator@D@2@@std@@XZ@4V56@B 	 DATA
	?s_v@?1??s_class@?$sf_vec@Vvec4f@tools@@M@sg@tools@@SAAEBV?$basic_string@DU?$char_traits@D@std@@V?$allocator@D@2@@std@@XZ@4V56@B 	 DATA
	?s_v@?1??s_class@?$stl_vector@F@rroot@tools@@SAAEBV?$basic_string@DU?$char_traits@D@std@@V?$allocator@D@2@@std@@XZ@4V56@B 	 DATA
	?s_v@?1??s_class@?$stl_vector@G@rroot@tools@@SAAEBV?$basic_string@DU?$char_traits@D@std@@V?$allocator@D@2@@std@@XZ@4V56@B 	 DATA
	?s_v@?1??s_class@?$stl_vector@H@rroot@tools@@SAAEBV?$basic_string@DU?$char_traits@D@std@@V?$allocator@D@2@@std@@XZ@4V56@B 	 DATA
	?s_v@?1??s_class@?$stl_vector@I@rroot@tools@@SAAEBV?$basic_string@DU?$char_traits@D@std@@V?$allocator@D@2@@std@@XZ@4V56@B 	 DATA
	?s_v@?1??s_class@?$stl_vector@M@rroot@tools@@SAAEBV?$basic_string@DU?$char_traits@D@std@@V?$allocator@D@2@@std@@XZ@4V56@B 	 DATA
	?s_v@?1??s_class@?$stl_vector@N@rroot@tools@@SAAEBV?$basic_string@DU?$char_traits@D@std@@V?$allocator@D@2@@std@@XZ@4V56@B 	 DATA
	?s_v@?1??s_class@?$stl_vector@_K@rroot@tools@@SAAEBV?$basic_string@DU?$char_traits@D@std@@V?$allocator@D@2@@std@@XZ@4V56@B 	 DATA
	?s_v@?1??s_class@?$stl_vector_vector@F@rroot@tools@@SAAEBV?$basic_string@DU?$char_traits@D@std@@V?$allocator@D@2@@std@@XZ@4V56@B 	 DATA
	?s_v@?1??s_class@?$stl_vector_vector@G@rroot@tools@@SAAEBV?$basic_string@DU?$char_traits@D@std@@V?$allocator@D@2@@std@@XZ@4V56@B 	 DATA
	?s_v@?1??s_class@?$stl_vector_vector@H@rroot@tools@@SAAEBV?$basic_string@DU?$char_traits@D@std@@V?$allocator@D@2@@std@@XZ@4V56@B 	 DATA
	?s_v@?1??s_class@?$stl_vector_vector@I@rroot@tools@@SAAEBV?$basic_string@DU?$char_traits@D@std@@V?$allocator@D@2@@std@@XZ@4V56@B 	 DATA
	?s_v@?1??s_class@?$stl_vector_vector@M@rroot@tools@@SAAEBV?$basic_string@DU?$char_traits@D@std@@V?$allocator@D@2@@std@@XZ@4V56@B 	 DATA
	?s_v@?1??s_class@?$stl_vector_vector@N@rroot@tools@@SAAEBV?$basic_string@DU?$char_traits@D@std@@V?$allocator@D@2@@std@@XZ@4V56@B 	 DATA
	?s_v@?1??s_class@_switch@sg@tools@@SAAEBV?$basic_string@DU?$char_traits@D@std@@V?$allocator@D@2@@std@@XZ@4V56@B 	 DATA
	?s_v@?1??s_class@aida_base_col@aida@tools@@SAAEBV?$basic_string@DU?$char_traits@D@std@@V?$allocator@D@2@@std@@XZ@4V56@B 	 DATA
	?s_v@?1??s_class@aida_col_ntu@aida@tools@@SAAEBV?$basic_string@DU?$char_traits@D@std@@V?$allocator@D@2@@std@@XZ@4V56@B 	 DATA
	?s_v@?1??s_class@atb_vertices@sg@tools@@SAAEBV?$basic_string@DU?$char_traits@D@std@@V?$allocator@D@2@@std@@XZ@4V56@B 	 DATA
	?s_v@?1??s_class@axis@sg@tools@@SAAEBV?$basic_string@DU?$char_traits@D@std@@V?$allocator@D@2@@std@@XZ@4V56@B 	 DATA
	?s_v@?1??s_class@back_area@sg@tools@@SAAEBV?$basic_string@DU?$char_traits@D@std@@V?$allocator@D@2@@std@@XZ@4V56@B 	 DATA
	?s_v@?1??s_class@base_camera@sg@tools@@SAAEBV?$basic_string@DU?$char_traits@D@std@@V?$allocator@D@2@@std@@XZ@4V56@B 	 DATA
	?s_v@?1??s_class@base_col@aida@tools@@SAAEBV?$basic_string@DU?$char_traits@D@std@@V?$allocator@D@2@@std@@XZ@4V56@B 	 DATA
	?s_v@?1??s_class@base_freetype@sg@tools@@SAAEBV?$basic_string@DU?$char_traits@D@std@@V?$allocator@D@2@@std@@XZ@4V56@B 	 DATA
	?s_v@?1??s_class@base_leaf@rroot@tools@@SAAEBV?$basic_string@DU?$char_traits@D@std@@V?$allocator@D@2@@std@@XZ@4V56@B 	 DATA
	?s_v@?1??s_class@base_ntu@aida@tools@@SAAEBV?$basic_string@DU?$char_traits@D@std@@V?$allocator@D@2@@std@@XZ@4V56@B 	 DATA
	?s_v@?1??s_class@base_tex@sg@tools@@SAAEBV?$basic_string@DU?$char_traits@D@std@@V?$allocator@D@2@@std@@XZ@4V56@B 	 DATA
	?s_v@?1??s_class@basket@rroot@tools@@SAAEBV?$basic_string@DU?$char_traits@D@std@@V?$allocator@D@2@@std@@XZ@4V56@B 	 DATA
	?s_v@?1??s_class@bins1D@sg@tools@@SAAEBV?$basic_string@DU?$char_traits@D@std@@V?$allocator@D@2@@std@@XZ@4V56@B 	 DATA
	?s_v@?1??s_class@bins2D@sg@tools@@SAAEBV?$basic_string@DU?$char_traits@D@std@@V?$allocator@D@2@@std@@XZ@4V56@B 	 DATA
	?s_v@?1??s_class@branch@rroot@tools@@SAAEBV?$basic_string@DU?$char_traits@D@std@@V?$allocator@D@2@@std@@XZ@4V56@B 	 DATA
	?s_v@?1??s_class@branch_element@rroot@tools@@SAAEBV?$basic_string@DU?$char_traits@D@std@@V?$allocator@D@2@@std@@XZ@4V56@B 	 DATA
	?s_v@?1??s_class@branch_object@rroot@tools@@SAAEBV?$basic_string@DU?$char_traits@D@std@@V?$allocator@D@2@@std@@XZ@4V56@B 	 DATA
	?s_v@?1??s_class@bsf_enum@sg@tools@@SAAEBV?$basic_string@DU?$char_traits@D@std@@V?$allocator@D@2@@std@@XZ@4V56@B 	 DATA
	?s_v@?1??s_class@by_value_colormap@sg@tools@@SAAEBV?$basic_string@DU?$char_traits@D@std@@V?$allocator@D@2@@std@@XZ@4V56@B 	 DATA
	?s_v@?1??s_class@c1d@histo@tools@@SAAEBV?$basic_string@DU?$char_traits@D@std@@V?$allocator@D@2@@std@@XZ@4V56@B 	 DATA
	?s_v@?1??s_class@c2d@histo@tools@@SAAEBV?$basic_string@DU?$char_traits@D@std@@V?$allocator@D@2@@std@@XZ@4V56@B 	 DATA
	?s_v@?1??s_class@c3d@histo@tools@@SAAEBV?$basic_string@DU?$char_traits@D@std@@V?$allocator@D@2@@std@@XZ@4V56@B 	 DATA
	?s_v@?1??s_class@colorf@tools@@SAAEBV?$basic_string@DU?$char_traits@D@std@@V?$allocator@D@2@@std@@XZ@4V45@B 	 DATA
	?s_v@?1??s_class@const_colormap@sg@tools@@SAAEBV?$basic_string@DU?$char_traits@D@std@@V?$allocator@D@2@@std@@XZ@4V56@B 	 DATA
	?s_v@?1??s_class@cube@sg@tools@@SAAEBV?$basic_string@DU?$char_traits@D@std@@V?$allocator@D@2@@std@@XZ@4V56@B 	 DATA
	?s_v@?1??s_class@curve@tools@@SAAEBV?$basic_string@DU?$char_traits@D@std@@V?$allocator@D@2@@std@@XZ@4V45@B 	 DATA
	?s_v@?1??s_class@dps@histo@tools@@SAAEBV?$basic_string@DU?$char_traits@D@std@@V?$allocator@D@2@@std@@XZ@4V56@B 	 DATA
	?s_v@?1??s_class@draw_style@sg@tools@@SAAEBV?$basic_string@DU?$char_traits@D@std@@V?$allocator@D@2@@std@@XZ@4V56@B 	 DATA
	?s_v@?1??s_class@dummy@rroot@tools@@SAAEBV?$basic_string@DU?$char_traits@D@std@@V?$allocator@D@2@@std@@XZ@4V56@B 	 DATA
	?s_v@?1??s_class@dummy_freetype@sg@tools@@SAAEBV?$basic_string@DU?$char_traits@D@std@@V?$allocator@D@2@@std@@XZ@4V56@B 	 DATA
	?s_v@?1??s_class@ellipse@sg@tools@@SAAEBV?$basic_string@DU?$char_traits@D@std@@V?$allocator@D@2@@std@@XZ@4V56@B 	 DATA
	?s_v@?1??s_class@field@sg@tools@@SAAEBV?$basic_string@DU?$char_traits@D@std@@V?$allocator@D@2@@std@@XZ@4V56@B 	 DATA
	?s_v@?1??s_class@file@rroot@tools@@SAAEBV?$basic_string@DU?$char_traits@D@std@@V?$allocator@D@2@@std@@XZ@4V56@B 	 DATA
	?s_v@?1??s_class@file@wroot@tools@@SAAEBV?$basic_string@DU?$char_traits@D@std@@V?$allocator@D@2@@std@@XZ@4V56@B 	 DATA
	?s_v@?1??s_class@func1D@sg@tools@@SAAEBV?$basic_string@DU?$char_traits@D@std@@V?$allocator@D@2@@std@@XZ@4V56@B 	 DATA
	?s_v@?1??s_class@func2D@sg@tools@@SAAEBV?$basic_string@DU?$char_traits@D@std@@V?$allocator@D@2@@std@@XZ@4V56@B 	 DATA
	?s_v@?1??s_class@gl2ps_manager@sg@tools@@SAAEBV?$basic_string@DU?$char_traits@D@std@@V?$allocator@D@2@@std@@XZ@4V56@B 	 DATA
	?s_v@?1??s_class@graph@rroot@tools@@SAAEBV?$basic_string@DU?$char_traits@D@std@@V?$allocator@D@2@@std@@XZ@4V56@B 	 DATA
	?s_v@?1??s_class@grey_scale_colormap@sg@tools@@SAAEBV?$basic_string@DU?$char_traits@D@std@@V?$allocator@D@2@@std@@XZ@4V56@B 	 DATA
	?s_v@?1??s_class@grey_scale_inverse_colormap@sg@tools@@SAAEBV?$basic_string@DU?$char_traits@D@std@@V?$allocator@D@2@@std@@XZ@4V56@B 	 DATA
	?s_v@?1??s_class@group@sg@tools@@SAAEBV?$basic_string@DU?$char_traits@D@std@@V?$allocator@D@2@@std@@XZ@4V56@B 	 DATA
	?s_v@?1??s_class@h1d2plot@sg@tools@@SAAEBV?$basic_string@DU?$char_traits@D@std@@V?$allocator@D@2@@std@@XZ@4V56@B 	 DATA
	?s_v@?1??s_class@h1d@histo@tools@@SAAEBV?$basic_string@DU?$char_traits@D@std@@V?$allocator@D@2@@std@@XZ@4V56@B 	 DATA
	?s_v@?1??s_class@h2d2plot@sg@tools@@SAAEBV?$basic_string@DU?$char_traits@D@std@@V?$allocator@D@2@@std@@XZ@4V56@B 	 DATA
	?s_v@?1??s_class@h2d@histo@tools@@SAAEBV?$basic_string@DU?$char_traits@D@std@@V?$allocator@D@2@@std@@XZ@4V56@B 	 DATA
	?s_v@?1??s_class@h3d@histo@tools@@SAAEBV?$basic_string@DU?$char_traits@D@std@@V?$allocator@D@2@@std@@XZ@4V56@B 	 DATA
	?s_v@?1??s_class@infos_box@sg@tools@@SAAEBV?$basic_string@DU?$char_traits@D@std@@V?$allocator@D@2@@std@@XZ@4V56@B 	 DATA
	?s_v@?1??s_class@iros@rroot@tools@@SAAEBV?$basic_string@DU?$char_traits@D@std@@V?$allocator@D@2@@std@@XZ@4V56@B 	 DATA
	?s_v@?1??s_class@leaf_element@rroot@tools@@SAAEBV?$basic_string@DU?$char_traits@D@std@@V?$allocator@D@2@@std@@XZ@4V56@B 	 DATA
	?s_v@?1??s_class@leaf_object@rroot@tools@@SAAEBV?$basic_string@DU?$char_traits@D@std@@V?$allocator@D@2@@std@@XZ@4V56@B 	 DATA
	?s_v@?1??s_class@leaf_string@rroot@tools@@SAAEBV?$basic_string@DU?$char_traits@D@std@@V?$allocator@D@2@@std@@XZ@4V56@B 	 DATA
	?s_v@?1??s_class@legend@sg@tools@@SAAEBV?$basic_string@DU?$char_traits@D@std@@V?$allocator@D@2@@std@@XZ@4V56@B 	 DATA
	?s_v@?1??s_class@line_style@sg@tools@@SAAEBV?$basic_string@DU?$char_traits@D@std@@V?$allocator@D@2@@std@@XZ@4V56@B 	 DATA
	?s_v@?1??s_class@markers@sg@tools@@SAAEBV?$basic_string@DU?$char_traits@D@std@@V?$allocator@D@2@@std@@XZ@4V56@B 	 DATA
	?s_v@?1??s_class@matrix@rroot@tools@@SAAEBV?$basic_string@DU?$char_traits@D@std@@V?$allocator@D@2@@std@@XZ@4V56@B 	 DATA
	?s_v@?1??s_class@matrix@sg@tools@@SAAEBV?$basic_string@DU?$char_traits@D@std@@V?$allocator@D@2@@std@@XZ@4V56@B 	 DATA
	?s_v@?1??s_class@mf_string@sg@tools@@SAAEBV?$basic_string@DU?$char_traits@D@std@@V?$allocator@D@2@@std@@XZ@4V56@B 	 DATA
	?s_v@?1??s_class@named@rroot@tools@@SAAEBV?$basic_string@DU?$char_traits@D@std@@V?$allocator@D@2@@std@@XZ@4V56@B 	 DATA
	?s_v@?1??s_class@node@sg@tools@@SAAEBV?$basic_string@DU?$char_traits@D@std@@V?$allocator@D@2@@std@@XZ@4V56@B 	 DATA
	?s_v@?1??s_class@noderef@sg@tools@@SAAEBV?$basic_string@DU?$char_traits@D@std@@V?$allocator@D@2@@std@@XZ@4V56@B 	 DATA
	?s_v@?1??s_class@normal@sg@tools@@SAAEBV?$basic_string@DU?$char_traits@D@std@@V?$allocator@D@2@@std@@XZ@4V56@B 	 DATA
	?s_v@?1??s_class@ntuple@aida@tools@@SAAEBV?$basic_string@DU?$char_traits@D@std@@V?$allocator@D@2@@std@@XZ@4V56@B 	 DATA
	?s_v@?1??s_class@ntuple@rroot@tools@@SAAEBV?$basic_string@DU?$char_traits@D@std@@V?$allocator@D@2@@std@@XZ@4V56@B 	 DATA
	?s_v@?1??s_class@ntuple@wcsv@tools@@SAAEBV?$basic_string@DU?$char_traits@D@std@@V?$allocator@D@2@@std@@XZ@4V56@B 	 DATA
	?s_v@?1??s_class@obj_list@rroot@tools@@SAAEBV?$basic_string@DU?$char_traits@D@std@@V?$allocator@D@2@@std@@XZ@4V56@B 	 DATA
	?s_v@?1??s_class@ortho@sg@tools@@SAAEBV?$basic_string@DU?$char_traits@D@std@@V?$allocator@D@2@@std@@XZ@4V56@B 	 DATA
	?s_v@?1??s_class@p1d2plot@sg@tools@@SAAEBV?$basic_string@DU?$char_traits@D@std@@V?$allocator@D@2@@std@@XZ@4V56@B 	 DATA
	?s_v@?1??s_class@p1d@histo@tools@@SAAEBV?$basic_string@DU?$char_traits@D@std@@V?$allocator@D@2@@std@@XZ@4V56@B 	 DATA
	?s_v@?1??s_class@p2d@histo@tools@@SAAEBV?$basic_string@DU?$char_traits@D@std@@V?$allocator@D@2@@std@@XZ@4V56@B 	 DATA
	?s_v@?1??s_class@plots@sg@tools@@SAAEBV?$basic_string@DU?$char_traits@D@std@@V?$allocator@D@2@@std@@XZ@4V56@B 	 DATA
	?s_v@?1??s_class@plots_viewer@sg@tools@@SAAEBV?$basic_string@DU?$char_traits@D@std@@V?$allocator@D@2@@std@@XZ@4V56@B 	 DATA
	?s_v@?1??s_class@plottable@sg@tools@@SAAEBV?$basic_string@DU?$char_traits@D@std@@V?$allocator@D@2@@std@@XZ@4V56@B 	 DATA
	?s_v@?1??s_class@plottable_box@sg@tools@@SAAEBV?$basic_string@DU?$char_traits@D@std@@V?$allocator@D@2@@std@@XZ@4V56@B 	 DATA
	?s_v@?1??s_class@plottable_ellipse@sg@tools@@SAAEBV?$basic_string@DU?$char_traits@D@std@@V?$allocator@D@2@@std@@XZ@4V56@B 	 DATA
	?s_v@?1??s_class@plottable_img@sg@tools@@SAAEBV?$basic_string@DU?$char_traits@D@std@@V?$allocator@D@2@@std@@XZ@4V56@B 	 DATA
	?s_v@?1??s_class@plottable_text@sg@tools@@SAAEBV?$basic_string@DU?$char_traits@D@std@@V?$allocator@D@2@@std@@XZ@4V56@B 	 DATA
	?s_v@?1??s_class@plotter@sg@tools@@SAAEBV?$basic_string@DU?$char_traits@D@std@@V?$allocator@D@2@@std@@XZ@4V56@B 	 DATA
	?s_v@?1??s_class@points2D@sg@tools@@SAAEBV?$basic_string@DU?$char_traits@D@std@@V?$allocator@D@2@@std@@XZ@4V56@B 	 DATA
	?s_v@?1??s_class@points3D@sg@tools@@SAAEBV?$basic_string@DU?$char_traits@D@std@@V?$allocator@D@2@@std@@XZ@4V56@B 	 DATA
	?s_v@?1??s_class@rbuf@rroot@tools@@CAAEBV?$basic_string@DU?$char_traits@D@std@@V?$allocator@D@2@@std@@XZ@4V56@B 	 DATA
	?s_v@?1??s_class@rgba@sg@tools@@SAAEBV?$basic_string@DU?$char_traits@D@std@@V?$allocator@D@2@@std@@XZ@4V56@B 	 DATA
	?s_v@?1??s_class@separator@sg@tools@@SAAEBV?$basic_string@DU?$char_traits@D@std@@V?$allocator@D@2@@std@@XZ@4V56@B 	 DATA
	?s_v@?1??s_class@sf_mat4f@sg@tools@@SAAEBV?$basic_string@DU?$char_traits@D@std@@V?$allocator@D@2@@std@@XZ@4V56@B 	 DATA
	?s_v@?1??s_class@sf_rotf@sg@tools@@SAAEBV?$basic_string@DU?$char_traits@D@std@@V?$allocator@D@2@@std@@XZ@4V56@B 	 DATA
	?s_v@?1??s_class@sf_string@sg@tools@@SAAEBV?$basic_string@DU?$char_traits@D@std@@V?$allocator@D@2@@std@@XZ@4V56@B 	 DATA
	?s_v@?1??s_class@sf_vec3f@sg@tools@@SAAEBV?$basic_string@DU?$char_traits@D@std@@V?$allocator@D@2@@std@@XZ@4V56@B 	 DATA
	?s_v@?1??s_class@sf_vec4f@sg@tools@@SAAEBV?$basic_string@DU?$char_traits@D@std@@V?$allocator@D@2@@std@@XZ@4V56@B 	 DATA
	?s_v@?1??s_class@stl_vector_string@rroot@tools@@SAAEBV?$basic_string@DU?$char_traits@D@std@@V?$allocator@D@2@@std@@XZ@4V56@B 	 DATA
	?s_v@?1??s_class@streamer_element@rroot@tools@@SAAEBV?$basic_string@DU?$char_traits@D@std@@V?$allocator@D@2@@std@@XZ@4V56@B 	 DATA
	?s_v@?1??s_class@streamer_info@rroot@tools@@SAAEBV?$basic_string@DU?$char_traits@D@std@@V?$allocator@D@2@@std@@XZ@4V56@B 	 DATA
	?s_v@?1??s_class@style@sg@tools@@SAAEBV?$basic_string@DU?$char_traits@D@std@@V?$allocator@D@2@@std@@XZ@4V56@B 	 DATA
	?s_v@?1??s_class@tex_rect@sg@tools@@SAAEBV?$basic_string@DU?$char_traits@D@std@@V?$allocator@D@2@@std@@XZ@4V56@B 	 DATA
	?s_v@?1??s_class@text@sg@tools@@SAAEBV?$basic_string@DU?$char_traits@D@std@@V?$allocator@D@2@@std@@XZ@4V56@B 	 DATA
	?s_v@?1??s_class@text_hershey@sg@tools@@SAAEBV?$basic_string@DU?$char_traits@D@std@@V?$allocator@D@2@@std@@XZ@4V56@B 	 DATA
	?s_v@?1??s_class@text_style@sg@tools@@SAAEBV?$basic_string@DU?$char_traits@D@std@@V?$allocator@D@2@@std@@XZ@4V56@B 	 DATA
	?s_v@?1??s_class@text_valop@sg@tools@@SAAEBV?$basic_string@DU?$char_traits@D@std@@V?$allocator@D@2@@std@@XZ@4V56@B 	 DATA
	?s_v@?1??s_class@torche@sg@tools@@SAAEBV?$basic_string@DU?$char_traits@D@std@@V?$allocator@D@2@@std@@XZ@4V56@B 	 DATA
	?s_v@?1??s_class@tree@rroot@tools@@SAAEBV?$basic_string@DU?$char_traits@D@std@@V?$allocator@D@2@@std@@XZ@4V56@B 	 DATA
	?s_v@?1??s_class@tree@xml@tools@@SAAEBV?$basic_string@DU?$char_traits@D@std@@V?$allocator@D@2@@std@@XZ@4V56@B 	 DATA
	?s_v@?1??s_class@tree_index@rroot@tools@@SAAEBV?$basic_string@DU?$char_traits@D@std@@V?$allocator@D@2@@std@@XZ@4V56@B 	 DATA
	?s_v@?1??s_class@vec2f@tools@@SAAEBV?$basic_string@DU?$char_traits@D@std@@V?$allocator@D@2@@std@@XZ@4V45@B 	 DATA
	?s_v@?1??s_class@vec3f@tools@@SAAEBV?$basic_string@DU?$char_traits@D@std@@V?$allocator@D@2@@std@@XZ@4V45@B 	 DATA
	?s_v@?1??s_class@vec4f@tools@@SAAEBV?$basic_string@DU?$char_traits@D@std@@V?$allocator@D@2@@std@@XZ@4V45@B 	 DATA
	?s_v@?1??s_class@vector3@rroot@tools@@SAAEBV?$basic_string@DU?$char_traits@D@std@@V?$allocator@D@2@@std@@XZ@4V56@B 	 DATA
	?s_v@?1??s_class@vertices@sg@tools@@SAAEBV?$basic_string@DU?$char_traits@D@std@@V?$allocator@D@2@@std@@XZ@4V56@B 	 DATA
	?s_v@?1??s_class@viewer@sg@tools@@SAAEBV?$basic_string@DU?$char_traits@D@std@@V?$allocator@D@2@@std@@XZ@4V56@B 	 DATA
	?s_v@?1??s_class@violet_to_red_colormap@sg@tools@@SAAEBV?$basic_string@DU?$char_traits@D@std@@V?$allocator@D@2@@std@@XZ@4V56@B 	 DATA
	?s_v@?1??s_class@wbuf@wroot@tools@@CAAEBV?$basic_string@DU?$char_traits@D@std@@V?$allocator@D@2@@std@@XZ@4V56@B 	 DATA
	?s_v@?1??s_class@zb_manager@sg@tools@@SAAEBV?$basic_string@DU?$char_traits@D@std@@V?$allocator@D@2@@std@@XZ@4V56@B 	 DATA
	?s_v@?1??s_cloud1d@aidas@xml@tools@@KAAEBV?$basic_string@DU?$char_traits@D@std@@V?$allocator@D@2@@std@@XZ@4V56@B 	 DATA
	?s_v@?1??s_cloud2d@aidas@xml@tools@@KAAEBV?$basic_string@DU?$char_traits@D@std@@V?$allocator@D@2@@std@@XZ@4V56@B 	 DATA
	?s_v@?1??s_cloud3d@aidas@xml@tools@@KAAEBV?$basic_string@DU?$char_traits@D@std@@V?$allocator@D@2@@std@@XZ@4V56@B 	 DATA
	?s_v@?1??s_columns@aidas@xml@tools@@KAAEBV?$basic_string@DU?$char_traits@D@std@@V?$allocator@D@2@@std@@XZ@4V56@B 	 DATA
	?s_v@?1??s_data1d@aidas@xml@tools@@KAAEBV?$basic_string@DU?$char_traits@D@std@@V?$allocator@D@2@@std@@XZ@4V56@B 	 DATA
	?s_v@?1??s_data2d@aidas@xml@tools@@KAAEBV?$basic_string@DU?$char_traits@D@std@@V?$allocator@D@2@@std@@XZ@4V56@B 	 DATA
	?s_v@?1??s_data3d@aidas@xml@tools@@KAAEBV?$basic_string@DU?$char_traits@D@std@@V?$allocator@D@2@@std@@XZ@4V56@B 	 DATA
	?s_v@?1??s_dataPoint@aidas@xml@tools@@KAAEBV?$basic_string@DU?$char_traits@D@std@@V?$allocator@D@2@@std@@XZ@4V56@B 	 DATA
	?s_v@?1??s_dataPointSet@aidas@xml@tools@@KAAEBV?$basic_string@DU?$char_traits@D@std@@V?$allocator@D@2@@std@@XZ@4V56@B 	 DATA
	?s_v@?1??s_default@aidas@xml@tools@@KAAEBV?$basic_string@DU?$char_traits@D@std@@V?$allocator@D@2@@std@@XZ@4V56@B 	 DATA
	?s_v@?1??s_default@style_default_colormap@sg@tools@@SAAEBV?$basic_string@DU?$char_traits@D@std@@V?$allocator@D@2@@std@@XZ@4V56@B 	 DATA
	?s_v@?1??s_dimension@aidas@xml@tools@@KAAEBV?$basic_string@DU?$char_traits@D@std@@V?$allocator@D@2@@std@@XZ@4V56@B 	 DATA
	?s_v@?1??s_direction@aidas@xml@tools@@KAAEBV?$basic_string@DU?$char_traits@D@std@@V?$allocator@D@2@@std@@XZ@4V56@B 	 DATA
	?s_v@?1??s_empty@value@tools@@CAAEBV?$basic_string@DU?$char_traits@D@std@@V?$allocator@D@2@@std@@XZ@4V45@B 	 DATA
	?s_v@?1??s_entries1d@aidas@xml@tools@@KAAEBV?$basic_string@DU?$char_traits@D@std@@V?$allocator@D@2@@std@@XZ@4V56@B 	 DATA
	?s_v@?1??s_entries2d@aidas@xml@tools@@KAAEBV?$basic_string@DU?$char_traits@D@std@@V?$allocator@D@2@@std@@XZ@4V56@B 	 DATA
	?s_v@?1??s_entries3d@aidas@xml@tools@@KAAEBV?$basic_string@DU?$char_traits@D@std@@V?$allocator@D@2@@std@@XZ@4V56@B 	 DATA
	?s_v@?1??s_entries@aidas@xml@tools@@KAAEBV?$basic_string@DU?$char_traits@D@std@@V?$allocator@D@2@@std@@XZ@4V56@B 	 DATA
	?s_v@?1??s_entry1d@aidas@xml@tools@@KAAEBV?$basic_string@DU?$char_traits@D@std@@V?$allocator@D@2@@std@@XZ@4V56@B 	 DATA
	?s_v@?1??s_entry2d@aidas@xml@tools@@KAAEBV?$basic_string@DU?$char_traits@D@std@@V?$allocator@D@2@@std@@XZ@4V56@B 	 DATA
	?s_v@?1??s_entry3d@aidas@xml@tools@@KAAEBV?$basic_string@DU?$char_traits@D@std@@V?$allocator@D@2@@std@@XZ@4V56@B 	 DATA
	?s_v@?1??s_entry@aidas@xml@tools@@KAAEBV?$basic_string@DU?$char_traits@D@std@@V?$allocator@D@2@@std@@XZ@4V56@B 	 DATA
	?s_v@?1??s_entryITuple@aidas@xml@tools@@KAAEBV?$basic_string@DU?$char_traits@D@std@@V?$allocator@D@2@@std@@XZ@4V56@B 	 DATA
	?s_v@?1??s_entryTuple@aidas@xml@tools@@KAAEBV?$basic_string@DU?$char_traits@D@std@@V?$allocator@D@2@@std@@XZ@4V56@B 	 DATA
	?s_v@?1??s_error@aidas@xml@tools@@KAAEBV?$basic_string@DU?$char_traits@D@std@@V?$allocator@D@2@@std@@XZ@4V56@B 	 DATA
	?s_v@?1??s_errorMinus@aidas@xml@tools@@KAAEBV?$basic_string@DU?$char_traits@D@std@@V?$allocator@D@2@@std@@XZ@4V56@B 	 DATA
	?s_v@?1??s_errorPlus@aidas@xml@tools@@KAAEBV?$basic_string@DU?$char_traits@D@std@@V?$allocator@D@2@@std@@XZ@4V56@B 	 DATA
	?s_v@?1??s_font_filled@sg@tools@@YAAEBV?$basic_string@DU?$char_traits@D@std@@V?$allocator@D@2@@std@@XZ@4V45@B 	 DATA
	?s_v@?1??s_font_outline@sg@tools@@YAAEBV?$basic_string@DU?$char_traits@D@std@@V?$allocator@D@2@@std@@XZ@4V45@B 	 DATA
	?s_v@?1??s_font_pixmap@sg@tools@@YAAEBV?$basic_string@DU?$char_traits@D@std@@V?$allocator@D@2@@std@@XZ@4V45@B 	 DATA
	?s_v@?1??s_gamma@tools@@YAAEBV?$basic_string@DU?$char_traits@D@std@@V?$allocator@D@2@@std@@XZ@4V34@B 	 DATA
	?s_v@?1??s_h_bar@tools@@YAAEBV?$basic_string@DU?$char_traits@D@std@@V?$allocator@D@2@@std@@XZ@4V34@B 	 DATA
	?s_v@?1??s_height@aidas@xml@tools@@KAAEBV?$basic_string@DU?$char_traits@D@std@@V?$allocator@D@2@@std@@XZ@4V56@B 	 DATA
	?s_v@?1??s_histogram1d@aidas@xml@tools@@KAAEBV?$basic_string@DU?$char_traits@D@std@@V?$allocator@D@2@@std@@XZ@4V56@B 	 DATA
	?s_v@?1??s_histogram2d@aidas@xml@tools@@KAAEBV?$basic_string@DU?$char_traits@D@std@@V?$allocator@D@2@@std@@XZ@4V56@B 	 DATA
	?s_v@?1??s_histogram3d@aidas@xml@tools@@KAAEBV?$basic_string@DU?$char_traits@D@std@@V?$allocator@D@2@@std@@XZ@4V56@B 	 DATA
	?s_v@?1??s_infos_what_def@plotter@sg@tools@@CAAEBV?$basic_string@DU?$char_traits@D@std@@V?$allocator@D@2@@std@@XZ@4V56@B 	 DATA
	?s_v@?1??s_max@aidas@xml@tools@@KAAEBV?$basic_string@DU?$char_traits@D@std@@V?$allocator@D@2@@std@@XZ@4V56@B 	 DATA
	?s_v@?1??s_maxEntries@aidas@xml@tools@@KAAEBV?$basic_string@DU?$char_traits@D@std@@V?$allocator@D@2@@std@@XZ@4V56@B 	 DATA
	?s_v@?1??s_mean@aidas@xml@tools@@KAAEBV?$basic_string@DU?$char_traits@D@std@@V?$allocator@D@2@@std@@XZ@4V56@B 	 DATA
	?s_v@?1??s_measurement@aidas@xml@tools@@KAAEBV?$basic_string@DU?$char_traits@D@std@@V?$allocator@D@2@@std@@XZ@4V56@B 	 DATA
	?s_v@?1??s_min@aidas@xml@tools@@KAAEBV?$basic_string@DU?$char_traits@D@std@@V?$allocator@D@2@@std@@XZ@4V56@B 	 DATA
	?s_v@?1??s_mu@tools@@YAAEBV?$basic_string@DU?$char_traits@D@std@@V?$allocator@D@2@@std@@XZ@4V34@B 	 DATA
	?s_v@?1??s_name@aidas@xml@tools@@KAAEBV?$basic_string@DU?$char_traits@D@std@@V?$allocator@D@2@@std@@XZ@4V56@B 	 DATA
	?s_v@?1??s_numberOfBins@aidas@xml@tools@@KAAEBV?$basic_string@DU?$char_traits@D@std@@V?$allocator@D@2@@std@@XZ@4V56@B 	 DATA
	?s_v@?1??s_partial_derivative@tools@@YAAEBV?$basic_string@DU?$char_traits@D@std@@V?$allocator@D@2@@std@@XZ@4V34@B 	 DATA
	?s_v@?1??s_path@aidas@xml@tools@@KAAEBV?$basic_string@DU?$char_traits@D@std@@V?$allocator@D@2@@std@@XZ@4V56@B 	 DATA
	?s_v@?1??s_pow@tools@@YAAEBV?$basic_string@DU?$char_traits@D@std@@V?$allocator@D@2@@std@@XZ@4V34@B 	 DATA
	?s_v@?1??s_profile1d@aidas@xml@tools@@KAAEBV?$basic_string@DU?$char_traits@D@std@@V?$allocator@D@2@@std@@XZ@4V56@B 	 DATA
	?s_v@?1??s_profile2d@aidas@xml@tools@@KAAEBV?$basic_string@DU?$char_traits@D@std@@V?$allocator@D@2@@std@@XZ@4V56@B 	 DATA
	?s_v@?1??s_psi@tools@@YAAEBV?$basic_string@DU?$char_traits@D@std@@V?$allocator@D@2@@std@@XZ@4V34@B 	 DATA
	?s_v@?1??s_rms@aidas@xml@tools@@KAAEBV?$basic_string@DU?$char_traits@D@std@@V?$allocator@D@2@@std@@XZ@4V56@B 	 DATA
	?s_v@?1??s_row@aidas@xml@tools@@KAAEBV?$basic_string@DU?$char_traits@D@std@@V?$allocator@D@2@@std@@XZ@4V56@B 	 DATA
	?s_v@?1??s_rows@aidas@xml@tools@@KAAEBV?$basic_string@DU?$char_traits@D@std@@V?$allocator@D@2@@std@@XZ@4V56@B 	 DATA
	?s_v@?1??s_sqrt@tools@@YAAEBV?$basic_string@DU?$char_traits@D@std@@V?$allocator@D@2@@std@@XZ@4V34@B 	 DATA
	?s_v@?1??s_statistic@aidas@xml@tools@@KAAEBV?$basic_string@DU?$char_traits@D@std@@V?$allocator@D@2@@std@@XZ@4V56@B 	 DATA
	?s_v@?1??s_statistics@aidas@xml@tools@@KAAEBV?$basic_string@DU?$char_traits@D@std@@V?$allocator@D@2@@std@@XZ@4V56@B 	 DATA
	?s_v@?1??s_store_class@?$obj_array@Vbase_leaf@rroot@tools@@@rroot@tools@@CAAEBV?$basic_string@DU?$char_traits@D@std@@V?$allocator@D@2@@std@@XZ@4V56@B 	 DATA
	?s_v@?1??s_store_class@?$obj_array@Vbasket@rroot@tools@@@rroot@tools@@CAAEBV?$basic_string@DU?$char_traits@D@std@@V?$allocator@D@2@@std@@XZ@4V56@B 	 DATA
	?s_v@?1??s_store_class@?$obj_array@Vbranch@rroot@tools@@@rroot@tools@@CAAEBV?$basic_string@DU?$char_traits@D@std@@V?$allocator@D@2@@std@@XZ@4V56@B 	 DATA
	?s_v@?1??s_store_class@?$obj_array@Vstreamer_element@rroot@tools@@@rroot@tools@@CAAEBV?$basic_string@DU?$char_traits@D@std@@V?$allocator@D@2@@std@@XZ@4V56@B 	 DATA
	?s_v@?1??s_store_class@?$stl_vector@F@rroot@tools@@CAAEBV?$basic_string@DU?$char_traits@D@std@@V?$allocator@D@2@@std@@XZ@4V56@B 	 DATA
	?s_v@?1??s_store_class@?$stl_vector@G@rroot@tools@@CAAEBV?$basic_string@DU?$char_traits@D@std@@V?$allocator@D@2@@std@@XZ@4V56@B 	 DATA
	?s_v@?1??s_store_class@?$stl_vector@H@rroot@tools@@CAAEBV?$basic_string@DU?$char_traits@D@std@@V?$allocator@D@2@@std@@XZ@4V56@B 	 DATA
	?s_v@?1??s_store_class@?$stl_vector@I@rroot@tools@@CAAEBV?$basic_string@DU?$char_traits@D@std@@V?$allocator@D@2@@std@@XZ@4V56@B 	 DATA
	?s_v@?1??s_store_class@?$stl_vector@M@rroot@tools@@CAAEBV?$basic_string@DU?$char_traits@D@std@@V?$allocator@D@2@@std@@XZ@4V56@B 	 DATA
	?s_v@?1??s_store_class@?$stl_vector@N@rroot@tools@@CAAEBV?$basic_string@DU?$char_traits@D@std@@V?$allocator@D@2@@std@@XZ@4V56@B 	 DATA
	?s_v@?1??s_store_class@?$stl_vector@_K@rroot@tools@@CAAEBV?$basic_string@DU?$char_traits@D@std@@V?$allocator@D@2@@std@@XZ@4V56@B 	 DATA
	?s_v@?1??s_store_class@?$stl_vector_vector@F@rroot@tools@@CAAEBV?$basic_string@DU?$char_traits@D@std@@V?$allocator@D@2@@std@@XZ@4V56@B 	 DATA
	?s_v@?1??s_store_class@?$stl_vector_vector@G@rroot@tools@@CAAEBV?$basic_string@DU?$char_traits@D@std@@V?$allocator@D@2@@std@@XZ@4V56@B 	 DATA
	?s_v@?1??s_store_class@?$stl_vector_vector@H@rroot@tools@@CAAEBV?$basic_string@DU?$char_traits@D@std@@V?$allocator@D@2@@std@@XZ@4V56@B 	 DATA
	?s_v@?1??s_store_class@?$stl_vector_vector@I@rroot@tools@@CAAEBV?$basic_string@DU?$char_traits@D@std@@V?$allocator@D@2@@std@@XZ@4V56@B 	 DATA
	?s_v@?1??s_store_class@?$stl_vector_vector@M@rroot@tools@@CAAEBV?$basic_string@DU?$char_traits@D@std@@V?$allocator@D@2@@std@@XZ@4V56@B 	 DATA
	?s_v@?1??s_store_class@?$stl_vector_vector@N@rroot@tools@@CAAEBV?$basic_string@DU?$char_traits@D@std@@V?$allocator@D@2@@std@@XZ@4V56@B 	 DATA
	?s_v@?1??s_store_class@graph@rroot@tools@@CAAEBV?$basic_string@DU?$char_traits@D@std@@V?$allocator@D@2@@std@@XZ@4V56@B 	 DATA
	?s_v@?1??s_store_class@iros@rroot@tools@@SAAEBV?$basic_string@DU?$char_traits@D@std@@V?$allocator@D@2@@std@@XZ@4V56@B 	 DATA
	?s_v@?1??s_store_class@leaf_element@rroot@tools@@CAAEBV?$basic_string@DU?$char_traits@D@std@@V?$allocator@D@2@@std@@XZ@4V56@B 	 DATA
	?s_v@?1??s_store_class@leaf_object@rroot@tools@@CAAEBV?$basic_string@DU?$char_traits@D@std@@V?$allocator@D@2@@std@@XZ@4V56@B 	 DATA
	?s_v@?1??s_store_class@leaf_string@rroot@tools@@CAAEBV?$basic_string@DU?$char_traits@D@std@@V?$allocator@D@2@@std@@XZ@4V56@B 	 DATA
	?s_v@?1??s_store_class@matrix@rroot@tools@@CAAEBV?$basic_string@DU?$char_traits@D@std@@V?$allocator@D@2@@std@@XZ@4V56@B 	 DATA
	?s_v@?1??s_store_class@obj_list@rroot@tools@@SAAEBV?$basic_string@DU?$char_traits@D@std@@V?$allocator@D@2@@std@@XZ@4V56@B 	 DATA
	?s_v@?1??s_store_class@stl_vector_string@rroot@tools@@CAAEBV?$basic_string@DU?$char_traits@D@std@@V?$allocator@D@2@@std@@XZ@4V56@B 	 DATA
	?s_v@?1??s_store_class@streamer_element@rroot@tools@@CAAEBV?$basic_string@DU?$char_traits@D@std@@V?$allocator@D@2@@std@@XZ@4V56@B 	 DATA
	?s_v@?1??s_store_class@streamer_info@rroot@tools@@CAAEBV?$basic_string@DU?$char_traits@D@std@@V?$allocator@D@2@@std@@XZ@4V56@B 	 DATA
	?s_v@?1??s_store_class@tree_index@rroot@tools@@CAAEBV?$basic_string@DU?$char_traits@D@std@@V?$allocator@D@2@@std@@XZ@4V56@B 	 DATA
	?s_v@?1??s_store_class@vector3@rroot@tools@@CAAEBV?$basic_string@DU?$char_traits@D@std@@V?$allocator@D@2@@std@@XZ@4V56@B 	 DATA
	?s_v@?1??s_title@aidas@xml@tools@@KAAEBV?$basic_string@DU?$char_traits@D@std@@V?$allocator@D@2@@std@@XZ@4V56@B 	 DATA
	?s_v@?1??s_tools_sg_fit2plot@sg@tools@@YAAEBV?$basic_string@DU?$char_traits@D@std@@V?$allocator@D@2@@std@@XZ@4V45@B 	 DATA
	?s_v@?1??s_tuple@aidas@xml@tools@@KAAEBV?$basic_string@DU?$char_traits@D@std@@V?$allocator@D@2@@std@@XZ@4V56@B 	 DATA
	?s_v@?1??s_type@aidas@xml@tools@@KAAEBV?$basic_string@DU?$char_traits@D@std@@V?$allocator@D@2@@std@@XZ@4V56@B 	 DATA
	?s_v@?1??s_upper_delta@tools@@YAAEBV?$basic_string@DU?$char_traits@D@std@@V?$allocator@D@2@@std@@XZ@4V34@B 	 DATA
	?s_v@?1??s_value@aidas@xml@tools@@KAAEBV?$basic_string@DU?$char_traits@D@std@@V?$allocator@D@2@@std@@XZ@4V56@B 	 DATA
	?s_v@?1??s_valueX@aidas@xml@tools@@KAAEBV?$basic_string@DU?$char_traits@D@std@@V?$allocator@D@2@@std@@XZ@4V56@B 	 DATA
	?s_v@?1??s_valueY@aidas@xml@tools@@KAAEBV?$basic_string@DU?$char_traits@D@std@@V?$allocator@D@2@@std@@XZ@4V56@B 	 DATA
	?s_v@?1??s_valueZ@aidas@xml@tools@@KAAEBV?$basic_string@DU?$char_traits@D@std@@V?$allocator@D@2@@std@@XZ@4V56@B 	 DATA
	?s_v@?1??s_weight@aidas@xml@tools@@KAAEBV?$basic_string@DU?$char_traits@D@std@@V?$allocator@D@2@@std@@XZ@4V56@B 	 DATA
	?s_v@?1??s_weightedMean@aidas@xml@tools@@KAAEBV?$basic_string@DU?$char_traits@D@std@@V?$allocator@D@2@@std@@XZ@4V56@B 	 DATA
	?s_v@?1??s_weightedMeanX@aidas@xml@tools@@KAAEBV?$basic_string@DU?$char_traits@D@std@@V?$allocator@D@2@@std@@XZ@4V56@B 	 DATA
	?s_v@?1??s_weightedMeanY@aidas@xml@tools@@KAAEBV?$basic_string@DU?$char_traits@D@std@@V?$allocator@D@2@@std@@XZ@4V56@B 	 DATA
	?s_v@?1??s_weightedMeanZ@aidas@xml@tools@@KAAEBV?$basic_string@DU?$char_traits@D@std@@V?$allocator@D@2@@std@@XZ@4V56@B 	 DATA
	?s_v@?1??s_weightedRms@aidas@xml@tools@@KAAEBV?$basic_string@DU?$char_traits@D@std@@V?$allocator@D@2@@std@@XZ@4V56@B 	 DATA
	?s_v@?1??s_weightedRmsX@aidas@xml@tools@@KAAEBV?$basic_string@DU?$char_traits@D@std@@V?$allocator@D@2@@std@@XZ@4V56@B 	 DATA
	?s_v@?1??s_weightedRmsY@aidas@xml@tools@@KAAEBV?$basic_string@DU?$char_traits@D@std@@V?$allocator@D@2@@std@@XZ@4V56@B 	 DATA
	?s_v@?1??s_weightedRmsZ@aidas@xml@tools@@KAAEBV?$basic_string@DU?$char_traits@D@std@@V?$allocator@D@2@@std@@XZ@4V56@B 	 DATA
	?s_v@?1??store_class_name@tree@rroot@tools@@UEBAAEBV?$basic_string@DU?$char_traits@D@std@@V?$allocator@D@2@@std@@XZ@4V56@B 	 DATA
	?s_v@?1??store_class_name@tree@wroot@tools@@UEBAAEBV?$basic_string@DU?$char_traits@D@std@@V?$allocator@D@2@@std@@XZ@4V56@B 	 DATA
	?s_v@?1??store_cls@?$obj_array@Vbase_leaf@wroot@tools@@@wroot@tools@@UEBAAEBV?$basic_string@DU?$char_traits@D@std@@V?$allocator@D@2@@std@@XZ@4V56@B 	 DATA
	?s_v@?1??store_cls@?$obj_array@Vbasket@wroot@tools@@@wroot@tools@@UEBAAEBV?$basic_string@DU?$char_traits@D@std@@V?$allocator@D@2@@std@@XZ@4V56@B 	 DATA
	?s_v@?1??store_cls@?$obj_array@Vbranch@wroot@tools@@@wroot@tools@@UEBAAEBV?$basic_string@DU?$char_traits@D@std@@V?$allocator@D@2@@std@@XZ@4V56@B 	 DATA
	?s_v@?1??store_cls@?$obj_array@Vstreamer_element@wroot@tools@@@wroot@tools@@UEBAAEBV?$basic_string@DU?$char_traits@D@std@@V?$allocator@D@2@@std@@XZ@4V56@B 	 DATA
	?s_v@?1??store_cls@?$obj_list@Vstreamer_info@wroot@tools@@@wroot@tools@@UEBAAEBV?$basic_string@DU?$char_traits@D@std@@V?$allocator@D@2@@std@@XZ@4V56@B 	 DATA
	?s_v@?1??store_cls@basket@wroot@tools@@UEBAAEBV?$basic_string@DU?$char_traits@D@std@@V?$allocator@D@2@@std@@XZ@4V56@B 	 DATA
	?s_v@?1??store_cls@branch@wroot@tools@@UEBAAEBV?$basic_string@DU?$char_traits@D@std@@V?$allocator@D@2@@std@@XZ@4V56@B 	 DATA
	?s_v@?1??store_cls@streamer_STL@wroot@tools@@UEBAAEBV?$basic_string@DU?$char_traits@D@std@@V?$allocator@D@2@@std@@XZ@4V56@B 	 DATA
	?s_v@?1??store_cls@streamer_base@wroot@tools@@UEBAAEBV?$basic_string@DU?$char_traits@D@std@@V?$allocator@D@2@@std@@XZ@4V56@B 	 DATA
	?s_v@?1??store_cls@streamer_basic_pointer@wroot@tools@@UEBAAEBV?$basic_string@DU?$char_traits@D@std@@V?$allocator@D@2@@std@@XZ@4V56@B 	 DATA
	?s_v@?1??store_cls@streamer_basic_type@wroot@tools@@UEBAAEBV?$basic_string@DU?$char_traits@D@std@@V?$allocator@D@2@@std@@XZ@4V56@B 	 DATA
	?s_v@?1??store_cls@streamer_element@wroot@tools@@UEBAAEBV?$basic_string@DU?$char_traits@D@std@@V?$allocator@D@2@@std@@XZ@4V56@B 	 DATA
	?s_v@?1??store_cls@streamer_info@wroot@tools@@UEBAAEBV?$basic_string@DU?$char_traits@D@std@@V?$allocator@D@2@@std@@XZ@4V56@B 	 DATA
	?s_v@?1??store_cls@streamer_object@wroot@tools@@UEBAAEBV?$basic_string@DU?$char_traits@D@std@@V?$allocator@D@2@@std@@XZ@4V56@B 	 DATA
	?s_v@?1??store_cls@streamer_object_any@wroot@tools@@UEBAAEBV?$basic_string@DU?$char_traits@D@std@@V?$allocator@D@2@@std@@XZ@4V56@B 	 DATA
	?s_v@?1??store_cls@streamer_object_pointer@wroot@tools@@UEBAAEBV?$basic_string@DU?$char_traits@D@std@@V?$allocator@D@2@@std@@XZ@4V56@B 	 DATA
	?s_v@?1??store_cls@streamer_string@wroot@tools@@UEBAAEBV?$basic_string@DU?$char_traits@D@std@@V?$allocator@D@2@@std@@XZ@4V56@B 	 DATA
	?s_v@?1??stype@tools@@YAAEBV?$basic_string@DU?$char_traits@D@std@@V?$allocator@D@2@@std@@AEBV34@@Z@4V34@B 	 DATA
	?s_v@?1??stype@tools@@YAAEBV?$basic_string@DU?$char_traits@D@std@@V?$allocator@D@2@@std@@AEBVmat4f@2@@Z@4V34@B 	 DATA
	?s_v@?1??stype@tools@@YAAEBV?$basic_string@DU?$char_traits@D@std@@V?$allocator@D@2@@std@@D@Z@4V34@B 	 DATA
	?s_v@?1??stype@tools@@YAAEBV?$basic_string@DU?$char_traits@D@std@@V?$allocator@D@2@@std@@E@Z@4V34@B 	 DATA
	?s_v@?1??stype@tools@@YAAEBV?$basic_string@DU?$char_traits@D@std@@V?$allocator@D@2@@std@@F@Z@4V34@B 	 DATA
	?s_v@?1??stype@tools@@YAAEBV?$basic_string@DU?$char_traits@D@std@@V?$allocator@D@2@@std@@G@Z@4V34@B 	 DATA
	?s_v@?1??stype@tools@@YAAEBV?$basic_string@DU?$char_traits@D@std@@V?$allocator@D@2@@std@@H@Z@4V34@B 	 DATA
	?s_v@?1??stype@tools@@YAAEBV?$basic_string@DU?$char_traits@D@std@@V?$allocator@D@2@@std@@I@Z@4V34@B 	 DATA
	?s_v@?1??stype@tools@@YAAEBV?$basic_string@DU?$char_traits@D@std@@V?$allocator@D@2@@std@@M@Z@4V34@B 	 DATA
	?s_v@?1??stype@tools@@YAAEBV?$basic_string@DU?$char_traits@D@std@@V?$allocator@D@2@@std@@N@Z@4V34@B 	 DATA
	?s_v@?1??stype@tools@@YAAEBV?$basic_string@DU?$char_traits@D@std@@V?$allocator@D@2@@std@@_J@Z@4V34@B 	 DATA
	?s_v@?1??stype@tools@@YAAEBV?$basic_string@DU?$char_traits@D@std@@V?$allocator@D@2@@std@@_K@Z@4V34@B 	 DATA
	?s_v@?1??stype@tools@@YAAEBV?$basic_string@DU?$char_traits@D@std@@V?$allocator@D@2@@std@@_N@Z@4V34@B 	 DATA
	?s_v@?1??tick_modeling_hippo@sg@tools@@YAAEBV?$basic_string@DU?$char_traits@D@std@@V?$allocator@D@2@@std@@XZ@4V45@B 	 DATA
	?s_v@?1??tick_modeling_hplot@sg@tools@@YAAEBV?$basic_string@DU?$char_traits@D@std@@V?$allocator@D@2@@std@@XZ@4V45@B 	 DATA
	?s_v@?1??tick_modeling_none@sg@tools@@YAAEBV?$basic_string@DU?$char_traits@D@std@@V?$allocator@D@2@@std@@XZ@4V45@B 	 DATA
	?s_v@?1??two_to_minus_32@rtausmef@tools@@KAMXZ@4MB 	 DATA
	?s_v@?1??virtual_index_s_store_class@tree_index@rroot@tools@@KAAEBV?$basic_string@DU?$char_traits@D@std@@V?$allocator@D@2@@std@@XZ@4V56@B 	 DATA
	??$?0$$QEAD$$Z$$V@?$pair@$$CBDPEAX@std@@QEAA@Upiecewise_construct_t@1@V?$tuple@$$QEAD@1@V?$tuple@$$V@1@@Z
	??$?0$$QEAI$$Z$$V@?$pair@$$CBIVstyle_color@sg@tools@@@std@@QEAA@Upiecewise_construct_t@1@V?$tuple@$$QEAI@1@V?$tuple@$$V@1@@Z
	??$?0$$QEAPEAVibo@wroot@tools@@$$Z$$V@?$pair@QEAVibo@wroot@tools@@I@std@@QEAA@Upiecewise_construct_t@1@V?$tuple@$$QEAPEAVibo@wroot@tools@@@1@V?$tuple@$$V@1@@Z
	??$?0$$QEAVG4String@@$$Z$$V@?$pair@$$CBVG4String@@PEAV?$basic_ifstream@DU?$char_traits@D@std@@@std@@@std@@QEAA@Upiecewise_construct_t@1@V?$tuple@$$QEAVG4String@@@1@V?$tuple@$$V@1@@Z
	??$?0$$QEAVG4String@@$$Z$$V@?$pair@$$CBVG4String@@PEAVfile@rroot@tools@@@std@@QEAA@Upiecewise_construct_t@1@V?$tuple@$$QEAVG4String@@@1@V?$tuple@$$V@1@@Z
	??$?0$$QEAVG4String@@$$Z$$V@?$pair@$$CBVG4String@@PEAVraxml@tools@@@std@@QEAA@Upiecewise_construct_t@1@V?$tuple@$$QEAVG4String@@@1@V?$tuple@$$V@1@@Z
	??$?0AEBD$$Z$$V@?$pair@$$CBDP6A_NAEAV?$basic_ostream@DU?$char_traits@D@std@@@std@@IIPEBDIPEADAEAI@Z@std@@QEAA@Upiecewise_construct_t@1@V?$tuple@AEBD@1@V?$tuple@$$V@1@@Z
	??$?0AEBD$$Z$$V@?$pair@$$CBDP6A_NAEAV?$basic_ostream@DU?$char_traits@D@std@@@std@@IPEBDIPEADAEAI@Z@std@@QEAA@Upiecewise_construct_t@1@V?$tuple@AEBD@1@V?$tuple@$$V@1@@Z
	??$?0AEBI$$Z$$V@?$pair@$$CBIPEAViro@rroot@tools@@@std@@QEAA@Upiecewise_construct_t@1@V?$tuple@AEBI@1@V?$tuple@$$V@1@@Z
	??$?0AEBI$$Z$$V@?$pair@$$CBIU?$pair@PEAVbasket@rroot@tools@@_N@std@@@std@@QEAA@Upiecewise_construct_t@1@V?$tuple@AEBI@1@V?$tuple@$$V@1@@Z
	??$?0AEBI$$Z$$V@?$pair@$$CBIV?$img@E@tools@@@std@@QEAA@Upiecewise_construct_t@1@V?$tuple@AEBI@1@V?$tuple@$$V@1@@Z
	??$?0AEBI$$Z$$V@?$pair@$$CBIVcolorf@tools@@@std@@QEAA@Upiecewise_construct_t@1@V?$tuple@AEBI@1@V?$tuple@$$V@1@@Z
	??$?0AEBQEAVntuple@aida@tools@@$$Z$$V@?$pair@QEAVntuple@aida@tools@@PEAV?$vector@HV?$allocator@H@std@@@std@@@std@@QEAA@Upiecewise_construct_t@1@V?$tuple@AEBQEAVntuple@aida@tools@@@1@V?$tuple@$$V@1@@Z
	??$?0AEBQEAVntuple@aida@tools@@$$Z$$V@?$pair@QEAVntuple@aida@tools@@PEAV?$vector@MV?$allocator@M@std@@@std@@@std@@QEAA@Upiecewise_construct_t@1@V?$tuple@AEBQEAVntuple@aida@tools@@@1@V?$tuple@$$V@1@@Z
	??$?0AEBQEAVntuple@aida@tools@@$$Z$$V@?$pair@QEAVntuple@aida@tools@@PEAV?$vector@NV?$allocator@N@std@@@std@@@std@@QEAA@Upiecewise_construct_t@1@V?$tuple@AEBQEAVntuple@aida@tools@@@1@V?$tuple@$$V@1@@Z
	??$?0AEBV?$basic_string@DU?$char_traits@D@std@@V?$allocator@D@2@@std@@$$Z$$V@?$pair@$$CBV?$basic_string@DU?$char_traits@D@std@@V?$allocator@D@2@@std@@I@std@@QEAA@Upiecewise_construct_t@1@V?$tuple@AEBV?$basic_string@DU?$char_traits@D@std@@V?$allocator@D@2@@std@@@1@V?$tuple@$$V@1@@Z
	??$?0AEBV?$basic_string@DU?$char_traits@D@std@@V?$allocator@D@2@@std@@$$Z$$V@?$pair@$$CBV?$basic_string@DU?$char_traits@D@std@@V?$allocator@D@2@@std@@P6A?AVraxml_out@tools@@AEAVtree@xml@4@AEAV?$basic_ostream@DU?$char_traits@D@std@@@2@_NPEAX@Z@std@@QEAA@Upiecewise_construct_t@1@V?$tuple@AEBV?$basic_string@DU?$char_traits@D@std@@V?$allocator@D@2@@std@@@1@V?$tuple@$$V@1@@Z
	??$?0AEBV?$basic_string@DU?$char_traits@D@std@@V?$allocator@D@2@@std@@$$Z$$V@?$pair@$$CBV?$basic_string@DU?$char_traits@D@std@@V?$allocator@D@2@@std@@V12@@std@@QEAA@Upiecewise_construct_t@1@V?$tuple@AEBV?$basic_string@DU?$char_traits@D@std@@V?$allocator@D@2@@std@@@1@V?$tuple@$$V@1@@Z
	??$?0AEBV?$basic_string@DU?$char_traits@D@std@@V?$allocator@D@2@@std@@$$Z$$V@?$pair@$$CBV?$basic_string@DU?$char_traits@D@std@@V?$allocator@D@2@@std@@Vstyle_colormap@sg@tools@@@std@@QEAA@Upiecewise_construct_t@1@V?$tuple@AEBV?$basic_string@DU?$char_traits@D@std@@V?$allocator@D@2@@std@@@1@V?$tuple@$$V@1@@Z
	??$?0AEBVG4String@@$$Z$$V@?$pair@$$CBVG4String@@H@std@@QEAA@Upiecewise_construct_t@1@V?$tuple@AEBVG4String@@@1@V?$tuple@$$V@1@@Z
	??$?0AEBVG4String@@$$Z$$V@?$pair@$$CBVG4String@@PEAV?$basic_ifstream@DU?$char_traits@D@std@@@std@@@std@@QEAA@Upiecewise_construct_t@1@V?$tuple@AEBVG4String@@@1@V?$tuple@$$V@1@@Z
	??$?0AEBVG4String@@$$Z$$V@?$pair@$$CBVG4String@@PEAVG4VAccumulable@@@std@@QEAA@Upiecewise_construct_t@1@V?$tuple@AEBVG4String@@@1@V?$tuple@$$V@1@@Z
	??$?0AEBVG4String@@$$Z$$V@?$pair@$$CBVG4String@@PEAVfile@rroot@tools@@@std@@QEAA@Upiecewise_construct_t@1@V?$tuple@AEBVG4String@@@1@V?$tuple@$$V@1@@Z
	??$?0AEBVG4String@@$$Z$$V@?$pair@$$CBVG4String@@PEAVraxml@tools@@@std@@QEAA@Upiecewise_construct_t@1@V?$tuple@AEBVG4String@@@1@V?$tuple@$$V@1@@Z
	??$?0AEBVcolorf@tools@@$$Z$$V@?$pair@$$CBVcolorf@tools@@I@std@@QEAA@Upiecewise_construct_t@1@V?$tuple@AEBVcolorf@tools@@@1@V?$tuple@$$V@1@@Z
	??$?0V?$tuple@$$QEAD@std@@V?$tuple@$$V@1@$0A@$$Z$S@?$pair@$$CBDPEAX@std@@QEAA@AEAV?$tuple@$$QEAD@1@AEAV?$tuple@$$V@1@U?$integer_sequence@_K$0A@@1@U?$integer_sequence@_K$S@1@@Z
	??$?0V?$tuple@$$QEAI@std@@V?$tuple@$$V@1@$0A@$$Z$S@?$pair@$$CBIVstyle_color@sg@tools@@@std@@QEAA@AEAV?$tuple@$$QEAI@1@AEAV?$tuple@$$V@1@U?$integer_sequence@_K$0A@@1@U?$integer_sequence@_K$S@1@@Z
	??$?0V?$tuple@$$QEAPEAVibo@wroot@tools@@@std@@V?$tuple@$$V@1@$0A@$$Z$S@?$pair@QEAVibo@wroot@tools@@I@std@@QEAA@AEAV?$tuple@$$QEAPEAVibo@wroot@tools@@@1@AEAV?$tuple@$$V@1@U?$integer_sequence@_K$0A@@1@U?$integer_sequence@_K$S@1@@Z
	??$?0V?$tuple@$$QEAVG4String@@@std@@V?$tuple@$$V@1@$0A@$$Z$S@?$pair@$$CBVG4String@@PEAV?$basic_ifstream@DU?$char_traits@D@std@@@std@@@std@@QEAA@AEAV?$tuple@$$QEAVG4String@@@1@AEAV?$tuple@$$V@1@U?$integer_sequence@_K$0A@@1@U?$integer_sequence@_K$S@1@@Z
	??$?0V?$tuple@$$QEAVG4String@@@std@@V?$tuple@$$V@1@$0A@$$Z$S@?$pair@$$CBVG4String@@PEAVfile@rroot@tools@@@std@@QEAA@AEAV?$tuple@$$QEAVG4String@@@1@AEAV?$tuple@$$V@1@U?$integer_sequence@_K$0A@@1@U?$integer_sequence@_K$S@1@@Z
	??$?0V?$tuple@$$QEAVG4String@@@std@@V?$tuple@$$V@1@$0A@$$Z$S@?$pair@$$CBVG4String@@PEAVraxml@tools@@@std@@QEAA@AEAV?$tuple@$$QEAVG4String@@@1@AEAV?$tuple@$$V@1@U?$integer_sequence@_K$0A@@1@U?$integer_sequence@_K$S@1@@Z
	??$?0V?$tuple@AEBD@std@@V?$tuple@$$V@1@$0A@$$Z$S@?$pair@$$CBDP6A_NAEAV?$basic_ostream@DU?$char_traits@D@std@@@std@@IIPEBDIPEADAEAI@Z@std@@QEAA@AEAV?$tuple@AEBD@1@AEAV?$tuple@$$V@1@U?$integer_sequence@_K$0A@@1@U?$integer_sequence@_K$S@1@@Z
	??$?0V?$tuple@AEBD@std@@V?$tuple@$$V@1@$0A@$$Z$S@?$pair@$$CBDP6A_NAEAV?$basic_ostream@DU?$char_traits@D@std@@@std@@IPEBDIPEADAEAI@Z@std@@QEAA@AEAV?$tuple@AEBD@1@AEAV?$tuple@$$V@1@U?$integer_sequence@_K$0A@@1@U?$integer_sequence@_K$S@1@@Z
	??$?0V?$tuple@AEBI@std@@V?$tuple@$$V@1@$0A@$$Z$S@?$pair@$$CBIPEAViro@rroot@tools@@@std@@QEAA@AEAV?$tuple@AEBI@1@AEAV?$tuple@$$V@1@U?$integer_sequence@_K$0A@@1@U?$integer_sequence@_K$S@1@@Z
	??$?0V?$tuple@AEBI@std@@V?$tuple@$$V@1@$0A@$$Z$S@?$pair@$$CBIU?$pair@PEAVbasket@rroot@tools@@_N@std@@@std@@QEAA@AEAV?$tuple@AEBI@1@AEAV?$tuple@$$V@1@U?$integer_sequence@_K$0A@@1@U?$integer_sequence@_K$S@1@@Z
	??$?0V?$tuple@AEBI@std@@V?$tuple@$$V@1@$0A@$$Z$S@?$pair@$$CBIV?$img@E@tools@@@std@@QEAA@AEAV?$tuple@AEBI@1@AEAV?$tuple@$$V@1@U?$integer_sequence@_K$0A@@1@U?$integer_sequence@_K$S@1@@Z
	??$?0V?$tuple@AEBI@std@@V?$tuple@$$V@1@$0A@$$Z$S@?$pair@$$CBIVcolorf@tools@@@std@@QEAA@AEAV?$tuple@AEBI@1@AEAV?$tuple@$$V@1@U?$integer_sequence@_K$0A@@1@U?$integer_sequence@_K$S@1@@Z
	??$?0V?$tuple@AEBQEAVntuple@aida@tools@@@std@@V?$tuple@$$V@1@$0A@$$Z$S@?$pair@QEAVntuple@aida@tools@@PEAV?$vector@HV?$allocator@H@std@@@std@@@std@@QEAA@AEAV?$tuple@AEBQEAVntuple@aida@tools@@@1@AEAV?$tuple@$$V@1@U?$integer_sequence@_K$0A@@1@U?$integer_sequence@_K$S@1@@Z
	??$?0V?$tuple@AEBQEAVntuple@aida@tools@@@std@@V?$tuple@$$V@1@$0A@$$Z$S@?$pair@QEAVntuple@aida@tools@@PEAV?$vector@MV?$allocator@M@std@@@std@@@std@@QEAA@AEAV?$tuple@AEBQEAVntuple@aida@tools@@@1@AEAV?$tuple@$$V@1@U?$integer_sequence@_K$0A@@1@U?$integer_sequence@_K$S@1@@Z
	??$?0V?$tuple@AEBQEAVntuple@aida@tools@@@std@@V?$tuple@$$V@1@$0A@$$Z$S@?$pair@QEAVntuple@aida@tools@@PEAV?$vector@NV?$allocator@N@std@@@std@@@std@@QEAA@AEAV?$tuple@AEBQEAVntuple@aida@tools@@@1@AEAV?$tuple@$$V@1@U?$integer_sequence@_K$0A@@1@U?$integer_sequence@_K$S@1@@Z
	??$?0V?$tuple@AEBV?$basic_string@DU?$char_traits@D@std@@V?$allocator@D@2@@std@@@std@@V?$tuple@$$V@1@$0A@$$Z$S@?$pair@$$CBV?$basic_string@DU?$char_traits@D@std@@V?$allocator@D@2@@std@@I@std@@QEAA@AEAV?$tuple@AEBV?$basic_string@DU?$char_traits@D@std@@V?$allocator@D@2@@std@@@1@AEAV?$tuple@$$V@1@U?$integer_sequence@_K$0A@@1@U?$integer_sequence@_K$S@1@@Z
	??$?0V?$tuple@AEBV?$basic_string@DU?$char_traits@D@std@@V?$allocator@D@2@@std@@@std@@V?$tuple@$$V@1@$0A@$$Z$S@?$pair@$$CBV?$basic_string@DU?$char_traits@D@std@@V?$allocator@D@2@@std@@P6A?AVraxml_out@tools@@AEAVtree@xml@4@AEAV?$basic_ostream@DU?$char_traits@D@std@@@2@_NPEAX@Z@std@@QEAA@AEAV?$tuple@AEBV?$basic_string@DU?$char_traits@D@std@@V?$allocator@D@2@@std@@@1@AEAV?$tuple@$$V@1@U?$integer_sequence@_K$0A@@1@U?$integer_sequence@_K$S@1@@Z
	??$?0V?$tuple@AEBV?$basic_string@DU?$char_traits@D@std@@V?$allocator@D@2@@std@@@std@@V?$tuple@$$V@1@$0A@$$Z$S@?$pair@$$CBV?$basic_string@DU?$char_traits@D@std@@V?$allocator@D@2@@std@@V12@@std@@QEAA@AEAV?$tuple@AEBV?$basic_string@DU?$char_traits@D@std@@V?$allocator@D@2@@std@@@1@AEAV?$tuple@$$V@1@U?$integer_sequence@_K$0A@@1@U?$integer_sequence@_K$S@1@@Z
	??$?0V?$tuple@AEBV?$basic_string@DU?$char_traits@D@std@@V?$allocator@D@2@@std@@@std@@V?$tuple@$$V@1@$0A@$$Z$S@?$pair@$$CBV?$basic_string@DU?$char_traits@D@std@@V?$allocator@D@2@@std@@Vstyle_colormap@sg@tools@@@std@@QEAA@AEAV?$tuple@AEBV?$basic_string@DU?$char_traits@D@std@@V?$allocator@D@2@@std@@@1@AEAV?$tuple@$$V@1@U?$integer_sequence@_K$0A@@1@U?$integer_sequence@_K$S@1@@Z
	??$?0V?$tuple@AEBVG4String@@@std@@V?$tuple@$$V@1@$0A@$$Z$S@?$pair@$$CBVG4String@@H@std@@QEAA@AEAV?$tuple@AEBVG4String@@@1@AEAV?$tuple@$$V@1@U?$integer_sequence@_K$0A@@1@U?$integer_sequence@_K$S@1@@Z
	??$?0V?$tuple@AEBVG4String@@@std@@V?$tuple@$$V@1@$0A@$$Z$S@?$pair@$$CBVG4String@@PEAV?$basic_ifstream@DU?$char_traits@D@std@@@std@@@std@@QEAA@AEAV?$tuple@AEBVG4String@@@1@AEAV?$tuple@$$V@1@U?$integer_sequence@_K$0A@@1@U?$integer_sequence@_K$S@1@@Z
	??$?0V?$tuple@AEBVG4String@@@std@@V?$tuple@$$V@1@$0A@$$Z$S@?$pair@$$CBVG4String@@PEAVG4VAccumulable@@@std@@QEAA@AEAV?$tuple@AEBVG4String@@@1@AEAV?$tuple@$$V@1@U?$integer_sequence@_K$0A@@1@U?$integer_sequence@_K$S@1@@Z
	??$?0V?$tuple@AEBVG4String@@@std@@V?$tuple@$$V@1@$0A@$$Z$S@?$pair@$$CBVG4String@@PEAVfile@rroot@tools@@@std@@QEAA@AEAV?$tuple@AEBVG4String@@@1@AEAV?$tuple@$$V@1@U?$integer_sequence@_K$0A@@1@U?$integer_sequence@_K$S@1@@Z
	??$?0V?$tuple@AEBVG4String@@@std@@V?$tuple@$$V@1@$0A@$$Z$S@?$pair@$$CBVG4String@@PEAVraxml@tools@@@std@@QEAA@AEAV?$tuple@AEBVG4String@@@1@AEAV?$tuple@$$V@1@U?$integer_sequence@_K$0A@@1@U?$integer_sequence@_K$S@1@@Z
	??$?0V?$tuple@AEBVcolorf@tools@@@std@@V?$tuple@$$V@1@$0A@$$Z$S@?$pair@$$CBVcolorf@tools@@I@std@@QEAA@AEAV?$tuple@AEBVcolorf@tools@@@1@AEAV?$tuple@$$V@1@U?$integer_sequence@_K$0A@@1@U?$integer_sequence@_K$S@1@@Z
	??$?5DU?$char_traits@D@std@@@std@@YAAEAV?$basic_istream@DU?$char_traits@D@std@@@0@AEAV10@AEAD@Z
	??$?5U?$char_traits@D@std@@@std@@YAAEAV?$basic_istream@DU?$char_traits@D@std@@@0@AEAV10@AEAE@Z
	??$?6DU?$char_traits@D@std@@V?$allocator@D@1@@std@@YAAEAV?$basic_ostream@DU?$char_traits@D@std@@@0@AEAV10@AEBV?$basic_string@DU?$char_traits@D@std@@V?$allocator@D@2@@0@@Z
	??$?6M@tools@@YAAEAV?$basic_ostream@DU?$char_traits@D@std@@@std@@AEAV12@AEBV?$mat4@M@0@@Z
	??$?6M@tools@@YAAEAV?$basic_ostream@DU?$char_traits@D@std@@@std@@AEAV12@AEBV?$vec4@M@0@@Z
	??$?6U?$char_traits@D@std@@@std@@YAAEAV?$basic_ostream@DU?$char_traits@D@std@@@0@AEAV10@D@Z
	??$?6U?$char_traits@D@std@@@std@@YAAEAV?$basic_ostream@DU?$char_traits@D@std@@@0@AEAV10@E@Z
	??$?6U?$char_traits@D@std@@@std@@YAAEAV?$basic_ostream@DU?$char_traits@D@std@@@0@AEAV10@PEBD@Z
	??$?8DU?$char_traits@D@std@@V?$allocator@D@1@@std@@YA_NAEBV?$basic_string@DU?$char_traits@D@std@@V?$allocator@D@2@@0@0@Z
	??$?8DU?$char_traits@D@std@@V?$allocator@D@1@@std@@YA_NAEBV?$basic_string@DU?$char_traits@D@std@@V?$allocator@D@2@@0@QEBD@Z
	??$?8MV?$allocator@M@std@@@std@@YA_NAEBV?$vector@MV?$allocator@M@std@@@0@0@Z
	??$?8V?$basic_string@DU?$char_traits@D@std@@V?$allocator@D@2@@std@@V?$allocator@V?$basic_string@DU?$char_traits@D@std@@V?$allocator@D@2@@std@@@1@@std@@YA_NAEBV?$vector@V?$basic_string@DU?$char_traits@D@std@@V?$allocator@D@2@@std@@V?$allocator@V?$basic_string@DU?$char_traits@D@std@@V?$allocator@D@2@@std@@@2@@0@0@Z
	??$?8Vvec2f@tools@@V?$allocator@Vvec2f@tools@@@std@@@std@@YA_NAEBV?$vector@Vvec2f@tools@@V?$allocator@Vvec2f@tools@@@std@@@0@0@Z
	??$?8W4unit_type@plotter@sg@tools@@V?$allocator@W4unit_type@plotter@sg@tools@@@std@@@std@@YA_NAEBV?$vector@W4unit_type@plotter@sg@tools@@V?$allocator@W4unit_type@plotter@sg@tools@@@std@@@0@0@Z
	??$?9DU?$char_traits@D@std@@V?$allocator@D@1@@std@@YA_NAEBV?$basic_string@DU?$char_traits@D@std@@V?$allocator@D@2@@0@0@Z
	??$?9DU?$char_traits@D@std@@V?$allocator@D@1@@std@@YA_NAEBV?$basic_string@DU?$char_traits@D@std@@V?$allocator@D@2@@0@QEBD@Z
	??$?9MV?$allocator@M@std@@@std@@YA_NAEBV?$vector@MV?$allocator@M@std@@@0@0@Z
	??$?9V?$basic_string@DU?$char_traits@D@std@@V?$allocator@D@2@@std@@V?$allocator@V?$basic_string@DU?$char_traits@D@std@@V?$allocator@D@2@@std@@@1@@std@@YA_NAEBV?$vector@V?$basic_string@DU?$char_traits@D@std@@V?$allocator@D@2@@std@@V?$allocator@V?$basic_string@DU?$char_traits@D@std@@V?$allocator@D@2@@std@@@2@@0@0@Z
	??$?9Vvec2f@tools@@V?$allocator@Vvec2f@tools@@@std@@@std@@YA_NAEBV?$vector@Vvec2f@tools@@V?$allocator@Vvec2f@tools@@@std@@@0@0@Z
	??$?9W4unit_type@plotter@sg@tools@@V?$allocator@W4unit_type@plotter@sg@tools@@@std@@@std@@YA_NAEBV?$vector@W4unit_type@plotter@sg@tools@@V?$allocator@W4unit_type@plotter@sg@tools@@@std@@@0@0@Z
	??$?HDU?$char_traits@D@std@@V?$allocator@D@1@@std@@YA?AV?$basic_string@DU?$char_traits@D@std@@V?$allocator@D@2@@0@$$QEAV10@AEBV10@@Z
	??$?HDU?$char_traits@D@std@@V?$allocator@D@1@@std@@YA?AV?$basic_string@DU?$char_traits@D@std@@V?$allocator@D@2@@0@$$QEAV10@QEBD@Z
	??$?HDU?$char_traits@D@std@@V?$allocator@D@1@@std@@YA?AV?$basic_string@DU?$char_traits@D@std@@V?$allocator@D@2@@0@AEBV10@0@Z
	??$?HDU?$char_traits@D@std@@V?$allocator@D@1@@std@@YA?AV?$basic_string@DU?$char_traits@D@std@@V?$allocator@D@2@@0@AEBV10@QEBD@Z
	??$?HDU?$char_traits@D@std@@V?$allocator@D@1@@std@@YA?AV?$basic_string@DU?$char_traits@D@std@@V?$allocator@D@2@@0@QEBD$$QEAV10@@Z
	??$?HDU?$char_traits@D@std@@V?$allocator@D@1@@std@@YA?AV?$basic_string@DU?$char_traits@D@std@@V?$allocator@D@2@@0@QEBDAEBV10@@Z
	??$?MDU?$char_traits@D@std@@V?$allocator@D@1@@std@@YA_NAEBV?$basic_string@DU?$char_traits@D@std@@V?$allocator@D@2@@0@0@Z
	??$Array_stream@N@rroot@tools@@YA_NAEAVbuffer@01@AEAV?$vector@NV?$allocator@N@std@@@std@@@Z
	??$CreateNtupleTColumn@H@?$G4TNtupleManager@Vntuple@waxml@tools@@@@AEAAHHAEBVG4String@@PEAV?$vector@HV?$allocator@H@std@@@std@@@Z
	??$CreateNtupleTColumn@H@?$G4TNtupleManager@Vntuple@wcsv@tools@@@@AEAAHHAEBVG4String@@PEAV?$vector@HV?$allocator@H@std@@@std@@@Z
	??$CreateNtupleTColumn@H@?$G4TNtupleManager@Vntuple@wroot@tools@@@@AEAAHHAEBVG4String@@PEAV?$vector@HV?$allocator@H@std@@@std@@@Z
	??$CreateNtupleTColumn@H@G4RootPNtupleManager@@AEAAHHAEBVG4String@@PEAV?$vector@HV?$allocator@H@std@@@std@@@Z
	??$CreateNtupleTColumn@M@?$G4TNtupleManager@Vntuple@waxml@tools@@@@AEAAHHAEBVG4String@@PEAV?$vector@MV?$allocator@M@std@@@std@@@Z
	??$CreateNtupleTColumn@M@?$G4TNtupleManager@Vntuple@wcsv@tools@@@@AEAAHHAEBVG4String@@PEAV?$vector@MV?$allocator@M@std@@@std@@@Z
	??$CreateNtupleTColumn@M@?$G4TNtupleManager@Vntuple@wroot@tools@@@@AEAAHHAEBVG4String@@PEAV?$vector@MV?$allocator@M@std@@@std@@@Z
	??$CreateNtupleTColumn@M@G4RootPNtupleManager@@AEAAHHAEBVG4String@@PEAV?$vector@MV?$allocator@M@std@@@std@@@Z
	??$CreateNtupleTColumn@N@?$G4TNtupleManager@Vntuple@waxml@tools@@@@AEAAHHAEBVG4String@@PEAV?$vector@NV?$allocator@N@std@@@std@@@Z
	??$CreateNtupleTColumn@N@?$G4TNtupleManager@Vntuple@wcsv@tools@@@@AEAAHHAEBVG4String@@PEAV?$vector@NV?$allocator@N@std@@@std@@@Z
	??$CreateNtupleTColumn@N@?$G4TNtupleManager@Vntuple@wroot@tools@@@@AEAAHHAEBVG4String@@PEAV?$vector@NV?$allocator@N@std@@@std@@@Z
	??$CreateNtupleTColumn@N@G4RootPNtupleManager@@AEAAHHAEBVG4String@@PEAV?$vector@NV?$allocator@N@std@@@std@@@Z
	??$CreateNtupleTColumn@V?$basic_string@DU?$char_traits@D@std@@V?$allocator@D@2@@std@@@?$G4TNtupleManager@Vntuple@waxml@tools@@@@AEAAHHAEBVG4String@@PEAV?$vector@V?$basic_string@DU?$char_traits@D@std@@V?$allocator@D@2@@std@@V?$allocator@V?$basic_string@DU?$char_traits@D@std@@V?$allocator@D@2@@std@@@2@@std@@@Z
	??$CreateNtupleTColumn@V?$basic_string@DU?$char_traits@D@std@@V?$allocator@D@2@@std@@@?$G4TNtupleManager@Vntuple@wcsv@tools@@@@AEAAHHAEBVG4String@@PEAV?$vector@V?$basic_string@DU?$char_traits@D@std@@V?$allocator@D@2@@std@@V?$allocator@V?$basic_string@DU?$char_traits@D@std@@V?$allocator@D@2@@std@@@2@@std@@@Z
	??$CreateNtupleTColumn@V?$basic_string@DU?$char_traits@D@std@@V?$allocator@D@2@@std@@@?$G4TNtupleManager@Vntuple@wroot@tools@@@@AEAAHHAEBVG4String@@PEAV?$vector@V?$basic_string@DU?$char_traits@D@std@@V?$allocator@D@2@@std@@V?$allocator@V?$basic_string@DU?$char_traits@D@std@@V?$allocator@D@2@@std@@@2@@std@@@Z
	??$CreateNtupleTColumn@V?$basic_string@DU?$char_traits@D@std@@V?$allocator@D@2@@std@@@G4RootPNtupleManager@@AEAAHHAEBVG4String@@PEAV?$vector@V?$basic_string@DU?$char_traits@D@std@@V?$allocator@D@2@@std@@V?$allocator@V?$basic_string@DU?$char_traits@D@std@@V?$allocator@D@2@@std@@@2@@std@@@Z
	??$FillNtupleTColumn@H@?$G4TNtupleManager@Vntuple@waxml@tools@@@@AEAA_NHHAEBH@Z
	??$FillNtupleTColumn@H@?$G4TNtupleManager@Vntuple@wcsv@tools@@@@AEAA_NHHAEBH@Z
	??$FillNtupleTColumn@H@?$G4TNtupleManager@Vntuple@wroot@tools@@@@AEAA_NHHAEBH@Z
	??$FillNtupleTColumn@H@G4RootPNtupleManager@@AEAA_NHHAEBH@Z
	??$FillNtupleTColumn@M@?$G4TNtupleManager@Vntuple@waxml@tools@@@@AEAA_NHHAEBM@Z
	??$FillNtupleTColumn@M@?$G4TNtupleManager@Vntuple@wcsv@tools@@@@AEAA_NHHAEBM@Z
	??$FillNtupleTColumn@M@?$G4TNtupleManager@Vntuple@wroot@tools@@@@AEAA_NHHAEBM@Z
	??$FillNtupleTColumn@M@G4RootPNtupleManager@@AEAA_NHHAEBM@Z
	??$FillNtupleTColumn@N@?$G4TNtupleManager@Vntuple@waxml@tools@@@@AEAA_NHHAEBN@Z
	??$FillNtupleTColumn@N@?$G4TNtupleManager@Vntuple@wcsv@tools@@@@AEAA_NHHAEBN@Z
	??$FillNtupleTColumn@N@?$G4TNtupleManager@Vntuple@wroot@tools@@@@AEAA_NHHAEBN@Z
	??$FillNtupleTColumn@N@G4RootPNtupleManager@@AEAA_NHHAEBN@Z
	??$FillNtupleTColumn@V?$basic_string@DU?$char_traits@D@std@@V?$allocator@D@2@@std@@@?$G4TNtupleManager@Vntuple@waxml@tools@@@@AEAA_NHHAEBV?$basic_string@DU?$char_traits@D@std@@V?$allocator@D@2@@std@@@Z
	??$FillNtupleTColumn@V?$basic_string@DU?$char_traits@D@std@@V?$allocator@D@2@@std@@@?$G4TNtupleManager@Vntuple@wcsv@tools@@@@AEAA_NHHAEBV?$basic_string@DU?$char_traits@D@std@@V?$allocator@D@2@@std@@@Z
	??$FillNtupleTColumn@V?$basic_string@DU?$char_traits@D@std@@V?$allocator@D@2@@std@@@?$G4TNtupleManager@Vntuple@wroot@tools@@@@AEAA_NHHAEBV?$basic_string@DU?$char_traits@D@std@@V?$allocator@D@2@@std@@@Z
	??$FillNtupleTColumn@V?$basic_string@DU?$char_traits@D@std@@V?$allocator@D@2@@std@@@G4RootPNtupleManager@@AEAA_NHHAEBV?$basic_string@DU?$char_traits@D@std@@V?$allocator@D@2@@std@@@Z
	??$Merge@Vh1d@histo@tools@@@G4MPIToolsManager@@QEAA_NAEBV?$vector@PEAVh1d@histo@tools@@V?$allocator@PEAVh1d@histo@tools@@@std@@@std@@AEBV?$vector@PEAVG4HnInformation@@V?$allocator@PEAVG4HnInformation@@@std@@@2@@Z
	??$Merge@Vh2d@histo@tools@@@G4MPIToolsManager@@QEAA_NAEBV?$vector@PEAVh2d@histo@tools@@V?$allocator@PEAVh2d@histo@tools@@@std@@@std@@AEBV?$vector@PEAVG4HnInformation@@V?$allocator@PEAVG4HnInformation@@@std@@@2@@Z
	??$Merge@Vh3d@histo@tools@@@G4MPIToolsManager@@QEAA_NAEBV?$vector@PEAVh3d@histo@tools@@V?$allocator@PEAVh3d@histo@tools@@@std@@@std@@AEBV?$vector@PEAVG4HnInformation@@V?$allocator@PEAVG4HnInformation@@@std@@@2@@Z
	??$Merge@Vp1d@histo@tools@@@G4MPIToolsManager@@QEAA_NAEBV?$vector@PEAVp1d@histo@tools@@V?$allocator@PEAVp1d@histo@tools@@@std@@@std@@AEBV?$vector@PEAVG4HnInformation@@V?$allocator@PEAVG4HnInformation@@@std@@@2@@Z
	??$Merge@Vp2d@histo@tools@@@G4MPIToolsManager@@QEAA_NAEBV?$vector@PEAVp2d@histo@tools@@V?$allocator@PEAVp2d@histo@tools@@@std@@@std@@AEBV?$vector@PEAVG4HnInformation@@V?$allocator@PEAVG4HnInformation@@@std@@@2@@Z
	??$PlotAndWrite@Vh1d@histo@tools@@@G4PlotManager@@QEAA_NAEBV?$vector@PEAVh1d@histo@tools@@V?$allocator@PEAVh1d@histo@tools@@@std@@@std@@AEBV?$vector@PEAVG4HnInformation@@V?$allocator@PEAVG4HnInformation@@@std@@@2@@Z
	??$PlotAndWrite@Vh2d@histo@tools@@@G4PlotManager@@QEAA_NAEBV?$vector@PEAVh2d@histo@tools@@V?$allocator@PEAVh2d@histo@tools@@@std@@@std@@AEBV?$vector@PEAVG4HnInformation@@V?$allocator@PEAVG4HnInformation@@@std@@@2@@Z
	??$PlotAndWrite@Vp1d@histo@tools@@@G4PlotManager@@QEAA_NAEBV?$vector@PEAVp1d@histo@tools@@V?$allocator@PEAVp1d@histo@tools@@@std@@@std@@AEBV?$vector@PEAVG4HnInformation@@V?$allocator@PEAVG4HnInformation@@@std@@@2@@Z
	??$Receive@Vh1d@histo@tools@@@G4MPIToolsManager@@AEAA_NHAEBV?$vector@PEAVh1d@histo@tools@@V?$allocator@PEAVh1d@histo@tools@@@std@@@std@@AEBV?$vector@PEAVG4HnInformation@@V?$allocator@PEAVG4HnInformation@@@std@@@2@@Z
	??$Receive@Vh2d@histo@tools@@@G4MPIToolsManager@@AEAA_NHAEBV?$vector@PEAVh2d@histo@tools@@V?$allocator@PEAVh2d@histo@tools@@@std@@@std@@AEBV?$vector@PEAVG4HnInformation@@V?$allocator@PEAVG4HnInformation@@@std@@@2@@Z
	??$Receive@Vh3d@histo@tools@@@G4MPIToolsManager@@AEAA_NHAEBV?$vector@PEAVh3d@histo@tools@@V?$allocator@PEAVh3d@histo@tools@@@std@@@std@@AEBV?$vector@PEAVG4HnInformation@@V?$allocator@PEAVG4HnInformation@@@std@@@2@@Z
	??$Receive@Vp1d@histo@tools@@@G4MPIToolsManager@@AEAA_NHAEBV?$vector@PEAVp1d@histo@tools@@V?$allocator@PEAVp1d@histo@tools@@@std@@@std@@AEBV?$vector@PEAVG4HnInformation@@V?$allocator@PEAVG4HnInformation@@@std@@@2@@Z
	??$Receive@Vp2d@histo@tools@@@G4MPIToolsManager@@AEAA_NHAEBV?$vector@PEAVp2d@histo@tools@@V?$allocator@PEAVp2d@histo@tools@@@std@@@std@@AEBV?$vector@PEAVG4HnInformation@@V?$allocator@PEAVG4HnInformation@@@std@@@2@@Z
	??$Send@Vh1d@histo@tools@@@G4MPIToolsManager@@AEAA_NHAEBV?$vector@PEAVh1d@histo@tools@@V?$allocator@PEAVh1d@histo@tools@@@std@@@std@@AEBV?$vector@PEAVG4HnInformation@@V?$allocator@PEAVG4HnInformation@@@std@@@2@@Z
	??$Send@Vh2d@histo@tools@@@G4MPIToolsManager@@AEAA_NHAEBV?$vector@PEAVh2d@histo@tools@@V?$allocator@PEAVh2d@histo@tools@@@std@@@std@@AEBV?$vector@PEAVG4HnInformation@@V?$allocator@PEAVG4HnInformation@@@std@@@2@@Z
	??$Send@Vh3d@histo@tools@@@G4MPIToolsManager@@AEAA_NHAEBV?$vector@PEAVh3d@histo@tools@@V?$allocator@PEAVh3d@histo@tools@@@std@@@std@@AEBV?$vector@PEAVG4HnInformation@@V?$allocator@PEAVG4HnInformation@@@std@@@2@@Z
	??$Send@Vp1d@histo@tools@@@G4MPIToolsManager@@AEAA_NHAEBV?$vector@PEAVp1d@histo@tools@@V?$allocator@PEAVp1d@histo@tools@@@std@@@std@@AEBV?$vector@PEAVG4HnInformation@@V?$allocator@PEAVG4HnInformation@@@std@@@2@@Z
	??$Send@Vp2d@histo@tools@@@G4MPIToolsManager@@AEAA_NHAEBV?$vector@PEAVp2d@histo@tools@@V?$allocator@PEAVp2d@histo@tools@@@std@@@std@@AEBV?$vector@PEAVG4HnInformation@@V?$allocator@PEAVG4HnInformation@@@std@@@2@@Z
	??$SetNtupleTColumn@H@?$G4TRNtupleManager@Vntuple@aida@tools@@@@AEAA_NHAEBVG4String@@AEAH@Z
	??$SetNtupleTColumn@H@?$G4TRNtupleManager@Vntuple@aida@tools@@@@AEAA_NHAEBVG4String@@AEAV?$vector@HV?$allocator@H@std@@@std@@@Z
	??$SetNtupleTColumn@H@?$G4TRNtupleManager@Vntuple@rcsv@tools@@@@AEAA_NHAEBVG4String@@AEAH@Z
	??$SetNtupleTColumn@H@?$G4TRNtupleManager@Vntuple@rcsv@tools@@@@AEAA_NHAEBVG4String@@AEAV?$vector@HV?$allocator@H@std@@@std@@@Z
	??$SetNtupleTColumn@H@?$G4TRNtupleManager@Vntuple@rroot@tools@@@@AEAA_NHAEBVG4String@@AEAH@Z
	??$SetNtupleTColumn@H@?$G4TRNtupleManager@Vntuple@rroot@tools@@@@AEAA_NHAEBVG4String@@AEAV?$vector@HV?$allocator@H@std@@@std@@@Z
	??$SetNtupleTColumn@M@?$G4TRNtupleManager@Vntuple@aida@tools@@@@AEAA_NHAEBVG4String@@AEAM@Z
	??$SetNtupleTColumn@M@?$G4TRNtupleManager@Vntuple@aida@tools@@@@AEAA_NHAEBVG4String@@AEAV?$vector@MV?$allocator@M@std@@@std@@@Z
	??$SetNtupleTColumn@M@?$G4TRNtupleManager@Vntuple@rcsv@tools@@@@AEAA_NHAEBVG4String@@AEAM@Z
	??$SetNtupleTColumn@M@?$G4TRNtupleManager@Vntuple@rcsv@tools@@@@AEAA_NHAEBVG4String@@AEAV?$vector@MV?$allocator@M@std@@@std@@@Z
	??$SetNtupleTColumn@M@?$G4TRNtupleManager@Vntuple@rroot@tools@@@@AEAA_NHAEBVG4String@@AEAM@Z
	??$SetNtupleTColumn@M@?$G4TRNtupleManager@Vntuple@rroot@tools@@@@AEAA_NHAEBVG4String@@AEAV?$vector@MV?$allocator@M@std@@@std@@@Z
	??$SetNtupleTColumn@N@?$G4TRNtupleManager@Vntuple@aida@tools@@@@AEAA_NHAEBVG4String@@AEAN@Z
	??$SetNtupleTColumn@N@?$G4TRNtupleManager@Vntuple@aida@tools@@@@AEAA_NHAEBVG4String@@AEAV?$vector@NV?$allocator@N@std@@@std@@@Z
	??$SetNtupleTColumn@N@?$G4TRNtupleManager@Vntuple@rcsv@tools@@@@AEAA_NHAEBVG4String@@AEAN@Z
	??$SetNtupleTColumn@N@?$G4TRNtupleManager@Vntuple@rcsv@tools@@@@AEAA_NHAEBVG4String@@AEAV?$vector@NV?$allocator@N@std@@@std@@@Z
	??$SetNtupleTColumn@N@?$G4TRNtupleManager@Vntuple@rroot@tools@@@@AEAA_NHAEBVG4String@@AEAN@Z
	??$SetNtupleTColumn@N@?$G4TRNtupleManager@Vntuple@rroot@tools@@@@AEAA_NHAEBVG4String@@AEAV?$vector@NV?$allocator@N@std@@@std@@@Z
	??$SetNtupleTColumn@V?$basic_string@DU?$char_traits@D@std@@V?$allocator@D@2@@std@@@?$G4TRNtupleManager@Vntuple@aida@tools@@@@AEAA_NHAEBVG4String@@AEAV?$basic_string@DU?$char_traits@D@std@@V?$allocator@D@2@@std@@@Z
	??$SetNtupleTColumn@V?$basic_string@DU?$char_traits@D@std@@V?$allocator@D@2@@std@@@?$G4TRNtupleManager@Vntuple@rcsv@tools@@@@AEAA_NHAEBVG4String@@AEAV?$basic_string@DU?$char_traits@D@std@@V?$allocator@D@2@@std@@@Z
	??$SetNtupleTColumn@V?$basic_string@DU?$char_traits@D@std@@V?$allocator@D@2@@std@@@?$G4TRNtupleManager@Vntuple@rroot@tools@@@@AEAA_NHAEBVG4String@@AEAV?$basic_string@DU?$char_traits@D@std@@V?$allocator@D@2@@std@@@Z
	??$TH_write_1D@Vh1d@histo@tools@@@wroot@tools@@YA_NAEAVbuffer@01@AEBVh1d@histo@1@AEBV?$basic_string@DU?$char_traits@D@std@@V?$allocator@D@2@@std@@AEBV?$vector@NV?$allocator@N@std@@@6@@Z
	??$TH_write_1D@Vh2d@histo@tools@@@wroot@tools@@YA_NAEAVbuffer@01@AEBVh2d@histo@1@AEBV?$basic_string@DU?$char_traits@D@std@@V?$allocator@D@2@@std@@AEBV?$vector@NV?$allocator@N@std@@@6@@Z
	??$TH_write_1D@Vh3d@histo@tools@@@wroot@tools@@YA_NAEAVbuffer@01@AEBVh3d@histo@1@AEBV?$basic_string@DU?$char_traits@D@std@@V?$allocator@D@2@@std@@AEBV?$vector@NV?$allocator@N@std@@@6@@Z
	??$TH_write_1D@Vp1d@histo@tools@@@wroot@tools@@YA_NAEAVbuffer@01@AEBVp1d@histo@1@AEBV?$basic_string@DU?$char_traits@D@std@@V?$allocator@D@2@@std@@AEBV?$vector@NV?$allocator@N@std@@@6@@Z
	??$TH_write_1D@Vp2d@histo@tools@@@wroot@tools@@YA_NAEAVbuffer@01@AEBVp2d@histo@1@AEBV?$basic_string@DU?$char_traits@D@std@@V?$allocator@D@2@@std@@AEBV?$vector@NV?$allocator@N@std@@@6@@Z
	??$WriteT@Vh1d@histo@tools@@@G4CsvAnalysisManager@@AEAA_NAEBV?$vector@PEAVh1d@histo@tools@@V?$allocator@PEAVh1d@histo@tools@@@std@@@std@@AEBV?$vector@PEAVG4HnInformation@@V?$allocator@PEAVG4HnInformation@@@std@@@2@AEBVG4String@@@Z
	??$WriteT@Vh1d@histo@tools@@@G4RootAnalysisManager@@AEAA_NAEBV?$vector@PEAVh1d@histo@tools@@V?$allocator@PEAVh1d@histo@tools@@@std@@@std@@AEBV?$vector@PEAVG4HnInformation@@V?$allocator@PEAVG4HnInformation@@@std@@@2@PEAVdirectory@wroot@tools@@AEBVG4String@@@Z
	??$WriteT@Vh1d@histo@tools@@@G4XmlAnalysisManager@@AEAA_NAEBV?$vector@PEAVh1d@histo@tools@@V?$allocator@PEAVh1d@histo@tools@@@std@@@std@@AEBV?$vector@PEAVG4HnInformation@@V?$allocator@PEAVG4HnInformation@@@std@@@2@AEBVG4String@@2@Z
	??$WriteT@Vh2d@histo@tools@@@G4CsvAnalysisManager@@AEAA_NAEBV?$vector@PEAVh2d@histo@tools@@V?$allocator@PEAVh2d@histo@tools@@@std@@@std@@AEBV?$vector@PEAVG4HnInformation@@V?$allocator@PEAVG4HnInformation@@@std@@@2@AEBVG4String@@@Z
	??$WriteT@Vh2d@histo@tools@@@G4RootAnalysisManager@@AEAA_NAEBV?$vector@PEAVh2d@histo@tools@@V?$allocator@PEAVh2d@histo@tools@@@std@@@std@@AEBV?$vector@PEAVG4HnInformation@@V?$allocator@PEAVG4HnInformation@@@std@@@2@PEAVdirectory@wroot@tools@@AEBVG4String@@@Z
	??$WriteT@Vh2d@histo@tools@@@G4XmlAnalysisManager@@AEAA_NAEBV?$vector@PEAVh2d@histo@tools@@V?$allocator@PEAVh2d@histo@tools@@@std@@@std@@AEBV?$vector@PEAVG4HnInformation@@V?$allocator@PEAVG4HnInformation@@@std@@@2@AEBVG4String@@2@Z
	??$WriteT@Vh3d@histo@tools@@@G4CsvAnalysisManager@@AEAA_NAEBV?$vector@PEAVh3d@histo@tools@@V?$allocator@PEAVh3d@histo@tools@@@std@@@std@@AEBV?$vector@PEAVG4HnInformation@@V?$allocator@PEAVG4HnInformation@@@std@@@2@AEBVG4String@@@Z
	??$WriteT@Vh3d@histo@tools@@@G4RootAnalysisManager@@AEAA_NAEBV?$vector@PEAVh3d@histo@tools@@V?$allocator@PEAVh3d@histo@tools@@@std@@@std@@AEBV?$vector@PEAVG4HnInformation@@V?$allocator@PEAVG4HnInformation@@@std@@@2@PEAVdirectory@wroot@tools@@AEBVG4String@@@Z
	??$WriteT@Vh3d@histo@tools@@@G4XmlAnalysisManager@@AEAA_NAEBV?$vector@PEAVh3d@histo@tools@@V?$allocator@PEAVh3d@histo@tools@@@std@@@std@@AEBV?$vector@PEAVG4HnInformation@@V?$allocator@PEAVG4HnInformation@@@std@@@2@AEBVG4String@@2@Z
	??$WriteT@Vp1d@histo@tools@@@G4CsvAnalysisManager@@AEAA_NAEBV?$vector@PEAVp1d@histo@tools@@V?$allocator@PEAVp1d@histo@tools@@@std@@@std@@AEBV?$vector@PEAVG4HnInformation@@V?$allocator@PEAVG4HnInformation@@@std@@@2@AEBVG4String@@@Z
	??$WriteT@Vp1d@histo@tools@@@G4RootAnalysisManager@@AEAA_NAEBV?$vector@PEAVp1d@histo@tools@@V?$allocator@PEAVp1d@histo@tools@@@std@@@std@@AEBV?$vector@PEAVG4HnInformation@@V?$allocator@PEAVG4HnInformation@@@std@@@2@PEAVdirectory@wroot@tools@@AEBVG4String@@@Z
	??$WriteT@Vp1d@histo@tools@@@G4XmlAnalysisManager@@AEAA_NAEBV?$vector@PEAVp1d@histo@tools@@V?$allocator@PEAVp1d@histo@tools@@@std@@@std@@AEBV?$vector@PEAVG4HnInformation@@V?$allocator@PEAVG4HnInformation@@@std@@@2@AEBVG4String@@2@Z
	??$WriteT@Vp2d@histo@tools@@@G4CsvAnalysisManager@@AEAA_NAEBV?$vector@PEAVp2d@histo@tools@@V?$allocator@PEAVp2d@histo@tools@@@std@@@std@@AEBV?$vector@PEAVG4HnInformation@@V?$allocator@PEAVG4HnInformation@@@std@@@2@AEBVG4String@@@Z
	??$WriteT@Vp2d@histo@tools@@@G4RootAnalysisManager@@AEAA_NAEBV?$vector@PEAVp2d@histo@tools@@V?$allocator@PEAVp2d@histo@tools@@@std@@@std@@AEBV?$vector@PEAVG4HnInformation@@V?$allocator@PEAVG4HnInformation@@@std@@@2@PEAVdirectory@wroot@tools@@AEBVG4String@@@Z
	??$WriteT@Vp2d@histo@tools@@@G4XmlAnalysisManager@@AEAA_NAEBV?$vector@PEAVp2d@histo@tools@@V?$allocator@PEAVp2d@histo@tools@@@std@@@std@@AEBV?$vector@PEAVG4HnInformation@@V?$allocator@PEAVG4HnInformation@@@std@@@2@AEBVG4String@@2@Z
	??$_Allocate@$0BA@U_Default_allocate_traits@std@@$0A@@std@@YAPEAX_K@Z
	??$_Allocate_manually_vector_aligned@U_Default_allocate_traits@std@@@std@@YAPEAX_K@Z
	??$_Assign_range@PEAU?$pair@V?$basic_string@DU?$char_traits@D@std@@V?$allocator@D@2@@std@@H@std@@@?$vector@U?$pair@V?$basic_string@DU?$char_traits@D@std@@V?$allocator@D@2@@std@@H@std@@V?$allocator@U?$pair@V?$basic_string@DU?$char_traits@D@std@@V?$allocator@D@2@@std@@H@std@@@2@@std@@AEAAXPEAU?$pair@V?$basic_string@DU?$char_traits@D@std@@V?$allocator@D@2@@std@@H@1@0Uforward_iterator_tag@1@@Z
	??$_Assign_range@PEAU?$pair@V?$basic_string@DU?$char_traits@D@std@@V?$allocator@D@2@@std@@V12@@std@@@?$vector@U?$pair@V?$basic_string@DU?$char_traits@D@std@@V?$allocator@D@2@@std@@V12@@std@@V?$allocator@U?$pair@V?$basic_string@DU?$char_traits@D@std@@V?$allocator@D@2@@std@@V12@@std@@@2@@std@@AEAAXPEAU?$pair@V?$basic_string@DU?$char_traits@D@std@@V?$allocator@D@2@@std@@V12@@1@0Uforward_iterator_tag@1@@Z
	??$_Assign_range@PEAV?$axis@NI@histo@tools@@@?$vector@V?$axis@NI@histo@tools@@V?$allocator@V?$axis@NI@histo@tools@@@std@@@std@@AEAAXPEAV?$axis@NI@histo@tools@@0Uforward_iterator_tag@1@@Z
	??$_Assign_range@PEAV?$basic_string@DU?$char_traits@D@std@@V?$allocator@D@2@@std@@@?$vector@V?$basic_string@DU?$char_traits@D@std@@V?$allocator@D@2@@std@@V?$allocator@V?$basic_string@DU?$char_traits@D@std@@V?$allocator@D@2@@std@@@2@@std@@AEAAXPEAV?$basic_string@DU?$char_traits@D@std@@V?$allocator@D@2@@1@0Uforward_iterator_tag@1@@Z
	??$_Assign_range@PEAV?$vector@NV?$allocator@N@std@@@std@@@?$vector@V?$vector@NV?$allocator@N@std@@@std@@V?$allocator@V?$vector@NV?$allocator@N@std@@@std@@@2@@std@@AEAAXPEAV?$vector@NV?$allocator@N@std@@@1@0Uforward_iterator_tag@1@@Z
	??$_Assign_range@PEAVfield_desc@sg@tools@@@?$vector@Vfield_desc@sg@tools@@V?$allocator@Vfield_desc@sg@tools@@@std@@@std@@AEAAXPEAVfield_desc@sg@tools@@0Uforward_iterator_tag@1@@Z
	??$_Assign_range@PEAVmat4f@tools@@@?$vector@Vmat4f@tools@@V?$allocator@Vmat4f@tools@@@std@@@std@@AEAAXPEAVmat4f@tools@@0Uforward_iterator_tag@1@@Z
	??$_Assign_range@PEAVstate@sg@tools@@@?$vector@Vstate@sg@tools@@V?$allocator@Vstate@sg@tools@@@std@@@std@@AEAAXPEAVstate@sg@tools@@0Uforward_iterator_tag@1@@Z
	??$_Assign_range@PEAVstyle@sg@tools@@@?$vector@Vstyle@sg@tools@@V?$allocator@Vstyle@sg@tools@@@std@@@std@@AEAAXPEAVstyle@sg@tools@@0Uforward_iterator_tag@1@@Z
	??$_Assign_range@PEAVvec2f@tools@@@?$vector@Vvec2f@tools@@V?$allocator@Vvec2f@tools@@@std@@@std@@AEAAXPEAVvec2f@tools@@0Uforward_iterator_tag@1@@Z
	??$_Construct_in_place@PEADAEBQEAD@std@@YAXAEAPEADAEBQEAD@Z
	??$_Construct_in_place@PEAU?$_List_node@IPEAX@std@@AEAPEAU12@@std@@YAXAEAPEAU?$_List_node@IPEAX@0@0@Z
	??$_Construct_in_place@PEAU?$_List_node@IPEAX@std@@AEBQEAU12@@std@@YAXAEAPEAU?$_List_node@IPEAX@0@AEBQEAU10@@Z
	??$_Construct_in_place@PEAU?$_List_node@PEAV?$list@IV?$allocator@I@std@@@std@@PEAX@std@@$$T@std@@YAXAEAPEAU?$_List_node@PEAV?$list@IV?$allocator@I@std@@@std@@PEAX@0@$$QEA$$T@Z
	??$_Construct_in_place@PEAU?$_List_node@PEAV?$list@IV?$allocator@I@std@@@std@@PEAX@std@@AEAPEAU12@@std@@YAXAEAPEAU?$_List_node@PEAV?$list@IV?$allocator@I@std@@@std@@PEAX@0@0@Z
	??$_Construct_in_place@PEAU?$_List_node@PEAV?$list@IV?$allocator@I@std@@@std@@PEAX@std@@AEBQEAU12@@std@@YAXAEAPEAU?$_List_node@PEAV?$list@IV?$allocator@I@std@@@std@@PEAX@0@AEBQEAU10@@Z
	??$_Construct_in_place@PEAU?$_List_node@PEAVfree_seg@wroot@tools@@PEAX@std@@AEAPEAU12@@std@@YAXAEAPEAU?$_List_node@PEAVfree_seg@wroot@tools@@PEAX@0@0@Z
	??$_Construct_in_place@PEAU?$_List_node@PEAVfree_seg@wroot@tools@@PEAX@std@@AEBQEAU12@@std@@YAXAEAPEAU?$_List_node@PEAVfree_seg@wroot@tools@@PEAX@0@AEBQEAU10@@Z
	??$_Construct_in_place@PEAU?$_List_node@PEAVielem@xml@tools@@PEAX@std@@AEAPEAU12@@std@@YAXAEAPEAU?$_List_node@PEAVielem@xml@tools@@PEAX@0@0@Z
	??$_Construct_in_place@PEAU?$_List_node@PEAVielem@xml@tools@@PEAX@std@@AEBQEAU12@@std@@YAXAEAPEAU?$_List_node@PEAVielem@xml@tools@@PEAX@0@AEBQEAU10@@Z
	??$_Construct_in_place@PEAU?$_List_node@PEAVkey@wroot@tools@@PEAX@std@@AEAPEAU12@@std@@YAXAEAPEAU?$_List_node@PEAVkey@wroot@tools@@PEAX@0@0@Z
	??$_Construct_in_place@PEAU?$_List_node@PEAVkey@wroot@tools@@PEAX@std@@AEBQEAU12@@std@@YAXAEAPEAU?$_List_node@PEAVkey@wroot@tools@@PEAX@0@AEBQEAU10@@Z
	??$_Construct_in_place@PEAU?$_Tree_node@U?$pair@$$CBDP6A_NAEAV?$basic_ostream@DU?$char_traits@D@std@@@std@@IIPEBDIPEADAEAI@Z@std@@PEAX@std@@AEAPEAU12@@std@@YAXAEAPEAU?$_Tree_node@U?$pair@$$CBDP6A_NAEAV?$basic_ostream@DU?$char_traits@D@std@@@std@@IIPEBDIPEADAEAI@Z@std@@PEAX@0@0@Z
	??$_Construct_in_place@PEAU?$_Tree_node@U?$pair@$$CBDP6A_NAEAV?$basic_ostream@DU?$char_traits@D@std@@@std@@IIPEBDIPEADAEAI@Z@std@@PEAX@std@@AEBQEAU12@@std@@YAXAEAPEAU?$_Tree_node@U?$pair@$$CBDP6A_NAEAV?$basic_ostream@DU?$char_traits@D@std@@@std@@IIPEBDIPEADAEAI@Z@std@@PEAX@0@AEBQEAU10@@Z
	??$_Construct_in_place@PEAU?$_Tree_node@U?$pair@$$CBDP6A_NAEAV?$basic_ostream@DU?$char_traits@D@std@@@std@@IPEBDIPEADAEAI@Z@std@@PEAX@std@@AEAPEAU12@@std@@YAXAEAPEAU?$_Tree_node@U?$pair@$$CBDP6A_NAEAV?$basic_ostream@DU?$char_traits@D@std@@@std@@IPEBDIPEADAEAI@Z@std@@PEAX@0@0@Z
	??$_Construct_in_place@PEAU?$_Tree_node@U?$pair@$$CBDP6A_NAEAV?$basic_ostream@DU?$char_traits@D@std@@@std@@IPEBDIPEADAEAI@Z@std@@PEAX@std@@AEBQEAU12@@std@@YAXAEAPEAU?$_Tree_node@U?$pair@$$CBDP6A_NAEAV?$basic_ostream@DU?$char_traits@D@std@@@std@@IPEBDIPEADAEAI@Z@std@@PEAX@0@AEBQEAU10@@Z
	??$_Construct_in_place@PEAU?$_Tree_node@U?$pair@$$CBDPEAX@std@@PEAX@std@@AEAPEAU12@@std@@YAXAEAPEAU?$_Tree_node@U?$pair@$$CBDPEAX@std@@PEAX@0@0@Z
	??$_Construct_in_place@PEAU?$_Tree_node@U?$pair@$$CBDPEAX@std@@PEAX@std@@AEBQEAU12@@std@@YAXAEAPEAU?$_Tree_node@U?$pair@$$CBDPEAX@std@@PEAX@0@AEBQEAU10@@Z
	??$_Construct_in_place@PEAU?$_Tree_node@U?$pair@$$CBIPEAViro@rroot@tools@@@std@@PEAX@std@@AEAPEAU12@@std@@YAXAEAPEAU?$_Tree_node@U?$pair@$$CBIPEAViro@rroot@tools@@@std@@PEAX@0@0@Z
	??$_Construct_in_place@PEAU?$_Tree_node@U?$pair@$$CBIPEAViro@rroot@tools@@@std@@PEAX@std@@AEBQEAU12@@std@@YAXAEAPEAU?$_Tree_node@U?$pair@$$CBIPEAViro@rroot@tools@@@std@@PEAX@0@AEBQEAU10@@Z
	??$_Construct_in_place@PEAU?$_Tree_node@U?$pair@$$CBIU?$pair@PEAVbasket@rroot@tools@@_N@std@@@std@@PEAX@std@@AEAPEAU12@@std@@YAXAEAPEAU?$_Tree_node@U?$pair@$$CBIU?$pair@PEAVbasket@rroot@tools@@_N@std@@@std@@PEAX@0@0@Z
	??$_Construct_in_place@PEAU?$_Tree_node@U?$pair@$$CBIU?$pair@PEAVbasket@rroot@tools@@_N@std@@@std@@PEAX@std@@AEBQEAU12@@std@@YAXAEAPEAU?$_Tree_node@U?$pair@$$CBIU?$pair@PEAVbasket@rroot@tools@@_N@std@@@std@@PEAX@0@AEBQEAU10@@Z
	??$_Construct_in_place@PEAU?$_Tree_node@U?$pair@$$CBIV?$img@E@tools@@@std@@PEAX@std@@AEAPEAU12@@std@@YAXAEAPEAU?$_Tree_node@U?$pair@$$CBIV?$img@E@tools@@@std@@PEAX@0@0@Z
	??$_Construct_in_place@PEAU?$_Tree_node@U?$pair@$$CBIV?$img@E@tools@@@std@@PEAX@std@@AEBQEAU12@@std@@YAXAEAPEAU?$_Tree_node@U?$pair@$$CBIV?$img@E@tools@@@std@@PEAX@0@AEBQEAU10@@Z
	??$_Construct_in_place@PEAU?$_Tree_node@U?$pair@$$CBIVcolorf@tools@@@std@@PEAX@std@@AEAPEAU12@@std@@YAXAEAPEAU?$_Tree_node@U?$pair@$$CBIVcolorf@tools@@@std@@PEAX@0@0@Z
	??$_Construct_in_place@PEAU?$_Tree_node@U?$pair@$$CBIVcolorf@tools@@@std@@PEAX@std@@AEBQEAU12@@std@@YAXAEAPEAU?$_Tree_node@U?$pair@$$CBIVcolorf@tools@@@std@@PEAX@0@AEBQEAU10@@Z
	??$_Construct_in_place@PEAU?$_Tree_node@U?$pair@$$CBIVstyle_color@sg@tools@@@std@@PEAX@std@@AEAPEAU12@@std@@YAXAEAPEAU?$_Tree_node@U?$pair@$$CBIVstyle_color@sg@tools@@@std@@PEAX@0@0@Z
	??$_Construct_in_place@PEAU?$_Tree_node@U?$pair@$$CBIVstyle_color@sg@tools@@@std@@PEAX@std@@AEBQEAU12@@std@@YAXAEAPEAU?$_Tree_node@U?$pair@$$CBIVstyle_color@sg@tools@@@std@@PEAX@0@AEBQEAU10@@Z
	??$_Construct_in_place@PEAU?$_Tree_node@U?$pair@$$CBV?$basic_string@DU?$char_traits@D@std@@V?$allocator@D@2@@std@@I@std@@PEAX@std@@AEAPEAU12@@std@@YAXAEAPEAU?$_Tree_node@U?$pair@$$CBV?$basic_string@DU?$char_traits@D@std@@V?$allocator@D@2@@std@@I@std@@PEAX@0@0@Z
	??$_Construct_in_place@PEAU?$_Tree_node@U?$pair@$$CBV?$basic_string@DU?$char_traits@D@std@@V?$allocator@D@2@@std@@I@std@@PEAX@std@@AEBQEAU12@@std@@YAXAEAPEAU?$_Tree_node@U?$pair@$$CBV?$basic_string@DU?$char_traits@D@std@@V?$allocator@D@2@@std@@I@std@@PEAX@0@AEBQEAU10@@Z
	??$_Construct_in_place@PEAU?$_Tree_node@U?$pair@$$CBV?$basic_string@DU?$char_traits@D@std@@V?$allocator@D@2@@std@@P6A?AVraxml_out@tools@@AEAVtree@xml@4@AEAV?$basic_ostream@DU?$char_traits@D@std@@@2@_NPEAX@Z@std@@PEAX@std@@AEAPEAU12@@std@@YAXAEAPEAU?$_Tree_node@U?$pair@$$CBV?$basic_string@DU?$char_traits@D@std@@V?$allocator@D@2@@std@@P6A?AVraxml_out@tools@@AEAVtree@xml@4@AEAV?$basic_ostream@DU?$char_traits@D@std@@@2@_NPEAX@Z@std@@PEAX@0@0@Z
	??$_Construct_in_place@PEAU?$_Tree_node@U?$pair@$$CBV?$basic_string@DU?$char_traits@D@std@@V?$allocator@D@2@@std@@P6A?AVraxml_out@tools@@AEAVtree@xml@4@AEAV?$basic_ostream@DU?$char_traits@D@std@@@2@_NPEAX@Z@std@@PEAX@std@@AEBQEAU12@@std@@YAXAEAPEAU?$_Tree_node@U?$pair@$$CBV?$basic_string@DU?$char_traits@D@std@@V?$allocator@D@2@@std@@P6A?AVraxml_out@tools@@AEAVtree@xml@4@AEAV?$basic_ostream@DU?$char_traits@D@std@@@2@_NPEAX@Z@std@@PEAX@0@AEBQEAU10@@Z
	??$_Construct_in_place@PEAU?$_Tree_node@U?$pair@$$CBV?$basic_string@DU?$char_traits@D@std@@V?$allocator@D@2@@std@@V12@@std@@PEAX@std@@AEAPEAU12@@std@@YAXAEAPEAU?$_Tree_node@U?$pair@$$CBV?$basic_string@DU?$char_traits@D@std@@V?$allocator@D@2@@std@@V12@@std@@PEAX@0@0@Z
	??$_Construct_in_place@PEAU?$_Tree_node@U?$pair@$$CBV?$basic_string@DU?$char_traits@D@std@@V?$allocator@D@2@@std@@V12@@std@@PEAX@std@@AEBQEAU12@@std@@YAXAEAPEAU?$_Tree_node@U?$pair@$$CBV?$basic_string@DU?$char_traits@D@std@@V?$allocator@D@2@@std@@V12@@std@@PEAX@0@AEBQEAU10@@Z
	??$_Construct_in_place@PEAU?$_Tree_node@U?$pair@$$CBV?$basic_string@DU?$char_traits@D@std@@V?$allocator@D@2@@std@@Vstyle_colormap@sg@tools@@@std@@PEAX@std@@AEAPEAU12@@std@@YAXAEAPEAU?$_Tree_node@U?$pair@$$CBV?$basic_string@DU?$char_traits@D@std@@V?$allocator@D@2@@std@@Vstyle_colormap@sg@tools@@@std@@PEAX@0@0@Z
	??$_Construct_in_place@PEAU?$_Tree_node@U?$pair@$$CBV?$basic_string@DU?$char_traits@D@std@@V?$allocator@D@2@@std@@Vstyle_colormap@sg@tools@@@std@@PEAX@std@@AEBQEAU12@@std@@YAXAEAPEAU?$_Tree_node@U?$pair@$$CBV?$basic_string@DU?$char_traits@D@std@@V?$allocator@D@2@@std@@Vstyle_colormap@sg@tools@@@std@@PEAX@0@AEBQEAU10@@Z
	??$_Construct_in_place@PEAU?$_Tree_node@U?$pair@$$CBVG4String@@H@std@@PEAX@std@@AEAPEAU12@@std@@YAXAEAPEAU?$_Tree_node@U?$pair@$$CBVG4String@@H@std@@PEAX@0@0@Z
	??$_Construct_in_place@PEAU?$_Tree_node@U?$pair@$$CBVG4String@@H@std@@PEAX@std@@AEBQEAU12@@std@@YAXAEAPEAU?$_Tree_node@U?$pair@$$CBVG4String@@H@std@@PEAX@0@AEBQEAU10@@Z
	??$_Construct_in_place@PEAU?$_Tree_node@U?$pair@$$CBVG4String@@PEAV?$basic_ifstream@DU?$char_traits@D@std@@@std@@@std@@PEAX@std@@AEAPEAU12@@std@@YAXAEAPEAU?$_Tree_node@U?$pair@$$CBVG4String@@PEAV?$basic_ifstream@DU?$char_traits@D@std@@@std@@@std@@PEAX@0@0@Z
	??$_Construct_in_place@PEAU?$_Tree_node@U?$pair@$$CBVG4String@@PEAV?$basic_ifstream@DU?$char_traits@D@std@@@std@@@std@@PEAX@std@@AEBQEAU12@@std@@YAXAEAPEAU?$_Tree_node@U?$pair@$$CBVG4String@@PEAV?$basic_ifstream@DU?$char_traits@D@std@@@std@@@std@@PEAX@0@AEBQEAU10@@Z
	??$_Construct_in_place@PEAU?$_Tree_node@U?$pair@$$CBVG4String@@PEAVG4VAccumulable@@@std@@PEAX@std@@AEAPEAU12@@std@@YAXAEAPEAU?$_Tree_node@U?$pair@$$CBVG4String@@PEAVG4VAccumulable@@@std@@PEAX@0@0@Z
	??$_Construct_in_place@PEAU?$_Tree_node@U?$pair@$$CBVG4String@@PEAVG4VAccumulable@@@std@@PEAX@std@@AEBQEAU12@@std@@YAXAEAPEAU?$_Tree_node@U?$pair@$$CBVG4String@@PEAVG4VAccumulable@@@std@@PEAX@0@AEBQEAU10@@Z
	??$_Construct_in_place@PEAU?$_Tree_node@U?$pair@$$CBVG4String@@PEAVfile@rroot@tools@@@std@@PEAX@std@@AEAPEAU12@@std@@YAXAEAPEAU?$_Tree_node@U?$pair@$$CBVG4String@@PEAVfile@rroot@tools@@@std@@PEAX@0@0@Z
	??$_Construct_in_place@PEAU?$_Tree_node@U?$pair@$$CBVG4String@@PEAVfile@rroot@tools@@@std@@PEAX@std@@AEBQEAU12@@std@@YAXAEAPEAU?$_Tree_node@U?$pair@$$CBVG4String@@PEAVfile@rroot@tools@@@std@@PEAX@0@AEBQEAU10@@Z
	??$_Construct_in_place@PEAU?$_Tree_node@U?$pair@$$CBVG4String@@PEAVraxml@tools@@@std@@PEAX@std@@AEAPEAU12@@std@@YAXAEAPEAU?$_Tree_node@U?$pair@$$CBVG4String@@PEAVraxml@tools@@@std@@PEAX@0@0@Z
	??$_Construct_in_place@PEAU?$_Tree_node@U?$pair@$$CBVG4String@@PEAVraxml@tools@@@std@@PEAX@std@@AEBQEAU12@@std@@YAXAEAPEAU?$_Tree_node@U?$pair@$$CBVG4String@@PEAVraxml@tools@@@std@@PEAX@0@AEBQEAU10@@Z
	??$_Construct_in_place@PEAU?$_Tree_node@U?$pair@$$CBVcolorf@tools@@I@std@@PEAX@std@@AEAPEAU12@@std@@YAXAEAPEAU?$_Tree_node@U?$pair@$$CBVcolorf@tools@@I@std@@PEAX@0@0@Z
	??$_Construct_in_place@PEAU?$_Tree_node@U?$pair@$$CBVcolorf@tools@@I@std@@PEAX@std@@AEBQEAU12@@std@@YAXAEAPEAU?$_Tree_node@U?$pair@$$CBVcolorf@tools@@I@std@@PEAX@0@AEBQEAU10@@Z
	??$_Construct_in_place@PEAU?$_Tree_node@U?$pair@QEAVibo@wroot@tools@@I@std@@PEAX@std@@AEAPEAU12@@std@@YAXAEAPEAU?$_Tree_node@U?$pair@QEAVibo@wroot@tools@@I@std@@PEAX@0@0@Z
	??$_Construct_in_place@PEAU?$_Tree_node@U?$pair@QEAVibo@wroot@tools@@I@std@@PEAX@std@@AEBQEAU12@@std@@YAXAEAPEAU?$_Tree_node@U?$pair@QEAVibo@wroot@tools@@I@std@@PEAX@0@AEBQEAU10@@Z
	??$_Construct_in_place@PEAU?$_Tree_node@U?$pair@QEAVntuple@aida@tools@@PEAV?$vector@HV?$allocator@H@std@@@std@@@std@@PEAX@std@@AEAPEAU12@@std@@YAXAEAPEAU?$_Tree_node@U?$pair@QEAVntuple@aida@tools@@PEAV?$vector@HV?$allocator@H@std@@@std@@@std@@PEAX@0@0@Z
	??$_Construct_in_place@PEAU?$_Tree_node@U?$pair@QEAVntuple@aida@tools@@PEAV?$vector@HV?$allocator@H@std@@@std@@@std@@PEAX@std@@AEBQEAU12@@std@@YAXAEAPEAU?$_Tree_node@U?$pair@QEAVntuple@aida@tools@@PEAV?$vector@HV?$allocator@H@std@@@std@@@std@@PEAX@0@AEBQEAU10@@Z
	??$_Construct_in_place@PEAU?$_Tree_node@U?$pair@QEAVntuple@aida@tools@@PEAV?$vector@MV?$allocator@M@std@@@std@@@std@@PEAX@std@@AEAPEAU12@@std@@YAXAEAPEAU?$_Tree_node@U?$pair@QEAVntuple@aida@tools@@PEAV?$vector@MV?$allocator@M@std@@@std@@@std@@PEAX@0@0@Z
	??$_Construct_in_place@PEAU?$_Tree_node@U?$pair@QEAVntuple@aida@tools@@PEAV?$vector@MV?$allocator@M@std@@@std@@@std@@PEAX@std@@AEBQEAU12@@std@@YAXAEAPEAU?$_Tree_node@U?$pair@QEAVntuple@aida@tools@@PEAV?$vector@MV?$allocator@M@std@@@std@@@std@@PEAX@0@AEBQEAU10@@Z
	??$_Construct_in_place@PEAU?$_Tree_node@U?$pair@QEAVntuple@aida@tools@@PEAV?$vector@NV?$allocator@N@std@@@std@@@std@@PEAX@std@@AEAPEAU12@@std@@YAXAEAPEAU?$_Tree_node@U?$pair@QEAVntuple@aida@tools@@PEAV?$vector@NV?$allocator@N@std@@@std@@@std@@PEAX@0@0@Z
	??$_Construct_in_place@PEAU?$_Tree_node@U?$pair@QEAVntuple@aida@tools@@PEAV?$vector@NV?$allocator@N@std@@@std@@@std@@PEAX@std@@AEBQEAU12@@std@@YAXAEAPEAU?$_Tree_node@U?$pair@QEAVntuple@aida@tools@@PEAV?$vector@NV?$allocator@N@std@@@std@@@std@@PEAX@0@AEBQEAU10@@Z
	??$_Construct_in_place@PEAU?$_Tree_node@U?$pair@QEAVntuple@rcsv@tools@@PEAV?$vector@HV?$allocator@H@std@@@std@@@std@@PEAX@std@@AEBQEAU12@@std@@YAXAEAPEAU?$_Tree_node@U?$pair@QEAVntuple@rcsv@tools@@PEAV?$vector@HV?$allocator@H@std@@@std@@@std@@PEAX@0@AEBQEAU10@@Z
	??$_Construct_in_place@PEAU?$_Tree_node@U?$pair@QEAVntuple@rcsv@tools@@PEAV?$vector@MV?$allocator@M@std@@@std@@@std@@PEAX@std@@AEBQEAU12@@std@@YAXAEAPEAU?$_Tree_node@U?$pair@QEAVntuple@rcsv@tools@@PEAV?$vector@MV?$allocator@M@std@@@std@@@std@@PEAX@0@AEBQEAU10@@Z
	??$_Construct_in_place@PEAU?$_Tree_node@U?$pair@QEAVntuple@rcsv@tools@@PEAV?$vector@NV?$allocator@N@std@@@std@@@std@@PEAX@std@@AEBQEAU12@@std@@YAXAEAPEAU?$_Tree_node@U?$pair@QEAVntuple@rcsv@tools@@PEAV?$vector@NV?$allocator@N@std@@@std@@@std@@PEAX@0@AEBQEAU10@@Z
	??$_Construct_in_place@PEAU?$_Tree_node@U?$pair@QEAVntuple@rroot@tools@@PEAV?$vector@HV?$allocator@H@std@@@std@@@std@@PEAX@std@@AEBQEAU12@@std@@YAXAEAPEAU?$_Tree_node@U?$pair@QEAVntuple@rroot@tools@@PEAV?$vector@HV?$allocator@H@std@@@std@@@std@@PEAX@0@AEBQEAU10@@Z
	??$_Construct_in_place@PEAU?$_Tree_node@U?$pair@QEAVntuple@rroot@tools@@PEAV?$vector@MV?$allocator@M@std@@@std@@@std@@PEAX@std@@AEBQEAU12@@std@@YAXAEAPEAU?$_Tree_node@U?$pair@QEAVntuple@rroot@tools@@PEAV?$vector@MV?$allocator@M@std@@@std@@@std@@PEAX@0@AEBQEAU10@@Z
	??$_Construct_in_place@PEAU?$_Tree_node@U?$pair@QEAVntuple@rroot@tools@@PEAV?$vector@NV?$allocator@N@std@@@std@@@std@@PEAX@std@@AEBQEAU12@@std@@YAXAEAPEAU?$_Tree_node@U?$pair@QEAVntuple@rroot@tools@@PEAV?$vector@NV?$allocator@N@std@@@std@@@std@@PEAX@0@AEBQEAU10@@Z
	??$_Construct_in_place@V?$basic_ofstream@DU?$char_traits@D@std@@@std@@VG4String@@@std@@YAXAEAV?$basic_ofstream@DU?$char_traits@D@std@@@0@$$QEAVG4String@@@Z
	??$_Construct_in_place@VG4CsvFileManager@@AEAVG4AnalysisManagerState@@@std@@YAXAEAVG4CsvFileManager@@AEAVG4AnalysisManagerState@@@Z
	??$_Construct_in_place@VG4HnManager@@AEBVG4String@@AEBVG4AnalysisManagerState@@@std@@YAXAEAVG4HnManager@@AEBVG4String@@AEBVG4AnalysisManagerState@@@Z
	??$_Construct_in_place@VG4PlotManager@@AEAVG4AnalysisManagerState@@@std@@YAXAEAVG4PlotManager@@AEAVG4AnalysisManagerState@@@Z
	??$_Construct_in_place@VG4RootFileManager@@AEAVG4AnalysisManagerState@@@std@@YAXAEAVG4RootFileManager@@AEAVG4AnalysisManagerState@@@Z
	??$_Construct_in_place@VG4XmlFileManager@@AEAVG4AnalysisManagerState@@@std@@YAXAEAVG4XmlFileManager@@AEAVG4AnalysisManagerState@@@Z
	??$_Construct_in_place@Vfile@wroot@tools@@AEAV?$basic_ostream@DU?$char_traits@D@std@@@std@@AEAVG4String@@@std@@YAXAEAVfile@wroot@tools@@AEAV?$basic_ostream@DU?$char_traits@D@std@@@0@AEAVG4String@@@Z
	??$_Copy@U_Copy_tag@?$_Tree@V?$_Tmap_traits@IVstyle_color@sg@tools@@U?$less@I@std@@V?$allocator@U?$pair@$$CBIVstyle_color@sg@tools@@@std@@@5@$0A@@std@@@std@@@?$_Tree@V?$_Tmap_traits@IVstyle_color@sg@tools@@U?$less@I@std@@V?$allocator@U?$pair@$$CBIVstyle_color@sg@tools@@@std@@@5@$0A@@std@@@std@@IEAAXAEBV01@U_Copy_tag@01@@Z
	??$_Copy@U_Copy_tag@?$_Tree@V?$_Tmap_traits@V?$basic_string@DU?$char_traits@D@std@@V?$allocator@D@2@@std@@V12@U?$less@V?$basic_string@DU?$char_traits@D@std@@V?$allocator@D@2@@std@@@2@V?$allocator@U?$pair@$$CBV?$basic_string@DU?$char_traits@D@std@@V?$allocator@D@2@@std@@V12@@std@@@2@$0A@@std@@@std@@@?$_Tree@V?$_Tmap_traits@V?$basic_string@DU?$char_traits@D@std@@V?$allocator@D@2@@std@@V12@U?$less@V?$basic_string@DU?$char_traits@D@std@@V?$allocator@D@2@@std@@@2@V?$allocator@U?$pair@$$CBV?$basic_string@DU?$char_traits@D@std@@V?$allocator@D@2@@std@@V12@@std@@@2@$0A@@std@@@std@@IEAAXAEBV01@U_Copy_tag@01@@Z
	??$_Copy@U_Copy_tag@?$_Tree@V?$_Tmap_traits@V?$basic_string@DU?$char_traits@D@std@@V?$allocator@D@2@@std@@Vstyle_colormap@sg@tools@@U?$less@V?$basic_string@DU?$char_traits@D@std@@V?$allocator@D@2@@std@@@2@V?$allocator@U?$pair@$$CBV?$basic_string@DU?$char_traits@D@std@@V?$allocator@D@2@@std@@Vstyle_colormap@sg@tools@@@std@@@2@$0A@@std@@@std@@@?$_Tree@V?$_Tmap_traits@V?$basic_string@DU?$char_traits@D@std@@V?$allocator@D@2@@std@@Vstyle_colormap@sg@tools@@U?$less@V?$basic_string@DU?$char_traits@D@std@@V?$allocator@D@2@@std@@@2@V?$allocator@U?$pair@$$CBV?$basic_string@DU?$char_traits@D@std@@V?$allocator@D@2@@std@@Vstyle_colormap@sg@tools@@@std@@@2@$0A@@std@@@std@@IEAAXAEBV01@U_Copy_tag@01@@Z
	??$_Copy_memmove@PEADPEAD@std@@YAPEADPEAD00@Z
	??$_Copy_memmove@PEAEPEAE@std@@YAPEAEPEAE00@Z
	??$_Copy_memmove@PEAFPEAF@std@@YAPEAFPEAF00@Z
	??$_Copy_memmove@PEAGPEAG@std@@YAPEAGPEAG00@Z
	??$_Copy_memmove@PEAHPEAH@std@@YAPEAHPEAH00@Z
	??$_Copy_memmove@PEAIPEAI@std@@YAPEAIPEAI00@Z
	??$_Copy_memmove@PEAMPEAM@std@@YAPEAMPEAM00@Z
	??$_Copy_memmove@PEANPEAN@std@@YAPEANPEAN00@Z
	??$_Copy_memmove@PEAPEANPEAPEAN@std@@YAPEAPEANPEAPEAN00@Z
	??$_Copy_memmove@PEAPEAU?$G4TNtupleDescription@Vntuple@waxml@tools@@@@PEAPEAU1@@std@@YAPEAPEAU?$G4TNtupleDescription@Vntuple@waxml@tools@@@@PEAPEAU1@00@Z
	??$_Copy_memmove@PEAPEAU?$G4TNtupleDescription@Vntuple@wcsv@tools@@@@PEAPEAU1@@std@@YAPEAPEAU?$G4TNtupleDescription@Vntuple@wcsv@tools@@@@PEAPEAU1@00@Z
	??$_Copy_memmove@PEAPEAU?$G4TNtupleDescription@Vntuple@wroot@tools@@@@PEAPEAU1@@std@@YAPEAPEAU?$G4TNtupleDescription@Vntuple@wroot@tools@@@@PEAPEAU1@00@Z
	??$_Copy_memmove@PEAPEAU?$G4TRNtupleDescription@Vntuple@aida@tools@@@@PEAPEAU1@@std@@YAPEAPEAU?$G4TRNtupleDescription@Vntuple@aida@tools@@@@PEAPEAU1@00@Z
	??$_Copy_memmove@PEAPEAU?$G4TRNtupleDescription@Vntuple@rcsv@tools@@@@PEAPEAU1@@std@@YAPEAPEAU?$G4TRNtupleDescription@Vntuple@rcsv@tools@@@@PEAPEAU1@00@Z
	??$_Copy_memmove@PEAPEAU?$G4TRNtupleDescription@Vntuple@rroot@tools@@@@PEAPEAU1@@std@@YAPEAPEAU?$G4TRNtupleDescription@Vntuple@rroot@tools@@@@PEAPEAU1@00@Z
	??$_Copy_memmove@PEAPEAUG4RootPNtupleDescription@@PEAPEAU1@@std@@YAPEAPEAUG4RootPNtupleDescription@@PEAPEAU1@00@Z
	??$_Copy_memmove@PEAPEAVG4HnInformation@@PEAPEAV1@@std@@YAPEAPEAVG4HnInformation@@PEAPEAV1@00@Z
	??$_Copy_memmove@PEAPEAVG4RootMainNtupleManager@@PEAPEAV1@@std@@YAPEAPEAVG4RootMainNtupleManager@@PEAPEAV1@00@Z
	??$_Copy_memmove@PEAPEAVG4UIparameter@@PEAPEAV1@@std@@YAPEAPEAVG4UIparameter@@PEAPEAV1@00@Z
	??$_Copy_memmove@PEAPEAVG4VAccumulable@@PEAPEAV1@@std@@YAPEAPEAVG4VAccumulable@@PEAPEAV1@00@Z
	??$_Copy_memmove@PEAPEAVbase_col@aida@tools@@PEAPEAV123@@std@@YAPEAPEAVbase_col@aida@tools@@PEAPEAV123@00@Z
	??$_Copy_memmove@PEAPEAVbase_colormap@sg@tools@@PEAPEAV123@@std@@YAPEAPEAVbase_colormap@sg@tools@@PEAPEAV123@00@Z
	??$_Copy_memmove@PEAPEAVbase_leaf@rroot@tools@@PEAPEAV123@@std@@YAPEAPEAVbase_leaf@rroot@tools@@PEAPEAV123@00@Z
	??$_Copy_memmove@PEAPEAVbase_leaf@wroot@tools@@PEAPEAV123@@std@@YAPEAPEAVbase_leaf@wroot@tools@@PEAPEAV123@00@Z
	??$_Copy_memmove@PEAPEAVbasket@rroot@tools@@PEAPEAV123@@std@@YAPEAPEAVbasket@rroot@tools@@PEAPEAV123@00@Z
	??$_Copy_memmove@PEAPEAVbasket@wroot@tools@@PEAPEAV123@@std@@YAPEAPEAVbasket@wroot@tools@@PEAPEAV123@00@Z
	??$_Copy_memmove@PEAPEAVbranch@rroot@tools@@PEAPEAV123@@std@@YAPEAPEAVbranch@rroot@tools@@PEAPEAV123@00@Z
	??$_Copy_memmove@PEAPEAVbranch@wroot@tools@@PEAPEAV123@@std@@YAPEAPEAVbranch@wroot@tools@@PEAPEAV123@00@Z
	??$_Copy_memmove@PEAPEAVdirectory@wroot@tools@@PEAPEAV123@@std@@YAPEAPEAVdirectory@wroot@tools@@PEAPEAV123@00@Z
	??$_Copy_memmove@PEAPEAVfield@sg@tools@@PEAPEAV123@@std@@YAPEAPEAVfield@sg@tools@@PEAPEAV123@00@Z
	??$_Copy_memmove@PEAPEAVh1d@histo@tools@@PEAPEAV123@@std@@YAPEAPEAVh1d@histo@tools@@PEAPEAV123@00@Z
	??$_Copy_memmove@PEAPEAVh2d@histo@tools@@PEAPEAV123@@std@@YAPEAPEAVh2d@histo@tools@@PEAPEAV123@00@Z
	??$_Copy_memmove@PEAPEAVh3d@histo@tools@@PEAPEAV123@@std@@YAPEAPEAVh3d@histo@tools@@PEAPEAV123@00@Z
	??$_Copy_memmove@PEAPEAVicol@ntuple@wcsv@tools@@PEAPEAV1234@@std@@YAPEAPEAVicol@ntuple@wcsv@tools@@PEAPEAV1234@00@Z
	??$_Copy_memmove@PEAPEAVicol@read@tools@@PEAPEAV123@@std@@YAPEAPEAVicol@read@tools@@PEAPEAV123@00@Z
	??$_Copy_memmove@PEAPEAVicol@wroot@tools@@PEAPEAV123@@std@@YAPEAPEAVicol@wroot@tools@@PEAPEAV123@00@Z
	??$_Copy_memmove@PEAPEAVimt_ntuple@wroot@tools@@PEAPEAV123@@std@@YAPEAPEAVimt_ntuple@wroot@tools@@PEAPEAV123@00@Z
	??$_Copy_memmove@PEAPEAViobj@ntuple@waxml@tools@@PEAPEAV1234@@std@@YAPEAPEAViobj@ntuple@waxml@tools@@PEAPEAV1234@00@Z
	??$_Copy_memmove@PEAPEAViobject@wroot@tools@@PEAPEAV123@@std@@YAPEAPEAViobject@wroot@tools@@PEAPEAV123@00@Z
	??$_Copy_memmove@PEAPEAViro@rroot@tools@@PEAPEAV123@@std@@YAPEAPEAViro@rroot@tools@@PEAPEAV123@00@Z
	??$_Copy_memmove@PEAPEAVkey@rroot@tools@@PEAPEAV123@@std@@YAPEAPEAVkey@rroot@tools@@PEAPEAV123@00@Z
	??$_Copy_memmove@PEAPEAVmatrix@sg@tools@@PEAPEAV123@@std@@YAPEAPEAVmatrix@sg@tools@@PEAPEAV123@00@Z
	??$_Copy_memmove@PEAPEAVnode@sg@tools@@PEAPEAV123@@std@@YAPEAPEAVnode@sg@tools@@PEAPEAV123@00@Z
	??$_Copy_memmove@PEAPEAVntuple@waxml@tools@@PEAPEAV123@@std@@YAPEAPEAVntuple@waxml@tools@@PEAPEAV123@00@Z
	??$_Copy_memmove@PEAPEAVntuple@wcsv@tools@@PEAPEAV123@@std@@YAPEAPEAVntuple@wcsv@tools@@PEAPEAV123@00@Z
	??$_Copy_memmove@PEAPEAVntuple@wroot@tools@@PEAPEAV123@@std@@YAPEAPEAVntuple@wroot@tools@@PEAPEAV123@00@Z
	??$_Copy_memmove@PEAPEAVp1d@histo@tools@@PEAPEAV123@@std@@YAPEAPEAVp1d@histo@tools@@PEAPEAV123@00@Z
	??$_Copy_memmove@PEAPEAVp2d@histo@tools@@PEAPEAV123@@std@@YAPEAPEAVp2d@histo@tools@@PEAPEAV123@00@Z
	??$_Copy_memmove@PEAPEAVplotprim@sg@tools@@PEAPEAV123@@std@@YAPEAPEAVplotprim@sg@tools@@PEAPEAV123@00@Z
	??$_Copy_memmove@PEAPEAVplottable@sg@tools@@PEAPEAV123@@std@@YAPEAPEAVplottable@sg@tools@@PEAPEAV123@00@Z
	??$_Copy_memmove@PEAPEAVseparator@sg@tools@@PEAPEAV123@@std@@YAPEAPEAVseparator@sg@tools@@PEAPEAV123@00@Z
	??$_Copy_memmove@PEAPEAVstreamer_element@rroot@tools@@PEAPEAV123@@std@@YAPEAPEAVstreamer_element@rroot@tools@@PEAPEAV123@00@Z
	??$_Copy_memmove@PEAPEAVstreamer_element@wroot@tools@@PEAPEAV123@@std@@YAPEAPEAVstreamer_element@wroot@tools@@PEAPEAV123@00@Z
	??$_Copy_memmove@PEAPEAVstreamer_info@wroot@tools@@PEAPEAV123@@std@@YAPEAPEAVstreamer_info@wroot@tools@@PEAPEAV123@00@Z
	??$_Copy_memmove@PEAPEAVtree@columns@tools@@PEAPEAV123@@std@@YAPEAPEAVtree@columns@tools@@PEAPEAV123@00@Z
	??$_Copy_memmove@PEAPEAXPEAPEAX@std@@YAPEAPEAXPEAPEAX00@Z
	??$_Copy_memmove@PEAUtess_triangle@tools@@PEAU12@@std@@YAPEAUtess_triangle@tools@@PEAU12@00@Z
	??$_Copy_memmove@PEAW4unit_type@plotter@sg@tools@@PEAW41234@@std@@YAPEAW4unit_type@plotter@sg@tools@@PEAW41234@00@Z
	??$_Copy_memmove@PEA_JPEA_J@std@@YAPEA_JPEA_J00@Z
	??$_Copy_memmove@PEA_KPEA_K@std@@YAPEA_KPEA_K00@Z
	??$_Copy_nodes@U_Copy_tag@?$_Tree@V?$_Tmap_traits@IVstyle_color@sg@tools@@U?$less@I@std@@V?$allocator@U?$pair@$$CBIVstyle_color@sg@tools@@@std@@@5@$0A@@std@@@std@@@?$_Tree@V?$_Tmap_traits@IVstyle_color@sg@tools@@U?$less@I@std@@V?$allocator@U?$pair@$$CBIVstyle_color@sg@tools@@@std@@@5@$0A@@std@@@std@@IEAAPEAU?$_Tree_node@U?$pair@$$CBIVstyle_color@sg@tools@@@std@@PEAX@1@PEAU21@0U_Copy_tag@01@@Z
	??$_Copy_nodes@U_Copy_tag@?$_Tree@V?$_Tmap_traits@V?$basic_string@DU?$char_traits@D@std@@V?$allocator@D@2@@std@@V12@U?$less@V?$basic_string@DU?$char_traits@D@std@@V?$allocator@D@2@@std@@@2@V?$allocator@U?$pair@$$CBV?$basic_string@DU?$char_traits@D@std@@V?$allocator@D@2@@std@@V12@@std@@@2@$0A@@std@@@std@@@?$_Tree@V?$_Tmap_traits@V?$basic_string@DU?$char_traits@D@std@@V?$allocator@D@2@@std@@V12@U?$less@V?$basic_string@DU?$char_traits@D@std@@V?$allocator@D@2@@std@@@2@V?$allocator@U?$pair@$$CBV?$basic_string@DU?$char_traits@D@std@@V?$allocator@D@2@@std@@V12@@std@@@2@$0A@@std@@@std@@IEAAPEAU?$_Tree_node@U?$pair@$$CBV?$basic_string@DU?$char_traits@D@std@@V?$allocator@D@2@@std@@V12@@std@@PEAX@1@PEAU21@0U_Copy_tag@01@@Z
	??$_Copy_nodes@U_Copy_tag@?$_Tree@V?$_Tmap_traits@V?$basic_string@DU?$char_traits@D@std@@V?$allocator@D@2@@std@@Vstyle_colormap@sg@tools@@U?$less@V?$basic_string@DU?$char_traits@D@std@@V?$allocator@D@2@@std@@@2@V?$allocator@U?$pair@$$CBV?$basic_string@DU?$char_traits@D@std@@V?$allocator@D@2@@std@@Vstyle_colormap@sg@tools@@@std@@@2@$0A@@std@@@std@@@?$_Tree@V?$_Tmap_traits@V?$basic_string@DU?$char_traits@D@std@@V?$allocator@D@2@@std@@Vstyle_colormap@sg@tools@@U?$less@V?$basic_string@DU?$char_traits@D@std@@V?$allocator@D@2@@std@@@2@V?$allocator@U?$pair@$$CBV?$basic_string@DU?$char_traits@D@std@@V?$allocator@D@2@@std@@Vstyle_colormap@sg@tools@@@std@@@2@$0A@@std@@@std@@IEAAPEAU?$_Tree_node@U?$pair@$$CBV?$basic_string@DU?$char_traits@D@std@@V?$allocator@D@2@@std@@Vstyle_colormap@sg@tools@@@std@@PEAX@1@PEAU21@0U_Copy_tag@01@@Z
	??$_Copy_unchecked@PEAU?$pair@V?$basic_string@DU?$char_traits@D@std@@V?$allocator@D@2@@std@@H@std@@PEAU12@@std@@YAPEAU?$pair@V?$basic_string@DU?$char_traits@D@std@@V?$allocator@D@2@@std@@H@0@PEAU10@00@Z
	??$_Copy_unchecked@PEAU?$pair@V?$basic_string@DU?$char_traits@D@std@@V?$allocator@D@2@@std@@V12@@std@@PEAU12@@std@@YAPEAU?$pair@V?$basic_string@DU?$char_traits@D@std@@V?$allocator@D@2@@std@@V12@@0@PEAU10@00@Z
	??$_Copy_unchecked@PEAV?$axis@NI@histo@tools@@PEAV123@@std@@YAPEAV?$axis@NI@histo@tools@@PEAV123@00@Z
	??$_Copy_unchecked@PEAV?$basic_string@DU?$char_traits@D@std@@V?$allocator@D@2@@std@@PEAV12@@std@@YAPEAV?$basic_string@DU?$char_traits@D@std@@V?$allocator@D@2@@0@PEAV10@00@Z
	??$_Copy_unchecked@PEAV?$vector@NV?$allocator@N@std@@@std@@PEAV12@@std@@YAPEAV?$vector@NV?$allocator@N@std@@@0@PEAV10@00@Z
	??$_Copy_unchecked@PEAVfield_desc@sg@tools@@PEAV123@@std@@YAPEAVfield_desc@sg@tools@@PEAV123@00@Z
	??$_Copy_unchecked@PEAVmat4f@tools@@PEAV12@@std@@YAPEAVmat4f@tools@@PEAV12@00@Z
	??$_Copy_unchecked@PEAVstate@sg@tools@@PEAV123@@std@@YAPEAVstate@sg@tools@@PEAV123@00@Z
	??$_Copy_unchecked@PEAVstyle@sg@tools@@PEAV123@@std@@YAPEAVstyle@sg@tools@@PEAV123@00@Z
	??$_Copy_unchecked@PEAVvec2f@tools@@PEAV12@@std@@YAPEAVvec2f@tools@@PEAV12@00@Z
	??$_Copy_unchecked@PEB_NV?$_Vb_iterator@U?$_Wrap_alloc@V?$allocator@I@std@@@std@@@std@@@std@@YA?AV?$_Vb_iterator@U?$_Wrap_alloc@V?$allocator@I@std@@@std@@@0@PEB_N0V10@@Z
	??$_Copy_unchecked@V?$_Vb_iterator@U?$_Wrap_alloc@V?$allocator@I@std@@@std@@@std@@V12@@std@@YA?AV?$_Vb_iterator@U?$_Wrap_alloc@V?$allocator@I@std@@@std@@@0@V10@00@Z
	??$_Deallocate@$0BA@$0A@@std@@YAXPEAX_K@Z
	??$_Destroy_in_place@PEAD@std@@YAXAEAPEAD@Z
	??$_Destroy_in_place@PEAU?$_List_node@IPEAX@std@@@std@@YAXAEAPEAU?$_List_node@IPEAX@0@@Z
	??$_Destroy_in_place@PEAU?$_List_node@PEAV?$list@IV?$allocator@I@std@@@std@@PEAX@std@@@std@@YAXAEAPEAU?$_List_node@PEAV?$list@IV?$allocator@I@std@@@std@@PEAX@0@@Z
	??$_Destroy_in_place@PEAU?$_List_node@PEAVfree_seg@wroot@tools@@PEAX@std@@@std@@YAXAEAPEAU?$_List_node@PEAVfree_seg@wroot@tools@@PEAX@0@@Z
	??$_Destroy_in_place@PEAU?$_List_node@PEAVielem@xml@tools@@PEAX@std@@@std@@YAXAEAPEAU?$_List_node@PEAVielem@xml@tools@@PEAX@0@@Z
	??$_Destroy_in_place@PEAU?$_List_node@PEAVkey@wroot@tools@@PEAX@std@@@std@@YAXAEAPEAU?$_List_node@PEAVkey@wroot@tools@@PEAX@0@@Z
	??$_Destroy_in_place@PEAU?$_Tree_node@U?$pair@$$CBDP6A_NAEAV?$basic_ostream@DU?$char_traits@D@std@@@std@@IIPEBDIPEADAEAI@Z@std@@PEAX@std@@@std@@YAXAEAPEAU?$_Tree_node@U?$pair@$$CBDP6A_NAEAV?$basic_ostream@DU?$char_traits@D@std@@@std@@IIPEBDIPEADAEAI@Z@std@@PEAX@0@@Z
	??$_Destroy_in_place@PEAU?$_Tree_node@U?$pair@$$CBDP6A_NAEAV?$basic_ostream@DU?$char_traits@D@std@@@std@@IPEBDIPEADAEAI@Z@std@@PEAX@std@@@std@@YAXAEAPEAU?$_Tree_node@U?$pair@$$CBDP6A_NAEAV?$basic_ostream@DU?$char_traits@D@std@@@std@@IPEBDIPEADAEAI@Z@std@@PEAX@0@@Z
	??$_Destroy_in_place@PEAU?$_Tree_node@U?$pair@$$CBDPEAX@std@@PEAX@std@@@std@@YAXAEAPEAU?$_Tree_node@U?$pair@$$CBDPEAX@std@@PEAX@0@@Z
	??$_Destroy_in_place@PEAU?$_Tree_node@U?$pair@$$CBIPEAViro@rroot@tools@@@std@@PEAX@std@@@std@@YAXAEAPEAU?$_Tree_node@U?$pair@$$CBIPEAViro@rroot@tools@@@std@@PEAX@0@@Z
	??$_Destroy_in_place@PEAU?$_Tree_node@U?$pair@$$CBIU?$pair@PEAVbasket@rroot@tools@@_N@std@@@std@@PEAX@std@@@std@@YAXAEAPEAU?$_Tree_node@U?$pair@$$CBIU?$pair@PEAVbasket@rroot@tools@@_N@std@@@std@@PEAX@0@@Z
	??$_Destroy_in_place@PEAU?$_Tree_node@U?$pair@$$CBIV?$img@E@tools@@@std@@PEAX@std@@@std@@YAXAEAPEAU?$_Tree_node@U?$pair@$$CBIV?$img@E@tools@@@std@@PEAX@0@@Z
	??$_Destroy_in_place@PEAU?$_Tree_node@U?$pair@$$CBIVcolorf@tools@@@std@@PEAX@std@@@std@@YAXAEAPEAU?$_Tree_node@U?$pair@$$CBIVcolorf@tools@@@std@@PEAX@0@@Z
	??$_Destroy_in_place@PEAU?$_Tree_node@U?$pair@$$CBIVstyle_color@sg@tools@@@std@@PEAX@std@@@std@@YAXAEAPEAU?$_Tree_node@U?$pair@$$CBIVstyle_color@sg@tools@@@std@@PEAX@0@@Z
	??$_Destroy_in_place@PEAU?$_Tree_node@U?$pair@$$CBV?$basic_string@DU?$char_traits@D@std@@V?$allocator@D@2@@std@@I@std@@PEAX@std@@@std@@YAXAEAPEAU?$_Tree_node@U?$pair@$$CBV?$basic_string@DU?$char_traits@D@std@@V?$allocator@D@2@@std@@I@std@@PEAX@0@@Z
	??$_Destroy_in_place@PEAU?$_Tree_node@U?$pair@$$CBV?$basic_string@DU?$char_traits@D@std@@V?$allocator@D@2@@std@@P6A?AVraxml_out@tools@@AEAVtree@xml@4@AEAV?$basic_ostream@DU?$char_traits@D@std@@@2@_NPEAX@Z@std@@PEAX@std@@@std@@YAXAEAPEAU?$_Tree_node@U?$pair@$$CBV?$basic_string@DU?$char_traits@D@std@@V?$allocator@D@2@@std@@P6A?AVraxml_out@tools@@AEAVtree@xml@4@AEAV?$basic_ostream@DU?$char_traits@D@std@@@2@_NPEAX@Z@std@@PEAX@0@@Z
	??$_Destroy_in_place@PEAU?$_Tree_node@U?$pair@$$CBV?$basic_string@DU?$char_traits@D@std@@V?$allocator@D@2@@std@@V12@@std@@PEAX@std@@@std@@YAXAEAPEAU?$_Tree_node@U?$pair@$$CBV?$basic_string@DU?$char_traits@D@std@@V?$allocator@D@2@@std@@V12@@std@@PEAX@0@@Z
	??$_Destroy_in_place@PEAU?$_Tree_node@U?$pair@$$CBV?$basic_string@DU?$char_traits@D@std@@V?$allocator@D@2@@std@@Vstyle_colormap@sg@tools@@@std@@PEAX@std@@@std@@YAXAEAPEAU?$_Tree_node@U?$pair@$$CBV?$basic_string@DU?$char_traits@D@std@@V?$allocator@D@2@@std@@Vstyle_colormap@sg@tools@@@std@@PEAX@0@@Z
	??$_Destroy_in_place@PEAU?$_Tree_node@U?$pair@$$CBVG4String@@H@std@@PEAX@std@@@std@@YAXAEAPEAU?$_Tree_node@U?$pair@$$CBVG4String@@H@std@@PEAX@0@@Z
	??$_Destroy_in_place@PEAU?$_Tree_node@U?$pair@$$CBVG4String@@PEAV?$basic_ifstream@DU?$char_traits@D@std@@@std@@@std@@PEAX@std@@@std@@YAXAEAPEAU?$_Tree_node@U?$pair@$$CBVG4String@@PEAV?$basic_ifstream@DU?$char_traits@D@std@@@std@@@std@@PEAX@0@@Z
	??$_Destroy_in_place@PEAU?$_Tree_node@U?$pair@$$CBVG4String@@PEAVG4VAccumulable@@@std@@PEAX@std@@@std@@YAXAEAPEAU?$_Tree_node@U?$pair@$$CBVG4String@@PEAVG4VAccumulable@@@std@@PEAX@0@@Z
	??$_Destroy_in_place@PEAU?$_Tree_node@U?$pair@$$CBVG4String@@PEAVfile@rroot@tools@@@std@@PEAX@std@@@std@@YAXAEAPEAU?$_Tree_node@U?$pair@$$CBVG4String@@PEAVfile@rroot@tools@@@std@@PEAX@0@@Z
	??$_Destroy_in_place@PEAU?$_Tree_node@U?$pair@$$CBVG4String@@PEAVraxml@tools@@@std@@PEAX@std@@@std@@YAXAEAPEAU?$_Tree_node@U?$pair@$$CBVG4String@@PEAVraxml@tools@@@std@@PEAX@0@@Z
	??$_Destroy_in_place@PEAU?$_Tree_node@U?$pair@$$CBVcolorf@tools@@I@std@@PEAX@std@@@std@@YAXAEAPEAU?$_Tree_node@U?$pair@$$CBVcolorf@tools@@I@std@@PEAX@0@@Z
	??$_Destroy_in_place@PEAU?$_Tree_node@U?$pair@QEAVibo@wroot@tools@@I@std@@PEAX@std@@@std@@YAXAEAPEAU?$_Tree_node@U?$pair@QEAVibo@wroot@tools@@I@std@@PEAX@0@@Z
	??$_Destroy_in_place@PEAU?$_Tree_node@U?$pair@QEAVntuple@aida@tools@@PEAV?$vector@HV?$allocator@H@std@@@std@@@std@@PEAX@std@@@std@@YAXAEAPEAU?$_Tree_node@U?$pair@QEAVntuple@aida@tools@@PEAV?$vector@HV?$allocator@H@std@@@std@@@std@@PEAX@0@@Z
	??$_Destroy_in_place@PEAU?$_Tree_node@U?$pair@QEAVntuple@aida@tools@@PEAV?$vector@MV?$allocator@M@std@@@std@@@std@@PEAX@std@@@std@@YAXAEAPEAU?$_Tree_node@U?$pair@QEAVntuple@aida@tools@@PEAV?$vector@MV?$allocator@M@std@@@std@@@std@@PEAX@0@@Z
	??$_Destroy_in_place@PEAU?$_Tree_node@U?$pair@QEAVntuple@aida@tools@@PEAV?$vector@NV?$allocator@N@std@@@std@@@std@@PEAX@std@@@std@@YAXAEAPEAU?$_Tree_node@U?$pair@QEAVntuple@aida@tools@@PEAV?$vector@NV?$allocator@N@std@@@std@@@std@@PEAX@0@@Z
	??$_Destroy_in_place@PEAU?$_Tree_node@U?$pair@QEAVntuple@rcsv@tools@@PEAV?$vector@HV?$allocator@H@std@@@std@@@std@@PEAX@std@@@std@@YAXAEAPEAU?$_Tree_node@U?$pair@QEAVntuple@rcsv@tools@@PEAV?$vector@HV?$allocator@H@std@@@std@@@std@@PEAX@0@@Z
	??$_Destroy_in_place@PEAU?$_Tree_node@U?$pair@QEAVntuple@rcsv@tools@@PEAV?$vector@MV?$allocator@M@std@@@std@@@std@@PEAX@std@@@std@@YAXAEAPEAU?$_Tree_node@U?$pair@QEAVntuple@rcsv@tools@@PEAV?$vector@MV?$allocator@M@std@@@std@@@std@@PEAX@0@@Z
	??$_Destroy_in_place@PEAU?$_Tree_node@U?$pair@QEAVntuple@rcsv@tools@@PEAV?$vector@NV?$allocator@N@std@@@std@@@std@@PEAX@std@@@std@@YAXAEAPEAU?$_Tree_node@U?$pair@QEAVntuple@rcsv@tools@@PEAV?$vector@NV?$allocator@N@std@@@std@@@std@@PEAX@0@@Z
	??$_Destroy_in_place@PEAU?$_Tree_node@U?$pair@QEAVntuple@rroot@tools@@PEAV?$vector@HV?$allocator@H@std@@@std@@@std@@PEAX@std@@@std@@YAXAEAPEAU?$_Tree_node@U?$pair@QEAVntuple@rroot@tools@@PEAV?$vector@HV?$allocator@H@std@@@std@@@std@@PEAX@0@@Z
	??$_Destroy_in_place@PEAU?$_Tree_node@U?$pair@QEAVntuple@rroot@tools@@PEAV?$vector@MV?$allocator@M@std@@@std@@@std@@PEAX@std@@@std@@YAXAEAPEAU?$_Tree_node@U?$pair@QEAVntuple@rroot@tools@@PEAV?$vector@MV?$allocator@M@std@@@std@@@std@@PEAX@0@@Z
	??$_Destroy_in_place@PEAU?$_Tree_node@U?$pair@QEAVntuple@rroot@tools@@PEAV?$vector@NV?$allocator@N@std@@@std@@@std@@PEAX@std@@@std@@YAXAEAPEAU?$_Tree_node@U?$pair@QEAVntuple@rroot@tools@@PEAV?$vector@NV?$allocator@N@std@@@std@@@std@@PEAX@0@@Z
	??$_Destroy_in_place@V?$basic_ofstream@DU?$char_traits@D@std@@@std@@@std@@YAXAEAV?$basic_ofstream@DU?$char_traits@D@std@@@0@@Z
	??$_Destroy_in_place@VG4CsvFileManager@@@std@@YAXAEAVG4CsvFileManager@@@Z
	??$_Destroy_in_place@VG4HnManager@@@std@@YAXAEAVG4HnManager@@@Z
	??$_Destroy_in_place@VG4PlotManager@@@std@@YAXAEAVG4PlotManager@@@Z
	??$_Destroy_in_place@VG4RootFileManager@@@std@@YAXAEAVG4RootFileManager@@@Z
	??$_Destroy_in_place@VG4XmlFileManager@@@std@@YAXAEAVG4XmlFileManager@@@Z
	??$_Destroy_in_place@Vfile@wroot@tools@@@std@@YAXAEAVfile@wroot@tools@@@Z
	??$_Destroy_range@V?$allocator@D@std@@@std@@YAXPEADQEADAEAV?$allocator@D@0@@Z
	??$_Destroy_range@V?$allocator@E@std@@@std@@YAXPEAEQEAEAEAV?$allocator@E@0@@Z
	??$_Destroy_range@V?$allocator@F@std@@@std@@YAXPEAFQEAFAEAV?$allocator@F@0@@Z
	??$_Destroy_range@V?$allocator@G@std@@@std@@YAXPEAGQEAGAEAV?$allocator@G@0@@Z
	??$_Destroy_range@V?$allocator@H@std@@@std@@YAXPEAHQEAHAEAV?$allocator@H@0@@Z
	??$_Destroy_range@V?$allocator@I@std@@@std@@YAXPEAIQEAIAEAV?$allocator@I@0@@Z
	??$_Destroy_range@V?$allocator@M@std@@@std@@YAXPEAMQEAMAEAV?$allocator@M@0@@Z
	??$_Destroy_range@V?$allocator@N@std@@@std@@YAXPEANQEANAEAV?$allocator@N@0@@Z
	??$_Destroy_range@V?$allocator@PEAN@std@@@std@@YAXPEAPEANQEAPEANAEAV?$allocator@PEAN@0@@Z
	??$_Destroy_range@V?$allocator@PEAU?$G4TNtupleDescription@Vntuple@waxml@tools@@@@@std@@@std@@YAXPEAPEAU?$G4TNtupleDescription@Vntuple@waxml@tools@@@@QEAPEAU1@AEAV?$allocator@PEAU?$G4TNtupleDescription@Vntuple@waxml@tools@@@@@0@@Z
	??$_Destroy_range@V?$allocator@PEAU?$G4TNtupleDescription@Vntuple@wcsv@tools@@@@@std@@@std@@YAXPEAPEAU?$G4TNtupleDescription@Vntuple@wcsv@tools@@@@QEAPEAU1@AEAV?$allocator@PEAU?$G4TNtupleDescription@Vntuple@wcsv@tools@@@@@0@@Z
	??$_Destroy_range@V?$allocator@PEAU?$G4TNtupleDescription@Vntuple@wroot@tools@@@@@std@@@std@@YAXPEAPEAU?$G4TNtupleDescription@Vntuple@wroot@tools@@@@QEAPEAU1@AEAV?$allocator@PEAU?$G4TNtupleDescription@Vntuple@wroot@tools@@@@@0@@Z
	??$_Destroy_range@V?$allocator@PEAU?$G4TRNtupleDescription@Vntuple@aida@tools@@@@@std@@@std@@YAXPEAPEAU?$G4TRNtupleDescription@Vntuple@aida@tools@@@@QEAPEAU1@AEAV?$allocator@PEAU?$G4TRNtupleDescription@Vntuple@aida@tools@@@@@0@@Z
	??$_Destroy_range@V?$allocator@PEAU?$G4TRNtupleDescription@Vntuple@rcsv@tools@@@@@std@@@std@@YAXPEAPEAU?$G4TRNtupleDescription@Vntuple@rcsv@tools@@@@QEAPEAU1@AEAV?$allocator@PEAU?$G4TRNtupleDescription@Vntuple@rcsv@tools@@@@@0@@Z
	??$_Destroy_range@V?$allocator@PEAU?$G4TRNtupleDescription@Vntuple@rroot@tools@@@@@std@@@std@@YAXPEAPEAU?$G4TRNtupleDescription@Vntuple@rroot@tools@@@@QEAPEAU1@AEAV?$allocator@PEAU?$G4TRNtupleDescription@Vntuple@rroot@tools@@@@@0@@Z
	??$_Destroy_range@V?$allocator@PEAUG4RootPNtupleDescription@@@std@@@std@@YAXPEAPEAUG4RootPNtupleDescription@@QEAPEAU1@AEAV?$allocator@PEAUG4RootPNtupleDescription@@@0@@Z
	??$_Destroy_range@V?$allocator@PEAVG4HnInformation@@@std@@@std@@YAXPEAPEAVG4HnInformation@@QEAPEAV1@AEAV?$allocator@PEAVG4HnInformation@@@0@@Z
	??$_Destroy_range@V?$allocator@PEAVG4RootMainNtupleManager@@@std@@@std@@YAXPEAPEAVG4RootMainNtupleManager@@QEAPEAV1@AEAV?$allocator@PEAVG4RootMainNtupleManager@@@0@@Z
	??$_Destroy_range@V?$allocator@PEAVG4UIparameter@@@std@@@std@@YAXPEAPEAVG4UIparameter@@QEAPEAV1@AEAV?$allocator@PEAVG4UIparameter@@@0@@Z
	??$_Destroy_range@V?$allocator@PEAVG4VAccumulable@@@std@@@std@@YAXPEAPEAVG4VAccumulable@@QEAPEAV1@AEAV?$allocator@PEAVG4VAccumulable@@@0@@Z
	??$_Destroy_range@V?$allocator@PEAVbase_col@aida@tools@@@std@@@std@@YAXPEAPEAVbase_col@aida@tools@@QEAPEAV123@AEAV?$allocator@PEAVbase_col@aida@tools@@@0@@Z
	??$_Destroy_range@V?$allocator@PEAVbase_colormap@sg@tools@@@std@@@std@@YAXPEAPEAVbase_colormap@sg@tools@@QEAPEAV123@AEAV?$allocator@PEAVbase_colormap@sg@tools@@@0@@Z
	??$_Destroy_range@V?$allocator@PEAVbase_leaf@rroot@tools@@@std@@@std@@YAXPEAPEAVbase_leaf@rroot@tools@@QEAPEAV123@AEAV?$allocator@PEAVbase_leaf@rroot@tools@@@0@@Z
	??$_Destroy_range@V?$allocator@PEAVbase_leaf@wroot@tools@@@std@@@std@@YAXPEAPEAVbase_leaf@wroot@tools@@QEAPEAV123@AEAV?$allocator@PEAVbase_leaf@wroot@tools@@@0@@Z
	??$_Destroy_range@V?$allocator@PEAVbasket@rroot@tools@@@std@@@std@@YAXPEAPEAVbasket@rroot@tools@@QEAPEAV123@AEAV?$allocator@PEAVbasket@rroot@tools@@@0@@Z
	??$_Destroy_range@V?$allocator@PEAVbasket@wroot@tools@@@std@@@std@@YAXPEAPEAVbasket@wroot@tools@@QEAPEAV123@AEAV?$allocator@PEAVbasket@wroot@tools@@@0@@Z
	??$_Destroy_range@V?$allocator@PEAVbranch@rroot@tools@@@std@@@std@@YAXPEAPEAVbranch@rroot@tools@@QEAPEAV123@AEAV?$allocator@PEAVbranch@rroot@tools@@@0@@Z
	??$_Destroy_range@V?$allocator@PEAVbranch@wroot@tools@@@std@@@std@@YAXPEAPEAVbranch@wroot@tools@@QEAPEAV123@AEAV?$allocator@PEAVbranch@wroot@tools@@@0@@Z
	??$_Destroy_range@V?$allocator@PEAVdirectory@wroot@tools@@@std@@@std@@YAXPEAPEAVdirectory@wroot@tools@@QEAPEAV123@AEAV?$allocator@PEAVdirectory@wroot@tools@@@0@@Z
	??$_Destroy_range@V?$allocator@PEAVfield@sg@tools@@@std@@@std@@YAXPEAPEAVfield@sg@tools@@QEAPEAV123@AEAV?$allocator@PEAVfield@sg@tools@@@0@@Z
	??$_Destroy_range@V?$allocator@PEAVh1d@histo@tools@@@std@@@std@@YAXPEAPEAVh1d@histo@tools@@QEAPEAV123@AEAV?$allocator@PEAVh1d@histo@tools@@@0@@Z
	??$_Destroy_range@V?$allocator@PEAVh2d@histo@tools@@@std@@@std@@YAXPEAPEAVh2d@histo@tools@@QEAPEAV123@AEAV?$allocator@PEAVh2d@histo@tools@@@0@@Z
	??$_Destroy_range@V?$allocator@PEAVh3d@histo@tools@@@std@@@std@@YAXPEAPEAVh3d@histo@tools@@QEAPEAV123@AEAV?$allocator@PEAVh3d@histo@tools@@@0@@Z
	??$_Destroy_range@V?$allocator@PEAVicol@ntuple@wcsv@tools@@@std@@@std@@YAXPEAPEAVicol@ntuple@wcsv@tools@@QEAPEAV1234@AEAV?$allocator@PEAVicol@ntuple@wcsv@tools@@@0@@Z
	??$_Destroy_range@V?$allocator@PEAVicol@read@tools@@@std@@@std@@YAXPEAPEAVicol@read@tools@@QEAPEAV123@AEAV?$allocator@PEAVicol@read@tools@@@0@@Z
	??$_Destroy_range@V?$allocator@PEAVicol@wroot@tools@@@std@@@std@@YAXPEAPEAVicol@wroot@tools@@QEAPEAV123@AEAV?$allocator@PEAVicol@wroot@tools@@@0@@Z
	??$_Destroy_range@V?$allocator@PEAVimt_ntuple@wroot@tools@@@std@@@std@@YAXPEAPEAVimt_ntuple@wroot@tools@@QEAPEAV123@AEAV?$allocator@PEAVimt_ntuple@wroot@tools@@@0@@Z
	??$_Destroy_range@V?$allocator@PEAViobj@ntuple@waxml@tools@@@std@@@std@@YAXPEAPEAViobj@ntuple@waxml@tools@@QEAPEAV1234@AEAV?$allocator@PEAViobj@ntuple@waxml@tools@@@0@@Z
	??$_Destroy_range@V?$allocator@PEAViobject@wroot@tools@@@std@@@std@@YAXPEAPEAViobject@wroot@tools@@QEAPEAV123@AEAV?$allocator@PEAViobject@wroot@tools@@@0@@Z
	??$_Destroy_range@V?$allocator@PEAViro@rroot@tools@@@std@@@std@@YAXPEAPEAViro@rroot@tools@@QEAPEAV123@AEAV?$allocator@PEAViro@rroot@tools@@@0@@Z
	??$_Destroy_range@V?$allocator@PEAVkey@rroot@tools@@@std@@@std@@YAXPEAPEAVkey@rroot@tools@@QEAPEAV123@AEAV?$allocator@PEAVkey@rroot@tools@@@0@@Z
	??$_Destroy_range@V?$allocator@PEAVmatrix@sg@tools@@@std@@@std@@YAXPEAPEAVmatrix@sg@tools@@QEAPEAV123@AEAV?$allocator@PEAVmatrix@sg@tools@@@0@@Z
	??$_Destroy_range@V?$allocator@PEAVnode@sg@tools@@@std@@@std@@YAXPEAPEAVnode@sg@tools@@QEAPEAV123@AEAV?$allocator@PEAVnode@sg@tools@@@0@@Z
	??$_Destroy_range@V?$allocator@PEAVntuple@waxml@tools@@@std@@@std@@YAXPEAPEAVntuple@waxml@tools@@QEAPEAV123@AEAV?$allocator@PEAVntuple@waxml@tools@@@0@@Z
	??$_Destroy_range@V?$allocator@PEAVntuple@wcsv@tools@@@std@@@std@@YAXPEAPEAVntuple@wcsv@tools@@QEAPEAV123@AEAV?$allocator@PEAVntuple@wcsv@tools@@@0@@Z
	??$_Destroy_range@V?$allocator@PEAVntuple@wroot@tools@@@std@@@std@@YAXPEAPEAVntuple@wroot@tools@@QEAPEAV123@AEAV?$allocator@PEAVntuple@wroot@tools@@@0@@Z
	??$_Destroy_range@V?$allocator@PEAVp1d@histo@tools@@@std@@@std@@YAXPEAPEAVp1d@histo@tools@@QEAPEAV123@AEAV?$allocator@PEAVp1d@histo@tools@@@0@@Z
	??$_Destroy_range@V?$allocator@PEAVp2d@histo@tools@@@std@@@std@@YAXPEAPEAVp2d@histo@tools@@QEAPEAV123@AEAV?$allocator@PEAVp2d@histo@tools@@@0@@Z
	??$_Destroy_range@V?$allocator@PEAVplotprim@sg@tools@@@std@@@std@@YAXPEAPEAVplotprim@sg@tools@@QEAPEAV123@AEAV?$allocator@PEAVplotprim@sg@tools@@@0@@Z
	??$_Destroy_range@V?$allocator@PEAVplottable@sg@tools@@@std@@@std@@YAXPEAPEAVplottable@sg@tools@@QEAPEAV123@AEAV?$allocator@PEAVplottable@sg@tools@@@0@@Z
	??$_Destroy_range@V?$allocator@PEAVseparator@sg@tools@@@std@@@std@@YAXPEAPEAVseparator@sg@tools@@QEAPEAV123@AEAV?$allocator@PEAVseparator@sg@tools@@@0@@Z
	??$_Destroy_range@V?$allocator@PEAVstreamer_element@rroot@tools@@@std@@@std@@YAXPEAPEAVstreamer_element@rroot@tools@@QEAPEAV123@AEAV?$allocator@PEAVstreamer_element@rroot@tools@@@0@@Z
	??$_Destroy_range@V?$allocator@PEAVstreamer_element@wroot@tools@@@std@@@std@@YAXPEAPEAVstreamer_element@wroot@tools@@QEAPEAV123@AEAV?$allocator@PEAVstreamer_element@wroot@tools@@@0@@Z
	??$_Destroy_range@V?$allocator@PEAVstreamer_info@wroot@tools@@@std@@@std@@YAXPEAPEAVstreamer_info@wroot@tools@@QEAPEAV123@AEAV?$allocator@PEAVstreamer_info@wroot@tools@@@0@@Z
	??$_Destroy_range@V?$allocator@PEAVtree@columns@tools@@@std@@@std@@YAXPEAPEAVtree@columns@tools@@QEAPEAV123@AEAV?$allocator@PEAVtree@columns@tools@@@0@@Z
	??$_Destroy_range@V?$allocator@PEAX@std@@@std@@YAXPEAPEAXQEAPEAXAEAV?$allocator@PEAX@0@@Z
	??$_Destroy_range@V?$allocator@U?$pair@II@std@@@std@@@std@@YAXPEAU?$pair@II@0@QEAU10@AEAV?$allocator@U?$pair@II@std@@@0@@Z
	??$_Destroy_range@V?$allocator@U?$pair@IPEAVrender_manager@sg@tools@@@std@@@std@@@std@@YAXPEAU?$pair@IPEAVrender_manager@sg@tools@@@0@QEAU10@AEAV?$allocator@U?$pair@IPEAVrender_manager@sg@tools@@@std@@@0@@Z
	??$_Destroy_range@V?$allocator@U?$pair@V?$basic_string@DU?$char_traits@D@std@@V?$allocator@D@2@@std@@H@std@@@std@@@std@@YAXPEAU?$pair@V?$basic_string@DU?$char_traits@D@std@@V?$allocator@D@2@@std@@H@0@QEAU10@AEAV?$allocator@U?$pair@V?$basic_string@DU?$char_traits@D@std@@V?$allocator@D@2@@std@@H@std@@@0@@Z
	??$_Destroy_range@V?$allocator@U?$pair@V?$basic_string@DU?$char_traits@D@std@@V?$allocator@D@2@@std@@PEAX@std@@@std@@@std@@YAXPEAU?$pair@V?$basic_string@DU?$char_traits@D@std@@V?$allocator@D@2@@std@@PEAX@0@QEAU10@AEAV?$allocator@U?$pair@V?$basic_string@DU?$char_traits@D@std@@V?$allocator@D@2@@std@@PEAX@std@@@0@@Z
	??$_Destroy_range@V?$allocator@U?$pair@V?$basic_string@DU?$char_traits@D@std@@V?$allocator@D@2@@std@@V12@@std@@@std@@@std@@YAXPEAU?$pair@V?$basic_string@DU?$char_traits@D@std@@V?$allocator@D@2@@std@@V12@@0@QEAU10@AEAV?$allocator@U?$pair@V?$basic_string@DU?$char_traits@D@std@@V?$allocator@D@2@@std@@V12@@std@@@0@@Z
	??$_Destroy_range@V?$allocator@U?$pair@V?$basic_string@DU?$char_traits@D@std@@V?$allocator@D@2@@std@@V?$vector@U?$pair@V?$basic_string@DU?$char_traits@D@std@@V?$allocator@D@2@@std@@V12@@std@@V?$allocator@U?$pair@V?$basic_string@DU?$char_traits@D@std@@V?$allocator@D@2@@std@@V12@@std@@@2@@2@@std@@@std@@@std@@YAXPEAU?$pair@V?$basic_string@DU?$char_traits@D@std@@V?$allocator@D@2@@std@@V?$vector@U?$pair@V?$basic_string@DU?$char_traits@D@std@@V?$allocator@D@2@@std@@V12@@std@@V?$allocator@U?$pair@V?$basic_string@DU?$char_traits@D@std@@V?$allocator@D@2@@std@@V12@@std@@@2@@2@@0@QEAU10@AEAV?$allocator@U?$pair@V?$basic_string@DU?$char_traits@D@std@@V?$allocator@D@2@@std@@V?$vector@U?$pair@V?$basic_string@DU?$char_traits@D@std@@V?$allocator@D@2@@std@@V12@@std@@V?$allocator@U?$pair@V?$basic_string@DU?$char_traits@D@std@@V?$allocator@D@2@@std@@V12@@std@@@2@@2@@std@@@0@@Z
	??$_Destroy_range@V?$allocator@U?$pair@_K_K@std@@@std@@@std@@YAXPEAU?$pair@_K_K@0@QEAU10@AEAV?$allocator@U?$pair@_K_K@std@@@0@@Z
	??$_Destroy_range@V?$allocator@UG4HnDimensionInformation@@@std@@@std@@YAXPEAUG4HnDimensionInformation@@QEAU1@AEAV?$allocator@UG4HnDimensionInformation@@@0@@Z
	??$_Destroy_range@V?$allocator@Utess_triangle@tools@@@std@@@std@@YAXPEAUtess_triangle@tools@@QEAU12@AEAV?$allocator@Utess_triangle@tools@@@0@@Z
	??$_Destroy_range@V?$allocator@Uyystype@G4UItokenNum@@@std@@@std@@YAXPEAUyystype@G4UItokenNum@@QEAU12@AEAV?$allocator@Uyystype@G4UItokenNum@@@0@@Z
	??$_Destroy_range@V?$allocator@V?$axis@NI@histo@tools@@@std@@@std@@YAXPEAV?$axis@NI@histo@tools@@QEAV123@AEAV?$allocator@V?$axis@NI@histo@tools@@@0@@Z
	??$_Destroy_range@V?$allocator@V?$basic_string@DU?$char_traits@D@std@@V?$allocator@D@2@@std@@@std@@@std@@YAXPEAV?$basic_string@DU?$char_traits@D@std@@V?$allocator@D@2@@0@QEAV10@AEAV?$allocator@V?$basic_string@DU?$char_traits@D@std@@V?$allocator@D@2@@std@@@0@@Z
	??$_Destroy_range@V?$allocator@V?$list@PEAV?$list@IV?$allocator@I@std@@@std@@V?$allocator@PEAV?$list@IV?$allocator@I@std@@@std@@@2@@std@@@std@@@std@@YAXPEAV?$list@PEAV?$list@IV?$allocator@I@std@@@std@@V?$allocator@PEAV?$list@IV?$allocator@I@std@@@std@@@2@@0@QEAV10@AEAV?$allocator@V?$list@PEAV?$list@IV?$allocator@I@std@@@std@@V?$allocator@PEAV?$list@IV?$allocator@I@std@@@std@@@2@@std@@@0@@Z
	??$_Destroy_range@V?$allocator@V?$shared_ptr@Vfile@wroot@tools@@@std@@@std@@@std@@YAXPEAV?$shared_ptr@Vfile@wroot@tools@@@0@QEAV10@AEAV?$allocator@V?$shared_ptr@Vfile@wroot@tools@@@std@@@0@@Z
	??$_Destroy_range@V?$allocator@V?$vector@FV?$allocator@F@std@@@std@@@std@@@std@@YAXPEAV?$vector@FV?$allocator@F@std@@@0@QEAV10@AEAV?$allocator@V?$vector@FV?$allocator@F@std@@@std@@@0@@Z
	??$_Destroy_range@V?$allocator@V?$vector@GV?$allocator@G@std@@@std@@@std@@@std@@YAXPEAV?$vector@GV?$allocator@G@std@@@0@QEAV10@AEAV?$allocator@V?$vector@GV?$allocator@G@std@@@std@@@0@@Z
	??$_Destroy_range@V?$allocator@V?$vector@HV?$allocator@H@std@@@std@@@std@@@std@@YAXPEAV?$vector@HV?$allocator@H@std@@@0@QEAV10@AEAV?$allocator@V?$vector@HV?$allocator@H@std@@@std@@@0@@Z
	??$_Destroy_range@V?$allocator@V?$vector@IV?$allocator@I@std@@@std@@@std@@@std@@YAXPEAV?$vector@IV?$allocator@I@std@@@0@QEAV10@AEAV?$allocator@V?$vector@IV?$allocator@I@std@@@std@@@0@@Z
	??$_Destroy_range@V?$allocator@V?$vector@MV?$allocator@M@std@@@std@@@std@@@std@@YAXPEAV?$vector@MV?$allocator@M@std@@@0@QEAV10@AEAV?$allocator@V?$vector@MV?$allocator@M@std@@@std@@@0@@Z
	??$_Destroy_range@V?$allocator@V?$vector@NV?$allocator@N@std@@@std@@@std@@@std@@YAXPEAV?$vector@NV?$allocator@N@std@@@0@QEAV10@AEAV?$allocator@V?$vector@NV?$allocator@N@std@@@std@@@0@@Z
	??$_Destroy_range@V?$allocator@V?$vector@PEAVnode@sg@tools@@V?$allocator@PEAVnode@sg@tools@@@std@@@std@@@std@@@std@@YAXPEAV?$vector@PEAVnode@sg@tools@@V?$allocator@PEAVnode@sg@tools@@@std@@@0@QEAV10@AEAV?$allocator@V?$vector@PEAVnode@sg@tools@@V?$allocator@PEAVnode@sg@tools@@@std@@@std@@@0@@Z
	??$_Destroy_range@V?$allocator@V?$vector@Vvec3f@tools@@V?$allocator@Vvec3f@tools@@@std@@@std@@@std@@@std@@YAXPEAV?$vector@Vvec3f@tools@@V?$allocator@Vvec3f@tools@@@std@@@0@QEAV10@AEAV?$allocator@V?$vector@Vvec3f@tools@@V?$allocator@Vvec3f@tools@@@std@@@std@@@0@@Z
	??$_Destroy_range@V?$allocator@VG4String@@@std@@@std@@YAXPEAVG4String@@QEAV1@AEAV?$allocator@VG4String@@@0@@Z
	??$_Destroy_range@V?$allocator@V_text@hplot@tools@@@std@@@std@@YAXPEAV_text@hplot@tools@@QEAV123@AEAV?$allocator@V_text@hplot@tools@@@0@@Z
	??$_Destroy_range@V?$allocator@Vcolbook@aidas@xml@tools@@@std@@@std@@YAXPEAVcolbook@aidas@xml@tools@@QEAV1234@AEAV?$allocator@Vcolbook@aidas@xml@tools@@@0@@Z
	??$_Destroy_range@V?$allocator@Vcolorf@tools@@@std@@@std@@YAXPEAVcolorf@tools@@QEAV12@AEAV?$allocator@Vcolorf@tools@@@0@@Z
	??$_Destroy_range@V?$allocator@Vcolumn_binding@tools@@@std@@@std@@YAXPEAVcolumn_binding@tools@@QEAV12@AEAV?$allocator@Vcolumn_binding@tools@@@0@@Z
	??$_Destroy_range@V?$allocator@Vcolumn_booking@tools@@@std@@@std@@YAXPEAVcolumn_booking@tools@@QEAV12@AEAV?$allocator@Vcolumn_booking@tools@@@0@@Z
	??$_Destroy_range@V?$allocator@Vcubic_poly@spline@tools@@@std@@@std@@YAXPEAVcubic_poly@spline@tools@@QEAV123@AEAV?$allocator@Vcubic_poly@spline@tools@@@0@@Z
	??$_Destroy_range@V?$allocator@Vdata_point@histo@tools@@@std@@@std@@YAXPEAVdata_point@histo@tools@@QEAV123@AEAV?$allocator@Vdata_point@histo@tools@@@0@@Z
	??$_Destroy_range@V?$allocator@Vextra@plots@sg@tools@@@std@@@std@@YAXPEAVextra@plots@sg@tools@@QEAV1234@AEAV?$allocator@Vextra@plots@sg@tools@@@0@@Z
	??$_Destroy_range@V?$allocator@Vfield_desc@sg@tools@@@std@@@std@@YAXPEAVfield_desc@sg@tools@@QEAV123@AEAV?$allocator@Vfield_desc@sg@tools@@@0@@Z
	??$_Destroy_range@V?$allocator@Vhchar@sg@tools@@@std@@@std@@YAXPEAVhchar@sg@tools@@QEAV123@AEAV?$allocator@Vhchar@sg@tools@@@0@@Z
	??$_Destroy_range@V?$allocator@Vmat4f@tools@@@std@@@std@@YAXPEAVmat4f@tools@@QEAV12@AEAV?$allocator@Vmat4f@tools@@@0@@Z
	??$_Destroy_range@V?$allocator@Vmeasurement@histo@tools@@@std@@@std@@YAXPEAVmeasurement@histo@tools@@QEAV123@AEAV?$allocator@Vmeasurement@histo@tools@@@0@@Z
	??$_Destroy_range@V?$allocator@Vntuple@aida@tools@@@std@@@std@@YAXPEAVntuple@aida@tools@@QEAV123@AEAV?$allocator@Vntuple@aida@tools@@@0@@Z
	??$_Destroy_range@V?$allocator@Vpick_element@sg@tools@@@std@@@std@@YAXPEAVpick_element@sg@tools@@QEAV123@AEAV?$allocator@Vpick_element@sg@tools@@@0@@Z
	??$_Destroy_range@V?$allocator@Vraxml_out@tools@@@std@@@std@@YAXPEAVraxml_out@tools@@QEAV12@AEAV?$allocator@Vraxml_out@tools@@@0@@Z
	??$_Destroy_range@V?$allocator@Vrep_bin1D@sg@tools@@@std@@@std@@YAXPEAVrep_bin1D@sg@tools@@QEAV123@AEAV?$allocator@Vrep_bin1D@sg@tools@@@0@@Z
	??$_Destroy_range@V?$allocator@Vrep_bin2D@sg@tools@@@std@@@std@@YAXPEAVrep_bin2D@sg@tools@@QEAV123@AEAV?$allocator@Vrep_bin2D@sg@tools@@@0@@Z
	??$_Destroy_range@V?$allocator@Vrep_top_face2D@sg@tools@@@std@@@std@@YAXPEAVrep_top_face2D@sg@tools@@QEAV123@AEAV?$allocator@Vrep_top_face2D@sg@tools@@@0@@Z
	??$_Destroy_range@V?$allocator@Vstate@sg@tools@@@std@@@std@@YAXPEAVstate@sg@tools@@QEAV123@AEAV?$allocator@Vstate@sg@tools@@@0@@Z
	??$_Destroy_range@V?$allocator@Vstyle@sg@tools@@@std@@@std@@YAXPEAVstyle@sg@tools@@QEAV123@AEAV?$allocator@Vstyle@sg@tools@@@0@@Z
	??$_Destroy_range@V?$allocator@Vvalue@tools@@@std@@@std@@YAXPEAVvalue@tools@@QEAV12@AEAV?$allocator@Vvalue@tools@@@0@@Z
	??$_Destroy_range@V?$allocator@Vvec2f@tools@@@std@@@std@@YAXPEAVvec2f@tools@@QEAV12@AEAV?$allocator@Vvec2f@tools@@@0@@Z
	??$_Destroy_range@V?$allocator@Vvec3f@tools@@@std@@@std@@YAXPEAVvec3f@tools@@QEAV12@AEAV?$allocator@Vvec3f@tools@@@0@@Z
	??$_Destroy_range@V?$allocator@W4unit_type@plotter@sg@tools@@@std@@@std@@YAXPEAW4unit_type@plotter@sg@tools@@QEAW41234@AEAV?$allocator@W4unit_type@plotter@sg@tools@@@0@@Z
	??$_Destroy_range@V?$allocator@_J@std@@@std@@YAXPEA_JQEA_JAEAV?$allocator@_J@0@@Z
	??$_Destroy_range@V?$allocator@_K@std@@@std@@YAXPEA_KQEA_KAEAV?$allocator@_K@0@@Z
	??$_Emplace@AEBI@?$list@IV?$allocator@I@std@@@std@@QEAAPEAU?$_List_node@IPEAX@1@QEAU21@AEBI@Z
	??$_Emplace_reallocate@AEBD@?$vector@DV?$allocator@D@std@@@std@@QEAAPEADQEADAEBD@Z
	??$_Emplace_reallocate@AEBE@?$vector@EV?$allocator@E@std@@@std@@QEAAPEAEQEAEAEBE@Z
	??$_Emplace_reallocate@AEBF@?$vector@FV?$allocator@F@std@@@std@@QEAAPEAFQEAFAEBF@Z
	??$_Emplace_reallocate@AEBG@?$vector@GV?$allocator@G@std@@@std@@QEAAPEAGQEAGAEBG@Z
	??$_Emplace_reallocate@AEBH@?$vector@HV?$allocator@H@std@@@std@@QEAAPEAHQEAHAEBH@Z
	??$_Emplace_reallocate@AEBI@?$vector@IV?$allocator@I@std@@@std@@QEAAPEAIQEAIAEBI@Z
	??$_Emplace_reallocate@AEBM@?$vector@MV?$allocator@M@std@@@std@@QEAAPEAMQEAMAEBM@Z
	??$_Emplace_reallocate@AEBN@?$vector@NV?$allocator@N@std@@@std@@QEAAPEANQEANAEBN@Z
	??$_Emplace_reallocate@AEBQEAN@?$vector@PEANV?$allocator@PEAN@std@@@std@@QEAAPEAPEANQEAPEANAEBQEAN@Z
	??$_Emplace_reallocate@AEBQEAU?$G4TNtupleDescription@Vntuple@waxml@tools@@@@@?$vector@PEAU?$G4TNtupleDescription@Vntuple@waxml@tools@@@@V?$allocator@PEAU?$G4TNtupleDescription@Vntuple@waxml@tools@@@@@std@@@std@@QEAAPEAPEAU?$G4TNtupleDescription@Vntuple@waxml@tools@@@@QEAPEAU2@AEBQEAU2@@Z
	??$_Emplace_reallocate@AEBQEAU?$G4TNtupleDescription@Vntuple@wcsv@tools@@@@@?$vector@PEAU?$G4TNtupleDescription@Vntuple@wcsv@tools@@@@V?$allocator@PEAU?$G4TNtupleDescription@Vntuple@wcsv@tools@@@@@std@@@std@@QEAAPEAPEAU?$G4TNtupleDescription@Vntuple@wcsv@tools@@@@QEAPEAU2@AEBQEAU2@@Z
	??$_Emplace_reallocate@AEBQEAU?$G4TNtupleDescription@Vntuple@wroot@tools@@@@@?$vector@PEAU?$G4TNtupleDescription@Vntuple@wroot@tools@@@@V?$allocator@PEAU?$G4TNtupleDescription@Vntuple@wroot@tools@@@@@std@@@std@@QEAAPEAPEAU?$G4TNtupleDescription@Vntuple@wroot@tools@@@@QEAPEAU2@AEBQEAU2@@Z
	??$_Emplace_reallocate@AEBQEAU?$G4TRNtupleDescription@Vntuple@aida@tools@@@@@?$vector@PEAU?$G4TRNtupleDescription@Vntuple@aida@tools@@@@V?$allocator@PEAU?$G4TRNtupleDescription@Vntuple@aida@tools@@@@@std@@@std@@QEAAPEAPEAU?$G4TRNtupleDescription@Vntuple@aida@tools@@@@QEAPEAU2@AEBQEAU2@@Z
	??$_Emplace_reallocate@AEBQEAU?$G4TRNtupleDescription@Vntuple@rcsv@tools@@@@@?$vector@PEAU?$G4TRNtupleDescription@Vntuple@rcsv@tools@@@@V?$allocator@PEAU?$G4TRNtupleDescription@Vntuple@rcsv@tools@@@@@std@@@std@@QEAAPEAPEAU?$G4TRNtupleDescription@Vntuple@rcsv@tools@@@@QEAPEAU2@AEBQEAU2@@Z
	??$_Emplace_reallocate@AEBQEAU?$G4TRNtupleDescription@Vntuple@rroot@tools@@@@@?$vector@PEAU?$G4TRNtupleDescription@Vntuple@rroot@tools@@@@V?$allocator@PEAU?$G4TRNtupleDescription@Vntuple@rroot@tools@@@@@std@@@std@@QEAAPEAPEAU?$G4TRNtupleDescription@Vntuple@rroot@tools@@@@QEAPEAU2@AEBQEAU2@@Z
	??$_Emplace_reallocate@AEBQEAUG4RootPNtupleDescription@@@?$vector@PEAUG4RootPNtupleDescription@@V?$allocator@PEAUG4RootPNtupleDescription@@@std@@@std@@QEAAPEAPEAUG4RootPNtupleDescription@@QEAPEAU2@AEBQEAU2@@Z
	??$_Emplace_reallocate@AEBQEAVG4HnInformation@@@?$vector@PEAVG4HnInformation@@V?$allocator@PEAVG4HnInformation@@@std@@@std@@QEAAPEAPEAVG4HnInformation@@QEAPEAV2@AEBQEAV2@@Z
	??$_Emplace_reallocate@AEBQEAVG4UIparameter@@@?$vector@PEAVG4UIparameter@@V?$allocator@PEAVG4UIparameter@@@std@@@std@@QEAAPEAPEAVG4UIparameter@@QEAPEAV2@AEBQEAV2@@Z
	??$_Emplace_reallocate@AEBQEAVG4VAccumulable@@@?$vector@PEAVG4VAccumulable@@V?$allocator@PEAVG4VAccumulable@@@std@@@std@@QEAAPEAPEAVG4VAccumulable@@QEAPEAV2@AEBQEAV2@@Z
	??$_Emplace_reallocate@AEBQEAVbase_col@aida@tools@@@?$vector@PEAVbase_col@aida@tools@@V?$allocator@PEAVbase_col@aida@tools@@@std@@@std@@QEAAPEAPEAVbase_col@aida@tools@@QEAPEAV234@AEBQEAV234@@Z
	??$_Emplace_reallocate@AEBQEAVbase_leaf@rroot@tools@@@?$vector@PEAVbase_leaf@rroot@tools@@V?$allocator@PEAVbase_leaf@rroot@tools@@@std@@@std@@QEAAPEAPEAVbase_leaf@rroot@tools@@QEAPEAV234@AEBQEAV234@@Z
	??$_Emplace_reallocate@AEBQEAVbase_leaf@wroot@tools@@@?$vector@PEAVbase_leaf@wroot@tools@@V?$allocator@PEAVbase_leaf@wroot@tools@@@std@@@std@@QEAAPEAPEAVbase_leaf@wroot@tools@@QEAPEAV234@AEBQEAV234@@Z
	??$_Emplace_reallocate@AEBQEAVbasket@rroot@tools@@@?$vector@PEAVbasket@rroot@tools@@V?$allocator@PEAVbasket@rroot@tools@@@std@@@std@@QEAAPEAPEAVbasket@rroot@tools@@QEAPEAV234@AEBQEAV234@@Z
	??$_Emplace_reallocate@AEBQEAVbasket@wroot@tools@@@?$vector@PEAVbasket@wroot@tools@@V?$allocator@PEAVbasket@wroot@tools@@@std@@@std@@QEAAPEAPEAVbasket@wroot@tools@@QEAPEAV234@AEBQEAV234@@Z
	??$_Emplace_reallocate@AEBQEAVbranch@rroot@tools@@@?$vector@PEAVbranch@rroot@tools@@V?$allocator@PEAVbranch@rroot@tools@@@std@@@std@@QEAAPEAPEAVbranch@rroot@tools@@QEAPEAV234@AEBQEAV234@@Z
	??$_Emplace_reallocate@AEBQEAVbranch@wroot@tools@@@?$vector@PEAVbranch@wroot@tools@@V?$allocator@PEAVbranch@wroot@tools@@@std@@@std@@QEAAPEAPEAVbranch@wroot@tools@@QEAPEAV234@AEBQEAV234@@Z
	??$_Emplace_reallocate@AEBQEAVdirectory@wroot@tools@@@?$vector@PEAVdirectory@wroot@tools@@V?$allocator@PEAVdirectory@wroot@tools@@@std@@@std@@QEAAPEAPEAVdirectory@wroot@tools@@QEAPEAV234@AEBQEAV234@@Z
	??$_Emplace_reallocate@AEBQEAVfield@sg@tools@@@?$vector@PEAVfield@sg@tools@@V?$allocator@PEAVfield@sg@tools@@@std@@@std@@QEAAPEAPEAVfield@sg@tools@@QEAPEAV234@AEBQEAV234@@Z
	??$_Emplace_reallocate@AEBQEAVh1d@histo@tools@@@?$vector@PEAVh1d@histo@tools@@V?$allocator@PEAVh1d@histo@tools@@@std@@@std@@QEAAPEAPEAVh1d@histo@tools@@QEAPEAV234@AEBQEAV234@@Z
	??$_Emplace_reallocate@AEBQEAVh2d@histo@tools@@@?$vector@PEAVh2d@histo@tools@@V?$allocator@PEAVh2d@histo@tools@@@std@@@std@@QEAAPEAPEAVh2d@histo@tools@@QEAPEAV234@AEBQEAV234@@Z
	??$_Emplace_reallocate@AEBQEAVh3d@histo@tools@@@?$vector@PEAVh3d@histo@tools@@V?$allocator@PEAVh3d@histo@tools@@@std@@@std@@QEAAPEAPEAVh3d@histo@tools@@QEAPEAV234@AEBQEAV234@@Z
	??$_Emplace_reallocate@AEBQEAVicol@ntuple@wcsv@tools@@@?$vector@PEAVicol@ntuple@wcsv@tools@@V?$allocator@PEAVicol@ntuple@wcsv@tools@@@std@@@std@@QEAAPEAPEAVicol@ntuple@wcsv@tools@@QEAPEAV2345@AEBQEAV2345@@Z
	??$_Emplace_reallocate@AEBQEAVicol@read@tools@@@?$vector@PEAVicol@read@tools@@V?$allocator@PEAVicol@read@tools@@@std@@@std@@QEAAPEAPEAVicol@read@tools@@QEAPEAV234@AEBQEAV234@@Z
	??$_Emplace_reallocate@AEBQEAVicol@wroot@tools@@@?$vector@PEAVicol@wroot@tools@@V?$allocator@PEAVicol@wroot@tools@@@std@@@std@@QEAAPEAPEAVicol@wroot@tools@@QEAPEAV234@AEBQEAV234@@Z
	??$_Emplace_reallocate@AEBQEAVimt_ntuple@wroot@tools@@@?$vector@PEAVimt_ntuple@wroot@tools@@V?$allocator@PEAVimt_ntuple@wroot@tools@@@std@@@std@@QEAAPEAPEAVimt_ntuple@wroot@tools@@QEAPEAV234@AEBQEAV234@@Z
	??$_Emplace_reallocate@AEBQEAViobj@ntuple@waxml@tools@@@?$vector@PEAViobj@ntuple@waxml@tools@@V?$allocator@PEAViobj@ntuple@waxml@tools@@@std@@@std@@QEAAPEAPEAViobj@ntuple@waxml@tools@@QEAPEAV2345@AEBQEAV2345@@Z
	??$_Emplace_reallocate@AEBQEAViobject@wroot@tools@@@?$vector@PEAViobject@wroot@tools@@V?$allocator@PEAViobject@wroot@tools@@@std@@@std@@QEAAPEAPEAViobject@wroot@tools@@QEAPEAV234@AEBQEAV234@@Z
	??$_Emplace_reallocate@AEBQEAViro@rroot@tools@@@?$vector@PEAViro@rroot@tools@@V?$allocator@PEAViro@rroot@tools@@@std@@@std@@QEAAPEAPEAViro@rroot@tools@@QEAPEAV234@AEBQEAV234@@Z
	??$_Emplace_reallocate@AEBQEAVkey@rroot@tools@@@?$vector@PEAVkey@rroot@tools@@V?$allocator@PEAVkey@rroot@tools@@@std@@@std@@QEAAPEAPEAVkey@rroot@tools@@QEAPEAV234@AEBQEAV234@@Z
	??$_Emplace_reallocate@AEBQEAVmatrix@sg@tools@@@?$vector@PEAVmatrix@sg@tools@@V?$allocator@PEAVmatrix@sg@tools@@@std@@@std@@QEAAPEAPEAVmatrix@sg@tools@@QEAPEAV234@AEBQEAV234@@Z
	??$_Emplace_reallocate@AEBQEAVnode@sg@tools@@@?$vector@PEAVnode@sg@tools@@V?$allocator@PEAVnode@sg@tools@@@std@@@std@@QEAAPEAPEAVnode@sg@tools@@QEAPEAV234@AEBQEAV234@@Z
	??$_Emplace_reallocate@AEBQEAVntuple@waxml@tools@@@?$vector@PEAVntuple@waxml@tools@@V?$allocator@PEAVntuple@waxml@tools@@@std@@@std@@QEAAPEAPEAVntuple@waxml@tools@@QEAPEAV234@AEBQEAV234@@Z
	??$_Emplace_reallocate@AEBQEAVntuple@wcsv@tools@@@?$vector@PEAVntuple@wcsv@tools@@V?$allocator@PEAVntuple@wcsv@tools@@@std@@@std@@QEAAPEAPEAVntuple@wcsv@tools@@QEAPEAV234@AEBQEAV234@@Z
	??$_Emplace_reallocate@AEBQEAVntuple@wroot@tools@@@?$vector@PEAVntuple@wroot@tools@@V?$allocator@PEAVntuple@wroot@tools@@@std@@@std@@QEAAPEAPEAVntuple@wroot@tools@@QEAPEAV234@AEBQEAV234@@Z
	??$_Emplace_reallocate@AEBQEAVp1d@histo@tools@@@?$vector@PEAVp1d@histo@tools@@V?$allocator@PEAVp1d@histo@tools@@@std@@@std@@QEAAPEAPEAVp1d@histo@tools@@QEAPEAV234@AEBQEAV234@@Z
	??$_Emplace_reallocate@AEBQEAVp2d@histo@tools@@@?$vector@PEAVp2d@histo@tools@@V?$allocator@PEAVp2d@histo@tools@@@std@@@std@@QEAAPEAPEAVp2d@histo@tools@@QEAPEAV234@AEBQEAV234@@Z
	??$_Emplace_reallocate@AEBQEAVplottable@sg@tools@@@?$vector@PEAVplottable@sg@tools@@V?$allocator@PEAVplottable@sg@tools@@@std@@@std@@QEAAPEAPEAVplottable@sg@tools@@QEAPEAV234@AEBQEAV234@@Z
	??$_Emplace_reallocate@AEBQEAVseparator@sg@tools@@@?$vector@PEAVseparator@sg@tools@@V?$allocator@PEAVseparator@sg@tools@@@std@@@std@@QEAAPEAPEAVseparator@sg@tools@@QEAPEAV234@AEBQEAV234@@Z
	??$_Emplace_reallocate@AEBQEAVstreamer_element@rroot@tools@@@?$vector@PEAVstreamer_element@rroot@tools@@V?$allocator@PEAVstreamer_element@rroot@tools@@@std@@@std@@QEAAPEAPEAVstreamer_element@rroot@tools@@QEAPEAV234@AEBQEAV234@@Z
	??$_Emplace_reallocate@AEBQEAVstreamer_element@wroot@tools@@@?$vector@PEAVstreamer_element@wroot@tools@@V?$allocator@PEAVstreamer_element@wroot@tools@@@std@@@std@@QEAAPEAPEAVstreamer_element@wroot@tools@@QEAPEAV234@AEBQEAV234@@Z
	??$_Emplace_reallocate@AEBQEAVstreamer_info@wroot@tools@@@?$vector@PEAVstreamer_info@wroot@tools@@V?$allocator@PEAVstreamer_info@wroot@tools@@@std@@@std@@QEAAPEAPEAVstreamer_info@wroot@tools@@QEAPEAV234@AEBQEAV234@@Z
	??$_Emplace_reallocate@AEBQEAX@?$vector@PEAXV?$allocator@PEAX@std@@@std@@QEAAPEAPEAXQEAPEAXAEBQEAX@Z
	??$_Emplace_reallocate@AEBUtess_triangle@tools@@@?$vector@Utess_triangle@tools@@V?$allocator@Utess_triangle@tools@@@std@@@std@@QEAAPEAUtess_triangle@tools@@QEAU23@AEBU23@@Z
	??$_Emplace_reallocate@AEBV?$axis@NI@histo@tools@@@?$vector@V?$axis@NI@histo@tools@@V?$allocator@V?$axis@NI@histo@tools@@@std@@@std@@QEAAPEAV?$axis@NI@histo@tools@@QEAV234@AEBV234@@Z
	??$_Emplace_reallocate@AEBV?$basic_string@DU?$char_traits@D@std@@V?$allocator@D@2@@std@@@?$vector@V?$basic_string@DU?$char_traits@D@std@@V?$allocator@D@2@@std@@V?$allocator@V?$basic_string@DU?$char_traits@D@std@@V?$allocator@D@2@@std@@@2@@std@@QEAAPEAV?$basic_string@DU?$char_traits@D@std@@V?$allocator@D@2@@1@QEAV21@AEBV21@@Z
	??$_Emplace_reallocate@AEBV?$shared_ptr@Vfile@wroot@tools@@@std@@@?$vector@V?$shared_ptr@Vfile@wroot@tools@@@std@@V?$allocator@V?$shared_ptr@Vfile@wroot@tools@@@std@@@2@@std@@QEAAPEAV?$shared_ptr@Vfile@wroot@tools@@@1@QEAV21@AEBV21@@Z
	??$_Emplace_reallocate@AEBV?$vector@HV?$allocator@H@std@@@std@@@?$vector@V?$vector@HV?$allocator@H@std@@@std@@V?$allocator@V?$vector@HV?$allocator@H@std@@@std@@@2@@std@@QEAAPEAV?$vector@HV?$allocator@H@std@@@1@QEAV21@AEBV21@@Z
	??$_Emplace_reallocate@AEBV?$vector@IV?$allocator@I@std@@@std@@@?$vector@V?$vector@IV?$allocator@I@std@@@std@@V?$allocator@V?$vector@IV?$allocator@I@std@@@std@@@2@@std@@QEAAPEAV?$vector@IV?$allocator@I@std@@@1@QEAV21@AEBV21@@Z
	??$_Emplace_reallocate@AEBV?$vector@MV?$allocator@M@std@@@std@@@?$vector@V?$vector@MV?$allocator@M@std@@@std@@V?$allocator@V?$vector@MV?$allocator@M@std@@@std@@@2@@std@@QEAAPEAV?$vector@MV?$allocator@M@std@@@1@QEAV21@AEBV21@@Z
	??$_Emplace_reallocate@AEBV?$vector@NV?$allocator@N@std@@@std@@@?$vector@V?$vector@NV?$allocator@N@std@@@std@@V?$allocator@V?$vector@NV?$allocator@N@std@@@std@@@2@@std@@QEAAPEAV?$vector@NV?$allocator@N@std@@@1@QEAV21@AEBV21@@Z
	??$_Emplace_reallocate@AEBV?$vector@PEAVnode@sg@tools@@V?$allocator@PEAVnode@sg@tools@@@std@@@std@@@?$vector@V?$vector@PEAVnode@sg@tools@@V?$allocator@PEAVnode@sg@tools@@@std@@@std@@V?$allocator@V?$vector@PEAVnode@sg@tools@@V?$allocator@PEAVnode@sg@tools@@@std@@@std@@@2@@std@@QEAAPEAV?$vector@PEAVnode@sg@tools@@V?$allocator@PEAVnode@sg@tools@@@std@@@1@QEAV21@AEBV21@@Z
	??$_Emplace_reallocate@AEBV?$vector@Vvec3f@tools@@V?$allocator@Vvec3f@tools@@@std@@@std@@@?$vector@V?$vector@Vvec3f@tools@@V?$allocator@Vvec3f@tools@@@std@@@std@@V?$allocator@V?$vector@Vvec3f@tools@@V?$allocator@Vvec3f@tools@@@std@@@std@@@2@@std@@QEAAPEAV?$vector@Vvec3f@tools@@V?$allocator@Vvec3f@tools@@@std@@@1@QEAV21@AEBV21@@Z
	??$_Emplace_reallocate@AEBVG4String@@@?$vector@VG4String@@V?$allocator@VG4String@@@std@@@std@@QEAAPEAVG4String@@QEAV2@AEBV2@@Z
	??$_Emplace_reallocate@AEBVcolorf@tools@@@?$vector@Vcolorf@tools@@V?$allocator@Vcolorf@tools@@@std@@@std@@QEAAPEAVcolorf@tools@@QEAV23@AEBV23@@Z
	??$_Emplace_reallocate@AEBVfield_desc@sg@tools@@@?$vector@Vfield_desc@sg@tools@@V?$allocator@Vfield_desc@sg@tools@@@std@@@std@@QEAAPEAVfield_desc@sg@tools@@QEAV234@AEBV234@@Z
	??$_Emplace_reallocate@AEBVhchar@sg@tools@@@?$vector@Vhchar@sg@tools@@V?$allocator@Vhchar@sg@tools@@@std@@@std@@QEAAPEAVhchar@sg@tools@@QEAV234@AEBV234@@Z
	??$_Emplace_reallocate@AEBVntuple@aida@tools@@@?$vector@Vntuple@aida@tools@@V?$allocator@Vntuple@aida@tools@@@std@@@std@@QEAAPEAVntuple@aida@tools@@QEAV234@AEBV234@@Z
	??$_Emplace_reallocate@AEBVraxml_out@tools@@@?$vector@Vraxml_out@tools@@V?$allocator@Vraxml_out@tools@@@std@@@std@@QEAAPEAVraxml_out@tools@@QEAV23@AEBV23@@Z
	??$_Emplace_reallocate@AEBVstate@sg@tools@@@?$vector@Vstate@sg@tools@@V?$allocator@Vstate@sg@tools@@@std@@@std@@QEAAPEAVstate@sg@tools@@QEAV234@AEBV234@@Z
	??$_Emplace_reallocate@AEBVvalue@tools@@@?$vector@Vvalue@tools@@V?$allocator@Vvalue@tools@@@std@@@std@@QEAAPEAVvalue@tools@@QEAV23@AEBV23@@Z
	??$_Emplace_reallocate@AEBVvec2f@tools@@@?$vector@Vvec2f@tools@@V?$allocator@Vvec2f@tools@@@std@@@std@@QEAAPEAVvec2f@tools@@QEAV23@AEBV23@@Z
	??$_Emplace_reallocate@AEBVvec3f@tools@@@?$vector@Vvec3f@tools@@V?$allocator@Vvec3f@tools@@@std@@@std@@QEAAPEAVvec3f@tools@@QEAV23@AEBV23@@Z
	??$_Emplace_reallocate@AEB_J@?$vector@_JV?$allocator@_J@std@@@std@@QEAAPEA_JQEA_JAEB_J@Z
	??$_Emplace_reallocate@AEB_K@?$vector@_KV?$allocator@_K@std@@@std@@QEAAPEA_KQEA_KAEB_K@Z
	??$_Emplace_reallocate@H@?$vector@HV?$allocator@H@std@@@std@@QEAAPEAHQEAH$$QEAH@Z
	??$_Emplace_reallocate@I@?$vector@IV?$allocator@I@std@@@std@@QEAAPEAIQEAI$$QEAI@Z
	??$_Emplace_reallocate@M@?$vector@MV?$allocator@M@std@@@std@@QEAAPEAMQEAM$$QEAM@Z
	??$_Emplace_reallocate@N@?$vector@NV?$allocator@N@std@@@std@@QEAAPEANQEAN$$QEAN@Z
	??$_Emplace_reallocate@PEAVG4RootMainNtupleManager@@@?$vector@PEAVG4RootMainNtupleManager@@V?$allocator@PEAVG4RootMainNtupleManager@@@std@@@std@@QEAAPEAPEAVG4RootMainNtupleManager@@QEAPEAV2@$$QEAPEAV2@@Z
	??$_Emplace_reallocate@PEAVbase_leaf@rroot@tools@@@?$vector@PEAVbase_leaf@rroot@tools@@V?$allocator@PEAVbase_leaf@rroot@tools@@@std@@@std@@QEAAPEAPEAVbase_leaf@rroot@tools@@QEAPEAV234@$$QEAPEAV234@@Z
	??$_Emplace_reallocate@PEAVbasket@rroot@tools@@@?$vector@PEAVbasket@rroot@tools@@V?$allocator@PEAVbasket@rroot@tools@@@std@@@std@@QEAAPEAPEAVbasket@rroot@tools@@QEAPEAV234@$$QEAPEAV234@@Z
	??$_Emplace_reallocate@PEAVbranch@rroot@tools@@@?$vector@PEAVbranch@rroot@tools@@V?$allocator@PEAVbranch@rroot@tools@@@std@@@std@@QEAAPEAPEAVbranch@rroot@tools@@QEAPEAV234@$$QEAPEAV234@@Z
	??$_Emplace_reallocate@PEAVbranch@wroot@tools@@@?$vector@PEAVbranch@wroot@tools@@V?$allocator@PEAVbranch@wroot@tools@@@std@@@std@@QEAAPEAPEAVbranch@wroot@tools@@QEAPEAV234@$$QEAPEAV234@@Z
	??$_Emplace_reallocate@PEAViro@rroot@tools@@@?$vector@PEAViro@rroot@tools@@V?$allocator@PEAViro@rroot@tools@@@std@@@std@@QEAAPEAPEAViro@rroot@tools@@QEAPEAV234@$$QEAPEAV234@@Z
	??$_Emplace_reallocate@PEAVnode@sg@tools@@@?$vector@PEAVnode@sg@tools@@V?$allocator@PEAVnode@sg@tools@@@std@@@std@@QEAAPEAPEAVnode@sg@tools@@QEAPEAV234@$$QEAPEAV234@@Z
	??$_Emplace_reallocate@PEAVplotprim@sg@tools@@@?$vector@PEAVplotprim@sg@tools@@V?$allocator@PEAVplotprim@sg@tools@@@std@@@std@@QEAAPEAPEAVplotprim@sg@tools@@QEAPEAV234@$$QEAPEAV234@@Z
	??$_Emplace_reallocate@PEAVplottable@sg@tools@@@?$vector@PEAVplottable@sg@tools@@V?$allocator@PEAVplottable@sg@tools@@@std@@@std@@QEAAPEAPEAVplottable@sg@tools@@QEAPEAV234@$$QEAPEAV234@@Z
	??$_Emplace_reallocate@PEAVstreamer_element@rroot@tools@@@?$vector@PEAVstreamer_element@rroot@tools@@V?$allocator@PEAVstreamer_element@rroot@tools@@@std@@@std@@QEAAPEAPEAVstreamer_element@rroot@tools@@QEAPEAV234@$$QEAPEAV234@@Z
	??$_Emplace_reallocate@PEAVtree@columns@tools@@@?$vector@PEAVtree@columns@tools@@V?$allocator@PEAVtree@columns@tools@@@std@@@std@@QEAAPEAPEAVtree@columns@tools@@QEAPEAV234@$$QEAPEAV234@@Z
	??$_Emplace_reallocate@U?$pair@II@std@@@?$vector@U?$pair@II@std@@V?$allocator@U?$pair@II@std@@@2@@std@@QEAAPEAU?$pair@II@1@QEAU21@$$QEAU21@@Z
	??$_Emplace_reallocate@U?$pair@IPEAVrender_manager@sg@tools@@@std@@@?$vector@U?$pair@IPEAVrender_manager@sg@tools@@@std@@V?$allocator@U?$pair@IPEAVrender_manager@sg@tools@@@std@@@2@@std@@QEAAPEAU?$pair@IPEAVrender_manager@sg@tools@@@1@QEAU21@$$QEAU21@@Z
	??$_Emplace_reallocate@U?$pair@V?$basic_string@DU?$char_traits@D@std@@V?$allocator@D@2@@std@@H@std@@@?$vector@U?$pair@V?$basic_string@DU?$char_traits@D@std@@V?$allocator@D@2@@std@@H@std@@V?$allocator@U?$pair@V?$basic_string@DU?$char_traits@D@std@@V?$allocator@D@2@@std@@H@std@@@2@@std@@QEAAPEAU?$pair@V?$basic_string@DU?$char_traits@D@std@@V?$allocator@D@2@@std@@H@1@QEAU21@$$QEAU21@@Z
	??$_Emplace_reallocate@U?$pair@V?$basic_string@DU?$char_traits@D@std@@V?$allocator@D@2@@std@@V12@@std@@@?$vector@U?$pair@V?$basic_string@DU?$char_traits@D@std@@V?$allocator@D@2@@std@@V12@@std@@V?$allocator@U?$pair@V?$basic_string@DU?$char_traits@D@std@@V?$allocator@D@2@@std@@V12@@std@@@2@@std@@QEAAPEAU?$pair@V?$basic_string@DU?$char_traits@D@std@@V?$allocator@D@2@@std@@V12@@1@QEAU21@$$QEAU21@@Z
	??$_Emplace_reallocate@U?$pair@_K_K@std@@@?$vector@U?$pair@_K_K@std@@V?$allocator@U?$pair@_K_K@std@@@2@@std@@QEAAPEAU?$pair@_K_K@1@QEAU21@$$QEAU21@@Z
	??$_Emplace_reallocate@UG4HnDimensionInformation@@@?$vector@UG4HnDimensionInformation@@V?$allocator@UG4HnDimensionInformation@@@std@@@std@@QEAAPEAUG4HnDimensionInformation@@QEAU2@$$QEAU2@@Z
	??$_Emplace_reallocate@V?$basic_string@DU?$char_traits@D@std@@V?$allocator@D@2@@std@@@?$vector@V?$basic_string@DU?$char_traits@D@std@@V?$allocator@D@2@@std@@V?$allocator@V?$basic_string@DU?$char_traits@D@std@@V?$allocator@D@2@@std@@@2@@std@@QEAAPEAV?$basic_string@DU?$char_traits@D@std@@V?$allocator@D@2@@1@QEAV21@$$QEAV21@@Z
	??$_Emplace_reallocate@VG4String@@@?$vector@VG4String@@V?$allocator@VG4String@@@std@@@std@@QEAAPEAVG4String@@QEAV2@$$QEAV2@@Z
	??$_Emplace_reallocate@V_text@hplot@tools@@@?$vector@V_text@hplot@tools@@V?$allocator@V_text@hplot@tools@@@std@@@std@@QEAAPEAV_text@hplot@tools@@QEAV234@$$QEAV234@@Z
	??$_Emplace_reallocate@Vcolbook@aidas@xml@tools@@@?$vector@Vcolbook@aidas@xml@tools@@V?$allocator@Vcolbook@aidas@xml@tools@@@std@@@std@@QEAAPEAVcolbook@aidas@xml@tools@@QEAV2345@$$QEAV2345@@Z
	??$_Emplace_reallocate@Vcolumn_binding@tools@@@?$vector@Vcolumn_binding@tools@@V?$allocator@Vcolumn_binding@tools@@@std@@@std@@QEAAPEAVcolumn_binding@tools@@QEAV23@$$QEAV23@@Z
	??$_Emplace_reallocate@Vcolumn_booking@tools@@@?$vector@Vcolumn_booking@tools@@V?$allocator@Vcolumn_booking@tools@@@std@@@std@@QEAAPEAVcolumn_booking@tools@@QEAV23@$$QEAV23@@Z
	??$_Emplace_reallocate@Vdata_point@histo@tools@@@?$vector@Vdata_point@histo@tools@@V?$allocator@Vdata_point@histo@tools@@@std@@@std@@QEAAPEAVdata_point@histo@tools@@QEAV234@$$QEAV234@@Z
	??$_Emplace_reallocate@Vpick_element@sg@tools@@@?$vector@Vpick_element@sg@tools@@V?$allocator@Vpick_element@sg@tools@@@std@@@std@@QEAAPEAVpick_element@sg@tools@@QEAV234@$$QEAV234@@Z
	??$_Emplace_reallocate@Vrep_bin2D@sg@tools@@@?$vector@Vrep_bin2D@sg@tools@@V?$allocator@Vrep_bin2D@sg@tools@@@std@@@std@@QEAAPEAVrep_bin2D@sg@tools@@QEAV234@$$QEAV234@@Z
	??$_Emplace_reallocate@Vstyle@sg@tools@@@?$vector@Vstyle@sg@tools@@V?$allocator@Vstyle@sg@tools@@@std@@@std@@QEAAPEAVstyle@sg@tools@@QEAV234@$$QEAV234@@Z
	??$_Emplace_reallocate@Vvec3f@tools@@@?$vector@Vvec3f@tools@@V?$allocator@Vvec3f@tools@@@std@@@std@@QEAAPEAVvec3f@tools@@QEAV23@$$QEAV23@@Z
	??$_Emplace_reallocate@W4unit_type@plotter@sg@tools@@@?$vector@W4unit_type@plotter@sg@tools@@V?$allocator@W4unit_type@plotter@sg@tools@@@std@@@std@@QEAAPEAW4unit_type@plotter@sg@tools@@QEAW42345@$$QEAW42345@@Z
	??$_Erase_tree@V?$allocator@U?$_Tree_node@U?$pair@$$CBDP6A_NAEAV?$basic_ostream@DU?$char_traits@D@std@@@std@@IIPEBDIPEADAEAI@Z@std@@PEAX@std@@@std@@@?$_Tree_val@U?$_Tree_simple_types@U?$pair@$$CBDP6A_NAEAV?$basic_ostream@DU?$char_traits@D@std@@@std@@IIPEBDIPEADAEAI@Z@std@@@std@@@std@@QEAAXAEAV?$allocator@U?$_Tree_node@U?$pair@$$CBDP6A_NAEAV?$basic_ostream@DU?$char_traits@D@std@@@std@@IIPEBDIPEADAEAI@Z@std@@PEAX@std@@@1@PEAU?$_Tree_node@U?$pair@$$CBDP6A_NAEAV?$basic_ostream@DU?$char_traits@D@std@@@std@@IIPEBDIPEADAEAI@Z@std@@PEAX@1@@Z
	??$_Erase_tree@V?$allocator@U?$_Tree_node@U?$pair@$$CBDP6A_NAEAV?$basic_ostream@DU?$char_traits@D@std@@@std@@IPEBDIPEADAEAI@Z@std@@PEAX@std@@@std@@@?$_Tree_val@U?$_Tree_simple_types@U?$pair@$$CBDP6A_NAEAV?$basic_ostream@DU?$char_traits@D@std@@@std@@IPEBDIPEADAEAI@Z@std@@@std@@@std@@QEAAXAEAV?$allocator@U?$_Tree_node@U?$pair@$$CBDP6A_NAEAV?$basic_ostream@DU?$char_traits@D@std@@@std@@IPEBDIPEADAEAI@Z@std@@PEAX@std@@@1@PEAU?$_Tree_node@U?$pair@$$CBDP6A_NAEAV?$basic_ostream@DU?$char_traits@D@std@@@std@@IPEBDIPEADAEAI@Z@std@@PEAX@1@@Z
	??$_Erase_tree@V?$allocator@U?$_Tree_node@U?$pair@$$CBDPEAX@std@@PEAX@std@@@std@@@?$_Tree_val@U?$_Tree_simple_types@U?$pair@$$CBDPEAX@std@@@std@@@std@@QEAAXAEAV?$allocator@U?$_Tree_node@U?$pair@$$CBDPEAX@std@@PEAX@std@@@1@PEAU?$_Tree_node@U?$pair@$$CBDPEAX@std@@PEAX@1@@Z
	??$_Erase_tree@V?$allocator@U?$_Tree_node@U?$pair@$$CBIPEAViro@rroot@tools@@@std@@PEAX@std@@@std@@@?$_Tree_val@U?$_Tree_simple_types@U?$pair@$$CBIPEAViro@rroot@tools@@@std@@@std@@@std@@QEAAXAEAV?$allocator@U?$_Tree_node@U?$pair@$$CBIPEAViro@rroot@tools@@@std@@PEAX@std@@@1@PEAU?$_Tree_node@U?$pair@$$CBIPEAViro@rroot@tools@@@std@@PEAX@1@@Z
	??$_Erase_tree@V?$allocator@U?$_Tree_node@U?$pair@$$CBIU?$pair@PEAVbasket@rroot@tools@@_N@std@@@std@@PEAX@std@@@std@@@?$_Tree_val@U?$_Tree_simple_types@U?$pair@$$CBIU?$pair@PEAVbasket@rroot@tools@@_N@std@@@std@@@std@@@std@@QEAAXAEAV?$allocator@U?$_Tree_node@U?$pair@$$CBIU?$pair@PEAVbasket@rroot@tools@@_N@std@@@std@@PEAX@std@@@1@PEAU?$_Tree_node@U?$pair@$$CBIU?$pair@PEAVbasket@rroot@tools@@_N@std@@@std@@PEAX@1@@Z
	??$_Erase_tree@V?$allocator@U?$_Tree_node@U?$pair@$$CBIV?$img@E@tools@@@std@@PEAX@std@@@std@@@?$_Tree_val@U?$_Tree_simple_types@U?$pair@$$CBIV?$img@E@tools@@@std@@@std@@@std@@QEAAXAEAV?$allocator@U?$_Tree_node@U?$pair@$$CBIV?$img@E@tools@@@std@@PEAX@std@@@1@PEAU?$_Tree_node@U?$pair@$$CBIV?$img@E@tools@@@std@@PEAX@1@@Z
	??$_Erase_tree@V?$allocator@U?$_Tree_node@U?$pair@$$CBIVcolorf@tools@@@std@@PEAX@std@@@std@@@?$_Tree_val@U?$_Tree_simple_types@U?$pair@$$CBIVcolorf@tools@@@std@@@std@@@std@@QEAAXAEAV?$allocator@U?$_Tree_node@U?$pair@$$CBIVcolorf@tools@@@std@@PEAX@std@@@1@PEAU?$_Tree_node@U?$pair@$$CBIVcolorf@tools@@@std@@PEAX@1@@Z
	??$_Erase_tree@V?$allocator@U?$_Tree_node@U?$pair@$$CBIVstyle_color@sg@tools@@@std@@PEAX@std@@@std@@@?$_Tree_val@U?$_Tree_simple_types@U?$pair@$$CBIVstyle_color@sg@tools@@@std@@@std@@@std@@QEAAXAEAV?$allocator@U?$_Tree_node@U?$pair@$$CBIVstyle_color@sg@tools@@@std@@PEAX@std@@@1@PEAU?$_Tree_node@U?$pair@$$CBIVstyle_color@sg@tools@@@std@@PEAX@1@@Z
	??$_Erase_tree@V?$allocator@U?$_Tree_node@U?$pair@$$CBV?$basic_string@DU?$char_traits@D@std@@V?$allocator@D@2@@std@@I@std@@PEAX@std@@@std@@@?$_Tree_val@U?$_Tree_simple_types@U?$pair@$$CBV?$basic_string@DU?$char_traits@D@std@@V?$allocator@D@2@@std@@I@std@@@std@@@std@@QEAAXAEAV?$allocator@U?$_Tree_node@U?$pair@$$CBV?$basic_string@DU?$char_traits@D@std@@V?$allocator@D@2@@std@@I@std@@PEAX@std@@@1@PEAU?$_Tree_node@U?$pair@$$CBV?$basic_string@DU?$char_traits@D@std@@V?$allocator@D@2@@std@@I@std@@PEAX@1@@Z
	??$_Erase_tree@V?$allocator@U?$_Tree_node@U?$pair@$$CBV?$basic_string@DU?$char_traits@D@std@@V?$allocator@D@2@@std@@P6A?AVraxml_out@tools@@AEAVtree@xml@4@AEAV?$basic_ostream@DU?$char_traits@D@std@@@2@_NPEAX@Z@std@@PEAX@std@@@std@@@?$_Tree_val@U?$_Tree_simple_types@U?$pair@$$CBV?$basic_string@DU?$char_traits@D@std@@V?$allocator@D@2@@std@@P6A?AVraxml_out@tools@@AEAVtree@xml@4@AEAV?$basic_ostream@DU?$char_traits@D@std@@@2@_NPEAX@Z@std@@@std@@@std@@QEAAXAEAV?$allocator@U?$_Tree_node@U?$pair@$$CBV?$basic_string@DU?$char_traits@D@std@@V?$allocator@D@2@@std@@P6A?AVraxml_out@tools@@AEAVtree@xml@4@AEAV?$basic_ostream@DU?$char_traits@D@std@@@2@_NPEAX@Z@std@@PEAX@std@@@1@PEAU?$_Tree_node@U?$pair@$$CBV?$basic_string@DU?$char_traits@D@std@@V?$allocator@D@2@@std@@P6A?AVraxml_out@tools@@AEAVtree@xml@4@AEAV?$basic_ostream@DU?$char_traits@D@std@@@2@_NPEAX@Z@std@@PEAX@1@@Z
	??$_Erase_tree@V?$allocator@U?$_Tree_node@U?$pair@$$CBV?$basic_string@DU?$char_traits@D@std@@V?$allocator@D@2@@std@@V12@@std@@PEAX@std@@@std@@@?$_Tree_val@U?$_Tree_simple_types@U?$pair@$$CBV?$basic_string@DU?$char_traits@D@std@@V?$allocator@D@2@@std@@V12@@std@@@std@@@std@@QEAAXAEAV?$allocator@U?$_Tree_node@U?$pair@$$CBV?$basic_string@DU?$char_traits@D@std@@V?$allocator@D@2@@std@@V12@@std@@PEAX@std@@@1@PEAU?$_Tree_node@U?$pair@$$CBV?$basic_string@DU?$char_traits@D@std@@V?$allocator@D@2@@std@@V12@@std@@PEAX@1@@Z
	??$_Erase_tree@V?$allocator@U?$_Tree_node@U?$pair@$$CBV?$basic_string@DU?$char_traits@D@std@@V?$allocator@D@2@@std@@Vstyle_colormap@sg@tools@@@std@@PEAX@std@@@std@@@?$_Tree_val@U?$_Tree_simple_types@U?$pair@$$CBV?$basic_string@DU?$char_traits@D@std@@V?$allocator@D@2@@std@@Vstyle_colormap@sg@tools@@@std@@@std@@@std@@QEAAXAEAV?$allocator@U?$_Tree_node@U?$pair@$$CBV?$basic_string@DU?$char_traits@D@std@@V?$allocator@D@2@@std@@Vstyle_colormap@sg@tools@@@std@@PEAX@std@@@1@PEAU?$_Tree_node@U?$pair@$$CBV?$basic_string@DU?$char_traits@D@std@@V?$allocator@D@2@@std@@Vstyle_colormap@sg@tools@@@std@@PEAX@1@@Z
	??$_Erase_tree@V?$allocator@U?$_Tree_node@U?$pair@$$CBVG4String@@H@std@@PEAX@std@@@std@@@?$_Tree_val@U?$_Tree_simple_types@U?$pair@$$CBVG4String@@H@std@@@std@@@std@@QEAAXAEAV?$allocator@U?$_Tree_node@U?$pair@$$CBVG4String@@H@std@@PEAX@std@@@1@PEAU?$_Tree_node@U?$pair@$$CBVG4String@@H@std@@PEAX@1@@Z
	??$_Erase_tree@V?$allocator@U?$_Tree_node@U?$pair@$$CBVG4String@@PEAV?$basic_ifstream@DU?$char_traits@D@std@@@std@@@std@@PEAX@std@@@std@@@?$_Tree_val@U?$_Tree_simple_types@U?$pair@$$CBVG4String@@PEAV?$basic_ifstream@DU?$char_traits@D@std@@@std@@@std@@@std@@@std@@QEAAXAEAV?$allocator@U?$_Tree_node@U?$pair@$$CBVG4String@@PEAV?$basic_ifstream@DU?$char_traits@D@std@@@std@@@std@@PEAX@std@@@1@PEAU?$_Tree_node@U?$pair@$$CBVG4String@@PEAV?$basic_ifstream@DU?$char_traits@D@std@@@std@@@std@@PEAX@1@@Z
	??$_Erase_tree@V?$allocator@U?$_Tree_node@U?$pair@$$CBVG4String@@PEAVG4VAccumulable@@@std@@PEAX@std@@@std@@@?$_Tree_val@U?$_Tree_simple_types@U?$pair@$$CBVG4String@@PEAVG4VAccumulable@@@std@@@std@@@std@@QEAAXAEAV?$allocator@U?$_Tree_node@U?$pair@$$CBVG4String@@PEAVG4VAccumulable@@@std@@PEAX@std@@@1@PEAU?$_Tree_node@U?$pair@$$CBVG4String@@PEAVG4VAccumulable@@@std@@PEAX@1@@Z
	??$_Erase_tree@V?$allocator@U?$_Tree_node@U?$pair@$$CBVG4String@@PEAVfile@rroot@tools@@@std@@PEAX@std@@@std@@@?$_Tree_val@U?$_Tree_simple_types@U?$pair@$$CBVG4String@@PEAVfile@rroot@tools@@@std@@@std@@@std@@QEAAXAEAV?$allocator@U?$_Tree_node@U?$pair@$$CBVG4String@@PEAVfile@rroot@tools@@@std@@PEAX@std@@@1@PEAU?$_Tree_node@U?$pair@$$CBVG4String@@PEAVfile@rroot@tools@@@std@@PEAX@1@@Z
	??$_Erase_tree@V?$allocator@U?$_Tree_node@U?$pair@$$CBVG4String@@PEAVraxml@tools@@@std@@PEAX@std@@@std@@@?$_Tree_val@U?$_Tree_simple_types@U?$pair@$$CBVG4String@@PEAVraxml@tools@@@std@@@std@@@std@@QEAAXAEAV?$allocator@U?$_Tree_node@U?$pair@$$CBVG4String@@PEAVraxml@tools@@@std@@PEAX@std@@@1@PEAU?$_Tree_node@U?$pair@$$CBVG4String@@PEAVraxml@tools@@@std@@PEAX@1@@Z
	??$_Erase_tree@V?$allocator@U?$_Tree_node@U?$pair@$$CBVcolorf@tools@@I@std@@PEAX@std@@@std@@@?$_Tree_val@U?$_Tree_simple_types@U?$pair@$$CBVcolorf@tools@@I@std@@@std@@@std@@QEAAXAEAV?$allocator@U?$_Tree_node@U?$pair@$$CBVcolorf@tools@@I@std@@PEAX@std@@@1@PEAU?$_Tree_node@U?$pair@$$CBVcolorf@tools@@I@std@@PEAX@1@@Z
	??$_Erase_tree@V?$allocator@U?$_Tree_node@U?$pair@QEAVibo@wroot@tools@@I@std@@PEAX@std@@@std@@@?$_Tree_val@U?$_Tree_simple_types@U?$pair@QEAVibo@wroot@tools@@I@std@@@std@@@std@@QEAAXAEAV?$allocator@U?$_Tree_node@U?$pair@QEAVibo@wroot@tools@@I@std@@PEAX@std@@@1@PEAU?$_Tree_node@U?$pair@QEAVibo@wroot@tools@@I@std@@PEAX@1@@Z
	??$_Erase_tree@V?$allocator@U?$_Tree_node@U?$pair@QEAVntuple@aida@tools@@PEAV?$vector@HV?$allocator@H@std@@@std@@@std@@PEAX@std@@@std@@@?$_Tree_val@U?$_Tree_simple_types@U?$pair@QEAVntuple@aida@tools@@PEAV?$vector@HV?$allocator@H@std@@@std@@@std@@@std@@@std@@QEAAXAEAV?$allocator@U?$_Tree_node@U?$pair@QEAVntuple@aida@tools@@PEAV?$vector@HV?$allocator@H@std@@@std@@@std@@PEAX@std@@@1@PEAU?$_Tree_node@U?$pair@QEAVntuple@aida@tools@@PEAV?$vector@HV?$allocator@H@std@@@std@@@std@@PEAX@1@@Z
	??$_Erase_tree@V?$allocator@U?$_Tree_node@U?$pair@QEAVntuple@aida@tools@@PEAV?$vector@MV?$allocator@M@std@@@std@@@std@@PEAX@std@@@std@@@?$_Tree_val@U?$_Tree_simple_types@U?$pair@QEAVntuple@aida@tools@@PEAV?$vector@MV?$allocator@M@std@@@std@@@std@@@std@@@std@@QEAAXAEAV?$allocator@U?$_Tree_node@U?$pair@QEAVntuple@aida@tools@@PEAV?$vector@MV?$allocator@M@std@@@std@@@std@@PEAX@std@@@1@PEAU?$_Tree_node@U?$pair@QEAVntuple@aida@tools@@PEAV?$vector@MV?$allocator@M@std@@@std@@@std@@PEAX@1@@Z
	??$_Erase_tree@V?$allocator@U?$_Tree_node@U?$pair@QEAVntuple@aida@tools@@PEAV?$vector@NV?$allocator@N@std@@@std@@@std@@PEAX@std@@@std@@@?$_Tree_val@U?$_Tree_simple_types@U?$pair@QEAVntuple@aida@tools@@PEAV?$vector@NV?$allocator@N@std@@@std@@@std@@@std@@@std@@QEAAXAEAV?$allocator@U?$_Tree_node@U?$pair@QEAVntuple@aida@tools@@PEAV?$vector@NV?$allocator@N@std@@@std@@@std@@PEAX@std@@@1@PEAU?$_Tree_node@U?$pair@QEAVntuple@aida@tools@@PEAV?$vector@NV?$allocator@N@std@@@std@@@std@@PEAX@1@@Z
	??$_Erase_tree@V?$allocator@U?$_Tree_node@U?$pair@QEAVntuple@rcsv@tools@@PEAV?$vector@HV?$allocator@H@std@@@std@@@std@@PEAX@std@@@std@@@?$_Tree_val@U?$_Tree_simple_types@U?$pair@QEAVntuple@rcsv@tools@@PEAV?$vector@HV?$allocator@H@std@@@std@@@std@@@std@@@std@@QEAAXAEAV?$allocator@U?$_Tree_node@U?$pair@QEAVntuple@rcsv@tools@@PEAV?$vector@HV?$allocator@H@std@@@std@@@std@@PEAX@std@@@1@PEAU?$_Tree_node@U?$pair@QEAVntuple@rcsv@tools@@PEAV?$vector@HV?$allocator@H@std@@@std@@@std@@PEAX@1@@Z
	??$_Erase_tree@V?$allocator@U?$_Tree_node@U?$pair@QEAVntuple@rcsv@tools@@PEAV?$vector@MV?$allocator@M@std@@@std@@@std@@PEAX@std@@@std@@@?$_Tree_val@U?$_Tree_simple_types@U?$pair@QEAVntuple@rcsv@tools@@PEAV?$vector@MV?$allocator@M@std@@@std@@@std@@@std@@@std@@QEAAXAEAV?$allocator@U?$_Tree_node@U?$pair@QEAVntuple@rcsv@tools@@PEAV?$vector@MV?$allocator@M@std@@@std@@@std@@PEAX@std@@@1@PEAU?$_Tree_node@U?$pair@QEAVntuple@rcsv@tools@@PEAV?$vector@MV?$allocator@M@std@@@std@@@std@@PEAX@1@@Z
	??$_Erase_tree@V?$allocator@U?$_Tree_node@U?$pair@QEAVntuple@rcsv@tools@@PEAV?$vector@NV?$allocator@N@std@@@std@@@std@@PEAX@std@@@std@@@?$_Tree_val@U?$_Tree_simple_types@U?$pair@QEAVntuple@rcsv@tools@@PEAV?$vector@NV?$allocator@N@std@@@std@@@std@@@std@@@std@@QEAAXAEAV?$allocator@U?$_Tree_node@U?$pair@QEAVntuple@rcsv@tools@@PEAV?$vector@NV?$allocator@N@std@@@std@@@std@@PEAX@std@@@1@PEAU?$_Tree_node@U?$pair@QEAVntuple@rcsv@tools@@PEAV?$vector@NV?$allocator@N@std@@@std@@@std@@PEAX@1@@Z
	??$_Erase_tree@V?$allocator@U?$_Tree_node@U?$pair@QEAVntuple@rroot@tools@@PEAV?$vector@HV?$allocator@H@std@@@std@@@std@@PEAX@std@@@std@@@?$_Tree_val@U?$_Tree_simple_types@U?$pair@QEAVntuple@rroot@tools@@PEAV?$vector@HV?$allocator@H@std@@@std@@@std@@@std@@@std@@QEAAXAEAV?$allocator@U?$_Tree_node@U?$pair@QEAVntuple@rroot@tools@@PEAV?$vector@HV?$allocator@H@std@@@std@@@std@@PEAX@std@@@1@PEAU?$_Tree_node@U?$pair@QEAVntuple@rroot@tools@@PEAV?$vector@HV?$allocator@H@std@@@std@@@std@@PEAX@1@@Z
	??$_Erase_tree@V?$allocator@U?$_Tree_node@U?$pair@QEAVntuple@rroot@tools@@PEAV?$vector@MV?$allocator@M@std@@@std@@@std@@PEAX@std@@@std@@@?$_Tree_val@U?$_Tree_simple_types@U?$pair@QEAVntuple@rroot@tools@@PEAV?$vector@MV?$allocator@M@std@@@std@@@std@@@std@@@std@@QEAAXAEAV?$allocator@U?$_Tree_node@U?$pair@QEAVntuple@rroot@tools@@PEAV?$vector@MV?$allocator@M@std@@@std@@@std@@PEAX@std@@@1@PEAU?$_Tree_node@U?$pair@QEAVntuple@rroot@tools@@PEAV?$vector@MV?$allocator@M@std@@@std@@@std@@PEAX@1@@Z
	??$_Erase_tree@V?$allocator@U?$_Tree_node@U?$pair@QEAVntuple@rroot@tools@@PEAV?$vector@NV?$allocator@N@std@@@std@@@std@@PEAX@std@@@std@@@?$_Tree_val@U?$_Tree_simple_types@U?$pair@QEAVntuple@rroot@tools@@PEAV?$vector@NV?$allocator@N@std@@@std@@@std@@@std@@@std@@QEAAXAEAV?$allocator@U?$_Tree_node@U?$pair@QEAVntuple@rroot@tools@@PEAV?$vector@NV?$allocator@N@std@@@std@@@std@@PEAX@std@@@1@PEAU?$_Tree_node@U?$pair@QEAVntuple@rroot@tools@@PEAV?$vector@NV?$allocator@N@std@@@std@@@std@@PEAX@1@@Z
	??$_Erase_tree_and_orphan@V?$allocator@U?$_Tree_node@U?$pair@$$CBIVstyle_color@sg@tools@@@std@@PEAX@std@@@std@@@?$_Tree_val@U?$_Tree_simple_types@U?$pair@$$CBIVstyle_color@sg@tools@@@std@@@std@@@std@@QEAAXAEAV?$allocator@U?$_Tree_node@U?$pair@$$CBIVstyle_color@sg@tools@@@std@@PEAX@std@@@1@PEAU?$_Tree_node@U?$pair@$$CBIVstyle_color@sg@tools@@@std@@PEAX@1@@Z
	??$_Erase_tree_and_orphan@V?$allocator@U?$_Tree_node@U?$pair@$$CBV?$basic_string@DU?$char_traits@D@std@@V?$allocator@D@2@@std@@V12@@std@@PEAX@std@@@std@@@?$_Tree_val@U?$_Tree_simple_types@U?$pair@$$CBV?$basic_string@DU?$char_traits@D@std@@V?$allocator@D@2@@std@@V12@@std@@@std@@@std@@QEAAXAEAV?$allocator@U?$_Tree_node@U?$pair@$$CBV?$basic_string@DU?$char_traits@D@std@@V?$allocator@D@2@@std@@V12@@std@@PEAX@std@@@1@PEAU?$_Tree_node@U?$pair@$$CBV?$basic_string@DU?$char_traits@D@std@@V?$allocator@D@2@@std@@V12@@std@@PEAX@1@@Z
	??$_Erase_tree_and_orphan@V?$allocator@U?$_Tree_node@U?$pair@$$CBV?$basic_string@DU?$char_traits@D@std@@V?$allocator@D@2@@std@@Vstyle_colormap@sg@tools@@@std@@PEAX@std@@@std@@@?$_Tree_val@U?$_Tree_simple_types@U?$pair@$$CBV?$basic_string@DU?$char_traits@D@std@@V?$allocator@D@2@@std@@Vstyle_colormap@sg@tools@@@std@@@std@@@std@@QEAAXAEAV?$allocator@U?$_Tree_node@U?$pair@$$CBV?$basic_string@DU?$char_traits@D@std@@V?$allocator@D@2@@std@@Vstyle_colormap@sg@tools@@@std@@PEAX@std@@@1@PEAU?$_Tree_node@U?$pair@$$CBV?$basic_string@DU?$char_traits@D@std@@V?$allocator@D@2@@std@@Vstyle_colormap@sg@tools@@@std@@PEAX@1@@Z
	??$_Find_lower_bound@V?$basic_string@DU?$char_traits@D@std@@V?$allocator@D@2@@std@@@?$_Tree@V?$_Tmap_traits@V?$basic_string@DU?$char_traits@D@std@@V?$allocator@D@2@@std@@IU?$less@V?$basic_string@DU?$char_traits@D@std@@V?$allocator@D@2@@std@@@2@V?$allocator@U?$pair@$$CBV?$basic_string@DU?$char_traits@D@std@@V?$allocator@D@2@@std@@I@std@@@2@$0A@@std@@@std@@IEBA?AU?$_Tree_find_result@PEAU?$_Tree_node@U?$pair@$$CBV?$basic_string@DU?$char_traits@D@std@@V?$allocator@D@2@@std@@I@std@@PEAX@std@@@1@AEBV?$basic_string@DU?$char_traits@D@std@@V?$allocator@D@2@@1@@Z
	??$_Find_lower_bound@V?$basic_string@DU?$char_traits@D@std@@V?$allocator@D@2@@std@@@?$_Tree@V?$_Tmap_traits@V?$basic_string@DU?$char_traits@D@std@@V?$allocator@D@2@@std@@P6A?AVraxml_out@tools@@AEAVtree@xml@4@AEAV?$basic_ostream@DU?$char_traits@D@std@@@2@_NPEAX@ZU?$less@V?$basic_string@DU?$char_traits@D@std@@V?$allocator@D@2@@std@@@2@V?$allocator@U?$pair@$$CBV?$basic_string@DU?$char_traits@D@std@@V?$allocator@D@2@@std@@P6A?AVraxml_out@tools@@AEAVtree@xml@4@AEAV?$basic_ostream@DU?$char_traits@D@std@@@2@_NPEAX@Z@std@@@2@$0A@@std@@@std@@IEBA?AU?$_Tree_find_result@PEAU?$_Tree_node@U?$pair@$$CBV?$basic_string@DU?$char_traits@D@std@@V?$allocator@D@2@@std@@P6A?AVraxml_out@tools@@AEAVtree@xml@4@AEAV?$basic_ostream@DU?$char_traits@D@std@@@2@_NPEAX@Z@std@@PEAX@std@@@1@AEBV?$basic_string@DU?$char_traits@D@std@@V?$allocator@D@2@@1@@Z
	??$_Find_lower_bound@V?$basic_string@DU?$char_traits@D@std@@V?$allocator@D@2@@std@@@?$_Tree@V?$_Tmap_traits@V?$basic_string@DU?$char_traits@D@std@@V?$allocator@D@2@@std@@V12@U?$less@V?$basic_string@DU?$char_traits@D@std@@V?$allocator@D@2@@std@@@2@V?$allocator@U?$pair@$$CBV?$basic_string@DU?$char_traits@D@std@@V?$allocator@D@2@@std@@V12@@std@@@2@$0A@@std@@@std@@IEBA?AU?$_Tree_find_result@PEAU?$_Tree_node@U?$pair@$$CBV?$basic_string@DU?$char_traits@D@std@@V?$allocator@D@2@@std@@V12@@std@@PEAX@std@@@1@AEBV?$basic_string@DU?$char_traits@D@std@@V?$allocator@D@2@@1@@Z
	??$_Find_lower_bound@V?$basic_string@DU?$char_traits@D@std@@V?$allocator@D@2@@std@@@?$_Tree@V?$_Tmap_traits@V?$basic_string@DU?$char_traits@D@std@@V?$allocator@D@2@@std@@Vstyle_colormap@sg@tools@@U?$less@V?$basic_string@DU?$char_traits@D@std@@V?$allocator@D@2@@std@@@2@V?$allocator@U?$pair@$$CBV?$basic_string@DU?$char_traits@D@std@@V?$allocator@D@2@@std@@Vstyle_colormap@sg@tools@@@std@@@2@$0A@@std@@@std@@IEBA?AU?$_Tree_find_result@PEAU?$_Tree_node@U?$pair@$$CBV?$basic_string@DU?$char_traits@D@std@@V?$allocator@D@2@@std@@Vstyle_colormap@sg@tools@@@std@@PEAX@std@@@1@AEBV?$basic_string@DU?$char_traits@D@std@@V?$allocator@D@2@@1@@Z
	??$_Find_lower_bound@VG4String@@@?$_Tree@V?$_Tmap_traits@VG4String@@HU?$less@VG4String@@@std@@V?$allocator@U?$pair@$$CBVG4String@@H@std@@@3@$0A@@std@@@std@@IEBA?AU?$_Tree_find_result@PEAU?$_Tree_node@U?$pair@$$CBVG4String@@H@std@@PEAX@std@@@1@AEBVG4String@@@Z
	??$_Find_lower_bound@VG4String@@@?$_Tree@V?$_Tmap_traits@VG4String@@PEAV?$basic_ifstream@DU?$char_traits@D@std@@@std@@U?$less@VG4String@@@3@V?$allocator@U?$pair@$$CBVG4String@@PEAV?$basic_ifstream@DU?$char_traits@D@std@@@std@@@std@@@3@$0A@@std@@@std@@IEBA?AU?$_Tree_find_result@PEAU?$_Tree_node@U?$pair@$$CBVG4String@@PEAV?$basic_ifstream@DU?$char_traits@D@std@@@std@@@std@@PEAX@std@@@1@AEBVG4String@@@Z
	??$_Find_lower_bound@VG4String@@@?$_Tree@V?$_Tmap_traits@VG4String@@PEAVG4VAccumulable@@U?$less@VG4String@@@std@@V?$allocator@U?$pair@$$CBVG4String@@PEAVG4VAccumulable@@@std@@@4@$0A@@std@@@std@@IEBA?AU?$_Tree_find_result@PEAU?$_Tree_node@U?$pair@$$CBVG4String@@PEAVG4VAccumulable@@@std@@PEAX@std@@@1@AEBVG4String@@@Z
	??$_Free_non_head@V?$allocator@U?$_List_node@IPEAX@std@@@std@@@?$_List_node@IPEAX@std@@SAXAEAV?$allocator@U?$_List_node@IPEAX@std@@@1@PEAU01@@Z
	??$_Getvals@_W@?$time_get@DV?$istreambuf_iterator@DU?$char_traits@D@std@@@std@@@std@@IEAAX_WAEBV_Locinfo@1@@Z
	??$_Getvals@_W@?$time_get@_WV?$istreambuf_iterator@_WU?$char_traits@_W@std@@@std@@@std@@IEAAX_WAEBV_Locinfo@1@@Z
	??$_Idl_distance@PEBMPEBM@std@@YA_JAEBQEBM0@Z
	??$_Idl_distance@PEBV?$basic_string@DU?$char_traits@D@std@@V?$allocator@D@2@@std@@PEBV12@@std@@YA_JAEBQEBV?$basic_string@DU?$char_traits@D@std@@V?$allocator@D@2@@0@0@Z
	??$_Idl_distance@PEBVvec2f@tools@@PEBV12@@std@@YA_JAEBQEBVvec2f@tools@@0@Z
	??$_Idl_distance@PEBW4unit_type@plotter@sg@tools@@PEBW41234@@std@@YA_JAEBQEBW4unit_type@plotter@sg@tools@@0@Z
	??$_Idl_distance@V?$_Vb_iterator@U?$_Wrap_alloc@V?$allocator@I@std@@@std@@@std@@V12@@std@@YA_JAEBV?$_Vb_iterator@U?$_Wrap_alloc@V?$allocator@I@std@@@std@@@0@0@Z
	??$_Insert_string@DU?$char_traits@D@std@@_K@std@@YAAEAV?$basic_ostream@DU?$char_traits@D@std@@@0@AEAV10@QEBD_K@Z
	??$_Maklocstr@D@std@@YAPEADPEBDPEADAEBU_Cvtvec@@@Z
	??$_Move_backward_unchecked@PEAV?$vector@HV?$allocator@H@std@@@std@@PEAV12@@std@@YAPEAV?$vector@HV?$allocator@H@std@@@0@PEAV10@00@Z
	??$_Move_unchecked@PEAHPEAH@std@@YAPEAHPEAH00@Z
	??$_Move_unchecked@PEAIPEAI@std@@YAPEAIPEAI00@Z
	??$_Move_unchecked@PEAPEAVbase_col@aida@tools@@PEAPEAV123@@std@@YAPEAPEAVbase_col@aida@tools@@PEAPEAV123@00@Z
	??$_Move_unchecked@PEAPEAVbase_leaf@rroot@tools@@PEAPEAV123@@std@@YAPEAPEAVbase_leaf@rroot@tools@@PEAPEAV123@00@Z
	??$_Move_unchecked@PEAPEAVbase_leaf@wroot@tools@@PEAPEAV123@@std@@YAPEAPEAVbase_leaf@wroot@tools@@PEAPEAV123@00@Z
	??$_Move_unchecked@PEAPEAVbasket@rroot@tools@@PEAPEAV123@@std@@YAPEAPEAVbasket@rroot@tools@@PEAPEAV123@00@Z
	??$_Move_unchecked@PEAPEAVbasket@wroot@tools@@PEAPEAV123@@std@@YAPEAPEAVbasket@wroot@tools@@PEAPEAV123@00@Z
	??$_Move_unchecked@PEAPEAVbranch@rroot@tools@@PEAPEAV123@@std@@YAPEAPEAVbranch@rroot@tools@@PEAPEAV123@00@Z
	??$_Move_unchecked@PEAPEAVbranch@wroot@tools@@PEAPEAV123@@std@@YAPEAPEAVbranch@wroot@tools@@PEAPEAV123@00@Z
	??$_Move_unchecked@PEAPEAVdirectory@wroot@tools@@PEAPEAV123@@std@@YAPEAPEAVdirectory@wroot@tools@@PEAPEAV123@00@Z
	??$_Move_unchecked@PEAPEAVfield@sg@tools@@PEAPEAV123@@std@@YAPEAPEAVfield@sg@tools@@PEAPEAV123@00@Z
	??$_Move_unchecked@PEAPEAVicol@ntuple@wcsv@tools@@PEAPEAV1234@@std@@YAPEAPEAVicol@ntuple@wcsv@tools@@PEAPEAV1234@00@Z
	??$_Move_unchecked@PEAPEAVicol@read@tools@@PEAPEAV123@@std@@YAPEAPEAVicol@read@tools@@PEAPEAV123@00@Z
	??$_Move_unchecked@PEAPEAVicol@wroot@tools@@PEAPEAV123@@std@@YAPEAPEAVicol@wroot@tools@@PEAPEAV123@00@Z
	??$_Move_unchecked@PEAPEAViobj@ntuple@waxml@tools@@PEAPEAV1234@@std@@YAPEAPEAViobj@ntuple@waxml@tools@@PEAPEAV1234@00@Z
	??$_Move_unchecked@PEAPEAViobject@wroot@tools@@PEAPEAV123@@std@@YAPEAPEAViobject@wroot@tools@@PEAPEAV123@00@Z
	??$_Move_unchecked@PEAPEAViro@rroot@tools@@PEAPEAV123@@std@@YAPEAPEAViro@rroot@tools@@PEAPEAV123@00@Z
	??$_Move_unchecked@PEAPEAVkey@rroot@tools@@PEAPEAV123@@std@@YAPEAPEAVkey@rroot@tools@@PEAPEAV123@00@Z
	??$_Move_unchecked@PEAPEAVnode@sg@tools@@PEAPEAV123@@std@@YAPEAPEAVnode@sg@tools@@PEAPEAV123@00@Z
	??$_Move_unchecked@PEAPEAVstreamer_element@rroot@tools@@PEAPEAV123@@std@@YAPEAPEAVstreamer_element@rroot@tools@@PEAPEAV123@00@Z
	??$_Move_unchecked@PEAPEAVstreamer_element@wroot@tools@@PEAPEAV123@@std@@YAPEAPEAVstreamer_element@wroot@tools@@PEAPEAV123@00@Z
	??$_Move_unchecked@PEAPEAVstreamer_info@wroot@tools@@PEAPEAV123@@std@@YAPEAPEAVstreamer_info@wroot@tools@@PEAPEAV123@00@Z
	??$_Move_unchecked@PEAPEAVtree@columns@tools@@PEAPEAV123@@std@@YAPEAPEAVtree@columns@tools@@PEAPEAV123@00@Z
	??$_Move_unchecked@PEAU?$pair@IPEAVrender_manager@sg@tools@@@std@@PEAU12@@std@@YAPEAU?$pair@IPEAVrender_manager@sg@tools@@@0@PEAU10@00@Z
	??$_Pocca@V?$allocator@D@std@@@std@@YAXAEAV?$allocator@D@0@AEBV10@@Z
	??$_Pocca@V?$allocator@E@std@@@std@@YAXAEAV?$allocator@E@0@AEBV10@@Z
	??$_Pocca@V?$allocator@F@std@@@std@@YAXAEAV?$allocator@F@0@AEBV10@@Z
	??$_Pocca@V?$allocator@G@std@@@std@@YAXAEAV?$allocator@G@0@AEBV10@@Z
	??$_Pocca@V?$allocator@H@std@@@std@@YAXAEAV?$allocator@H@0@AEBV10@@Z
	??$_Pocca@V?$allocator@I@std@@@std@@YAXAEAV?$allocator@I@0@AEBV10@@Z
	??$_Pocca@V?$allocator@M@std@@@std@@YAXAEAV?$allocator@M@0@AEBV10@@Z
	??$_Pocca@V?$allocator@N@std@@@std@@YAXAEAV?$allocator@N@0@AEBV10@@Z
	??$_Pocca@V?$allocator@PEAVfield@sg@tools@@@std@@@std@@YAXAEAV?$allocator@PEAVfield@sg@tools@@@0@AEBV10@@Z
	??$_Pocca@V?$allocator@U?$_Tree_node@U?$pair@$$CBIVstyle_color@sg@tools@@@std@@PEAX@std@@@std@@@std@@YAXAEAV?$allocator@U?$_Tree_node@U?$pair@$$CBIVstyle_color@sg@tools@@@std@@PEAX@std@@@0@AEBV10@@Z
	??$_Pocca@V?$allocator@U?$_Tree_node@U?$pair@$$CBV?$basic_string@DU?$char_traits@D@std@@V?$allocator@D@2@@std@@V12@@std@@PEAX@std@@@std@@@std@@YAXAEAV?$allocator@U?$_Tree_node@U?$pair@$$CBV?$basic_string@DU?$char_traits@D@std@@V?$allocator@D@2@@std@@V12@@std@@PEAX@std@@@0@AEBV10@@Z
	??$_Pocca@V?$allocator@U?$_Tree_node@U?$pair@$$CBV?$basic_string@DU?$char_traits@D@std@@V?$allocator@D@2@@std@@Vstyle_colormap@sg@tools@@@std@@PEAX@std@@@std@@@std@@YAXAEAV?$allocator@U?$_Tree_node@U?$pair@$$CBV?$basic_string@DU?$char_traits@D@std@@V?$allocator@D@2@@std@@Vstyle_colormap@sg@tools@@@std@@PEAX@std@@@0@AEBV10@@Z
	??$_Pocca@V?$allocator@U?$pair@V?$basic_string@DU?$char_traits@D@std@@V?$allocator@D@2@@std@@H@std@@@std@@@std@@YAXAEAV?$allocator@U?$pair@V?$basic_string@DU?$char_traits@D@std@@V?$allocator@D@2@@std@@H@std@@@0@AEBV10@@Z
	??$_Pocca@V?$allocator@U?$pair@V?$basic_string@DU?$char_traits@D@std@@V?$allocator@D@2@@std@@V12@@std@@@std@@@std@@YAXAEAV?$allocator@U?$pair@V?$basic_string@DU?$char_traits@D@std@@V?$allocator@D@2@@std@@V12@@std@@@0@AEBV10@@Z
	??$_Pocca@V?$allocator@V?$axis@NI@histo@tools@@@std@@@std@@YAXAEAV?$allocator@V?$axis@NI@histo@tools@@@0@AEBV10@@Z
	??$_Pocca@V?$allocator@V?$basic_string@DU?$char_traits@D@std@@V?$allocator@D@2@@std@@@std@@@std@@YAXAEAV?$allocator@V?$basic_string@DU?$char_traits@D@std@@V?$allocator@D@2@@std@@@0@AEBV10@@Z
	??$_Pocca@V?$allocator@V?$vector@NV?$allocator@N@std@@@std@@@std@@@std@@YAXAEAV?$allocator@V?$vector@NV?$allocator@N@std@@@std@@@0@AEBV10@@Z
	??$_Pocca@V?$allocator@Vfield_desc@sg@tools@@@std@@@std@@YAXAEAV?$allocator@Vfield_desc@sg@tools@@@0@AEBV10@@Z
	??$_Pocca@V?$allocator@Vmat4f@tools@@@std@@@std@@YAXAEAV?$allocator@Vmat4f@tools@@@0@AEBV10@@Z
	??$_Pocca@V?$allocator@Vstate@sg@tools@@@std@@@std@@YAXAEAV?$allocator@Vstate@sg@tools@@@0@AEBV10@@Z
	??$_Pocca@V?$allocator@Vstyle@sg@tools@@@std@@@std@@YAXAEAV?$allocator@Vstyle@sg@tools@@@0@AEBV10@@Z
	??$_Pocca@V?$allocator@Vvec2f@tools@@@std@@@std@@YAXAEAV?$allocator@Vvec2f@tools@@@0@AEBV10@@Z
	??$_Pocca@V?$allocator@W4unit_type@plotter@sg@tools@@@std@@@std@@YAXAEAV?$allocator@W4unit_type@plotter@sg@tools@@@0@AEBV10@@Z
	??$_Pocca@V?$allocator@_J@std@@@std@@YAXAEAV?$allocator@_J@0@AEBV10@@Z
	??$_Pocca@V?$allocator@_K@std@@@std@@YAXAEAV?$allocator@_K@0@AEBV10@@Z
	??$_Pocma@V?$allocator@D@std@@@std@@YAXAEAV?$allocator@D@0@0@Z
	??$_Pocma@V?$allocator@F@std@@@std@@YAXAEAV?$allocator@F@0@0@Z
	??$_Pocma@V?$allocator@H@std@@@std@@YAXAEAV?$allocator@H@0@0@Z
	??$_Pocma@V?$allocator@M@std@@@std@@YAXAEAV?$allocator@M@0@0@Z
	??$_Pocma@V?$allocator@N@std@@@std@@YAXAEAV?$allocator@N@0@0@Z
	??$_Reallocate_grow_by@V<lambda_16d2cb92461ac9818af78a76c749bd7f>@@_K_KPEBD_K@?$basic_string@DU?$char_traits@D@std@@V?$allocator@D@2@@std@@AEAAAEAV01@_KV<lambda_16d2cb92461ac9818af78a76c749bd7f>@@_K2PEBD2@Z
	??$_Reallocate_grow_by@V<lambda_319d5e083f45f90dcdce5dce53cbb275>@@D@?$basic_string@DU?$char_traits@D@std@@V?$allocator@D@2@@std@@AEAAAEAV01@_KV<lambda_319d5e083f45f90dcdce5dce53cbb275>@@D@Z
	??$_Reallocate_grow_by@V<lambda_65e615be2a453ca0576c979606f46740>@@PEBD_K@?$basic_string@DU?$char_traits@D@std@@V?$allocator@D@2@@std@@AEAAAEAV01@_KV<lambda_65e615be2a453ca0576c979606f46740>@@PEBD_K@Z
	??$_Reallocate_grow_by@V<lambda_e1befb086ad3257e3f042a63030725f7>@@_KD@?$basic_string@DU?$char_traits@D@std@@V?$allocator@D@2@@std@@AEAAAEAV01@_KV<lambda_e1befb086ad3257e3f042a63030725f7>@@_KD@Z
	??$_Reallocate_grow_by@V<lambda_f3a66ab6a0570788f31503db83886f49>@@_KPEBD_K@?$basic_string@DU?$char_traits@D@std@@V?$allocator@D@2@@std@@AEAAAEAV01@_KV<lambda_f3a66ab6a0570788f31503db83886f49>@@_KPEBD2@Z
	??$_Refancy@PEAD$0A@@std@@YAPEADPEAD@Z
	??$_Refancy@PEAE$0A@@std@@YAPEAEPEAE@Z
	??$_Refancy@PEAF$0A@@std@@YAPEAFPEAF@Z
	??$_Refancy@PEAG$0A@@std@@YAPEAGPEAG@Z
	??$_Refancy@PEAH$0A@@std@@YAPEAHPEAH@Z
	??$_Refancy@PEAI$0A@@std@@YAPEAIPEAI@Z
	??$_Refancy@PEAM$0A@@std@@YAPEAMPEAM@Z
	??$_Refancy@PEAN$0A@@std@@YAPEANPEAN@Z
	??$_Refancy@PEAPEAVfield@sg@tools@@$0A@@std@@YAPEAPEAVfield@sg@tools@@PEAPEAV123@@Z
	??$_Refancy@PEAW4unit_type@plotter@sg@tools@@$0A@@std@@YAPEAW4unit_type@plotter@sg@tools@@PEAW41234@@Z
	??$_Refancy@PEA_J$0A@@std@@YAPEA_JPEA_J@Z
	??$_Refancy@PEA_K$0A@@std@@YAPEA_KPEA_K@Z
	??$_Refancy@PEBD$0A@@std@@YAPEBDPEBD@Z
	??$_Resize_reallocate@I@?$vector@IV?$allocator@I@std@@@std@@AEAAX_KAEBI@Z
	??$_Resize_reallocate@M@?$vector@MV?$allocator@M@std@@@std@@AEAAX_KAEBM@Z
	??$_Resize_reallocate@N@?$vector@NV?$allocator@N@std@@@std@@AEAAX_KAEBN@Z
	??$_Resize_reallocate@PEAVbase_colormap@sg@tools@@@?$vector@PEAVbase_colormap@sg@tools@@V?$allocator@PEAVbase_colormap@sg@tools@@@std@@@std@@AEAAX_KAEBQEAVbase_colormap@sg@tools@@@Z
	??$_Resize_reallocate@PEAVbasket@wroot@tools@@@?$vector@PEAVbasket@wroot@tools@@V?$allocator@PEAVbasket@wroot@tools@@@std@@@std@@AEAAX_KAEBQEAVbasket@wroot@tools@@@Z
	??$_Resize_reallocate@U_Value_init_tag@std@@@?$vector@DV?$allocator@D@std@@@std@@AEAAX_KAEBU_Value_init_tag@1@@Z
	??$_Resize_reallocate@U_Value_init_tag@std@@@?$vector@EV?$allocator@E@std@@@std@@AEAAX_KAEBU_Value_init_tag@1@@Z
	??$_Resize_reallocate@U_Value_init_tag@std@@@?$vector@FV?$allocator@F@std@@@std@@AEAAX_KAEBU_Value_init_tag@1@@Z
	??$_Resize_reallocate@U_Value_init_tag@std@@@?$vector@GV?$allocator@G@std@@@std@@AEAAX_KAEBU_Value_init_tag@1@@Z
	??$_Resize_reallocate@U_Value_init_tag@std@@@?$vector@HV?$allocator@H@std@@@std@@AEAAX_KAEBU_Value_init_tag@1@@Z
	??$_Resize_reallocate@U_Value_init_tag@std@@@?$vector@IV?$allocator@I@std@@@std@@AEAAX_KAEBU_Value_init_tag@1@@Z
	??$_Resize_reallocate@U_Value_init_tag@std@@@?$vector@MV?$allocator@M@std@@@std@@AEAAX_KAEBU_Value_init_tag@1@@Z
	??$_Resize_reallocate@U_Value_init_tag@std@@@?$vector@NV?$allocator@N@std@@@std@@AEAAX_KAEBU_Value_init_tag@1@@Z
	??$_Resize_reallocate@U_Value_init_tag@std@@@?$vector@Uyystype@G4UItokenNum@@V?$allocator@Uyystype@G4UItokenNum@@@std@@@std@@AEAAX_KAEBU_Value_init_tag@1@@Z
	??$_Resize_reallocate@U_Value_init_tag@std@@@?$vector@V?$axis@NI@histo@tools@@V?$allocator@V?$axis@NI@histo@tools@@@std@@@std@@AEAAX_KAEBU_Value_init_tag@1@@Z
	??$_Resize_reallocate@U_Value_init_tag@std@@@?$vector@V?$basic_string@DU?$char_traits@D@std@@V?$allocator@D@2@@std@@V?$allocator@V?$basic_string@DU?$char_traits@D@std@@V?$allocator@D@2@@std@@@2@@std@@AEAAX_KAEBU_Value_init_tag@1@@Z
	??$_Resize_reallocate@U_Value_init_tag@std@@@?$vector@V?$list@PEAV?$list@IV?$allocator@I@std@@@std@@V?$allocator@PEAV?$list@IV?$allocator@I@std@@@std@@@2@@std@@V?$allocator@V?$list@PEAV?$list@IV?$allocator@I@std@@@std@@V?$allocator@PEAV?$list@IV?$allocator@I@std@@@std@@@2@@std@@@2@@std@@AEAAX_KAEBU_Value_init_tag@1@@Z
	??$_Resize_reallocate@U_Value_init_tag@std@@@?$vector@V?$vector@FV?$allocator@F@std@@@std@@V?$allocator@V?$vector@FV?$allocator@F@std@@@std@@@2@@std@@AEAAX_KAEBU_Value_init_tag@1@@Z
	??$_Resize_reallocate@U_Value_init_tag@std@@@?$vector@V?$vector@GV?$allocator@G@std@@@std@@V?$allocator@V?$vector@GV?$allocator@G@std@@@std@@@2@@std@@AEAAX_KAEBU_Value_init_tag@1@@Z
	??$_Resize_reallocate@U_Value_init_tag@std@@@?$vector@V?$vector@HV?$allocator@H@std@@@std@@V?$allocator@V?$vector@HV?$allocator@H@std@@@std@@@2@@std@@AEAAX_KAEBU_Value_init_tag@1@@Z
	??$_Resize_reallocate@U_Value_init_tag@std@@@?$vector@V?$vector@IV?$allocator@I@std@@@std@@V?$allocator@V?$vector@IV?$allocator@I@std@@@std@@@2@@std@@AEAAX_KAEBU_Value_init_tag@1@@Z
	??$_Resize_reallocate@U_Value_init_tag@std@@@?$vector@V?$vector@MV?$allocator@M@std@@@std@@V?$allocator@V?$vector@MV?$allocator@M@std@@@std@@@2@@std@@AEAAX_KAEBU_Value_init_tag@1@@Z
	??$_Resize_reallocate@U_Value_init_tag@std@@@?$vector@V?$vector@NV?$allocator@N@std@@@std@@V?$allocator@V?$vector@NV?$allocator@N@std@@@std@@@2@@std@@AEAAX_KAEBU_Value_init_tag@1@@Z
	??$_Resize_reallocate@U_Value_init_tag@std@@@?$vector@Vcolorf@tools@@V?$allocator@Vcolorf@tools@@@std@@@std@@AEAAX_KAEBU_Value_init_tag@1@@Z
	??$_Resize_reallocate@U_Value_init_tag@std@@@?$vector@Vcubic_poly@spline@tools@@V?$allocator@Vcubic_poly@spline@tools@@@std@@@std@@AEAAX_KAEBU_Value_init_tag@1@@Z
	??$_Resize_reallocate@U_Value_init_tag@std@@@?$vector@Vmat4f@tools@@V?$allocator@Vmat4f@tools@@@std@@@std@@AEAAX_KAEBU_Value_init_tag@1@@Z
	??$_Resize_reallocate@U_Value_init_tag@std@@@?$vector@Vvec2f@tools@@V?$allocator@Vvec2f@tools@@@std@@@std@@AEAAX_KAEBU_Value_init_tag@1@@Z
	??$_Resize_reallocate@U_Value_init_tag@std@@@?$vector@W4unit_type@plotter@sg@tools@@V?$allocator@W4unit_type@plotter@sg@tools@@@std@@@std@@AEAAX_KAEBU_Value_init_tag@1@@Z
	??$_Resize_reallocate@U_Value_init_tag@std@@@?$vector@_KV?$allocator@_K@std@@@std@@AEAAX_KAEBU_Value_init_tag@1@@Z
	??$_Resize_reallocate@V?$vector@NV?$allocator@N@std@@@std@@@?$vector@V?$vector@NV?$allocator@N@std@@@std@@V?$allocator@V?$vector@NV?$allocator@N@std@@@std@@@2@@std@@AEAAX_KAEBV?$vector@NV?$allocator@N@std@@@1@@Z
	??$_Traits_find@U?$char_traits@D@std@@@std@@YA_KQEBD_K101@Z
	??$_Unfancy_maybe_null@I@std@@YAPEAIPEAI@Z
	??$_Uninitialized_copy@PEADV?$allocator@D@std@@@std@@YAPEADQEAD0PEADAEAV?$allocator@D@0@@Z
	??$_Uninitialized_copy@PEAFV?$allocator@F@std@@@std@@YAPEAFQEAF0PEAFAEAV?$allocator@F@0@@Z
	??$_Uninitialized_copy@PEAGV?$allocator@G@std@@@std@@YAPEAGQEAG0PEAGAEAV?$allocator@G@0@@Z
	??$_Uninitialized_copy@PEAHV?$allocator@H@std@@@std@@YAPEAHQEAH0PEAHAEAV?$allocator@H@0@@Z
	??$_Uninitialized_copy@PEAIV?$allocator@I@std@@@std@@YAPEAIQEAI0PEAIAEAV?$allocator@I@0@@Z
	??$_Uninitialized_copy@PEAMV?$allocator@M@std@@@std@@YAPEAMQEAM0PEAMAEAV?$allocator@M@0@@Z
	??$_Uninitialized_copy@PEANV?$allocator@N@std@@@std@@YAPEANQEAN0PEANAEAV?$allocator@N@0@@Z
	??$_Uninitialized_copy@PEAPEAU?$G4TNtupleDescription@Vntuple@waxml@tools@@@@V?$allocator@PEAU?$G4TNtupleDescription@Vntuple@waxml@tools@@@@@std@@@std@@YAPEAPEAU?$G4TNtupleDescription@Vntuple@waxml@tools@@@@QEAPEAU1@0PEAPEAU1@AEAV?$allocator@PEAU?$G4TNtupleDescription@Vntuple@waxml@tools@@@@@0@@Z
	??$_Uninitialized_copy@PEAPEAU?$G4TNtupleDescription@Vntuple@wcsv@tools@@@@V?$allocator@PEAU?$G4TNtupleDescription@Vntuple@wcsv@tools@@@@@std@@@std@@YAPEAPEAU?$G4TNtupleDescription@Vntuple@wcsv@tools@@@@QEAPEAU1@0PEAPEAU1@AEAV?$allocator@PEAU?$G4TNtupleDescription@Vntuple@wcsv@tools@@@@@0@@Z
	??$_Uninitialized_copy@PEAPEAVG4HnInformation@@V?$allocator@PEAVG4HnInformation@@@std@@@std@@YAPEAPEAVG4HnInformation@@QEAPEAV1@0PEAPEAV1@AEAV?$allocator@PEAVG4HnInformation@@@0@@Z
	??$_Uninitialized_copy@PEAPEAVh1d@histo@tools@@V?$allocator@PEAVh1d@histo@tools@@@std@@@std@@YAPEAPEAVh1d@histo@tools@@QEAPEAV123@0PEAPEAV123@AEAV?$allocator@PEAVh1d@histo@tools@@@0@@Z
	??$_Uninitialized_copy@PEAPEAVh2d@histo@tools@@V?$allocator@PEAVh2d@histo@tools@@@std@@@std@@YAPEAPEAVh2d@histo@tools@@QEAPEAV123@0PEAPEAV123@AEAV?$allocator@PEAVh2d@histo@tools@@@0@@Z
	??$_Uninitialized_copy@PEAPEAVh3d@histo@tools@@V?$allocator@PEAVh3d@histo@tools@@@std@@@std@@YAPEAPEAVh3d@histo@tools@@QEAPEAV123@0PEAPEAV123@AEAV?$allocator@PEAVh3d@histo@tools@@@0@@Z
	??$_Uninitialized_copy@PEAPEAVnode@sg@tools@@V?$allocator@PEAVnode@sg@tools@@@std@@@std@@YAPEAPEAVnode@sg@tools@@QEAPEAV123@0PEAPEAV123@AEAV?$allocator@PEAVnode@sg@tools@@@0@@Z
	??$_Uninitialized_copy@PEAPEAVp1d@histo@tools@@V?$allocator@PEAVp1d@histo@tools@@@std@@@std@@YAPEAPEAVp1d@histo@tools@@QEAPEAV123@0PEAPEAV123@AEAV?$allocator@PEAVp1d@histo@tools@@@0@@Z
	??$_Uninitialized_copy@PEAPEAVp2d@histo@tools@@V?$allocator@PEAVp2d@histo@tools@@@std@@@std@@YAPEAPEAVp2d@histo@tools@@QEAPEAV123@0PEAPEAV123@AEAV?$allocator@PEAVp2d@histo@tools@@@0@@Z
	??$_Uninitialized_copy@PEAU?$pair@V?$basic_string@DU?$char_traits@D@std@@V?$allocator@D@2@@std@@H@std@@V?$allocator@U?$pair@V?$basic_string@DU?$char_traits@D@std@@V?$allocator@D@2@@std@@H@std@@@2@@std@@YAPEAU?$pair@V?$basic_string@DU?$char_traits@D@std@@V?$allocator@D@2@@std@@H@0@QEAU10@0PEAU10@AEAV?$allocator@U?$pair@V?$basic_string@DU?$char_traits@D@std@@V?$allocator@D@2@@std@@H@std@@@0@@Z
	??$_Uninitialized_copy@PEAU?$pair@V?$basic_string@DU?$char_traits@D@std@@V?$allocator@D@2@@std@@V12@@std@@V?$allocator@U?$pair@V?$basic_string@DU?$char_traits@D@std@@V?$allocator@D@2@@std@@V12@@std@@@2@@std@@YAPEAU?$pair@V?$basic_string@DU?$char_traits@D@std@@V?$allocator@D@2@@std@@V12@@0@QEAU10@0PEAU10@AEAV?$allocator@U?$pair@V?$basic_string@DU?$char_traits@D@std@@V?$allocator@D@2@@std@@V12@@std@@@0@@Z
	??$_Uninitialized_copy@PEAUG4HnDimensionInformation@@V?$allocator@UG4HnDimensionInformation@@@std@@@std@@YAPEAUG4HnDimensionInformation@@QEAU1@0PEAU1@AEAV?$allocator@UG4HnDimensionInformation@@@0@@Z
	??$_Uninitialized_copy@PEAUyystype@G4UItokenNum@@V?$allocator@Uyystype@G4UItokenNum@@@std@@@std@@YAPEAUyystype@G4UItokenNum@@QEAU12@0PEAU12@AEAV?$allocator@Uyystype@G4UItokenNum@@@0@@Z
	??$_Uninitialized_copy@PEAV?$axis@NI@histo@tools@@V?$allocator@V?$axis@NI@histo@tools@@@std@@@std@@YAPEAV?$axis@NI@histo@tools@@QEAV123@0PEAV123@AEAV?$allocator@V?$axis@NI@histo@tools@@@0@@Z
	??$_Uninitialized_copy@PEAV?$basic_string@DU?$char_traits@D@std@@V?$allocator@D@2@@std@@V?$allocator@V?$basic_string@DU?$char_traits@D@std@@V?$allocator@D@2@@std@@@2@@std@@YAPEAV?$basic_string@DU?$char_traits@D@std@@V?$allocator@D@2@@0@QEAV10@0PEAV10@AEAV?$allocator@V?$basic_string@DU?$char_traits@D@std@@V?$allocator@D@2@@std@@@0@@Z
	??$_Uninitialized_copy@PEAV?$list@PEAV?$list@IV?$allocator@I@std@@@std@@V?$allocator@PEAV?$list@IV?$allocator@I@std@@@std@@@2@@std@@V?$allocator@V?$list@PEAV?$list@IV?$allocator@I@std@@@std@@V?$allocator@PEAV?$list@IV?$allocator@I@std@@@std@@@2@@std@@@2@@std@@YAPEAV?$list@PEAV?$list@IV?$allocator@I@std@@@std@@V?$allocator@PEAV?$list@IV?$allocator@I@std@@@std@@@2@@0@QEAV10@0PEAV10@AEAV?$allocator@V?$list@PEAV?$list@IV?$allocator@I@std@@@std@@V?$allocator@PEAV?$list@IV?$allocator@I@std@@@std@@@2@@std@@@0@@Z
	??$_Uninitialized_copy@PEAV?$vector@FV?$allocator@F@std@@@std@@V?$allocator@V?$vector@FV?$allocator@F@std@@@std@@@2@@std@@YAPEAV?$vector@FV?$allocator@F@std@@@0@QEAV10@0PEAV10@AEAV?$allocator@V?$vector@FV?$allocator@F@std@@@std@@@0@@Z
	??$_Uninitialized_copy@PEAV?$vector@GV?$allocator@G@std@@@std@@V?$allocator@V?$vector@GV?$allocator@G@std@@@std@@@2@@std@@YAPEAV?$vector@GV?$allocator@G@std@@@0@QEAV10@0PEAV10@AEAV?$allocator@V?$vector@GV?$allocator@G@std@@@std@@@0@@Z
	??$_Uninitialized_copy@PEAV?$vector@HV?$allocator@H@std@@@std@@V?$allocator@V?$vector@HV?$allocator@H@std@@@std@@@2@@std@@YAPEAV?$vector@HV?$allocator@H@std@@@0@QEAV10@0PEAV10@AEAV?$allocator@V?$vector@HV?$allocator@H@std@@@std@@@0@@Z
	??$_Uninitialized_copy@PEAV?$vector@IV?$allocator@I@std@@@std@@V?$allocator@V?$vector@IV?$allocator@I@std@@@std@@@2@@std@@YAPEAV?$vector@IV?$allocator@I@std@@@0@QEAV10@0PEAV10@AEAV?$allocator@V?$vector@IV?$allocator@I@std@@@std@@@0@@Z
	??$_Uninitialized_copy@PEAV?$vector@MV?$allocator@M@std@@@std@@V?$allocator@V?$vector@MV?$allocator@M@std@@@std@@@2@@std@@YAPEAV?$vector@MV?$allocator@M@std@@@0@QEAV10@0PEAV10@AEAV?$allocator@V?$vector@MV?$allocator@M@std@@@std@@@0@@Z
	??$_Uninitialized_copy@PEAV?$vector@NV?$allocator@N@std@@@std@@V?$allocator@V?$vector@NV?$allocator@N@std@@@std@@@2@@std@@YAPEAV?$vector@NV?$allocator@N@std@@@0@QEAV10@0PEAV10@AEAV?$allocator@V?$vector@NV?$allocator@N@std@@@std@@@0@@Z
	??$_Uninitialized_copy@PEAV?$vector@Vvec3f@tools@@V?$allocator@Vvec3f@tools@@@std@@@std@@V?$allocator@V?$vector@Vvec3f@tools@@V?$allocator@Vvec3f@tools@@@std@@@std@@@2@@std@@YAPEAV?$vector@Vvec3f@tools@@V?$allocator@Vvec3f@tools@@@std@@@0@QEAV10@0PEAV10@AEAV?$allocator@V?$vector@Vvec3f@tools@@V?$allocator@Vvec3f@tools@@@std@@@std@@@0@@Z
	??$_Uninitialized_copy@PEAV_text@hplot@tools@@V?$allocator@V_text@hplot@tools@@@std@@@std@@YAPEAV_text@hplot@tools@@QEAV123@0PEAV123@AEAV?$allocator@V_text@hplot@tools@@@0@@Z
	??$_Uninitialized_copy@PEAVcolbook@aidas@xml@tools@@V?$allocator@Vcolbook@aidas@xml@tools@@@std@@@std@@YAPEAVcolbook@aidas@xml@tools@@QEAV1234@0PEAV1234@AEAV?$allocator@Vcolbook@aidas@xml@tools@@@0@@Z
	??$_Uninitialized_copy@PEAVcolorf@tools@@V?$allocator@Vcolorf@tools@@@std@@@std@@YAPEAVcolorf@tools@@QEAV12@0PEAV12@AEAV?$allocator@Vcolorf@tools@@@0@@Z
	??$_Uninitialized_copy@PEAVcolumn_binding@tools@@V?$allocator@Vcolumn_binding@tools@@@std@@@std@@YAPEAVcolumn_binding@tools@@QEAV12@0PEAV12@AEAV?$allocator@Vcolumn_binding@tools@@@0@@Z
	??$_Uninitialized_copy@PEAVcolumn_booking@tools@@V?$allocator@Vcolumn_booking@tools@@@std@@@std@@YAPEAVcolumn_booking@tools@@QEAV12@0PEAV12@AEAV?$allocator@Vcolumn_booking@tools@@@0@@Z
	??$_Uninitialized_copy@PEAVcubic_poly@spline@tools@@V?$allocator@Vcubic_poly@spline@tools@@@std@@@std@@YAPEAVcubic_poly@spline@tools@@QEAV123@0PEAV123@AEAV?$allocator@Vcubic_poly@spline@tools@@@0@@Z
	??$_Uninitialized_copy@PEAVdata_point@histo@tools@@V?$allocator@Vdata_point@histo@tools@@@std@@@std@@YAPEAVdata_point@histo@tools@@QEAV123@0PEAV123@AEAV?$allocator@Vdata_point@histo@tools@@@0@@Z
	??$_Uninitialized_copy@PEAVextra@plots@sg@tools@@V?$allocator@Vextra@plots@sg@tools@@@std@@@std@@YAPEAVextra@plots@sg@tools@@QEAV1234@0PEAV1234@AEAV?$allocator@Vextra@plots@sg@tools@@@0@@Z
	??$_Uninitialized_copy@PEAVfield_desc@sg@tools@@V?$allocator@Vfield_desc@sg@tools@@@std@@@std@@YAPEAVfield_desc@sg@tools@@QEAV123@0PEAV123@AEAV?$allocator@Vfield_desc@sg@tools@@@0@@Z
	??$_Uninitialized_copy@PEAVhchar@sg@tools@@V?$allocator@Vhchar@sg@tools@@@std@@@std@@YAPEAVhchar@sg@tools@@QEAV123@0PEAV123@AEAV?$allocator@Vhchar@sg@tools@@@0@@Z
	??$_Uninitialized_copy@PEAVmat4f@tools@@V?$allocator@Vmat4f@tools@@@std@@@std@@YAPEAVmat4f@tools@@QEAV12@0PEAV12@AEAV?$allocator@Vmat4f@tools@@@0@@Z
	??$_Uninitialized_copy@PEAVmeasurement@histo@tools@@V?$allocator@Vmeasurement@histo@tools@@@std@@@std@@YAPEAVmeasurement@histo@tools@@QEAV123@0PEAV123@AEAV?$allocator@Vmeasurement@histo@tools@@@0@@Z
	??$_Uninitialized_copy@PEAVntuple@aida@tools@@V?$allocator@Vntuple@aida@tools@@@std@@@std@@YAPEAVntuple@aida@tools@@QEAV123@0PEAV123@AEAV?$allocator@Vntuple@aida@tools@@@0@@Z
	??$_Uninitialized_copy@PEAVpick_element@sg@tools@@V?$allocator@Vpick_element@sg@tools@@@std@@@std@@YAPEAVpick_element@sg@tools@@QEAV123@0PEAV123@AEAV?$allocator@Vpick_element@sg@tools@@@0@@Z
	??$_Uninitialized_copy@PEAVraxml_out@tools@@V?$allocator@Vraxml_out@tools@@@std@@@std@@YAPEAVraxml_out@tools@@QEAV12@0PEAV12@AEAV?$allocator@Vraxml_out@tools@@@0@@Z
	??$_Uninitialized_copy@PEAVstate@sg@tools@@V?$allocator@Vstate@sg@tools@@@std@@@std@@YAPEAVstate@sg@tools@@QEAV123@0PEAV123@AEAV?$allocator@Vstate@sg@tools@@@0@@Z
	??$_Uninitialized_copy@PEAVstyle@sg@tools@@V?$allocator@Vstyle@sg@tools@@@std@@@std@@YAPEAVstyle@sg@tools@@QEAV123@0PEAV123@AEAV?$allocator@Vstyle@sg@tools@@@0@@Z
	??$_Uninitialized_copy@PEAVvalue@tools@@V?$allocator@Vvalue@tools@@@std@@@std@@YAPEAVvalue@tools@@QEAV12@0PEAV12@AEAV?$allocator@Vvalue@tools@@@0@@Z
	??$_Uninitialized_copy@PEAVvec2f@tools@@V?$allocator@Vvec2f@tools@@@std@@@std@@YAPEAVvec2f@tools@@QEAV12@0PEAV12@AEAV?$allocator@Vvec2f@tools@@@0@@Z
	??$_Uninitialized_copy@PEAVvec3f@tools@@V?$allocator@Vvec3f@tools@@@std@@@std@@YAPEAVvec3f@tools@@QEAV12@0PEAV12@AEAV?$allocator@Vvec3f@tools@@@0@@Z
	??$_Uninitialized_copy@PEAW4unit_type@plotter@sg@tools@@V?$allocator@W4unit_type@plotter@sg@tools@@@std@@@std@@YAPEAW4unit_type@plotter@sg@tools@@QEAW41234@0PEAW41234@AEAV?$allocator@W4unit_type@plotter@sg@tools@@@0@@Z
	??$_Uninitialized_copy@PEA_JV?$allocator@_J@std@@@std@@YAPEA_JQEA_J0PEA_JAEAV?$allocator@_J@0@@Z
	??$_Uninitialized_copy@PEA_KV?$allocator@_K@std@@@std@@YAPEA_KQEA_K0PEA_KAEAV?$allocator@_K@0@@Z
	??$_Uninitialized_fill_n@V?$allocator@I@std@@@std@@YAPEAIPEAI_KAEBIAEAV?$allocator@I@0@@Z
	??$_Uninitialized_fill_n@V?$allocator@M@std@@@std@@YAPEAMPEAM_KAEBMAEAV?$allocator@M@0@@Z
	??$_Uninitialized_fill_n@V?$allocator@N@std@@@std@@YAPEANPEAN_KAEBNAEAV?$allocator@N@0@@Z
	??$_Uninitialized_fill_n@V?$allocator@PEAVbase_colormap@sg@tools@@@std@@@std@@YAPEAPEAVbase_colormap@sg@tools@@PEAPEAV123@_KAEBQEAV123@AEAV?$allocator@PEAVbase_colormap@sg@tools@@@0@@Z
	??$_Uninitialized_fill_n@V?$allocator@PEAVbasket@wroot@tools@@@std@@@std@@YAPEAPEAVbasket@wroot@tools@@PEAPEAV123@_KAEBQEAV123@AEAV?$allocator@PEAVbasket@wroot@tools@@@0@@Z
	??$_Uninitialized_fill_n@V?$allocator@V?$vector@NV?$allocator@N@std@@@std@@@std@@@std@@YAPEAV?$vector@NV?$allocator@N@std@@@0@PEAV10@_KAEBV10@AEAV?$allocator@V?$vector@NV?$allocator@N@std@@@std@@@0@@Z
	??$_Uninitialized_move@PEADV?$allocator@D@std@@@std@@YAPEADQEAD0PEADAEAV?$allocator@D@0@@Z
	??$_Uninitialized_move@PEAEV?$allocator@E@std@@@std@@YAPEAEQEAE0PEAEAEAV?$allocator@E@0@@Z
	??$_Uninitialized_move@PEAFV?$allocator@F@std@@@std@@YAPEAFQEAF0PEAFAEAV?$allocator@F@0@@Z
	??$_Uninitialized_move@PEAGV?$allocator@G@std@@@std@@YAPEAGQEAG0PEAGAEAV?$allocator@G@0@@Z
	??$_Uninitialized_move@PEAHV?$allocator@H@std@@@std@@YAPEAHQEAH0PEAHAEAV?$allocator@H@0@@Z
	??$_Uninitialized_move@PEAIV?$allocator@I@std@@@std@@YAPEAIQEAI0PEAIAEAV?$allocator@I@0@@Z
	??$_Uninitialized_move@PEAMV?$allocator@M@std@@@std@@YAPEAMQEAM0PEAMAEAV?$allocator@M@0@@Z
	??$_Uninitialized_move@PEANV?$allocator@N@std@@@std@@YAPEANQEAN0PEANAEAV?$allocator@N@0@@Z
	??$_Uninitialized_move@PEAPEANV?$allocator@PEAN@std@@@std@@YAPEAPEANQEAPEAN0PEAPEANAEAV?$allocator@PEAN@0@@Z
	??$_Uninitialized_move@PEAPEAU?$G4TNtupleDescription@Vntuple@waxml@tools@@@@V?$allocator@PEAU?$G4TNtupleDescription@Vntuple@waxml@tools@@@@@std@@@std@@YAPEAPEAU?$G4TNtupleDescription@Vntuple@waxml@tools@@@@QEAPEAU1@0PEAPEAU1@AEAV?$allocator@PEAU?$G4TNtupleDescription@Vntuple@waxml@tools@@@@@0@@Z
	??$_Uninitialized_move@PEAPEAU?$G4TNtupleDescription@Vntuple@wcsv@tools@@@@V?$allocator@PEAU?$G4TNtupleDescription@Vntuple@wcsv@tools@@@@@std@@@std@@YAPEAPEAU?$G4TNtupleDescription@Vntuple@wcsv@tools@@@@QEAPEAU1@0PEAPEAU1@AEAV?$allocator@PEAU?$G4TNtupleDescription@Vntuple@wcsv@tools@@@@@0@@Z
	??$_Uninitialized_move@PEAPEAU?$G4TNtupleDescription@Vntuple@wroot@tools@@@@V?$allocator@PEAU?$G4TNtupleDescription@Vntuple@wroot@tools@@@@@std@@@std@@YAPEAPEAU?$G4TNtupleDescription@Vntuple@wroot@tools@@@@QEAPEAU1@0PEAPEAU1@AEAV?$allocator@PEAU?$G4TNtupleDescription@Vntuple@wroot@tools@@@@@0@@Z
	??$_Uninitialized_move@PEAPEAU?$G4TRNtupleDescription@Vntuple@aida@tools@@@@V?$allocator@PEAU?$G4TRNtupleDescription@Vntuple@aida@tools@@@@@std@@@std@@YAPEAPEAU?$G4TRNtupleDescription@Vntuple@aida@tools@@@@QEAPEAU1@0PEAPEAU1@AEAV?$allocator@PEAU?$G4TRNtupleDescription@Vntuple@aida@tools@@@@@0@@Z
	??$_Uninitialized_move@PEAPEAU?$G4TRNtupleDescription@Vntuple@rcsv@tools@@@@V?$allocator@PEAU?$G4TRNtupleDescription@Vntuple@rcsv@tools@@@@@std@@@std@@YAPEAPEAU?$G4TRNtupleDescription@Vntuple@rcsv@tools@@@@QEAPEAU1@0PEAPEAU1@AEAV?$allocator@PEAU?$G4TRNtupleDescription@Vntuple@rcsv@tools@@@@@0@@Z
	??$_Uninitialized_move@PEAPEAU?$G4TRNtupleDescription@Vntuple@rroot@tools@@@@V?$allocator@PEAU?$G4TRNtupleDescription@Vntuple@rroot@tools@@@@@std@@@std@@YAPEAPEAU?$G4TRNtupleDescription@Vntuple@rroot@tools@@@@QEAPEAU1@0PEAPEAU1@AEAV?$allocator@PEAU?$G4TRNtupleDescription@Vntuple@rroot@tools@@@@@0@@Z
	??$_Uninitialized_move@PEAPEAUG4RootPNtupleDescription@@V?$allocator@PEAUG4RootPNtupleDescription@@@std@@@std@@YAPEAPEAUG4RootPNtupleDescription@@QEAPEAU1@0PEAPEAU1@AEAV?$allocator@PEAUG4RootPNtupleDescription@@@0@@Z
	??$_Uninitialized_move@PEAPEAVG4HnInformation@@V?$allocator@PEAVG4HnInformation@@@std@@@std@@YAPEAPEAVG4HnInformation@@QEAPEAV1@0PEAPEAV1@AEAV?$allocator@PEAVG4HnInformation@@@0@@Z
	??$_Uninitialized_move@PEAPEAVG4RootMainNtupleManager@@V?$allocator@PEAVG4RootMainNtupleManager@@@std@@@std@@YAPEAPEAVG4RootMainNtupleManager@@QEAPEAV1@0PEAPEAV1@AEAV?$allocator@PEAVG4RootMainNtupleManager@@@0@@Z
	??$_Uninitialized_move@PEAPEAVG4UIparameter@@V?$allocator@PEAVG4UIparameter@@@std@@@std@@YAPEAPEAVG4UIparameter@@QEAPEAV1@0PEAPEAV1@AEAV?$allocator@PEAVG4UIparameter@@@0@@Z
	??$_Uninitialized_move@PEAPEAVG4VAccumulable@@V?$allocator@PEAVG4VAccumulable@@@std@@@std@@YAPEAPEAVG4VAccumulable@@QEAPEAV1@0PEAPEAV1@AEAV?$allocator@PEAVG4VAccumulable@@@0@@Z
	??$_Uninitialized_move@PEAPEAVbase_col@aida@tools@@V?$allocator@PEAVbase_col@aida@tools@@@std@@@std@@YAPEAPEAVbase_col@aida@tools@@QEAPEAV123@0PEAPEAV123@AEAV?$allocator@PEAVbase_col@aida@tools@@@0@@Z
	??$_Uninitialized_move@PEAPEAVbase_colormap@sg@tools@@V?$allocator@PEAVbase_colormap@sg@tools@@@std@@@std@@YAPEAPEAVbase_colormap@sg@tools@@QEAPEAV123@0PEAPEAV123@AEAV?$allocator@PEAVbase_colormap@sg@tools@@@0@@Z
	??$_Uninitialized_move@PEAPEAVbase_leaf@rroot@tools@@V?$allocator@PEAVbase_leaf@rroot@tools@@@std@@@std@@YAPEAPEAVbase_leaf@rroot@tools@@QEAPEAV123@0PEAPEAV123@AEAV?$allocator@PEAVbase_leaf@rroot@tools@@@0@@Z
	??$_Uninitialized_move@PEAPEAVbase_leaf@wroot@tools@@V?$allocator@PEAVbase_leaf@wroot@tools@@@std@@@std@@YAPEAPEAVbase_leaf@wroot@tools@@QEAPEAV123@0PEAPEAV123@AEAV?$allocator@PEAVbase_leaf@wroot@tools@@@0@@Z
	??$_Uninitialized_move@PEAPEAVbasket@rroot@tools@@V?$allocator@PEAVbasket@rroot@tools@@@std@@@std@@YAPEAPEAVbasket@rroot@tools@@QEAPEAV123@0PEAPEAV123@AEAV?$allocator@PEAVbasket@rroot@tools@@@0@@Z
	??$_Uninitialized_move@PEAPEAVbasket@wroot@tools@@V?$allocator@PEAVbasket@wroot@tools@@@std@@@std@@YAPEAPEAVbasket@wroot@tools@@QEAPEAV123@0PEAPEAV123@AEAV?$allocator@PEAVbasket@wroot@tools@@@0@@Z
	??$_Uninitialized_move@PEAPEAVbranch@rroot@tools@@V?$allocator@PEAVbranch@rroot@tools@@@std@@@std@@YAPEAPEAVbranch@rroot@tools@@QEAPEAV123@0PEAPEAV123@AEAV?$allocator@PEAVbranch@rroot@tools@@@0@@Z
	??$_Uninitialized_move@PEAPEAVbranch@wroot@tools@@V?$allocator@PEAVbranch@wroot@tools@@@std@@@std@@YAPEAPEAVbranch@wroot@tools@@QEAPEAV123@0PEAPEAV123@AEAV?$allocator@PEAVbranch@wroot@tools@@@0@@Z
	??$_Uninitialized_move@PEAPEAVdirectory@wroot@tools@@V?$allocator@PEAVdirectory@wroot@tools@@@std@@@std@@YAPEAPEAVdirectory@wroot@tools@@QEAPEAV123@0PEAPEAV123@AEAV?$allocator@PEAVdirectory@wroot@tools@@@0@@Z
	??$_Uninitialized_move@PEAPEAVfield@sg@tools@@V?$allocator@PEAVfield@sg@tools@@@std@@@std@@YAPEAPEAVfield@sg@tools@@QEAPEAV123@0PEAPEAV123@AEAV?$allocator@PEAVfield@sg@tools@@@0@@Z
	??$_Uninitialized_move@PEAPEAVh1d@histo@tools@@V?$allocator@PEAVh1d@histo@tools@@@std@@@std@@YAPEAPEAVh1d@histo@tools@@QEAPEAV123@0PEAPEAV123@AEAV?$allocator@PEAVh1d@histo@tools@@@0@@Z
	??$_Uninitialized_move@PEAPEAVh2d@histo@tools@@V?$allocator@PEAVh2d@histo@tools@@@std@@@std@@YAPEAPEAVh2d@histo@tools@@QEAPEAV123@0PEAPEAV123@AEAV?$allocator@PEAVh2d@histo@tools@@@0@@Z
	??$_Uninitialized_move@PEAPEAVh3d@histo@tools@@V?$allocator@PEAVh3d@histo@tools@@@std@@@std@@YAPEAPEAVh3d@histo@tools@@QEAPEAV123@0PEAPEAV123@AEAV?$allocator@PEAVh3d@histo@tools@@@0@@Z
	??$_Uninitialized_move@PEAPEAVicol@ntuple@wcsv@tools@@V?$allocator@PEAVicol@ntuple@wcsv@tools@@@std@@@std@@YAPEAPEAVicol@ntuple@wcsv@tools@@QEAPEAV1234@0PEAPEAV1234@AEAV?$allocator@PEAVicol@ntuple@wcsv@tools@@@0@@Z
	??$_Uninitialized_move@PEAPEAVicol@read@tools@@V?$allocator@PEAVicol@read@tools@@@std@@@std@@YAPEAPEAVicol@read@tools@@QEAPEAV123@0PEAPEAV123@AEAV?$allocator@PEAVicol@read@tools@@@0@@Z
	??$_Uninitialized_move@PEAPEAVicol@wroot@tools@@V?$allocator@PEAVicol@wroot@tools@@@std@@@std@@YAPEAPEAVicol@wroot@tools@@QEAPEAV123@0PEAPEAV123@AEAV?$allocator@PEAVicol@wroot@tools@@@0@@Z
	??$_Uninitialized_move@PEAPEAVimt_ntuple@wroot@tools@@V?$allocator@PEAVimt_ntuple@wroot@tools@@@std@@@std@@YAPEAPEAVimt_ntuple@wroot@tools@@QEAPEAV123@0PEAPEAV123@AEAV?$allocator@PEAVimt_ntuple@wroot@tools@@@0@@Z
	??$_Uninitialized_move@PEAPEAViobj@ntuple@waxml@tools@@V?$allocator@PEAViobj@ntuple@waxml@tools@@@std@@@std@@YAPEAPEAViobj@ntuple@waxml@tools@@QEAPEAV1234@0PEAPEAV1234@AEAV?$allocator@PEAViobj@ntuple@waxml@tools@@@0@@Z
	??$_Uninitialized_move@PEAPEAViobject@wroot@tools@@V?$allocator@PEAViobject@wroot@tools@@@std@@@std@@YAPEAPEAViobject@wroot@tools@@QEAPEAV123@0PEAPEAV123@AEAV?$allocator@PEAViobject@wroot@tools@@@0@@Z
	??$_Uninitialized_move@PEAPEAViro@rroot@tools@@V?$allocator@PEAViro@rroot@tools@@@std@@@std@@YAPEAPEAViro@rroot@tools@@QEAPEAV123@0PEAPEAV123@AEAV?$allocator@PEAViro@rroot@tools@@@0@@Z
	??$_Uninitialized_move@PEAPEAVkey@rroot@tools@@V?$allocator@PEAVkey@rroot@tools@@@std@@@std@@YAPEAPEAVkey@rroot@tools@@QEAPEAV123@0PEAPEAV123@AEAV?$allocator@PEAVkey@rroot@tools@@@0@@Z
	??$_Uninitialized_move@PEAPEAVmatrix@sg@tools@@V?$allocator@PEAVmatrix@sg@tools@@@std@@@std@@YAPEAPEAVmatrix@sg@tools@@QEAPEAV123@0PEAPEAV123@AEAV?$allocator@PEAVmatrix@sg@tools@@@0@@Z
	??$_Uninitialized_move@PEAPEAVnode@sg@tools@@V?$allocator@PEAVnode@sg@tools@@@std@@@std@@YAPEAPEAVnode@sg@tools@@QEAPEAV123@0PEAPEAV123@AEAV?$allocator@PEAVnode@sg@tools@@@0@@Z
	??$_Uninitialized_move@PEAPEAVntuple@waxml@tools@@V?$allocator@PEAVntuple@waxml@tools@@@std@@@std@@YAPEAPEAVntuple@waxml@tools@@QEAPEAV123@0PEAPEAV123@AEAV?$allocator@PEAVntuple@waxml@tools@@@0@@Z
	??$_Uninitialized_move@PEAPEAVntuple@wcsv@tools@@V?$allocator@PEAVntuple@wcsv@tools@@@std@@@std@@YAPEAPEAVntuple@wcsv@tools@@QEAPEAV123@0PEAPEAV123@AEAV?$allocator@PEAVntuple@wcsv@tools@@@0@@Z
	??$_Uninitialized_move@PEAPEAVntuple@wroot@tools@@V?$allocator@PEAVntuple@wroot@tools@@@std@@@std@@YAPEAPEAVntuple@wroot@tools@@QEAPEAV123@0PEAPEAV123@AEAV?$allocator@PEAVntuple@wroot@tools@@@0@@Z
	??$_Uninitialized_move@PEAPEAVp1d@histo@tools@@V?$allocator@PEAVp1d@histo@tools@@@std@@@std@@YAPEAPEAVp1d@histo@tools@@QEAPEAV123@0PEAPEAV123@AEAV?$allocator@PEAVp1d@histo@tools@@@0@@Z
	??$_Uninitialized_move@PEAPEAVp2d@histo@tools@@V?$allocator@PEAVp2d@histo@tools@@@std@@@std@@YAPEAPEAVp2d@histo@tools@@QEAPEAV123@0PEAPEAV123@AEAV?$allocator@PEAVp2d@histo@tools@@@0@@Z
	??$_Uninitialized_move@PEAPEAVplotprim@sg@tools@@V?$allocator@PEAVplotprim@sg@tools@@@std@@@std@@YAPEAPEAVplotprim@sg@tools@@QEAPEAV123@0PEAPEAV123@AEAV?$allocator@PEAVplotprim@sg@tools@@@0@@Z
	??$_Uninitialized_move@PEAPEAVplottable@sg@tools@@V?$allocator@PEAVplottable@sg@tools@@@std@@@std@@YAPEAPEAVplottable@sg@tools@@QEAPEAV123@0PEAPEAV123@AEAV?$allocator@PEAVplottable@sg@tools@@@0@@Z
	??$_Uninitialized_move@PEAPEAVseparator@sg@tools@@V?$allocator@PEAVseparator@sg@tools@@@std@@@std@@YAPEAPEAVseparator@sg@tools@@QEAPEAV123@0PEAPEAV123@AEAV?$allocator@PEAVseparator@sg@tools@@@0@@Z
	??$_Uninitialized_move@PEAPEAVstreamer_element@rroot@tools@@V?$allocator@PEAVstreamer_element@rroot@tools@@@std@@@std@@YAPEAPEAVstreamer_element@rroot@tools@@QEAPEAV123@0PEAPEAV123@AEAV?$allocator@PEAVstreamer_element@rroot@tools@@@0@@Z
	??$_Uninitialized_move@PEAPEAVstreamer_element@wroot@tools@@V?$allocator@PEAVstreamer_element@wroot@tools@@@std@@@std@@YAPEAPEAVstreamer_element@wroot@tools@@QEAPEAV123@0PEAPEAV123@AEAV?$allocator@PEAVstreamer_element@wroot@tools@@@0@@Z
	??$_Uninitialized_move@PEAPEAVstreamer_info@wroot@tools@@V?$allocator@PEAVstreamer_info@wroot@tools@@@std@@@std@@YAPEAPEAVstreamer_info@wroot@tools@@QEAPEAV123@0PEAPEAV123@AEAV?$allocator@PEAVstreamer_info@wroot@tools@@@0@@Z
	??$_Uninitialized_move@PEAPEAVtree@columns@tools@@V?$allocator@PEAVtree@columns@tools@@@std@@@std@@YAPEAPEAVtree@columns@tools@@QEAPEAV123@0PEAPEAV123@AEAV?$allocator@PEAVtree@columns@tools@@@0@@Z
	??$_Uninitialized_move@PEAPEAXV?$allocator@PEAX@std@@@std@@YAPEAPEAXQEAPEAX0PEAPEAXAEAV?$allocator@PEAX@0@@Z
	??$_Uninitialized_move@PEAU?$pair@II@std@@V?$allocator@U?$pair@II@std@@@2@@std@@YAPEAU?$pair@II@0@QEAU10@0PEAU10@AEAV?$allocator@U?$pair@II@std@@@0@@Z
	??$_Uninitialized_move@PEAU?$pair@IPEAVrender_manager@sg@tools@@@std@@V?$allocator@U?$pair@IPEAVrender_manager@sg@tools@@@std@@@2@@std@@YAPEAU?$pair@IPEAVrender_manager@sg@tools@@@0@QEAU10@0PEAU10@AEAV?$allocator@U?$pair@IPEAVrender_manager@sg@tools@@@std@@@0@@Z
	??$_Uninitialized_move@PEAU?$pair@V?$basic_string@DU?$char_traits@D@std@@V?$allocator@D@2@@std@@H@std@@V?$allocator@U?$pair@V?$basic_string@DU?$char_traits@D@std@@V?$allocator@D@2@@std@@H@std@@@2@@std@@YAPEAU?$pair@V?$basic_string@DU?$char_traits@D@std@@V?$allocator@D@2@@std@@H@0@QEAU10@0PEAU10@AEAV?$allocator@U?$pair@V?$basic_string@DU?$char_traits@D@std@@V?$allocator@D@2@@std@@H@std@@@0@@Z
	??$_Uninitialized_move@PEAU?$pair@V?$basic_string@DU?$char_traits@D@std@@V?$allocator@D@2@@std@@V12@@std@@V?$allocator@U?$pair@V?$basic_string@DU?$char_traits@D@std@@V?$allocator@D@2@@std@@V12@@std@@@2@@std@@YAPEAU?$pair@V?$basic_string@DU?$char_traits@D@std@@V?$allocator@D@2@@std@@V12@@0@QEAU10@0PEAU10@AEAV?$allocator@U?$pair@V?$basic_string@DU?$char_traits@D@std@@V?$allocator@D@2@@std@@V12@@std@@@0@@Z
	??$_Uninitialized_move@PEAU?$pair@_K_K@std@@V?$allocator@U?$pair@_K_K@std@@@2@@std@@YAPEAU?$pair@_K_K@0@QEAU10@0PEAU10@AEAV?$allocator@U?$pair@_K_K@std@@@0@@Z
	??$_Uninitialized_move@PEAUG4HnDimensionInformation@@V?$allocator@UG4HnDimensionInformation@@@std@@@std@@YAPEAUG4HnDimensionInformation@@QEAU1@0PEAU1@AEAV?$allocator@UG4HnDimensionInformation@@@0@@Z
	??$_Uninitialized_move@PEAUtess_triangle@tools@@V?$allocator@Utess_triangle@tools@@@std@@@std@@YAPEAUtess_triangle@tools@@QEAU12@0PEAU12@AEAV?$allocator@Utess_triangle@tools@@@0@@Z
	??$_Uninitialized_move@PEAV?$axis@NI@histo@tools@@V?$allocator@V?$axis@NI@histo@tools@@@std@@@std@@YAPEAV?$axis@NI@histo@tools@@QEAV123@0PEAV123@AEAV?$allocator@V?$axis@NI@histo@tools@@@0@@Z
	??$_Uninitialized_move@PEAV?$basic_string@DU?$char_traits@D@std@@V?$allocator@D@2@@std@@V?$allocator@V?$basic_string@DU?$char_traits@D@std@@V?$allocator@D@2@@std@@@2@@std@@YAPEAV?$basic_string@DU?$char_traits@D@std@@V?$allocator@D@2@@0@QEAV10@0PEAV10@AEAV?$allocator@V?$basic_string@DU?$char_traits@D@std@@V?$allocator@D@2@@std@@@0@@Z
	??$_Uninitialized_move@PEAV?$shared_ptr@Vfile@wroot@tools@@@std@@V?$allocator@V?$shared_ptr@Vfile@wroot@tools@@@std@@@2@@std@@YAPEAV?$shared_ptr@Vfile@wroot@tools@@@0@QEAV10@0PEAV10@AEAV?$allocator@V?$shared_ptr@Vfile@wroot@tools@@@std@@@0@@Z
	??$_Uninitialized_move@PEAV?$vector@FV?$allocator@F@std@@@std@@V?$allocator@V?$vector@FV?$allocator@F@std@@@std@@@2@@std@@YAPEAV?$vector@FV?$allocator@F@std@@@0@QEAV10@0PEAV10@AEAV?$allocator@V?$vector@FV?$allocator@F@std@@@std@@@0@@Z
	??$_Uninitialized_move@PEAV?$vector@GV?$allocator@G@std@@@std@@V?$allocator@V?$vector@GV?$allocator@G@std@@@std@@@2@@std@@YAPEAV?$vector@GV?$allocator@G@std@@@0@QEAV10@0PEAV10@AEAV?$allocator@V?$vector@GV?$allocator@G@std@@@std@@@0@@Z
	??$_Uninitialized_move@PEAV?$vector@HV?$allocator@H@std@@@std@@V?$allocator@V?$vector@HV?$allocator@H@std@@@std@@@2@@std@@YAPEAV?$vector@HV?$allocator@H@std@@@0@QEAV10@0PEAV10@AEAV?$allocator@V?$vector@HV?$allocator@H@std@@@std@@@0@@Z
	??$_Uninitialized_move@PEAV?$vector@IV?$allocator@I@std@@@std@@V?$allocator@V?$vector@IV?$allocator@I@std@@@std@@@2@@std@@YAPEAV?$vector@IV?$allocator@I@std@@@0@QEAV10@0PEAV10@AEAV?$allocator@V?$vector@IV?$allocator@I@std@@@std@@@0@@Z
	??$_Uninitialized_move@PEAV?$vector@MV?$allocator@M@std@@@std@@V?$allocator@V?$vector@MV?$allocator@M@std@@@std@@@2@@std@@YAPEAV?$vector@MV?$allocator@M@std@@@0@QEAV10@0PEAV10@AEAV?$allocator@V?$vector@MV?$allocator@M@std@@@std@@@0@@Z
	??$_Uninitialized_move@PEAV?$vector@NV?$allocator@N@std@@@std@@V?$allocator@V?$vector@NV?$allocator@N@std@@@std@@@2@@std@@YAPEAV?$vector@NV?$allocator@N@std@@@0@QEAV10@0PEAV10@AEAV?$allocator@V?$vector@NV?$allocator@N@std@@@std@@@0@@Z
	??$_Uninitialized_move@PEAV?$vector@PEAVnode@sg@tools@@V?$allocator@PEAVnode@sg@tools@@@std@@@std@@V?$allocator@V?$vector@PEAVnode@sg@tools@@V?$allocator@PEAVnode@sg@tools@@@std@@@std@@@2@@std@@YAPEAV?$vector@PEAVnode@sg@tools@@V?$allocator@PEAVnode@sg@tools@@@std@@@0@QEAV10@0PEAV10@AEAV?$allocator@V?$vector@PEAVnode@sg@tools@@V?$allocator@PEAVnode@sg@tools@@@std@@@std@@@0@@Z
	??$_Uninitialized_move@PEAV?$vector@Vvec3f@tools@@V?$allocator@Vvec3f@tools@@@std@@@std@@V?$allocator@V?$vector@Vvec3f@tools@@V?$allocator@Vvec3f@tools@@@std@@@std@@@2@@std@@YAPEAV?$vector@Vvec3f@tools@@V?$allocator@Vvec3f@tools@@@std@@@0@QEAV10@0PEAV10@AEAV?$allocator@V?$vector@Vvec3f@tools@@V?$allocator@Vvec3f@tools@@@std@@@std@@@0@@Z
	??$_Uninitialized_move@PEAVG4String@@V?$allocator@VG4String@@@std@@@std@@YAPEAVG4String@@QEAV1@0PEAV1@AEAV?$allocator@VG4String@@@0@@Z
	??$_Uninitialized_move@PEAV_text@hplot@tools@@V?$allocator@V_text@hplot@tools@@@std@@@std@@YAPEAV_text@hplot@tools@@QEAV123@0PEAV123@AEAV?$allocator@V_text@hplot@tools@@@0@@Z
	??$_Uninitialized_move@PEAVcolbook@aidas@xml@tools@@V?$allocator@Vcolbook@aidas@xml@tools@@@std@@@std@@YAPEAVcolbook@aidas@xml@tools@@QEAV1234@0PEAV1234@AEAV?$allocator@Vcolbook@aidas@xml@tools@@@0@@Z
	??$_Uninitialized_move@PEAVcolorf@tools@@V?$allocator@Vcolorf@tools@@@std@@@std@@YAPEAVcolorf@tools@@QEAV12@0PEAV12@AEAV?$allocator@Vcolorf@tools@@@0@@Z
	??$_Uninitialized_move@PEAVcolumn_binding@tools@@V?$allocator@Vcolumn_binding@tools@@@std@@@std@@YAPEAVcolumn_binding@tools@@QEAV12@0PEAV12@AEAV?$allocator@Vcolumn_binding@tools@@@0@@Z
	??$_Uninitialized_move@PEAVcolumn_booking@tools@@V?$allocator@Vcolumn_booking@tools@@@std@@@std@@YAPEAVcolumn_booking@tools@@QEAV12@0PEAV12@AEAV?$allocator@Vcolumn_booking@tools@@@0@@Z
	??$_Uninitialized_move@PEAVdata_point@histo@tools@@V?$allocator@Vdata_point@histo@tools@@@std@@@std@@YAPEAVdata_point@histo@tools@@QEAV123@0PEAV123@AEAV?$allocator@Vdata_point@histo@tools@@@0@@Z
	??$_Uninitialized_move@PEAVfield_desc@sg@tools@@V?$allocator@Vfield_desc@sg@tools@@@std@@@std@@YAPEAVfield_desc@sg@tools@@QEAV123@0PEAV123@AEAV?$allocator@Vfield_desc@sg@tools@@@0@@Z
	??$_Uninitialized_move@PEAVhchar@sg@tools@@V?$allocator@Vhchar@sg@tools@@@std@@@std@@YAPEAVhchar@sg@tools@@QEAV123@0PEAV123@AEAV?$allocator@Vhchar@sg@tools@@@0@@Z
	??$_Uninitialized_move@PEAVntuple@aida@tools@@V?$allocator@Vntuple@aida@tools@@@std@@@std@@YAPEAVntuple@aida@tools@@QEAV123@0PEAV123@AEAV?$allocator@Vntuple@aida@tools@@@0@@Z
	??$_Uninitialized_move@PEAVpick_element@sg@tools@@V?$allocator@Vpick_element@sg@tools@@@std@@@std@@YAPEAVpick_element@sg@tools@@QEAV123@0PEAV123@AEAV?$allocator@Vpick_element@sg@tools@@@0@@Z
	??$_Uninitialized_move@PEAVraxml_out@tools@@V?$allocator@Vraxml_out@tools@@@std@@@std@@YAPEAVraxml_out@tools@@QEAV12@0PEAV12@AEAV?$allocator@Vraxml_out@tools@@@0@@Z
	??$_Uninitialized_move@PEAVrep_bin2D@sg@tools@@V?$allocator@Vrep_bin2D@sg@tools@@@std@@@std@@YAPEAVrep_bin2D@sg@tools@@QEAV123@0PEAV123@AEAV?$allocator@Vrep_bin2D@sg@tools@@@0@@Z
	??$_Uninitialized_move@PEAVstate@sg@tools@@V?$allocator@Vstate@sg@tools@@@std@@@std@@YAPEAVstate@sg@tools@@QEAV123@0PEAV123@AEAV?$allocator@Vstate@sg@tools@@@0@@Z
	??$_Uninitialized_move@PEAVstyle@sg@tools@@V?$allocator@Vstyle@sg@tools@@@std@@@std@@YAPEAVstyle@sg@tools@@QEAV123@0PEAV123@AEAV?$allocator@Vstyle@sg@tools@@@0@@Z
	??$_Uninitialized_move@PEAVvalue@tools@@V?$allocator@Vvalue@tools@@@std@@@std@@YAPEAVvalue@tools@@QEAV12@0PEAV12@AEAV?$allocator@Vvalue@tools@@@0@@Z
	??$_Uninitialized_move@PEAVvec2f@tools@@V?$allocator@Vvec2f@tools@@@std@@@std@@YAPEAVvec2f@tools@@QEAV12@0PEAV12@AEAV?$allocator@Vvec2f@tools@@@0@@Z
	??$_Uninitialized_move@PEAVvec3f@tools@@V?$allocator@Vvec3f@tools@@@std@@@std@@YAPEAVvec3f@tools@@QEAV12@0PEAV12@AEAV?$allocator@Vvec3f@tools@@@0@@Z
	??$_Uninitialized_move@PEAW4unit_type@plotter@sg@tools@@V?$allocator@W4unit_type@plotter@sg@tools@@@std@@@std@@YAPEAW4unit_type@plotter@sg@tools@@QEAW41234@0PEAW41234@AEAV?$allocator@W4unit_type@plotter@sg@tools@@@0@@Z
	??$_Uninitialized_move@PEA_JV?$allocator@_J@std@@@std@@YAPEA_JQEA_J0PEA_JAEAV?$allocator@_J@0@@Z
	??$_Uninitialized_move@PEA_KV?$allocator@_K@std@@@std@@YAPEA_KQEA_K0PEA_KAEAV?$allocator@_K@0@@Z
	??$_Uninitialized_value_construct_n@V?$allocator@D@std@@@std@@YAPEADPEAD_KAEAV?$allocator@D@0@@Z
	??$_Uninitialized_value_construct_n@V?$allocator@E@std@@@std@@YAPEAEPEAE_KAEAV?$allocator@E@0@@Z
	??$_Uninitialized_value_construct_n@V?$allocator@F@std@@@std@@YAPEAFPEAF_KAEAV?$allocator@F@0@@Z
	??$_Uninitialized_value_construct_n@V?$allocator@G@std@@@std@@YAPEAGPEAG_KAEAV?$allocator@G@0@@Z
	??$_Uninitialized_value_construct_n@V?$allocator@H@std@@@std@@YAPEAHPEAH_KAEAV?$allocator@H@0@@Z
	??$_Uninitialized_value_construct_n@V?$allocator@I@std@@@std@@YAPEAIPEAI_KAEAV?$allocator@I@0@@Z
	??$_Uninitialized_value_construct_n@V?$allocator@M@std@@@std@@YAPEAMPEAM_KAEAV?$allocator@M@0@@Z
	??$_Uninitialized_value_construct_n@V?$allocator@N@std@@@std@@YAPEANPEAN_KAEAV?$allocator@N@0@@Z
	??$_Uninitialized_value_construct_n@V?$allocator@Uyystype@G4UItokenNum@@@std@@@std@@YAPEAUyystype@G4UItokenNum@@PEAU12@_KAEAV?$allocator@Uyystype@G4UItokenNum@@@0@@Z
	??$_Uninitialized_value_construct_n@V?$allocator@V?$axis@NI@histo@tools@@@std@@@std@@YAPEAV?$axis@NI@histo@tools@@PEAV123@_KAEAV?$allocator@V?$axis@NI@histo@tools@@@0@@Z
	??$_Uninitialized_value_construct_n@V?$allocator@V?$basic_string@DU?$char_traits@D@std@@V?$allocator@D@2@@std@@@std@@@std@@YAPEAV?$basic_string@DU?$char_traits@D@std@@V?$allocator@D@2@@0@PEAV10@_KAEAV?$allocator@V?$basic_string@DU?$char_traits@D@std@@V?$allocator@D@2@@std@@@0@@Z
	??$_Uninitialized_value_construct_n@V?$allocator@V?$list@PEAV?$list@IV?$allocator@I@std@@@std@@V?$allocator@PEAV?$list@IV?$allocator@I@std@@@std@@@2@@std@@@std@@@std@@YAPEAV?$list@PEAV?$list@IV?$allocator@I@std@@@std@@V?$allocator@PEAV?$list@IV?$allocator@I@std@@@std@@@2@@0@PEAV10@_KAEAV?$allocator@V?$list@PEAV?$list@IV?$allocator@I@std@@@std@@V?$allocator@PEAV?$list@IV?$allocator@I@std@@@std@@@2@@std@@@0@@Z
	??$_Uninitialized_value_construct_n@V?$allocator@V?$vector@FV?$allocator@F@std@@@std@@@std@@@std@@YAPEAV?$vector@FV?$allocator@F@std@@@0@PEAV10@_KAEAV?$allocator@V?$vector@FV?$allocator@F@std@@@std@@@0@@Z
	??$_Uninitialized_value_construct_n@V?$allocator@V?$vector@GV?$allocator@G@std@@@std@@@std@@@std@@YAPEAV?$vector@GV?$allocator@G@std@@@0@PEAV10@_KAEAV?$allocator@V?$vector@GV?$allocator@G@std@@@std@@@0@@Z
	??$_Uninitialized_value_construct_n@V?$allocator@V?$vector@HV?$allocator@H@std@@@std@@@std@@@std@@YAPEAV?$vector@HV?$allocator@H@std@@@0@PEAV10@_KAEAV?$allocator@V?$vector@HV?$allocator@H@std@@@std@@@0@@Z
	??$_Uninitialized_value_construct_n@V?$allocator@V?$vector@IV?$allocator@I@std@@@std@@@std@@@std@@YAPEAV?$vector@IV?$allocator@I@std@@@0@PEAV10@_KAEAV?$allocator@V?$vector@IV?$allocator@I@std@@@std@@@0@@Z
	??$_Uninitialized_value_construct_n@V?$allocator@V?$vector@MV?$allocator@M@std@@@std@@@std@@@std@@YAPEAV?$vector@MV?$allocator@M@std@@@0@PEAV10@_KAEAV?$allocator@V?$vector@MV?$allocator@M@std@@@std@@@0@@Z
	??$_Uninitialized_value_construct_n@V?$allocator@V?$vector@NV?$allocator@N@std@@@std@@@std@@@std@@YAPEAV?$vector@NV?$allocator@N@std@@@0@PEAV10@_KAEAV?$allocator@V?$vector@NV?$allocator@N@std@@@std@@@0@@Z
	??$_Uninitialized_value_construct_n@V?$allocator@Vcolorf@tools@@@std@@@std@@YAPEAVcolorf@tools@@PEAV12@_KAEAV?$allocator@Vcolorf@tools@@@0@@Z
	??$_Uninitialized_value_construct_n@V?$allocator@Vcubic_poly@spline@tools@@@std@@@std@@YAPEAVcubic_poly@spline@tools@@PEAV123@_KAEAV?$allocator@Vcubic_poly@spline@tools@@@0@@Z
	??$_Uninitialized_value_construct_n@V?$allocator@Vmat4f@tools@@@std@@@std@@YAPEAVmat4f@tools@@PEAV12@_KAEAV?$allocator@Vmat4f@tools@@@0@@Z
	??$_Uninitialized_value_construct_n@V?$allocator@Vmeasurement@histo@tools@@@std@@@std@@YAPEAVmeasurement@histo@tools@@PEAV123@_KAEAV?$allocator@Vmeasurement@histo@tools@@@0@@Z
	??$_Uninitialized_value_construct_n@V?$allocator@Vrep_bin1D@sg@tools@@@std@@@std@@YAPEAVrep_bin1D@sg@tools@@PEAV123@_KAEAV?$allocator@Vrep_bin1D@sg@tools@@@0@@Z
	??$_Uninitialized_value_construct_n@V?$allocator@Vrep_top_face2D@sg@tools@@@std@@@std@@YAPEAVrep_top_face2D@sg@tools@@PEAV123@_KAEAV?$allocator@Vrep_top_face2D@sg@tools@@@0@@Z
	??$_Uninitialized_value_construct_n@V?$allocator@Vvec2f@tools@@@std@@@std@@YAPEAVvec2f@tools@@PEAV12@_KAEAV?$allocator@Vvec2f@tools@@@0@@Z
	??$_Uninitialized_value_construct_n@V?$allocator@Vvec3f@tools@@@std@@@std@@YAPEAVvec3f@tools@@PEAV12@_KAEAV?$allocator@Vvec3f@tools@@@0@@Z
	??$_Uninitialized_value_construct_n@V?$allocator@W4unit_type@plotter@sg@tools@@@std@@@std@@YAPEAW4unit_type@plotter@sg@tools@@PEAW41234@_KAEAV?$allocator@W4unit_type@plotter@sg@tools@@@0@@Z
	??$_Uninitialized_value_construct_n@V?$allocator@_K@std@@@std@@YAPEA_KPEA_K_KAEAV?$allocator@_K@0@@Z
	??$_Zero_range@PEAD@std@@YAPEADQEAD0@Z
	??$_Zero_range@PEAE@std@@YAPEAEQEAE0@Z
	??$_Zero_range@PEAF@std@@YAPEAFQEAF0@Z
	??$_Zero_range@PEAG@std@@YAPEAGQEAG0@Z
	??$_Zero_range@PEAH@std@@YAPEAHQEAH0@Z
	??$_Zero_range@PEAI@std@@YAPEAIQEAI0@Z
	??$_Zero_range@PEAM@std@@YAPEAMQEAM0@Z
	??$_Zero_range@PEAN@std@@YAPEANQEAN0@Z
	??$_Zero_range@PEAW4unit_type@plotter@sg@tools@@@std@@YAPEAW4unit_type@plotter@sg@tools@@QEAW41234@0@Z
	??$_Zero_range@PEA_K@std@@YAPEA_KQEA_K0@Z
	??$_check_eob@D@rbuf@rroot@tools@@IEAA_NAEAD@Z
	??$_check_eob@E@rbuf@rroot@tools@@IEAA_NAEAE@Z
	??$_check_eob@F@rbuf@rroot@tools@@IEAA_NAEAF@Z
	??$_check_eob@G@rbuf@rroot@tools@@IEAA_NAEAG@Z
	??$_check_eob@H@rbuf@rroot@tools@@IEAA_NAEAH@Z
	??$_check_eob@I@rbuf@rroot@tools@@IEAA_NAEAI@Z
	??$_check_eob@M@rbuf@rroot@tools@@IEAA_NAEAM@Z
	??$_check_eob@N@rbuf@rroot@tools@@IEAA_NAEAN@Z
	??$_check_eob@_J@rbuf@rroot@tools@@IEAA_NAEA_J@Z
	??$_check_eob@_K@rbuf@rroot@tools@@IEAA_NAEA_K@Z
	??$_cid_std_vector@V?$basic_string@DU?$char_traits@D@std@@V?$allocator@D@2@@std@@@tools@@YAGXZ
	??$_vec_read@D@ntuple@rcsv@tools@@KA_NAEAV?$basic_istream@DU?$char_traits@D@std@@@std@@V?$fpos@U_Mbstatet@@@4@AEAV?$basic_istringstream@DU?$char_traits@D@std@@V?$allocator@D@2@@4@AEAV?$vector@V?$basic_string@DU?$char_traits@D@std@@V?$allocator@D@2@@std@@V?$allocator@V?$basic_string@DU?$char_traits@D@std@@V?$allocator@D@2@@std@@@2@@4@DAEBV?$basic_string@DU?$char_traits@D@std@@V?$allocator@D@2@@4@AEAV?$vector@DV?$allocator@D@std@@@4@@Z
	??$_vec_read@E@ntuple@rcsv@tools@@KA_NAEAV?$basic_istream@DU?$char_traits@D@std@@@std@@V?$fpos@U_Mbstatet@@@4@AEAV?$basic_istringstream@DU?$char_traits@D@std@@V?$allocator@D@2@@4@AEAV?$vector@V?$basic_string@DU?$char_traits@D@std@@V?$allocator@D@2@@std@@V?$allocator@V?$basic_string@DU?$char_traits@D@std@@V?$allocator@D@2@@std@@@2@@4@DAEBV?$basic_string@DU?$char_traits@D@std@@V?$allocator@D@2@@4@AEAV?$vector@EV?$allocator@E@std@@@4@@Z
	??$_vec_read@F@ntuple@rcsv@tools@@KA_NAEAV?$basic_istream@DU?$char_traits@D@std@@@std@@V?$fpos@U_Mbstatet@@@4@AEAV?$basic_istringstream@DU?$char_traits@D@std@@V?$allocator@D@2@@4@AEAV?$vector@V?$basic_string@DU?$char_traits@D@std@@V?$allocator@D@2@@std@@V?$allocator@V?$basic_string@DU?$char_traits@D@std@@V?$allocator@D@2@@std@@@2@@4@DAEBV?$basic_string@DU?$char_traits@D@std@@V?$allocator@D@2@@4@AEAV?$vector@FV?$allocator@F@std@@@4@@Z
	??$_vec_read@G@ntuple@rcsv@tools@@KA_NAEAV?$basic_istream@DU?$char_traits@D@std@@@std@@V?$fpos@U_Mbstatet@@@4@AEAV?$basic_istringstream@DU?$char_traits@D@std@@V?$allocator@D@2@@4@AEAV?$vector@V?$basic_string@DU?$char_traits@D@std@@V?$allocator@D@2@@std@@V?$allocator@V?$basic_string@DU?$char_traits@D@std@@V?$allocator@D@2@@std@@@2@@4@DAEBV?$basic_string@DU?$char_traits@D@std@@V?$allocator@D@2@@4@AEAV?$vector@GV?$allocator@G@std@@@4@@Z
	??$_vec_read@H@ntuple@rcsv@tools@@KA_NAEAV?$basic_istream@DU?$char_traits@D@std@@@std@@V?$fpos@U_Mbstatet@@@4@AEAV?$basic_istringstream@DU?$char_traits@D@std@@V?$allocator@D@2@@4@AEAV?$vector@V?$basic_string@DU?$char_traits@D@std@@V?$allocator@D@2@@std@@V?$allocator@V?$basic_string@DU?$char_traits@D@std@@V?$allocator@D@2@@std@@@2@@4@DAEBV?$basic_string@DU?$char_traits@D@std@@V?$allocator@D@2@@4@AEAV?$vector@HV?$allocator@H@std@@@4@@Z
	??$_vec_read@I@ntuple@rcsv@tools@@KA_NAEAV?$basic_istream@DU?$char_traits@D@std@@@std@@V?$fpos@U_Mbstatet@@@4@AEAV?$basic_istringstream@DU?$char_traits@D@std@@V?$allocator@D@2@@4@AEAV?$vector@V?$basic_string@DU?$char_traits@D@std@@V?$allocator@D@2@@std@@V?$allocator@V?$basic_string@DU?$char_traits@D@std@@V?$allocator@D@2@@std@@@2@@4@DAEBV?$basic_string@DU?$char_traits@D@std@@V?$allocator@D@2@@4@AEAV?$vector@IV?$allocator@I@std@@@4@@Z
	??$_vec_read@M@ntuple@rcsv@tools@@KA_NAEAV?$basic_istream@DU?$char_traits@D@std@@@std@@V?$fpos@U_Mbstatet@@@4@AEAV?$basic_istringstream@DU?$char_traits@D@std@@V?$allocator@D@2@@4@AEAV?$vector@V?$basic_string@DU?$char_traits@D@std@@V?$allocator@D@2@@std@@V?$allocator@V?$basic_string@DU?$char_traits@D@std@@V?$allocator@D@2@@std@@@2@@4@DAEBV?$basic_string@DU?$char_traits@D@std@@V?$allocator@D@2@@4@AEAV?$vector@MV?$allocator@M@std@@@4@@Z
	??$_vec_read@_J@ntuple@rcsv@tools@@KA_NAEAV?$basic_istream@DU?$char_traits@D@std@@@std@@V?$fpos@U_Mbstatet@@@4@AEAV?$basic_istringstream@DU?$char_traits@D@std@@V?$allocator@D@2@@4@AEAV?$vector@V?$basic_string@DU?$char_traits@D@std@@V?$allocator@D@2@@std@@V?$allocator@V?$basic_string@DU?$char_traits@D@std@@V?$allocator@D@2@@std@@@2@@4@DAEBV?$basic_string@DU?$char_traits@D@std@@V?$allocator@D@2@@4@AEAV?$vector@_JV?$allocator@_J@std@@@4@@Z
	??$_vec_read@_K@ntuple@rcsv@tools@@KA_NAEAV?$basic_istream@DU?$char_traits@D@std@@@std@@V?$fpos@U_Mbstatet@@@4@AEAV?$basic_istringstream@DU?$char_traits@D@std@@V?$allocator@D@2@@4@AEAV?$vector@V?$basic_string@DU?$char_traits@D@std@@V?$allocator@D@2@@std@@V?$allocator@V?$basic_string@DU?$char_traits@D@std@@V?$allocator@D@2@@std@@@2@@4@DAEBV?$basic_string@DU?$char_traits@D@std@@V?$allocator@D@2@@4@AEAV?$vector@_KV?$allocator@_K@std@@@4@@Z
	??$add@Vvec3f@tools@@@vertices@sg@tools@@QEAAXAEBVvec3f@2@@Z
	??$add_column@H@ntuple_booking@tools@@QEAAXAEBV?$basic_string@DU?$char_traits@D@std@@V?$allocator@D@2@@std@@@Z
	??$add_column@H@ntuple_booking@tools@@QEAAXAEBV?$basic_string@DU?$char_traits@D@std@@V?$allocator@D@2@@std@@AEAV?$vector@HV?$allocator@H@std@@@3@@Z
	??$add_column@M@ntuple_booking@tools@@QEAAXAEBV?$basic_string@DU?$char_traits@D@std@@V?$allocator@D@2@@std@@@Z
	??$add_column@M@ntuple_booking@tools@@QEAAXAEBV?$basic_string@DU?$char_traits@D@std@@V?$allocator@D@2@@std@@AEAV?$vector@MV?$allocator@M@std@@@3@@Z
	??$add_column@N@ntuple_booking@tools@@QEAAXAEBV?$basic_string@DU?$char_traits@D@std@@V?$allocator@D@2@@std@@@Z
	??$add_column@N@ntuple_booking@tools@@QEAAXAEBV?$basic_string@DU?$char_traits@D@std@@V?$allocator@D@2@@std@@AEAV?$vector@NV?$allocator@N@std@@@3@@Z
	??$add_column@V?$basic_string@DU?$char_traits@D@std@@V?$allocator@D@2@@std@@@ntuple_booking@tools@@QEAAXAEBV?$basic_string@DU?$char_traits@D@std@@V?$allocator@D@2@@std@@@Z
	??$add_column@V?$basic_string@DU?$char_traits@D@std@@V?$allocator@D@2@@std@@@ntuple_booking@tools@@QEAAXAEBV?$basic_string@DU?$char_traits@D@std@@V?$allocator@D@2@@std@@AEAV?$vector@V?$basic_string@DU?$char_traits@D@std@@V?$allocator@D@2@@std@@V?$allocator@V?$basic_string@DU?$char_traits@D@std@@V?$allocator@D@2@@std@@@2@@3@@Z
	??$add_column_cid@Vntuple@aida@tools@@@ntuple_binding@tools@@QEAAXAEBV?$basic_string@DU?$char_traits@D@std@@V?$allocator@D@2@@std@@AEAVntuple@aida@1@@Z
	??$add_normal@Vvec3f@tools@@@atb_vertices@sg@tools@@QEAAXAEBVvec3f@2@@Z
	??$annotations_to@V?$map@V?$basic_string@DU?$char_traits@D@std@@V?$allocator@D@2@@std@@V12@U?$less@V?$basic_string@DU?$char_traits@D@std@@V?$allocator@D@2@@std@@@2@V?$allocator@U?$pair@$$CBV?$basic_string@DU?$char_traits@D@std@@V?$allocator@D@2@@std@@V12@@std@@@2@@std@@@wcsv@tools@@YAXAEAV?$basic_ostream@DU?$char_traits@D@std@@@std@@AEBV?$map@V?$basic_string@DU?$char_traits@D@std@@V?$allocator@D@2@@std@@V12@U?$less@V?$basic_string@DU?$char_traits@D@std@@V?$allocator@D@2@@std@@@2@V?$allocator@U?$pair@$$CBV?$basic_string@DU?$char_traits@D@std@@V?$allocator@D@2@@std@@V12@@std@@@2@@3@D@Z
	??$append@M@tools@@YAXAEAV?$vector@MV?$allocator@M@std@@@std@@AEBV12@@Z
	??$axis_title@Vh1d@histo@tools@@@wroot@tools@@YA?AV?$basic_string@DU?$char_traits@D@std@@V?$allocator@D@2@@std@@AEBVh1d@histo@1@AEBV23@@Z
	??$axis_title@Vh2d@histo@tools@@@wroot@tools@@YA?AV?$basic_string@DU?$char_traits@D@std@@V?$allocator@D@2@@std@@AEBVh2d@histo@1@AEBV23@@Z
	??$axis_title@Vh3d@histo@tools@@@wroot@tools@@YA?AV?$basic_string@DU?$char_traits@D@std@@V?$allocator@D@2@@std@@AEBVh3d@histo@1@AEBV23@@Z
	??$axis_title@Vp1d@histo@tools@@@wroot@tools@@YA?AV?$basic_string@DU?$char_traits@D@std@@V?$allocator@D@2@@std@@AEBVp1d@histo@1@AEBV23@@Z
	??$axis_title@Vp2d@histo@tools@@@wroot@tools@@YA?AV?$basic_string@DU?$char_traits@D@std@@V?$allocator@D@2@@std@@AEBVp2d@histo@1@AEBV23@@Z
	??$check_eob@E@wbuf@wroot@tools@@IEAA_NXZ
	??$check_eob@G@wbuf@wroot@tools@@IEAA_NXZ
	??$check_eob@I@wbuf@wroot@tools@@IEAA_NXZ
	??$check_eob@M@wbuf@wroot@tools@@IEAA_NXZ
	??$check_eob@N@wbuf@wroot@tools@@IEAA_NXZ
	??$check_eob@_K@wbuf@wroot@tools@@IEAA_NXZ
	??$cmp_cast@Vcurve@tools@@@tools@@YAPEAXPEBVcurve@0@AEBV?$basic_string@DU?$char_traits@D@std@@V?$allocator@D@2@@std@@@Z
	??$copy@V?$_Vb_iterator@U?$_Wrap_alloc@V?$allocator@I@std@@@std@@@std@@V12@@std@@YA?AV?$_Vb_iterator@U?$_Wrap_alloc@V?$allocator@I@std@@@std@@@0@V10@00@Z
	??$copy_backward@V?$_Vb_iterator@U?$_Wrap_alloc@V?$allocator@I@std@@@std@@@std@@V12@@std@@YA?AV?$_Vb_iterator@U?$_Wrap_alloc@V?$allocator@I@std@@@std@@@0@V10@00@Z
	??$create_col@F@ntuple@aida@tools@@QEAAPEAV?$aida_col@F@12@AEBV?$basic_string@DU?$char_traits@D@std@@V?$allocator@D@2@@std@@AEBF@Z
	??$create_col@G@ntuple@aida@tools@@QEAAPEAV?$aida_col@G@12@AEBV?$basic_string@DU?$char_traits@D@std@@V?$allocator@D@2@@std@@AEBG@Z
	??$create_col@H@ntuple@aida@tools@@QEAAPEAV?$aida_col@H@12@AEBV?$basic_string@DU?$char_traits@D@std@@V?$allocator@D@2@@std@@AEBH@Z
	??$create_col@I@ntuple@aida@tools@@QEAAPEAV?$aida_col@I@12@AEBV?$basic_string@DU?$char_traits@D@std@@V?$allocator@D@2@@std@@AEBI@Z
	??$create_col@M@ntuple@aida@tools@@QEAAPEAV?$aida_col@M@12@AEBV?$basic_string@DU?$char_traits@D@std@@V?$allocator@D@2@@std@@AEBM@Z
	??$create_col@N@ntuple@aida@tools@@QEAAPEAV?$aida_col@N@12@AEBV?$basic_string@DU?$char_traits@D@std@@V?$allocator@D@2@@std@@AEBN@Z
	??$create_col@V?$basic_string@DU?$char_traits@D@std@@V?$allocator@D@2@@std@@@ntuple@aida@tools@@QEAAPEAV?$aida_col@V?$basic_string@DU?$char_traits@D@std@@V?$allocator@D@2@@std@@@12@AEBV?$basic_string@DU?$char_traits@D@std@@V?$allocator@D@2@@std@@0@Z
	??$create_col@_J@ntuple@aida@tools@@QEAAPEAV?$aida_col@_J@12@AEBV?$basic_string@DU?$char_traits@D@std@@V?$allocator@D@2@@std@@AEB_J@Z
	??$create_col@_K@ntuple@aida@tools@@QEAAPEAV?$aida_col@_K@12@AEBV?$basic_string@DU?$char_traits@D@std@@V?$allocator@D@2@@std@@AEB_K@Z
	??$create_col@_N@ntuple@aida@tools@@QEAAPEAV?$aida_col@_N@12@AEBV?$basic_string@DU?$char_traits@D@std@@V?$allocator@D@2@@std@@AEB_N@Z
	??$create_column@H@ntuple@waxml@tools@@QEAAPEAV?$std_vector_column@H@012@AEBV?$basic_string@DU?$char_traits@D@std@@V?$allocator@D@2@@std@@AEAV?$vector@HV?$allocator@H@std@@@5@@Z
	??$create_column@M@ntuple@waxml@tools@@QEAAPEAV?$std_vector_column@M@012@AEBV?$basic_string@DU?$char_traits@D@std@@V?$allocator@D@2@@std@@AEAV?$vector@MV?$allocator@M@std@@@5@@Z
	??$create_column@N@ntuple@rcsv@tools@@IEAAPEAV?$column@N@012@AEBV?$basic_string@DU?$char_traits@D@std@@V?$allocator@D@2@@std@@PEAN@Z
	??$create_column@N@ntuple@waxml@tools@@QEAAPEAV?$std_vector_column@N@012@AEBV?$basic_string@DU?$char_traits@D@std@@V?$allocator@D@2@@std@@AEAV?$vector@NV?$allocator@N@std@@@5@@Z
	??$create_column@V?$basic_string@DU?$char_traits@D@std@@V?$allocator@D@2@@std@@@ntuple@rcsv@tools@@IEAAPEAV?$column@V?$basic_string@DU?$char_traits@D@std@@V?$allocator@D@2@@std@@@012@AEBV?$basic_string@DU?$char_traits@D@std@@V?$allocator@D@2@@std@@PEAV45@@Z
	??$create_column@V?$vector@IV?$allocator@I@std@@@std@@@ntuple@rcsv@tools@@IEAAPEAV?$column@V?$vector@IV?$allocator@I@std@@@std@@@012@AEBV?$basic_string@DU?$char_traits@D@std@@V?$allocator@D@2@@std@@PEAV?$vector@IV?$allocator@I@std@@@5@@Z
	??$create_column@V?$vector@NV?$allocator@N@std@@@std@@@ntuple@rcsv@tools@@IEAAPEAV?$column@V?$vector@NV?$allocator@N@std@@@std@@@012@AEBV?$basic_string@DU?$char_traits@D@std@@V?$allocator@D@2@@std@@PEAV?$vector@NV?$allocator@N@std@@@5@@Z
	??$create_column@V?$vector@_JV?$allocator@_J@std@@@std@@@ntuple@rcsv@tools@@IEAAPEAV?$column@V?$vector@_JV?$allocator@_J@std@@@std@@@012@AEBV?$basic_string@DU?$char_traits@D@std@@V?$allocator@D@2@@std@@PEAV?$vector@_JV?$allocator@_J@std@@@5@@Z
	??$create_column@V?$vector@_KV?$allocator@_K@std@@@std@@@ntuple@rcsv@tools@@IEAAPEAV?$column@V?$vector@_KV?$allocator@_K@std@@@std@@@012@AEBV?$basic_string@DU?$char_traits@D@std@@V?$allocator@D@2@@std@@PEAV?$vector@_KV?$allocator@_K@std@@@5@@Z
	??$create_column@V?$vector@_NV?$allocator@_N@std@@@std@@@ntuple@rcsv@tools@@IEAAPEAV?$column@V?$vector@_NV?$allocator@_N@std@@@std@@@012@AEBV?$basic_string@DU?$char_traits@D@std@@V?$allocator@D@2@@std@@PEAV?$vector@_NV?$allocator@_N@std@@@5@@Z
	??$create_column_ref@D@base_pntuple_column_wise@wroot@tools@@QEAAPEAV?$column_ref@D@base_pntuple@12@IAEBV?$basic_string@DU?$char_traits@D@std@@V?$allocator@D@2@@std@@AEBD@Z
	??$create_column_ref@F@base_pntuple_column_wise@wroot@tools@@QEAAPEAV?$column_ref@F@base_pntuple@12@IAEBV?$basic_string@DU?$char_traits@D@std@@V?$allocator@D@2@@std@@AEBF@Z
	??$create_column_ref@H@base_pntuple_column_wise@wroot@tools@@QEAAPEAV?$column_ref@H@base_pntuple@12@IAEBV?$basic_string@DU?$char_traits@D@std@@V?$allocator@D@2@@std@@AEBH@Z
	??$create_column_ref@M@base_pntuple_column_wise@wroot@tools@@QEAAPEAV?$column_ref@M@base_pntuple@12@IAEBV?$basic_string@DU?$char_traits@D@std@@V?$allocator@D@2@@std@@AEBM@Z
	??$create_column_ref@N@base_pntuple_column_wise@wroot@tools@@QEAAPEAV?$column_ref@N@base_pntuple@12@IAEBV?$basic_string@DU?$char_traits@D@std@@V?$allocator@D@2@@std@@AEBN@Z
	??$create_column_vector@D@ntuple@wroot@tools@@QEAAPEAV?$std_vector_column@D@012@AEBV?$basic_string@DU?$char_traits@D@std@@V?$allocator@D@2@@std@@AEBV?$vector@DV?$allocator@D@std@@@5@@Z
	??$create_column_vector@F@ntuple@wroot@tools@@QEAAPEAV?$std_vector_column@F@012@AEBV?$basic_string@DU?$char_traits@D@std@@V?$allocator@D@2@@std@@AEBV?$vector@FV?$allocator@F@std@@@5@@Z
	??$create_column_vector@H@ntuple@wroot@tools@@QEAAPEAV?$std_vector_column@H@012@AEBV?$basic_string@DU?$char_traits@D@std@@V?$allocator@D@2@@std@@AEBV?$vector@HV?$allocator@H@std@@@5@@Z
	??$create_column_vector@M@ntuple@wroot@tools@@QEAAPEAV?$std_vector_column@M@012@AEBV?$basic_string@DU?$char_traits@D@std@@V?$allocator@D@2@@std@@AEBV?$vector@MV?$allocator@M@std@@@5@@Z
	??$create_column_vector@N@ntuple@wroot@tools@@QEAAPEAV?$std_vector_column@N@012@AEBV?$basic_string@DU?$char_traits@D@std@@V?$allocator@D@2@@std@@AEBV?$vector@NV?$allocator@N@std@@@5@@Z
	??$create_column_vector_ref@D@ntuple@wroot@tools@@QEAAPEAV?$std_vector_column_ref@D@012@AEBV?$basic_string@DU?$char_traits@D@std@@V?$allocator@D@2@@std@@AEBV?$vector@DV?$allocator@D@std@@@5@@Z
	??$create_column_vector_ref@F@ntuple@wroot@tools@@QEAAPEAV?$std_vector_column_ref@F@012@AEBV?$basic_string@DU?$char_traits@D@std@@V?$allocator@D@2@@std@@AEBV?$vector@FV?$allocator@F@std@@@5@@Z
	??$create_column_vector_ref@H@ntuple@wroot@tools@@QEAAPEAV?$std_vector_column_ref@H@012@AEBV?$basic_string@DU?$char_traits@D@std@@V?$allocator@D@2@@std@@AEBV?$vector@HV?$allocator@H@std@@@5@@Z
	??$create_column_vector_ref@M@ntuple@wroot@tools@@QEAAPEAV?$std_vector_column_ref@M@012@AEBV?$basic_string@DU?$char_traits@D@std@@V?$allocator@D@2@@std@@AEBV?$vector@MV?$allocator@M@std@@@5@@Z
	??$create_column_vector_ref@N@ntuple@wroot@tools@@QEAAPEAV?$std_vector_column_ref@N@012@AEBV?$basic_string@DU?$char_traits@D@std@@V?$allocator@D@2@@std@@AEBV?$vector@NV?$allocator@N@std@@@5@@Z
	??$create_leaf@H@branch@wroot@tools@@QEAAPEAV?$leaf@H@12@AEBV?$basic_string@DU?$char_traits@D@std@@V?$allocator@D@2@@std@@@Z
	??$create_leaf_ref@D@branch@wroot@tools@@QEAAPEAV?$leaf_ref@D@12@AEBV?$basic_string@DU?$char_traits@D@std@@V?$allocator@D@2@@std@@AEBD@Z
	??$create_leaf_ref@F@branch@wroot@tools@@QEAAPEAV?$leaf_ref@F@12@AEBV?$basic_string@DU?$char_traits@D@std@@V?$allocator@D@2@@std@@AEBF@Z
	??$create_leaf_ref@H@branch@wroot@tools@@QEAAPEAV?$leaf_ref@H@12@AEBV?$basic_string@DU?$char_traits@D@std@@V?$allocator@D@2@@std@@AEBH@Z
	??$create_leaf_ref@M@branch@wroot@tools@@QEAAPEAV?$leaf_ref@M@12@AEBV?$basic_string@DU?$char_traits@D@std@@V?$allocator@D@2@@std@@AEBM@Z
	??$create_leaf_ref@N@branch@wroot@tools@@QEAAPEAV?$leaf_ref@N@12@AEBV?$basic_string@DU?$char_traits@D@std@@V?$allocator@D@2@@std@@AEBN@Z
	??$create_leaf_std_vector_ref@D@branch@wroot@tools@@QEAAPEAV?$leaf_std_vector_ref@D@12@AEBV?$basic_string@DU?$char_traits@D@std@@V?$allocator@D@2@@std@@AEAVbase_leaf@12@AEBV?$vector@DV?$allocator@D@std@@@5@@Z
	??$create_leaf_std_vector_ref@F@branch@wroot@tools@@QEAAPEAV?$leaf_std_vector_ref@F@12@AEBV?$basic_string@DU?$char_traits@D@std@@V?$allocator@D@2@@std@@AEAVbase_leaf@12@AEBV?$vector@FV?$allocator@F@std@@@5@@Z
	??$create_leaf_std_vector_ref@H@branch@wroot@tools@@QEAAPEAV?$leaf_std_vector_ref@H@12@AEBV?$basic_string@DU?$char_traits@D@std@@V?$allocator@D@2@@std@@AEAVbase_leaf@12@AEBV?$vector@HV?$allocator@H@std@@@5@@Z
	??$create_leaf_std_vector_ref@M@branch@wroot@tools@@QEAAPEAV?$leaf_std_vector_ref@M@12@AEBV?$basic_string@DU?$char_traits@D@std@@V?$allocator@D@2@@std@@AEAVbase_leaf@12@AEBV?$vector@MV?$allocator@M@std@@@5@@Z
	??$create_leaf_std_vector_ref@N@branch@wroot@tools@@QEAAPEAV?$leaf_std_vector_ref@N@12@AEBV?$basic_string@DU?$char_traits@D@std@@V?$allocator@D@2@@std@@AEAVbase_leaf@12@AEBV?$vector@NV?$allocator@N@std@@@5@@Z
	??$destroy@U?$pair@$$CBV?$basic_string@DU?$char_traits@D@std@@V?$allocator@D@2@@std@@V12@@std@@@?$_Default_allocator_traits@V?$allocator@U?$_Tree_node@U?$pair@$$CBV?$basic_string@DU?$char_traits@D@std@@V?$allocator@D@2@@std@@V12@@std@@PEAX@std@@@std@@@std@@SAXAEAV?$allocator@U?$_Tree_node@U?$pair@$$CBV?$basic_string@DU?$char_traits@D@std@@V?$allocator@D@2@@std@@V12@@std@@PEAX@std@@@1@QEAU?$pair@$$CBV?$basic_string@DU?$char_traits@D@std@@V?$allocator@D@2@@std@@V12@@1@@Z
	??$dummy_array_stream@_J@rroot@tools@@YA_NAEAVbuffer@01@H@Z
	??$emplace@AEBV?$vector@HV?$allocator@H@std@@@std@@@?$vector@V?$vector@HV?$allocator@H@std@@@std@@V?$allocator@V?$vector@HV?$allocator@H@std@@@std@@@2@@std@@QEAA?AV?$_Vector_iterator@V?$_Vector_val@U?$_Simple_types@V?$vector@HV?$allocator@H@std@@@std@@@std@@@std@@@1@V?$_Vector_const_iterator@V?$_Vector_val@U?$_Simple_types@V?$vector@HV?$allocator@H@std@@@std@@@std@@@std@@@1@AEBV?$vector@HV?$allocator@H@std@@@1@@Z
	??$endl@DU?$char_traits@D@std@@@std@@YAAEAV?$basic_ostream@DU?$char_traits@D@std@@@0@AEAV10@@Z
	??$equal@PEBMPEBM@std@@YA_NQEBM00@Z
	??$equal@PEBMPEBMU?$equal_to@X@std@@@std@@YA_NQEBM00U?$equal_to@X@0@@Z
	??$equal@PEBV?$basic_string@DU?$char_traits@D@std@@V?$allocator@D@2@@std@@PEBV12@@std@@YA_NQEBV?$basic_string@DU?$char_traits@D@std@@V?$allocator@D@2@@0@00@Z
	??$equal@PEBV?$basic_string@DU?$char_traits@D@std@@V?$allocator@D@2@@std@@PEBV12@U?$equal_to@X@2@@std@@YA_NQEBV?$basic_string@DU?$char_traits@D@std@@V?$allocator@D@2@@0@00U?$equal_to@X@0@@Z
	??$equal@PEBVvec2f@tools@@PEBV12@@std@@YA_NQEBVvec2f@tools@@00@Z
	??$equal@PEBVvec2f@tools@@PEBV12@U?$equal_to@X@std@@@std@@YA_NQEBVvec2f@tools@@00U?$equal_to@X@0@@Z
	??$equal@PEBW4unit_type@plotter@sg@tools@@PEBW41234@@std@@YA_NQEBW4unit_type@plotter@sg@tools@@00@Z
	??$equal@PEBW4unit_type@plotter@sg@tools@@PEBW41234@U?$equal_to@X@std@@@std@@YA_NQEBW4unit_type@plotter@sg@tools@@00U?$equal_to@X@0@@Z
	??$erase@V?$_Tree_iterator@V?$_Tree_val@U?$_Tree_simple_types@U?$pair@$$CBIV?$img@E@tools@@@std@@@std@@@std@@@std@@X@?$_Tree@V?$_Tmap_traits@IV?$img@E@tools@@U?$less@I@std@@V?$allocator@U?$pair@$$CBIV?$img@E@tools@@@std@@@4@$0A@@std@@@std@@QEAA?AV?$_Tree_iterator@V?$_Tree_val@U?$_Tree_simple_types@U?$pair@$$CBIV?$img@E@tools@@@std@@@std@@@std@@@1@V21@@Z
	??$exchange@PEAU?$_List_node@PEAV?$list@IV?$allocator@I@std@@@std@@PEAX@std@@$$T@std@@YAPEAU?$_List_node@PEAV?$list@IV?$allocator@I@std@@@std@@PEAX@0@AEAPEAU10@$$QEA$$T@Z
	??$exchange@PEAU?$_List_node@PEAV?$list@IV?$allocator@I@std@@@std@@PEAX@std@@AEAPEAU12@@std@@YAPEAU?$_List_node@PEAV?$list@IV?$allocator@I@std@@@std@@PEAX@0@AEAPEAU10@0@Z
	??$exchange@PEAU?$_List_node@PEAVielem@xml@tools@@PEAX@std@@PEAU12@@std@@YAPEAU?$_List_node@PEAVielem@xml@tools@@PEAX@0@AEAPEAU10@$$QEAPEAU10@@Z
	??$exchange@PEAU?$_Tree_node@U?$pair@$$CBDP6A_NAEAV?$basic_ostream@DU?$char_traits@D@std@@@std@@IIPEBDIPEADAEAI@Z@std@@PEAX@std@@$$T@std@@YAPEAU?$_Tree_node@U?$pair@$$CBDP6A_NAEAV?$basic_ostream@DU?$char_traits@D@std@@@std@@IIPEBDIPEADAEAI@Z@std@@PEAX@0@AEAPEAU10@$$QEA$$T@Z
	??$exchange@PEAU?$_Tree_node@U?$pair@$$CBDP6A_NAEAV?$basic_ostream@DU?$char_traits@D@std@@@std@@IIPEBDIPEADAEAI@Z@std@@PEAX@std@@AEAPEAU12@@std@@YAPEAU?$_Tree_node@U?$pair@$$CBDP6A_NAEAV?$basic_ostream@DU?$char_traits@D@std@@@std@@IIPEBDIPEADAEAI@Z@std@@PEAX@0@AEAPEAU10@0@Z
	??$exchange@PEAU?$_Tree_node@U?$pair@$$CBDP6A_NAEAV?$basic_ostream@DU?$char_traits@D@std@@@std@@IPEBDIPEADAEAI@Z@std@@PEAX@std@@$$T@std@@YAPEAU?$_Tree_node@U?$pair@$$CBDP6A_NAEAV?$basic_ostream@DU?$char_traits@D@std@@@std@@IPEBDIPEADAEAI@Z@std@@PEAX@0@AEAPEAU10@$$QEA$$T@Z
	??$exchange@PEAU?$_Tree_node@U?$pair@$$CBDP6A_NAEAV?$basic_ostream@DU?$char_traits@D@std@@@std@@IPEBDIPEADAEAI@Z@std@@PEAX@std@@AEAPEAU12@@std@@YAPEAU?$_Tree_node@U?$pair@$$CBDP6A_NAEAV?$basic_ostream@DU?$char_traits@D@std@@@std@@IPEBDIPEADAEAI@Z@std@@PEAX@0@AEAPEAU10@0@Z
	??$exchange@PEAU?$_Tree_node@U?$pair@$$CBDPEAX@std@@PEAX@std@@$$T@std@@YAPEAU?$_Tree_node@U?$pair@$$CBDPEAX@std@@PEAX@0@AEAPEAU10@$$QEA$$T@Z
	??$exchange@PEAU?$_Tree_node@U?$pair@$$CBDPEAX@std@@PEAX@std@@AEAPEAU12@@std@@YAPEAU?$_Tree_node@U?$pair@$$CBDPEAX@std@@PEAX@0@AEAPEAU10@0@Z
	??$exchange@PEAU?$_Tree_node@U?$pair@$$CBIPEAViro@rroot@tools@@@std@@PEAX@std@@$$T@std@@YAPEAU?$_Tree_node@U?$pair@$$CBIPEAViro@rroot@tools@@@std@@PEAX@0@AEAPEAU10@$$QEA$$T@Z
	??$exchange@PEAU?$_Tree_node@U?$pair@$$CBIPEAViro@rroot@tools@@@std@@PEAX@std@@AEAPEAU12@@std@@YAPEAU?$_Tree_node@U?$pair@$$CBIPEAViro@rroot@tools@@@std@@PEAX@0@AEAPEAU10@0@Z
	??$exchange@PEAU?$_Tree_node@U?$pair@$$CBIU?$pair@PEAVbasket@rroot@tools@@_N@std@@@std@@PEAX@std@@$$T@std@@YAPEAU?$_Tree_node@U?$pair@$$CBIU?$pair@PEAVbasket@rroot@tools@@_N@std@@@std@@PEAX@0@AEAPEAU10@$$QEA$$T@Z
	??$exchange@PEAU?$_Tree_node@U?$pair@$$CBIU?$pair@PEAVbasket@rroot@tools@@_N@std@@@std@@PEAX@std@@AEAPEAU12@@std@@YAPEAU?$_Tree_node@U?$pair@$$CBIU?$pair@PEAVbasket@rroot@tools@@_N@std@@@std@@PEAX@0@AEAPEAU10@0@Z
	??$exchange@PEAU?$_Tree_node@U?$pair@$$CBIV?$img@E@tools@@@std@@PEAX@std@@$$T@std@@YAPEAU?$_Tree_node@U?$pair@$$CBIV?$img@E@tools@@@std@@PEAX@0@AEAPEAU10@$$QEA$$T@Z
	??$exchange@PEAU?$_Tree_node@U?$pair@$$CBIV?$img@E@tools@@@std@@PEAX@std@@AEAPEAU12@@std@@YAPEAU?$_Tree_node@U?$pair@$$CBIV?$img@E@tools@@@std@@PEAX@0@AEAPEAU10@0@Z
	??$exchange@PEAU?$_Tree_node@U?$pair@$$CBIVcolorf@tools@@@std@@PEAX@std@@$$T@std@@YAPEAU?$_Tree_node@U?$pair@$$CBIVcolorf@tools@@@std@@PEAX@0@AEAPEAU10@$$QEA$$T@Z
	??$exchange@PEAU?$_Tree_node@U?$pair@$$CBIVcolorf@tools@@@std@@PEAX@std@@AEAPEAU12@@std@@YAPEAU?$_Tree_node@U?$pair@$$CBIVcolorf@tools@@@std@@PEAX@0@AEAPEAU10@0@Z
	??$exchange@PEAU?$_Tree_node@U?$pair@$$CBIVstyle_color@sg@tools@@@std@@PEAX@std@@$$T@std@@YAPEAU?$_Tree_node@U?$pair@$$CBIVstyle_color@sg@tools@@@std@@PEAX@0@AEAPEAU10@$$QEA$$T@Z
	??$exchange@PEAU?$_Tree_node@U?$pair@$$CBIVstyle_color@sg@tools@@@std@@PEAX@std@@AEAPEAU12@@std@@YAPEAU?$_Tree_node@U?$pair@$$CBIVstyle_color@sg@tools@@@std@@PEAX@0@AEAPEAU10@0@Z
	??$exchange@PEAU?$_Tree_node@U?$pair@$$CBV?$basic_string@DU?$char_traits@D@std@@V?$allocator@D@2@@std@@I@std@@PEAX@std@@$$T@std@@YAPEAU?$_Tree_node@U?$pair@$$CBV?$basic_string@DU?$char_traits@D@std@@V?$allocator@D@2@@std@@I@std@@PEAX@0@AEAPEAU10@$$QEA$$T@Z
	??$exchange@PEAU?$_Tree_node@U?$pair@$$CBV?$basic_string@DU?$char_traits@D@std@@V?$allocator@D@2@@std@@I@std@@PEAX@std@@AEAPEAU12@@std@@YAPEAU?$_Tree_node@U?$pair@$$CBV?$basic_string@DU?$char_traits@D@std@@V?$allocator@D@2@@std@@I@std@@PEAX@0@AEAPEAU10@0@Z
	??$exchange@PEAU?$_Tree_node@U?$pair@$$CBV?$basic_string@DU?$char_traits@D@std@@V?$allocator@D@2@@std@@P6A?AVraxml_out@tools@@AEAVtree@xml@4@AEAV?$basic_ostream@DU?$char_traits@D@std@@@2@_NPEAX@Z@std@@PEAX@std@@$$T@std@@YAPEAU?$_Tree_node@U?$pair@$$CBV?$basic_string@DU?$char_traits@D@std@@V?$allocator@D@2@@std@@P6A?AVraxml_out@tools@@AEAVtree@xml@4@AEAV?$basic_ostream@DU?$char_traits@D@std@@@2@_NPEAX@Z@std@@PEAX@0@AEAPEAU10@$$QEA$$T@Z
	??$exchange@PEAU?$_Tree_node@U?$pair@$$CBV?$basic_string@DU?$char_traits@D@std@@V?$allocator@D@2@@std@@P6A?AVraxml_out@tools@@AEAVtree@xml@4@AEAV?$basic_ostream@DU?$char_traits@D@std@@@2@_NPEAX@Z@std@@PEAX@std@@AEAPEAU12@@std@@YAPEAU?$_Tree_node@U?$pair@$$CBV?$basic_string@DU?$char_traits@D@std@@V?$allocator@D@2@@std@@P6A?AVraxml_out@tools@@AEAVtree@xml@4@AEAV?$basic_ostream@DU?$char_traits@D@std@@@2@_NPEAX@Z@std@@PEAX@0@AEAPEAU10@0@Z
	??$exchange@PEAU?$_Tree_node@U?$pair@$$CBV?$basic_string@DU?$char_traits@D@std@@V?$allocator@D@2@@std@@V12@@std@@PEAX@std@@$$T@std@@YAPEAU?$_Tree_node@U?$pair@$$CBV?$basic_string@DU?$char_traits@D@std@@V?$allocator@D@2@@std@@V12@@std@@PEAX@0@AEAPEAU10@$$QEA$$T@Z
	??$exchange@PEAU?$_Tree_node@U?$pair@$$CBV?$basic_string@DU?$char_traits@D@std@@V?$allocator@D@2@@std@@V12@@std@@PEAX@std@@AEAPEAU12@@std@@YAPEAU?$_Tree_node@U?$pair@$$CBV?$basic_string@DU?$char_traits@D@std@@V?$allocator@D@2@@std@@V12@@std@@PEAX@0@AEAPEAU10@0@Z
	??$exchange@PEAU?$_Tree_node@U?$pair@$$CBV?$basic_string@DU?$char_traits@D@std@@V?$allocator@D@2@@std@@Vstyle_colormap@sg@tools@@@std@@PEAX@std@@$$T@std@@YAPEAU?$_Tree_node@U?$pair@$$CBV?$basic_string@DU?$char_traits@D@std@@V?$allocator@D@2@@std@@Vstyle_colormap@sg@tools@@@std@@PEAX@0@AEAPEAU10@$$QEA$$T@Z
	??$exchange@PEAU?$_Tree_node@U?$pair@$$CBV?$basic_string@DU?$char_traits@D@std@@V?$allocator@D@2@@std@@Vstyle_colormap@sg@tools@@@std@@PEAX@std@@AEAPEAU12@@std@@YAPEAU?$_Tree_node@U?$pair@$$CBV?$basic_string@DU?$char_traits@D@std@@V?$allocator@D@2@@std@@Vstyle_colormap@sg@tools@@@std@@PEAX@0@AEAPEAU10@0@Z
	??$exchange@PEAU?$_Tree_node@U?$pair@$$CBVG4String@@H@std@@PEAX@std@@$$T@std@@YAPEAU?$_Tree_node@U?$pair@$$CBVG4String@@H@std@@PEAX@0@AEAPEAU10@$$QEA$$T@Z
	??$exchange@PEAU?$_Tree_node@U?$pair@$$CBVG4String@@H@std@@PEAX@std@@AEAPEAU12@@std@@YAPEAU?$_Tree_node@U?$pair@$$CBVG4String@@H@std@@PEAX@0@AEAPEAU10@0@Z
	??$exchange@PEAU?$_Tree_node@U?$pair@$$CBVG4String@@PEAV?$basic_ifstream@DU?$char_traits@D@std@@@std@@@std@@PEAX@std@@$$T@std@@YAPEAU?$_Tree_node@U?$pair@$$CBVG4String@@PEAV?$basic_ifstream@DU?$char_traits@D@std@@@std@@@std@@PEAX@0@AEAPEAU10@$$QEA$$T@Z
	??$exchange@PEAU?$_Tree_node@U?$pair@$$CBVG4String@@PEAV?$basic_ifstream@DU?$char_traits@D@std@@@std@@@std@@PEAX@std@@AEAPEAU12@@std@@YAPEAU?$_Tree_node@U?$pair@$$CBVG4String@@PEAV?$basic_ifstream@DU?$char_traits@D@std@@@std@@@std@@PEAX@0@AEAPEAU10@0@Z
	??$exchange@PEAU?$_Tree_node@U?$pair@$$CBVG4String@@PEAVG4VAccumulable@@@std@@PEAX@std@@$$T@std@@YAPEAU?$_Tree_node@U?$pair@$$CBVG4String@@PEAVG4VAccumulable@@@std@@PEAX@0@AEAPEAU10@$$QEA$$T@Z
	??$exchange@PEAU?$_Tree_node@U?$pair@$$CBVG4String@@PEAVG4VAccumulable@@@std@@PEAX@std@@AEAPEAU12@@std@@YAPEAU?$_Tree_node@U?$pair@$$CBVG4String@@PEAVG4VAccumulable@@@std@@PEAX@0@AEAPEAU10@0@Z
	??$exchange@PEAU?$_Tree_node@U?$pair@$$CBVG4String@@PEAVfile@rroot@tools@@@std@@PEAX@std@@$$T@std@@YAPEAU?$_Tree_node@U?$pair@$$CBVG4String@@PEAVfile@rroot@tools@@@std@@PEAX@0@AEAPEAU10@$$QEA$$T@Z
	??$exchange@PEAU?$_Tree_node@U?$pair@$$CBVG4String@@PEAVfile@rroot@tools@@@std@@PEAX@std@@AEAPEAU12@@std@@YAPEAU?$_Tree_node@U?$pair@$$CBVG4String@@PEAVfile@rroot@tools@@@std@@PEAX@0@AEAPEAU10@0@Z
	??$exchange@PEAU?$_Tree_node@U?$pair@$$CBVG4String@@PEAVraxml@tools@@@std@@PEAX@std@@$$T@std@@YAPEAU?$_Tree_node@U?$pair@$$CBVG4String@@PEAVraxml@tools@@@std@@PEAX@0@AEAPEAU10@$$QEA$$T@Z
	??$exchange@PEAU?$_Tree_node@U?$pair@$$CBVG4String@@PEAVraxml@tools@@@std@@PEAX@std@@AEAPEAU12@@std@@YAPEAU?$_Tree_node@U?$pair@$$CBVG4String@@PEAVraxml@tools@@@std@@PEAX@0@AEAPEAU10@0@Z
	??$exchange@PEAU?$_Tree_node@U?$pair@$$CBVcolorf@tools@@I@std@@PEAX@std@@$$T@std@@YAPEAU?$_Tree_node@U?$pair@$$CBVcolorf@tools@@I@std@@PEAX@0@AEAPEAU10@$$QEA$$T@Z
	??$exchange@PEAU?$_Tree_node@U?$pair@$$CBVcolorf@tools@@I@std@@PEAX@std@@AEAPEAU12@@std@@YAPEAU?$_Tree_node@U?$pair@$$CBVcolorf@tools@@I@std@@PEAX@0@AEAPEAU10@0@Z
	??$exchange@PEAU?$_Tree_node@U?$pair@QEAVibo@wroot@tools@@I@std@@PEAX@std@@$$T@std@@YAPEAU?$_Tree_node@U?$pair@QEAVibo@wroot@tools@@I@std@@PEAX@0@AEAPEAU10@$$QEA$$T@Z
	??$exchange@PEAU?$_Tree_node@U?$pair@QEAVibo@wroot@tools@@I@std@@PEAX@std@@AEAPEAU12@@std@@YAPEAU?$_Tree_node@U?$pair@QEAVibo@wroot@tools@@I@std@@PEAX@0@AEAPEAU10@0@Z
	??$exchange@PEAU?$_Tree_node@U?$pair@QEAVntuple@aida@tools@@PEAV?$vector@HV?$allocator@H@std@@@std@@@std@@PEAX@std@@$$T@std@@YAPEAU?$_Tree_node@U?$pair@QEAVntuple@aida@tools@@PEAV?$vector@HV?$allocator@H@std@@@std@@@std@@PEAX@0@AEAPEAU10@$$QEA$$T@Z
	??$exchange@PEAU?$_Tree_node@U?$pair@QEAVntuple@aida@tools@@PEAV?$vector@HV?$allocator@H@std@@@std@@@std@@PEAX@std@@AEAPEAU12@@std@@YAPEAU?$_Tree_node@U?$pair@QEAVntuple@aida@tools@@PEAV?$vector@HV?$allocator@H@std@@@std@@@std@@PEAX@0@AEAPEAU10@0@Z
	??$exchange@PEAU?$_Tree_node@U?$pair@QEAVntuple@aida@tools@@PEAV?$vector@MV?$allocator@M@std@@@std@@@std@@PEAX@std@@$$T@std@@YAPEAU?$_Tree_node@U?$pair@QEAVntuple@aida@tools@@PEAV?$vector@MV?$allocator@M@std@@@std@@@std@@PEAX@0@AEAPEAU10@$$QEA$$T@Z
	??$exchange@PEAU?$_Tree_node@U?$pair@QEAVntuple@aida@tools@@PEAV?$vector@MV?$allocator@M@std@@@std@@@std@@PEAX@std@@AEAPEAU12@@std@@YAPEAU?$_Tree_node@U?$pair@QEAVntuple@aida@tools@@PEAV?$vector@MV?$allocator@M@std@@@std@@@std@@PEAX@0@AEAPEAU10@0@Z
	??$exchange@PEAU?$_Tree_node@U?$pair@QEAVntuple@aida@tools@@PEAV?$vector@NV?$allocator@N@std@@@std@@@std@@PEAX@std@@$$T@std@@YAPEAU?$_Tree_node@U?$pair@QEAVntuple@aida@tools@@PEAV?$vector@NV?$allocator@N@std@@@std@@@std@@PEAX@0@AEAPEAU10@$$QEA$$T@Z
	??$exchange@PEAU?$_Tree_node@U?$pair@QEAVntuple@aida@tools@@PEAV?$vector@NV?$allocator@N@std@@@std@@@std@@PEAX@std@@AEAPEAU12@@std@@YAPEAU?$_Tree_node@U?$pair@QEAVntuple@aida@tools@@PEAV?$vector@NV?$allocator@N@std@@@std@@@std@@PEAX@0@AEAPEAU10@0@Z
	??$exchange@PEAU?$_Tree_node@U?$pair@QEAVntuple@rcsv@tools@@PEAV?$vector@HV?$allocator@H@std@@@std@@@std@@PEAX@std@@AEAPEAU12@@std@@YAPEAU?$_Tree_node@U?$pair@QEAVntuple@rcsv@tools@@PEAV?$vector@HV?$allocator@H@std@@@std@@@std@@PEAX@0@AEAPEAU10@0@Z
	??$exchange@PEAU?$_Tree_node@U?$pair@QEAVntuple@rcsv@tools@@PEAV?$vector@MV?$allocator@M@std@@@std@@@std@@PEAX@std@@AEAPEAU12@@std@@YAPEAU?$_Tree_node@U?$pair@QEAVntuple@rcsv@tools@@PEAV?$vector@MV?$allocator@M@std@@@std@@@std@@PEAX@0@AEAPEAU10@0@Z
	??$exchange@PEAU?$_Tree_node@U?$pair@QEAVntuple@rcsv@tools@@PEAV?$vector@NV?$allocator@N@std@@@std@@@std@@PEAX@std@@AEAPEAU12@@std@@YAPEAU?$_Tree_node@U?$pair@QEAVntuple@rcsv@tools@@PEAV?$vector@NV?$allocator@N@std@@@std@@@std@@PEAX@0@AEAPEAU10@0@Z
	??$exchange@PEAU?$_Tree_node@U?$pair@QEAVntuple@rroot@tools@@PEAV?$vector@HV?$allocator@H@std@@@std@@@std@@PEAX@std@@AEAPEAU12@@std@@YAPEAU?$_Tree_node@U?$pair@QEAVntuple@rroot@tools@@PEAV?$vector@HV?$allocator@H@std@@@std@@@std@@PEAX@0@AEAPEAU10@0@Z
	??$exchange@PEAU?$_Tree_node@U?$pair@QEAVntuple@rroot@tools@@PEAV?$vector@MV?$allocator@M@std@@@std@@@std@@PEAX@std@@AEAPEAU12@@std@@YAPEAU?$_Tree_node@U?$pair@QEAVntuple@rroot@tools@@PEAV?$vector@MV?$allocator@M@std@@@std@@@std@@PEAX@0@AEAPEAU10@0@Z
	??$exchange@PEAU?$_Tree_node@U?$pair@QEAVntuple@rroot@tools@@PEAV?$vector@NV?$allocator@N@std@@@std@@@std@@PEAX@std@@AEAPEAU12@@std@@YAPEAU?$_Tree_node@U?$pair@QEAVntuple@rroot@tools@@PEAV?$vector@NV?$allocator@N@std@@@std@@@std@@PEAX@0@AEAPEAU10@0@Z
	??$exchange@PEAVG4AnalysisMessengerHelper@@AEAPEAV1@@std@@YAPEAVG4AnalysisMessengerHelper@@AEAPEAV1@0@Z
	??$exchange@PEAVG4AnalysisMessengerHelper@@PEAV1@@std@@YAPEAVG4AnalysisMessengerHelper@@AEAPEAV1@$$QEAPEAV1@@Z
	??$exchange@PEAVG4BaseFileManager@@AEAPEAV1@@std@@YAPEAVG4BaseFileManager@@AEAPEAV1@0@Z
	??$exchange@PEAVG4FileMessenger@@AEAPEAV1@@std@@YAPEAVG4FileMessenger@@AEAPEAV1@0@Z
	??$exchange@PEAVG4FileMessenger@@PEAV1@@std@@YAPEAVG4FileMessenger@@AEAPEAV1@$$QEAPEAV1@@Z
	??$exchange@PEAVG4H1Messenger@@AEAPEAV1@@std@@YAPEAVG4H1Messenger@@AEAPEAV1@0@Z
	??$exchange@PEAVG4H1Messenger@@PEAV1@@std@@YAPEAVG4H1Messenger@@AEAPEAV1@$$QEAPEAV1@@Z
	??$exchange@PEAVG4H2Messenger@@AEAPEAV1@@std@@YAPEAVG4H2Messenger@@AEAPEAV1@0@Z
	??$exchange@PEAVG4H2Messenger@@PEAV1@@std@@YAPEAVG4H2Messenger@@AEAPEAV1@$$QEAPEAV1@@Z
	??$exchange@PEAVG4H3Messenger@@AEAPEAV1@@std@@YAPEAVG4H3Messenger@@AEAPEAV1@0@Z
	??$exchange@PEAVG4H3Messenger@@PEAV1@@std@@YAPEAVG4H3Messenger@@AEAPEAV1@$$QEAPEAV1@@Z
	??$exchange@PEAVG4HnMessenger@@AEAPEAV1@@std@@YAPEAVG4HnMessenger@@AEAPEAV1@0@Z
	??$exchange@PEAVG4HnMessenger@@PEAV1@@std@@YAPEAVG4HnMessenger@@AEAPEAV1@$$QEAPEAV1@@Z
	??$exchange@PEAVG4NtupleMessenger@@AEAPEAV1@@std@@YAPEAVG4NtupleMessenger@@AEAPEAV1@0@Z
	??$exchange@PEAVG4NtupleMessenger@@PEAV1@@std@@YAPEAVG4NtupleMessenger@@AEAPEAV1@$$QEAPEAV1@@Z
	??$exchange@PEAVG4P1Messenger@@AEAPEAV1@@std@@YAPEAVG4P1Messenger@@AEAPEAV1@0@Z
	??$exchange@PEAVG4P1Messenger@@PEAV1@@std@@YAPEAVG4P1Messenger@@AEAPEAV1@$$QEAPEAV1@@Z
	??$exchange@PEAVG4P2Messenger@@AEAPEAV1@@std@@YAPEAVG4P2Messenger@@AEAPEAV1@0@Z
	??$exchange@PEAVG4P2Messenger@@PEAV1@@std@@YAPEAVG4P2Messenger@@AEAPEAV1@$$QEAPEAV1@@Z
	??$exchange@PEAVG4PlotMessenger@@AEAPEAV1@@std@@YAPEAVG4PlotMessenger@@AEAPEAV1@0@Z
	??$exchange@PEAVG4PlotMessenger@@PEAV1@@std@@YAPEAVG4PlotMessenger@@AEAPEAV1@$$QEAPEAV1@@Z
	??$exchange@PEAVG4UIcmdWithABool@@AEAPEAV1@@std@@YAPEAVG4UIcmdWithABool@@AEAPEAV1@0@Z
	??$exchange@PEAVG4UIcmdWithABool@@PEAV1@@std@@YAPEAVG4UIcmdWithABool@@AEAPEAV1@$$QEAPEAV1@@Z
	??$exchange@PEAVG4UIcmdWithAString@@AEAPEAV1@@std@@YAPEAVG4UIcmdWithAString@@AEAPEAV1@0@Z
	??$exchange@PEAVG4UIcmdWithAString@@PEAV1@@std@@YAPEAVG4UIcmdWithAString@@AEAPEAV1@$$QEAPEAV1@@Z
	??$exchange@PEAVG4UIcmdWithAnInteger@@AEAPEAV1@@std@@YAPEAVG4UIcmdWithAnInteger@@AEAPEAV1@0@Z
	??$exchange@PEAVG4UIcmdWithAnInteger@@PEAV1@@std@@YAPEAVG4UIcmdWithAnInteger@@AEAPEAV1@$$QEAPEAV1@@Z
	??$exchange@PEAVG4UIcommand@@AEAPEAV1@@std@@YAPEAVG4UIcommand@@AEAPEAV1@0@Z
	??$exchange@PEAVG4UIcommand@@PEAV1@@std@@YAPEAVG4UIcommand@@AEAPEAV1@$$QEAPEAV1@@Z
	??$exchange@PEAVG4UIdirectory@@AEAPEAV1@@std@@YAPEAVG4UIdirectory@@AEAPEAV1@0@Z
	??$exchange@PEAVG4UIdirectory@@PEAV1@@std@@YAPEAVG4UIdirectory@@AEAPEAV1@$$QEAPEAV1@@Z
	??$exchange@PEAVG4VH1Manager@@AEAPEAV1@@std@@YAPEAVG4VH1Manager@@AEAPEAV1@0@Z
	??$exchange@PEAVG4VH2Manager@@AEAPEAV1@@std@@YAPEAVG4VH2Manager@@AEAPEAV1@0@Z
	??$exchange@PEAVG4VH3Manager@@AEAPEAV1@@std@@YAPEAVG4VH3Manager@@AEAPEAV1@0@Z
	??$exchange@PEAVG4VP1Manager@@AEAPEAV1@@std@@YAPEAVG4VP1Manager@@AEAPEAV1@0@Z
	??$exchange@PEAVG4VP2Manager@@AEAPEAV1@@std@@YAPEAVG4VP2Manager@@AEAPEAV1@0@Z
	??$exchange@PEAVG4VRNtupleManager@@AEAPEAV1@@std@@YAPEAVG4VRNtupleManager@@AEAPEAV1@0@Z
	??$exchange@PEAV_Facet_base@std@@PEAV12@@std@@YAPEAV_Facet_base@0@AEAPEAV10@$$QEAPEAV10@@Z
	??$exchange@PEAVviewplot@tools@@AEAPEAV12@@std@@YAPEAVviewplot@tools@@AEAPEAV12@0@Z
	??$exchange@_K_K@std@@YA_KAEA_K$$QEA_K@Z
	??$fill@PEANN@std@@YAXQEAN0AEBN@Z
	??$fill@V?$_Vb_iterator@U?$_Wrap_alloc@V?$allocator@I@std@@@std@@@std@@_N@std@@YAXV?$_Vb_iterator@U?$_Wrap_alloc@V?$allocator@I@std@@@std@@@0@0AEB_N@Z
	??$fill_histogram@Vh1d@histo@tools@@@c1d@histo@tools@@QEBA_NAEAVh1d@12@@Z
	??$fill_histogram@Vh2d@histo@tools@@@c2d@histo@tools@@QEBA_NAEAVh2d@12@@Z
	??$find_named@Vbase_col@aida@tools@@@tools@@YAPEAVbase_col@aida@0@AEBV?$vector@PEAVbase_col@aida@tools@@V?$allocator@PEAVbase_col@aida@tools@@@std@@@std@@AEBV?$basic_string@DU?$char_traits@D@std@@V?$allocator@D@2@@4@@Z
	??$find_named@Vicol@ntuple@wcsv@tools@@@tools@@YAPEAVicol@ntuple@wcsv@0@AEBV?$vector@PEAVicol@ntuple@wcsv@tools@@V?$allocator@PEAVicol@ntuple@wcsv@tools@@@std@@@std@@AEBV?$basic_string@DU?$char_traits@D@std@@V?$allocator@D@2@@5@@Z
	??$find_named@Vicol@read@tools@@@tools@@YAPEAVicol@read@0@AEBV?$vector@PEAVicol@read@tools@@V?$allocator@PEAVicol@read@tools@@@std@@@std@@AEBV?$basic_string@DU?$char_traits@D@std@@V?$allocator@D@2@@4@@Z
	??$find_named@Vicol@wroot@tools@@@tools@@YAPEAVicol@wroot@0@AEBV?$vector@PEAVicol@wroot@tools@@V?$allocator@PEAVicol@wroot@tools@@@std@@@std@@AEBV?$basic_string@DU?$char_traits@D@std@@V?$allocator@D@2@@4@@Z
	??$find_named@Viobj@ntuple@waxml@tools@@@tools@@YAPEAViobj@ntuple@waxml@0@AEBV?$vector@PEAViobj@ntuple@waxml@tools@@V?$allocator@PEAViobj@ntuple@waxml@tools@@@std@@@std@@AEBV?$basic_string@DU?$char_traits@D@std@@V?$allocator@D@2@@5@@Z
	??$find_variable@V?$vector@IV?$allocator@I@std@@@std@@@ntuple_binding@tools@@QEBAPEAV?$vector@IV?$allocator@I@std@@@std@@AEBV?$basic_string@DU?$char_traits@D@std@@V?$allocator@D@2@@3@@Z
	??$find_variable@V?$vector@_JV?$allocator@_J@std@@@std@@@ntuple_binding@tools@@QEBAPEAV?$vector@_JV?$allocator@_J@std@@@std@@AEBV?$basic_string@DU?$char_traits@D@std@@V?$allocator@D@2@@3@@Z
	??$find_variable@V?$vector@_KV?$allocator@_K@std@@@std@@@ntuple_binding@tools@@QEBAPEAV?$vector@_KV?$allocator@_K@std@@@std@@AEBV?$basic_string@DU?$char_traits@D@std@@V?$allocator@D@2@@3@@Z
	??$find_variable@V?$vector@_NV?$allocator@_N@std@@@std@@@ntuple_binding@tools@@QEBAPEAV?$vector@_NV?$allocator@_N@std@@@std@@AEBV?$basic_string@DU?$char_traits@D@std@@V?$allocator@D@2@@3@@Z
	??$fixed_array_stream@_J@rroot@tools@@YA_NAEAVbuffer@01@HAEAPEA_J@Z
	??$hls_to_rgb2@M@tools@@YAMMMM@Z
	??$hls_to_rgb@M@tools@@YAXMMMAEAM00@Z
	??$hto@Vh1d@histo@tools@@@wcsv@tools@@YA_NAEAV?$basic_ostream@DU?$char_traits@D@std@@@std@@AEBV?$basic_string@DU?$char_traits@D@std@@V?$allocator@D@2@@3@AEBVh1d@histo@1@DD_N@Z
	??$hto@Vh2d@histo@tools@@@wcsv@tools@@YA_NAEAV?$basic_ostream@DU?$char_traits@D@std@@@std@@AEBV?$basic_string@DU?$char_traits@D@std@@V?$allocator@D@2@@3@AEBVh2d@histo@1@DD_N@Z
	??$hto@Vh3d@histo@tools@@@wcsv@tools@@YA_NAEAV?$basic_ostream@DU?$char_traits@D@std@@@std@@AEBV?$basic_string@DU?$char_traits@D@std@@V?$allocator@D@2@@3@AEBVh3d@histo@1@DD_N@Z
	??$intersect@Vvec2f@tools@@@tools@@YA_NAEBVvec2f@0@000AEAV10@@Z
	??$invert_prec@N@?$mat@M$03@tools@@QEBA_NAEAV01@QEAI1AEBNP6ANAEBM@Z@Z
	??$make_unique@VG4AnalysisMessenger@@PEAVG4VAnalysisManager@@@G4Analysis@@YA?AV?$unique_ptr@VG4AnalysisMessenger@@U?$default_delete@VG4AnalysisMessenger@@@std@@@std@@$$QEAPEAVG4VAnalysisManager@@@Z
	??$make_unique@VG4AnalysisMessengerHelper@@AEAVG4String@@@G4Analysis@@YA?AV?$unique_ptr@VG4AnalysisMessengerHelper@@U?$default_delete@VG4AnalysisMessengerHelper@@@std@@@std@@AEAVG4String@@@Z
	??$make_unique@VG4AnalysisMessengerHelper@@AEAY02$$CBD@G4Analysis@@YA?AV?$unique_ptr@VG4AnalysisMessengerHelper@@U?$default_delete@VG4AnalysisMessengerHelper@@@std@@@std@@AEAY02$$CBD@Z
	??$make_unique@VG4AnalysisMessengerHelper@@AEAY04$$CBD@G4Analysis@@YA?AV?$unique_ptr@VG4AnalysisMessengerHelper@@U?$default_delete@VG4AnalysisMessengerHelper@@@std@@@std@@AEAY04$$CBD@Z
	??$make_unique@VG4FileMessenger@@AEAPEAVG4VAnalysisManager@@@G4Analysis@@YA?AV?$unique_ptr@VG4FileMessenger@@U?$default_delete@VG4FileMessenger@@@std@@@std@@AEAPEAVG4VAnalysisManager@@@Z
	??$make_unique@VG4H1Messenger@@AEAPEAVG4VAnalysisManager@@@G4Analysis@@YA?AV?$unique_ptr@VG4H1Messenger@@U?$default_delete@VG4H1Messenger@@@std@@@std@@AEAPEAVG4VAnalysisManager@@@Z
	??$make_unique@VG4H2Messenger@@AEAPEAVG4VAnalysisManager@@@G4Analysis@@YA?AV?$unique_ptr@VG4H2Messenger@@U?$default_delete@VG4H2Messenger@@@std@@@std@@AEAPEAVG4VAnalysisManager@@@Z
	??$make_unique@VG4H3Messenger@@AEAPEAVG4VAnalysisManager@@@G4Analysis@@YA?AV?$unique_ptr@VG4H3Messenger@@U?$default_delete@VG4H3Messenger@@@std@@@std@@AEAPEAVG4VAnalysisManager@@@Z
	??$make_unique@VG4HnMessenger@@AEAVG4HnManager@@@G4Analysis@@YA?AV?$unique_ptr@VG4HnMessenger@@U?$default_delete@VG4HnMessenger@@@std@@@std@@AEAVG4HnManager@@@Z
	??$make_unique@VG4NtupleMessenger@@AEAPEAVG4VAnalysisManager@@@G4Analysis@@YA?AV?$unique_ptr@VG4NtupleMessenger@@U?$default_delete@VG4NtupleMessenger@@@std@@@std@@AEAPEAVG4VAnalysisManager@@@Z
	??$make_unique@VG4P1Messenger@@AEAPEAVG4VAnalysisManager@@@G4Analysis@@YA?AV?$unique_ptr@VG4P1Messenger@@U?$default_delete@VG4P1Messenger@@@std@@@std@@AEAPEAVG4VAnalysisManager@@@Z
	??$make_unique@VG4P2Messenger@@AEAPEAVG4VAnalysisManager@@@G4Analysis@@YA?AV?$unique_ptr@VG4P2Messenger@@U?$default_delete@VG4P2Messenger@@@std@@@std@@AEAPEAVG4VAnalysisManager@@@Z
	??$make_unique@VG4PlotMessenger@@PEAVG4PlotParameters@@@G4Analysis@@YA?AV?$unique_ptr@VG4PlotMessenger@@U?$default_delete@VG4PlotMessenger@@@std@@@std@@$$QEAPEAVG4PlotParameters@@@Z
	??$make_unique@VG4UIcmdWithABool@@AEAY0BI@$$CBDPEAVG4AnalysisMessenger@@@G4Analysis@@YA?AV?$unique_ptr@VG4UIcmdWithABool@@U?$default_delete@VG4UIcmdWithABool@@@std@@@std@@AEAY0BI@$$CBD$$QEAPEAVG4AnalysisMessenger@@@Z
	??$make_unique@VG4UIcmdWithABool@@AEAY0CE@$$CBDPEAVG4NtupleMessenger@@@G4Analysis@@YA?AV?$unique_ptr@VG4UIcmdWithABool@@U?$default_delete@VG4UIcmdWithABool@@@std@@@std@@AEAY0CE@$$CBD$$QEAPEAVG4NtupleMessenger@@@Z
	??$make_unique@VG4UIcmdWithABool@@VG4String@@PEAVG4HnMessenger@@@G4Analysis@@YA?AV?$unique_ptr@VG4UIcmdWithABool@@U?$default_delete@VG4UIcmdWithABool@@@std@@@std@@$$QEAVG4String@@$$QEAPEAVG4HnMessenger@@@Z
	??$make_unique@VG4UIcmdWithAString@@AEAY0BG@$$CBDPEAVG4FileMessenger@@@G4Analysis@@YA?AV?$unique_ptr@VG4UIcmdWithAString@@U?$default_delete@VG4UIcmdWithAString@@@std@@@std@@AEAY0BG@$$CBD$$QEAPEAVG4FileMessenger@@@Z
	??$make_unique@VG4UIcmdWithAString@@AEAY0BI@$$CBDPEAVG4PlotMessenger@@@G4Analysis@@YA?AV?$unique_ptr@VG4UIcmdWithAString@@U?$default_delete@VG4UIcmdWithAString@@@std@@@std@@AEAY0BI@$$CBD$$QEAPEAVG4PlotMessenger@@@Z
	??$make_unique@VG4UIcmdWithAString@@AEAY0BK@$$CBDPEAVG4FileMessenger@@@G4Analysis@@YA?AV?$unique_ptr@VG4UIcmdWithAString@@U?$default_delete@VG4UIcmdWithAString@@@std@@@std@@AEAY0BK@$$CBD$$QEAPEAVG4FileMessenger@@@Z
	??$make_unique@VG4UIcmdWithAString@@AEAY0BL@$$CBDPEAVG4FileMessenger@@@G4Analysis@@YA?AV?$unique_ptr@VG4UIcmdWithAString@@U?$default_delete@VG4UIcmdWithAString@@@std@@@std@@AEAY0BL@$$CBD$$QEAPEAVG4FileMessenger@@@Z
	??$make_unique@VG4UIcmdWithAnInteger@@AEAY0BC@$$CBDPEAVG4AnalysisMessenger@@@G4Analysis@@YA?AV?$unique_ptr@VG4UIcmdWithAnInteger@@U?$default_delete@VG4UIcmdWithAnInteger@@@std@@@std@@AEAY0BC@$$CBD$$QEAPEAVG4AnalysisMessenger@@@Z
	??$make_unique@VG4UIcmdWithAnInteger@@AEAY0BG@$$CBDPEAVG4AnalysisMessenger@@@G4Analysis@@YA?AV?$unique_ptr@VG4UIcmdWithAnInteger@@U?$default_delete@VG4UIcmdWithAnInteger@@@std@@@std@@AEAY0BG@$$CBD$$QEAPEAVG4AnalysisMessenger@@@Z
	??$make_unique@VG4UIcmdWithAnInteger@@VG4String@@PEAVG4HnMessenger@@@G4Analysis@@YA?AV?$unique_ptr@VG4UIcmdWithAnInteger@@U?$default_delete@VG4UIcmdWithAnInteger@@@std@@@std@@$$QEAVG4String@@$$QEAPEAVG4HnMessenger@@@Z
	??$make_unique@VG4UIcommand@@AEAY0BB@$$CBDPEAVG4H1Messenger@@@G4Analysis@@YA?AV?$unique_ptr@VG4UIcommand@@U?$default_delete@VG4UIcommand@@@std@@@std@@AEAY0BB@$$CBD$$QEAPEAVG4H1Messenger@@@Z
	??$make_unique@VG4UIcommand@@AEAY0BB@$$CBDPEAVG4H2Messenger@@@G4Analysis@@YA?AV?$unique_ptr@VG4UIcommand@@U?$default_delete@VG4UIcommand@@@std@@@std@@AEAY0BB@$$CBD$$QEAPEAVG4H2Messenger@@@Z
	??$make_unique@VG4UIcommand@@AEAY0BB@$$CBDPEAVG4H3Messenger@@@G4Analysis@@YA?AV?$unique_ptr@VG4UIcommand@@U?$default_delete@VG4UIcommand@@@std@@@std@@AEAY0BB@$$CBD$$QEAPEAVG4H3Messenger@@@Z
	??$make_unique@VG4UIcommand@@AEAY0BB@$$CBDPEAVG4P1Messenger@@@G4Analysis@@YA?AV?$unique_ptr@VG4UIcommand@@U?$default_delete@VG4UIcommand@@@std@@@std@@AEAY0BB@$$CBD$$QEAPEAVG4P1Messenger@@@Z
	??$make_unique@VG4UIcommand@@AEAY0BB@$$CBDPEAVG4P2Messenger@@@G4Analysis@@YA?AV?$unique_ptr@VG4UIcommand@@U?$default_delete@VG4UIcommand@@@std@@@std@@AEAY0BB@$$CBD$$QEAPEAVG4P2Messenger@@@Z
	??$make_unique@VG4UIcommand@@AEAY0BE@$$CBDPEAVG4H1Messenger@@@G4Analysis@@YA?AV?$unique_ptr@VG4UIcommand@@U?$default_delete@VG4UIcommand@@@std@@@std@@AEAY0BE@$$CBD$$QEAPEAVG4H1Messenger@@@Z
	??$make_unique@VG4UIcommand@@AEAY0BE@$$CBDPEAVG4H2Messenger@@@G4Analysis@@YA?AV?$unique_ptr@VG4UIcommand@@U?$default_delete@VG4UIcommand@@@std@@@std@@AEAY0BE@$$CBD$$QEAPEAVG4H2Messenger@@@Z
	??$make_unique@VG4UIcommand@@AEAY0BE@$$CBDPEAVG4H3Messenger@@@G4Analysis@@YA?AV?$unique_ptr@VG4UIcommand@@U?$default_delete@VG4UIcommand@@@std@@@std@@AEAY0BE@$$CBD$$QEAPEAVG4H3Messenger@@@Z
	??$make_unique@VG4UIcommand@@AEAY0BE@$$CBDPEAVG4P1Messenger@@@G4Analysis@@YA?AV?$unique_ptr@VG4UIcommand@@U?$default_delete@VG4UIcommand@@@std@@@std@@AEAY0BE@$$CBD$$QEAPEAVG4P1Messenger@@@Z
	??$make_unique@VG4UIcommand@@AEAY0BE@$$CBDPEAVG4P2Messenger@@@G4Analysis@@YA?AV?$unique_ptr@VG4UIcommand@@U?$default_delete@VG4UIcommand@@@std@@@std@@AEAY0BE@$$CBD$$QEAPEAVG4P2Messenger@@@Z
	??$make_unique@VG4UIcommand@@AEAY0BJ@$$CBDPEAVG4PlotMessenger@@@G4Analysis@@YA?AV?$unique_ptr@VG4UIcommand@@U?$default_delete@VG4UIcommand@@@std@@@std@@AEAY0BJ@$$CBD$$QEAPEAVG4PlotMessenger@@@Z
	??$make_unique@VG4UIcommand@@AEAY0BN@$$CBDPEAVG4PlotMessenger@@@G4Analysis@@YA?AV?$unique_ptr@VG4UIcommand@@U?$default_delete@VG4UIcommand@@@std@@@std@@AEAY0BN@$$CBD$$QEAPEAVG4PlotMessenger@@@Z
	??$make_unique@VG4UIcommand@@AEAY0BP@$$CBDPEAVG4NtupleMessenger@@@G4Analysis@@YA?AV?$unique_ptr@VG4UIcommand@@U?$default_delete@VG4UIcommand@@@std@@@std@@AEAY0BP@$$CBD$$QEAPEAVG4NtupleMessenger@@@Z
	??$make_unique@VG4UIcommand@@VG4String@@PEAVG4HnMessenger@@@G4Analysis@@YA?AV?$unique_ptr@VG4UIcommand@@U?$default_delete@VG4UIcommand@@@std@@@std@@$$QEAVG4String@@$$QEAPEAVG4HnMessenger@@@Z
	??$make_unique@VG4UIdirectory@@AEAY0BC@$$CBD@G4Analysis@@YA?AV?$unique_ptr@VG4UIdirectory@@U?$default_delete@VG4UIdirectory@@@std@@@std@@AEAY0BC@$$CBD@Z
	??$make_unique@VG4UIdirectory@@AEAY0L@$$CBD@G4Analysis@@YA?AV?$unique_ptr@VG4UIdirectory@@U?$default_delete@VG4UIdirectory@@@std@@@std@@AEAY0L@$$CBD@Z
	??$numas@N@tools@@YA_NAEBNAEAV?$basic_string@DU?$char_traits@D@std@@V?$allocator@D@2@@std@@@Z
	??$nums2s@V?$vector@FV?$allocator@F@std@@@std@@@tools@@YA_NAEBV?$vector@FV?$allocator@F@std@@@std@@AEAV?$basic_string@DU?$char_traits@D@std@@V?$allocator@D@2@@2@AEBV32@_N@Z
	??$nums2s@V?$vector@GV?$allocator@G@std@@@std@@@tools@@YA_NAEBV?$vector@GV?$allocator@G@std@@@std@@AEAV?$basic_string@DU?$char_traits@D@std@@V?$allocator@D@2@@2@AEBV32@_N@Z
	??$nums2s@V?$vector@HV?$allocator@H@std@@@std@@@tools@@YA_NAEBV?$vector@HV?$allocator@H@std@@@std@@AEAV?$basic_string@DU?$char_traits@D@std@@V?$allocator@D@2@@2@AEBV32@_N@Z
	??$nums2s@V?$vector@IV?$allocator@I@std@@@std@@@tools@@YA_NAEBV?$vector@IV?$allocator@I@std@@@std@@AEAV?$basic_string@DU?$char_traits@D@std@@V?$allocator@D@2@@2@AEBV32@_N@Z
	??$nums2s@V?$vector@MV?$allocator@M@std@@@std@@@tools@@YA_NAEBV?$vector@MV?$allocator@M@std@@@std@@AEAV?$basic_string@DU?$char_traits@D@std@@V?$allocator@D@2@@2@AEBV32@_N@Z
	??$nums2s@V?$vector@NV?$allocator@N@std@@@std@@@tools@@YA_NAEBV?$vector@NV?$allocator@N@std@@@std@@AEAV?$basic_string@DU?$char_traits@D@std@@V?$allocator@D@2@@2@AEBV32@_N@Z
	??$nums2s@V?$vector@V?$basic_string@DU?$char_traits@D@std@@V?$allocator@D@2@@std@@V?$allocator@V?$basic_string@DU?$char_traits@D@std@@V?$allocator@D@2@@std@@@2@@std@@@tools@@YA_NAEBV?$vector@V?$basic_string@DU?$char_traits@D@std@@V?$allocator@D@2@@std@@V?$allocator@V?$basic_string@DU?$char_traits@D@std@@V?$allocator@D@2@@std@@@2@@std@@AEAV?$basic_string@DU?$char_traits@D@std@@V?$allocator@D@2@@2@AEBV32@_N@Z
	??$nums2s@V?$vector@_JV?$allocator@_J@std@@@std@@@tools@@YA_NAEBV?$vector@_JV?$allocator@_J@std@@@std@@AEAV?$basic_string@DU?$char_traits@D@std@@V?$allocator@D@2@@2@AEBV32@_N@Z
	??$nums2s@V?$vector@_KV?$allocator@_K@std@@@std@@@tools@@YA_NAEBV?$vector@_KV?$allocator@_K@std@@@std@@AEAV?$basic_string@DU?$char_traits@D@std@@V?$allocator@D@2@@2@AEBV32@_N@Z
	??$pointer_stream@Vbranch_element@rroot@tools@@@rroot@tools@@YA_NAEAVbuffer@01@AEAVifac@01@AEAV?$map@DPEAXU?$less@D@std@@V?$allocator@U?$pair@$$CBDPEAX@std@@@2@@std@@AEAPEAVbranch_element@01@AEA_N@Z
	??$pow@HNX@@YANHN@Z
	??$pow@NFX@@YANNF@Z
	??$pto@Vp1d@histo@tools@@@wcsv@tools@@YA_NAEAV?$basic_ostream@DU?$char_traits@D@std@@@std@@AEBV?$basic_string@DU?$char_traits@D@std@@V?$allocator@D@2@@3@AEBVp1d@histo@1@DD_N@Z
	??$pto@Vp2d@histo@tools@@@wcsv@tools@@YA_NAEAV?$basic_ostream@DU?$char_traits@D@std@@@std@@AEBV?$basic_string@DU?$char_traits@D@std@@V?$allocator@D@2@@3@AEBVp2d@histo@1@DD_N@Z
	??$read_array@H@rbuf@rroot@tools@@QEAA_NIAEAPEAHAEAI@Z
	??$read_fast_array@D@rbuf@rroot@tools@@QEAA_NPEADI@Z
	??$read_fast_array@F@rbuf@rroot@tools@@QEAA_NPEAFI@Z
	??$read_fast_array@G@rbuf@rroot@tools@@QEAA_NPEAGI@Z
	??$read_fast_array@H@rbuf@rroot@tools@@QEAA_NPEAHI@Z
	??$read_fast_array@I@rbuf@rroot@tools@@QEAA_NPEAII@Z
	??$read_fast_array@M@rbuf@rroot@tools@@QEAA_NPEAMI@Z
	??$read_fast_array@N@rbuf@rroot@tools@@QEAA_NPEANI@Z
	??$read_fast_array@_J@rbuf@rroot@tools@@QEAA_NPEA_JI@Z
	??$read_fast_array@_K@rbuf@rroot@tools@@QEAA_NPEA_KI@Z
	??$read_fast_array@_N@rbuf@rroot@tools@@QEAA_NPEA_NI@Z
	??$realloc@H@tools@@YA_NAEAPEAH_K1_N@Z
	??$realloc@I@tools@@YA_NAEAPEAI_K1_N@Z
	??$res_sg_style@Vline_style@sg@tools@@@styles@xml@tools@@QEBA_NAEBV?$basic_string@DU?$char_traits@D@std@@V?$allocator@D@2@@std@@AEAVline_style@sg@2@@Z
	??$res_sg_style@Vstyle@sg@tools@@@styles@xml@tools@@QEBA_NAEBV?$basic_string@DU?$char_traits@D@std@@V?$allocator@D@2@@std@@AEAVstyle@sg@2@@Z
	??$res_sg_style@Vtext_style@sg@tools@@@styles@xml@tools@@QEBA_NAEBV?$basic_string@DU?$char_traits@D@std@@V?$allocator@D@2@@std@@AEAVtext_style@sg@2@@Z
	??$safe_cast@Vbase_ntu@aida@tools@@Vntuple@23@@tools@@YAPEAVntuple@aida@0@AEAVbase_ntu@20@@Z
	??$safe_cast@Vbranch@rroot@tools@@Vbranch_element@23@@tools@@YAPEAVbranch_element@rroot@0@AEAVbranch@20@@Z
	??$safe_cast@Viro@rroot@tools@@Vbase_leaf@23@@tools@@YAPEAVbase_leaf@rroot@0@AEAViro@20@@Z
	??$safe_clear@Vbase_col@aida@tools@@@tools@@YAXAEAV?$vector@PEAVbase_col@aida@tools@@V?$allocator@PEAVbase_col@aida@tools@@@std@@@std@@@Z
	??$safe_clear@Vbasket@wroot@tools@@@tools@@YAXAEAV?$vector@PEAVbasket@wroot@tools@@V?$allocator@PEAVbasket@wroot@tools@@@std@@@std@@@Z
	??$safe_clear@Vbranch@wroot@tools@@@tools@@YAXAEAV?$vector@PEAVbranch@wroot@tools@@V?$allocator@PEAVbranch@wroot@tools@@@std@@@std@@@Z
	??$safe_clear@Vicol@ntuple@wcsv@tools@@@tools@@YAXAEAV?$vector@PEAVicol@ntuple@wcsv@tools@@V?$allocator@PEAVicol@ntuple@wcsv@tools@@@std@@@std@@@Z
	??$safe_clear@Vicol@read@tools@@@tools@@YAXAEAV?$vector@PEAVicol@read@tools@@V?$allocator@PEAVicol@read@tools@@@std@@@std@@@Z
	??$safe_clear@Vicol@wroot@tools@@@tools@@YAXAEAV?$vector@PEAVicol@wroot@tools@@V?$allocator@PEAVicol@wroot@tools@@@std@@@std@@@Z
	??$safe_clear@Viobj@ntuple@waxml@tools@@@tools@@YAXAEAV?$vector@PEAViobj@ntuple@waxml@tools@@V?$allocator@PEAViobj@ntuple@waxml@tools@@@std@@@std@@@Z
	??$safe_clear@Vstreamer_element@wroot@tools@@@tools@@YAXAEAV?$vector@PEAVstreamer_element@wroot@tools@@V?$allocator@PEAVstreamer_element@wroot@tools@@@std@@@std@@@Z
	??$set_color_white@Vstyle_color@sg@tools@@@tools@@YAXAEAVstyle_color@sg@0@@Z
	??$snums@_N@tools@@YA_NAEBV?$basic_string@DU?$char_traits@D@std@@V?$allocator@D@2@@std@@AEAV?$basic_istringstream@DU?$char_traits@D@std@@V?$allocator@D@2@@2@AEAV?$vector@V?$basic_string@DU?$char_traits@D@std@@V?$allocator@D@2@@std@@V?$allocator@V?$basic_string@DU?$char_traits@D@std@@V?$allocator@D@2@@std@@@2@@2@0AEAV?$vector@_NV?$allocator@_N@std@@@2@_N@Z
	??$sub_determinant_prec@N@?$mat@M$03@tools@@IEBAMIQEAI0AEBNP6ANAEBM@Z@Z
	??$swap@DX@std@@YAXAEAD0@Z
	??$swap@PEAV?$basic_ofstream@DU?$char_traits@D@std@@@std@@X@std@@YAXAEAPEAV?$basic_ofstream@DU?$char_traits@D@std@@@0@0@Z
	??$swap@PEAVG4CsvFileManager@@X@std@@YAXAEAPEAVG4CsvFileManager@@0@Z
	??$swap@PEAVG4HnManager@@X@std@@YAXAEAPEAVG4HnManager@@0@Z
	??$swap@PEAVG4PlotManager@@X@std@@YAXAEAPEAVG4PlotManager@@0@Z
	??$swap@PEAVG4RootFileManager@@X@std@@YAXAEAPEAVG4RootFileManager@@0@Z
	??$swap@PEAVG4VFileManager@@X@std@@YAXAEAPEAVG4VFileManager@@0@Z
	??$swap@PEAVG4XmlFileManager@@X@std@@YAXAEAPEAVG4XmlFileManager@@0@Z
	??$swap@PEAV_Ref_count_base@std@@X@std@@YAXAEAPEAV_Ref_count_base@0@0@Z
	??$swap@PEAVfile@wroot@tools@@X@std@@YAXAEAPEAVfile@wroot@tools@@0@Z
	??$to@F@tools@@YA_NAEBV?$basic_string@DU?$char_traits@D@std@@V?$allocator@D@2@@std@@AEAFAEBF@Z
	??$to@G@tools@@YA_NAEBV?$basic_string@DU?$char_traits@D@std@@V?$allocator@D@2@@std@@AEAGAEBG@Z
	??$to@H@tools@@YA_NAEBV?$basic_string@DU?$char_traits@D@std@@V?$allocator@D@2@@std@@AEAHAEBH@Z
	??$to@I@tools@@YA_NAEBV?$basic_string@DU?$char_traits@D@std@@V?$allocator@D@2@@std@@AEAIAEBI@Z
	??$to@M@tools@@YA_NAEBV?$basic_string@DU?$char_traits@D@std@@V?$allocator@D@2@@std@@AEAMAEBM@Z
	??$to@N@tools@@YA_NAEBV?$basic_string@DU?$char_traits@D@std@@V?$allocator@D@2@@std@@AEANAEBN@Z
	??$to@_J@tools@@YA_NAEBV?$basic_string@DU?$char_traits@D@std@@V?$allocator@D@2@@std@@AEA_JAEB_J@Z
	??$to@_K@tools@@YA_NAEBV?$basic_string@DU?$char_traits@D@std@@V?$allocator@D@2@@std@@AEA_KAEB_K@Z
	??$to_vector@H@aida@tools@@YA_NAEAVbase_ntu@01@AEAV?$vector@HV?$allocator@H@std@@@std@@@Z
	??$to_vector@M@aida@tools@@YA_NAEAVbase_ntu@01@AEAV?$vector@MV?$allocator@M@std@@@std@@@Z
	??$use_facet@V?$codecvt@DDU_Mbstatet@@@std@@@std@@YAAEBV?$codecvt@DDU_Mbstatet@@@0@AEBVlocale@0@@Z
	??$visit@Vgstos_add@sg@tools@@@cube@sg@tools@@IEAAXAEAVgstos_add@12@W4draw_type@12@@Z
	??$visit@Vpick_action@sg@tools@@@cube@sg@tools@@IEAAXAEAVpick_action@12@W4draw_type@12@@Z
	??$visit@Vrender_action@sg@tools@@@cube@sg@tools@@IEAAXAEAVrender_action@12@W4draw_type@12@@Z
	??$write@D@buffer@wroot@tools@@QEAA_ND@Z
	??$write@E@buffer@wroot@tools@@QEAA_NE@Z
	??$write@F@buffer@wroot@tools@@QEAA_NF@Z
	??$write@H@buffer@wroot@tools@@QEAA_NH@Z
	??$write@I@buffer@wroot@tools@@QEAA_NI@Z
	??$write@M@buffer@wroot@tools@@QEAA_NM@Z
	??$write@N@buffer@wroot@tools@@QEAA_NN@Z
	??$write_array@H@buffer@wroot@tools@@QEAA_NPEBHI@Z
	??$write_array@H@buffer@wroot@tools@@QEAA_NV?$vector@HV?$allocator@H@std@@@std@@@Z
	??$write_array@N@buffer@wroot@tools@@QEAA_NV?$vector@NV?$allocator@N@std@@@std@@@Z
	??$write_fast_array@F@buffer@wroot@tools@@QEAA_NPEBFI@Z
	??$write_fast_array@H@buffer@wroot@tools@@QEAA_NPEBHI@Z
	??$write_fast_array@I@buffer@wroot@tools@@QEAA_NPEBII@Z
	??$write_fast_array@M@buffer@wroot@tools@@QEAA_NPEBMI@Z
	??$write_fast_array@N@buffer@wroot@tools@@QEAA_NPEBNI@Z
	??0?$G4THnManager@Vh1d@histo@tools@@@@QEAA@AEBVG4AnalysisManagerState@@AEBVG4String@@@Z
	??0?$G4THnManager@Vh2d@histo@tools@@@@QEAA@AEBVG4AnalysisManagerState@@AEBVG4String@@@Z
	??0?$G4THnManager@Vh3d@histo@tools@@@@QEAA@AEBVG4AnalysisManagerState@@AEBVG4String@@@Z
	??0?$G4THnManager@Vp1d@histo@tools@@@@QEAA@AEBVG4AnalysisManagerState@@AEBVG4String@@@Z
	??0?$G4THnManager@Vp2d@histo@tools@@@@QEAA@AEBVG4AnalysisManagerState@@AEBVG4String@@@Z
	??0?$G4TNtupleManager@Vntuple@waxml@tools@@@@QEAA@AEBVG4AnalysisManagerState@@@Z
	??0?$G4TNtupleManager@Vntuple@wcsv@tools@@@@QEAA@AEBVG4AnalysisManagerState@@@Z
	??0?$G4TNtupleManager@Vntuple@wroot@tools@@@@QEAA@AEBVG4AnalysisManagerState@@@Z
	??0?$G4TRNtupleManager@Vntuple@aida@tools@@@@IEAA@AEBVG4AnalysisManagerState@@@Z
	??0?$G4TRNtupleManager@Vntuple@rcsv@tools@@@@IEAA@AEBVG4AnalysisManagerState@@@Z
	??0?$G4TRNtupleManager@Vntuple@rroot@tools@@@@IEAA@AEBVG4AnalysisManagerState@@@Z
	??0?$axis@NI@histo@tools@@QEAA@AEBV012@@Z
	??0?$b1@NIINN@histo@tools@@IEAA@AEBV?$basic_string@DU?$char_traits@D@std@@V?$allocator@D@2@@std@@AEBV?$vector@NV?$allocator@N@std@@@4@@Z
	??0?$b1@NIINN@histo@tools@@IEAA@AEBV?$basic_string@DU?$char_traits@D@std@@V?$allocator@D@2@@std@@INN@Z
	??0?$b2@NIINN@histo@tools@@IEAA@AEBV?$basic_string@DU?$char_traits@D@std@@V?$allocator@D@2@@std@@AEBV?$vector@NV?$allocator@N@std@@@4@1@Z
	??0?$b2@NIINN@histo@tools@@IEAA@AEBV?$basic_string@DU?$char_traits@D@std@@V?$allocator@D@2@@std@@INNINN@Z
	??0?$b3@NIINN@histo@tools@@QEAA@AEBV?$basic_string@DU?$char_traits@D@std@@V?$allocator@D@2@@std@@AEBV?$vector@NV?$allocator@N@std@@@4@11@Z
	??0?$b3@NIINN@histo@tools@@QEAA@AEBV?$basic_string@DU?$char_traits@D@std@@V?$allocator@D@2@@std@@INNINNINN@Z
	??0?$base_histo@NIINN@histo@tools@@IEAA@XZ
	??0?$basic_ifstream@DU?$char_traits@D@std@@@std@@QEAA@AEBV?$basic_string@DU?$char_traits@D@std@@V?$allocator@D@2@@1@HH@Z
	??0?$basic_ifstream@DU?$char_traits@D@std@@@std@@QEAA@PEBDHH@Z
	??0?$basic_ofstream@DU?$char_traits@D@std@@@std@@QEAA@PEBDHH@Z
	??0?$basic_string@DU?$char_traits@D@std@@V?$allocator@D@2@@std@@QEAA@AEBV01@@Z
	??0?$basic_string@DU?$char_traits@D@std@@V?$allocator@D@2@@std@@QEAA@QEBD@Z
	??0?$column@N@base_pntuple@wroot@tools@@QEAA@AEAVbranch@23@AEBV?$basic_string@DU?$char_traits@D@std@@V?$allocator@D@2@@std@@AEBN@Z
	??0?$column@NV?$leaf@N@rroot@tools@@@ntuple@rroot@tools@@QEAA@AEAVifile@23@AEAVbranch@23@AEAV?$leaf@N@23@AEA_J@Z
	??0?$column_element_ref@V?$stl_vector@D@rroot@tools@@V?$vector@DV?$allocator@D@std@@@std@@@ntuple@rroot@tools@@QEAA@AEAVifile@23@AEAVbranch_element@23@AEAVleaf_element@23@AEA_JAEAV?$vector@DV?$allocator@D@std@@@std@@@Z
	??0?$column_element_ref@V?$stl_vector@F@rroot@tools@@V?$vector@FV?$allocator@F@std@@@std@@@ntuple@rroot@tools@@QEAA@AEAVifile@23@AEAVbranch_element@23@AEAVleaf_element@23@AEA_JAEAV?$vector@FV?$allocator@F@std@@@std@@@Z
	??0?$column_element_ref@V?$stl_vector@H@rroot@tools@@V?$vector@HV?$allocator@H@std@@@std@@@ntuple@rroot@tools@@QEAA@AEAVifile@23@AEAVbranch_element@23@AEAVleaf_element@23@AEA_JAEAV?$vector@HV?$allocator@H@std@@@std@@@Z
	??0?$column_element_ref@V?$stl_vector@M@rroot@tools@@V?$vector@MV?$allocator@M@std@@@std@@@ntuple@rroot@tools@@QEAA@AEAVifile@23@AEAVbranch_element@23@AEAVleaf_element@23@AEA_JAEAV?$vector@MV?$allocator@M@std@@@std@@@Z
	??0?$column_element_ref@V?$stl_vector@N@rroot@tools@@V?$vector@NV?$allocator@N@std@@@std@@@ntuple@rroot@tools@@QEAA@AEAVifile@23@AEAVbranch_element@23@AEAVleaf_element@23@AEA_JAEAV?$vector@NV?$allocator@N@std@@@std@@@Z
	??0?$column_ref@D@ntuple@wroot@tools@@QEAA@AEAVbranch@23@AEBV?$basic_string@DU?$char_traits@D@std@@V?$allocator@D@2@@std@@AEBD@Z
	??0?$column_ref@DV?$leaf@D@rroot@tools@@@ntuple@rroot@tools@@QEAA@AEAVifile@23@AEAVbranch@23@AEAV?$leaf@D@23@AEA_JAEAD@Z
	??0?$column_ref@E@ntuple@wcsv@tools@@QEAA@AEAV?$basic_ostream@DU?$char_traits@D@std@@@std@@AEBV?$basic_string@DU?$char_traits@D@std@@V?$allocator@D@2@@5@AEBE@Z
	??0?$column_ref@F@ntuple@wroot@tools@@QEAA@AEAVbranch@23@AEBV?$basic_string@DU?$char_traits@D@std@@V?$allocator@D@2@@std@@AEBF@Z
	??0?$column_ref@FV?$leaf@F@rroot@tools@@@ntuple@rroot@tools@@QEAA@AEAVifile@23@AEAVbranch@23@AEAV?$leaf@F@23@AEA_JAEAF@Z
	??0?$column_ref@G@ntuple@wcsv@tools@@QEAA@AEAV?$basic_ostream@DU?$char_traits@D@std@@@std@@AEBV?$basic_string@DU?$char_traits@D@std@@V?$allocator@D@2@@5@AEBG@Z
	??0?$column_ref@H@ntuple@wroot@tools@@QEAA@AEAVbranch@23@AEBV?$basic_string@DU?$char_traits@D@std@@V?$allocator@D@2@@std@@AEBH@Z
	??0?$column_ref@HV?$leaf@H@rroot@tools@@@ntuple@rroot@tools@@QEAA@AEAVifile@23@AEAVbranch@23@AEAV?$leaf@H@23@AEA_JAEAH@Z
	??0?$column_ref@I@ntuple@wcsv@tools@@QEAA@AEAV?$basic_ostream@DU?$char_traits@D@std@@@std@@AEBV?$basic_string@DU?$char_traits@D@std@@V?$allocator@D@2@@5@AEBI@Z
	??0?$column_ref@M@ntuple@wcsv@tools@@QEAA@AEAV?$basic_ostream@DU?$char_traits@D@std@@@std@@AEBV?$basic_string@DU?$char_traits@D@std@@V?$allocator@D@2@@5@AEBM@Z
	??0?$column_ref@M@ntuple@wroot@tools@@QEAA@AEAVbranch@23@AEBV?$basic_string@DU?$char_traits@D@std@@V?$allocator@D@2@@std@@AEBM@Z
	??0?$column_ref@MV?$leaf@M@rroot@tools@@@ntuple@rroot@tools@@QEAA@AEAVifile@23@AEAVbranch@23@AEAV?$leaf@M@23@AEA_JAEAM@Z
	??0?$column_ref@N@base_pntuple@wroot@tools@@QEAA@AEAVbranch@23@AEBV?$basic_string@DU?$char_traits@D@std@@V?$allocator@D@2@@std@@AEBN@Z
	??0?$column_ref@N@ntuple@wcsv@tools@@QEAA@AEAV?$basic_ostream@DU?$char_traits@D@std@@@std@@AEBV?$basic_string@DU?$char_traits@D@std@@V?$allocator@D@2@@5@AEBN@Z
	??0?$column_ref@N@ntuple@wroot@tools@@QEAA@AEAVbranch@23@AEBV?$basic_string@DU?$char_traits@D@std@@V?$allocator@D@2@@std@@AEBN@Z
	??0?$column_ref@NV?$leaf@N@rroot@tools@@@ntuple@rroot@tools@@QEAA@AEAVifile@23@AEAVbranch@23@AEAV?$leaf@N@23@AEA_JAEAN@Z
	??0?$column_ref@V?$basic_string@DU?$char_traits@D@std@@V?$allocator@D@2@@std@@@ntuple@wcsv@tools@@QEAA@AEAV?$basic_ostream@DU?$char_traits@D@std@@@std@@AEBV?$basic_string@DU?$char_traits@D@std@@V?$allocator@D@2@@5@1@Z
	??0?$column_ref@_K@ntuple@wcsv@tools@@QEAA@AEAV?$basic_ostream@DU?$char_traits@D@std@@@std@@AEBV?$basic_string@DU?$char_traits@D@std@@V?$allocator@D@2@@5@AEB_K@Z
	??0?$column_ref@_N@ntuple@wcsv@tools@@QEAA@AEAV?$basic_ostream@DU?$char_traits@D@std@@@std@@AEBV?$basic_string@DU?$char_traits@D@std@@V?$allocator@D@2@@5@AEB_N@Z
	??0?$fpos@U_Mbstatet@@@std@@QEAA@_J@Z
	??0?$handle@Vh1d@histo@tools@@@tools@@QEAA@PEAVh1d@histo@1@_N@Z
	??0?$handle@Vh2d@histo@tools@@@tools@@QEAA@PEAVh2d@histo@1@_N@Z
	??0?$handle@Vh3d@histo@tools@@@tools@@QEAA@PEAVh3d@histo@1@_N@Z
	??0?$histo_data@NIIN@histo@tools@@QEAA@AEBV012@@Z
	??0?$histo_data@NIIN@histo@tools@@QEAA@XZ
	??0?$img@E@tools@@QEAA@AEBV01@@Z
	??0?$leaf_ref@H@wroot@tools@@QEAA@AEAV?$basic_ostream@DU?$char_traits@D@std@@@std@@AEBV?$basic_string@DU?$char_traits@D@std@@V?$allocator@D@2@@4@AEBH@Z
	??0?$line@Vvec3f@tools@@@tools@@QEAA@AEBVvec3f@1@0@Z
	??0?$num_out@I@tools@@QEAA@AEBI@Z
	??0?$obj_array@Vbase_leaf@rroot@tools@@@rroot@tools@@QEAA@AEBV012@@Z
	??0?$obj_array@Vbasket@rroot@tools@@@rroot@tools@@QEAA@AEBV012@@Z
	??0?$obj_array@Vbranch@rroot@tools@@@rroot@tools@@QEAA@AEBV012@@Z
	??0?$obj_array@Vstreamer_element@rroot@tools@@@rroot@tools@@QEAA@AEAVifac@12@@Z
	??0?$obj_array@Vstreamer_element@rroot@tools@@@rroot@tools@@QEAA@AEBV012@@Z
	??0?$p1@NIINNN@histo@tools@@QEAA@AEBV?$basic_string@DU?$char_traits@D@std@@V?$allocator@D@2@@std@@AEBV?$vector@NV?$allocator@N@std@@@4@@Z
	??0?$p1@NIINNN@histo@tools@@QEAA@AEBV?$basic_string@DU?$char_traits@D@std@@V?$allocator@D@2@@std@@AEBV?$vector@NV?$allocator@N@std@@@4@NN@Z
	??0?$p1@NIINNN@histo@tools@@QEAA@AEBV?$basic_string@DU?$char_traits@D@std@@V?$allocator@D@2@@std@@INN@Z
	??0?$p1@NIINNN@histo@tools@@QEAA@AEBV?$basic_string@DU?$char_traits@D@std@@V?$allocator@D@2@@std@@INNNN@Z
	??0?$p2@NIINNN@histo@tools@@QEAA@AEBV?$basic_string@DU?$char_traits@D@std@@V?$allocator@D@2@@std@@AEBV?$vector@NV?$allocator@N@std@@@4@1@Z
	??0?$p2@NIINNN@histo@tools@@QEAA@AEBV?$basic_string@DU?$char_traits@D@std@@V?$allocator@D@2@@std@@AEBV?$vector@NV?$allocator@N@std@@@4@1NN@Z
	??0?$p2@NIINNN@histo@tools@@QEAA@AEBV?$basic_string@DU?$char_traits@D@std@@V?$allocator@D@2@@std@@INNINN@Z
	??0?$p2@NIINNN@histo@tools@@QEAA@AEBV?$basic_string@DU?$char_traits@D@std@@V?$allocator@D@2@@std@@INNINNNN@Z
	??0?$plane@Vvec3d@tools@@@tools@@QEAA@AEBVvec3d@1@00@Z
	??0?$plane@Vvec3f@tools@@@tools@@QEAA@AEBVvec3f@1@00@Z
	??0?$profile_data@NIINN@histo@tools@@QEAA@AEBV?$histo_data@NIIN@12@@Z
	??0?$std_vector_be_pointer@D@wroot@tools@@QEAA@AEAV?$basic_ostream@DU?$char_traits@D@std@@@std@@_NI_JAEBV?$basic_string@DU?$char_traits@D@std@@V?$allocator@D@2@@4@3PEAV?$vector@DV?$allocator@D@std@@@4@1@Z
	??0?$std_vector_be_pointer@F@wroot@tools@@QEAA@AEAV?$basic_ostream@DU?$char_traits@D@std@@@std@@_NI_JAEBV?$basic_string@DU?$char_traits@D@std@@V?$allocator@D@2@@4@3PEAV?$vector@FV?$allocator@F@std@@@4@1@Z
	??0?$std_vector_be_pointer@H@wroot@tools@@QEAA@AEAV?$basic_ostream@DU?$char_traits@D@std@@@std@@_NI_JAEBV?$basic_string@DU?$char_traits@D@std@@V?$allocator@D@2@@4@3PEAV?$vector@HV?$allocator@H@std@@@4@1@Z
	??0?$std_vector_be_pointer@M@wroot@tools@@QEAA@AEAV?$basic_ostream@DU?$char_traits@D@std@@@std@@_NI_JAEBV?$basic_string@DU?$char_traits@D@std@@V?$allocator@D@2@@4@3PEAV?$vector@MV?$allocator@M@std@@@4@1@Z
	??0?$std_vector_be_pointer@N@wroot@tools@@QEAA@AEAV?$basic_ostream@DU?$char_traits@D@std@@@std@@_NI_JAEBV?$basic_string@DU?$char_traits@D@std@@V?$allocator@D@2@@4@3PEAV?$vector@NV?$allocator@N@std@@@4@1@Z
	??0?$std_vector_be_ref@D@wroot@tools@@QEAA@AEAV?$basic_ostream@DU?$char_traits@D@std@@@std@@_NI_JAEBV?$basic_string@DU?$char_traits@D@std@@V?$allocator@D@2@@4@3AEBV?$vector@DV?$allocator@D@std@@@4@1@Z
	??0?$std_vector_be_ref@F@wroot@tools@@QEAA@AEAV?$basic_ostream@DU?$char_traits@D@std@@@std@@_NI_JAEBV?$basic_string@DU?$char_traits@D@std@@V?$allocator@D@2@@4@3AEBV?$vector@FV?$allocator@F@std@@@4@1@Z
	??0?$std_vector_be_ref@H@wroot@tools@@QEAA@AEAV?$basic_ostream@DU?$char_traits@D@std@@@std@@_NI_JAEBV?$basic_string@DU?$char_traits@D@std@@V?$allocator@D@2@@4@3AEBV?$vector@HV?$allocator@H@std@@@4@1@Z
	??0?$std_vector_be_ref@M@wroot@tools@@QEAA@AEAV?$basic_ostream@DU?$char_traits@D@std@@@std@@_NI_JAEBV?$basic_string@DU?$char_traits@D@std@@V?$allocator@D@2@@4@3AEBV?$vector@MV?$allocator@M@std@@@4@1@Z
	??0?$std_vector_be_ref@N@wroot@tools@@QEAA@AEAV?$basic_ostream@DU?$char_traits@D@std@@@std@@_NI_JAEBV?$basic_string@DU?$char_traits@D@std@@V?$allocator@D@2@@4@3AEBV?$vector@NV?$allocator@N@std@@@4@1@Z
	??0?$std_vector_column@D@base_pntuple@wroot@tools@@QEAA@AEAVbranch@23@AEBV?$basic_string@DU?$char_traits@D@std@@V?$allocator@D@2@@std@@AEBV?$vector@DV?$allocator@D@std@@@6@@Z
	??0?$std_vector_column@D@ntuple@wroot@tools@@QEAA@AEAVbranch@23@AEBV?$basic_string@DU?$char_traits@D@std@@V?$allocator@D@2@@std@@AEBV?$vector@DV?$allocator@D@std@@@6@@Z
	??0?$std_vector_column@F@base_pntuple@wroot@tools@@QEAA@AEAVbranch@23@AEBV?$basic_string@DU?$char_traits@D@std@@V?$allocator@D@2@@std@@AEBV?$vector@FV?$allocator@F@std@@@6@@Z
	??0?$std_vector_column@F@ntuple@wroot@tools@@QEAA@AEAVbranch@23@AEBV?$basic_string@DU?$char_traits@D@std@@V?$allocator@D@2@@std@@AEBV?$vector@FV?$allocator@F@std@@@6@@Z
	??0?$std_vector_column@H@base_pntuple@wroot@tools@@QEAA@AEAVbranch@23@AEBV?$basic_string@DU?$char_traits@D@std@@V?$allocator@D@2@@std@@AEBV?$vector@HV?$allocator@H@std@@@6@@Z
	??0?$std_vector_column@H@ntuple@wroot@tools@@QEAA@AEAVbranch@23@AEBV?$basic_string@DU?$char_traits@D@std@@V?$allocator@D@2@@std@@AEBV?$vector@HV?$allocator@H@std@@@6@@Z
	??0?$std_vector_column@M@base_pntuple@wroot@tools@@QEAA@AEAVbranch@23@AEBV?$basic_string@DU?$char_traits@D@std@@V?$allocator@D@2@@std@@AEBV?$vector@MV?$allocator@M@std@@@6@@Z
	??0?$std_vector_column@M@ntuple@wroot@tools@@QEAA@AEAVbranch@23@AEBV?$basic_string@DU?$char_traits@D@std@@V?$allocator@D@2@@std@@AEBV?$vector@MV?$allocator@M@std@@@6@@Z
	??0?$std_vector_column@N@base_pntuple@wroot@tools@@QEAA@AEAVbranch@23@AEBV?$basic_string@DU?$char_traits@D@std@@V?$allocator@D@2@@std@@AEBV?$vector@NV?$allocator@N@std@@@6@@Z
	??0?$std_vector_column@N@ntuple@wroot@tools@@QEAA@AEAVbranch@23@AEBV?$basic_string@DU?$char_traits@D@std@@V?$allocator@D@2@@std@@AEBV?$vector@NV?$allocator@N@std@@@6@@Z
	??0?$std_vector_column_ref@D@base_pntuple@wroot@tools@@QEAA@AEAVbranch@23@AEBV?$basic_string@DU?$char_traits@D@std@@V?$allocator@D@2@@std@@AEBV?$vector@DV?$allocator@D@std@@@6@@Z
	??0?$std_vector_column_ref@D@ntuple@wroot@tools@@QEAA@AEAVbranch@23@AEBV?$basic_string@DU?$char_traits@D@std@@V?$allocator@D@2@@std@@AEBV?$vector@DV?$allocator@D@std@@@6@@Z
	??0?$std_vector_column_ref@F@base_pntuple@wroot@tools@@QEAA@AEAVbranch@23@AEBV?$basic_string@DU?$char_traits@D@std@@V?$allocator@D@2@@std@@AEBV?$vector@FV?$allocator@F@std@@@6@@Z
	??0?$std_vector_column_ref@F@ntuple@wroot@tools@@QEAA@AEAVbranch@23@AEBV?$basic_string@DU?$char_traits@D@std@@V?$allocator@D@2@@std@@AEBV?$vector@FV?$allocator@F@std@@@6@@Z
	??0?$std_vector_column_ref@H@base_pntuple@wroot@tools@@QEAA@AEAVbranch@23@AEBV?$basic_string@DU?$char_traits@D@std@@V?$allocator@D@2@@std@@AEBV?$vector@HV?$allocator@H@std@@@6@@Z
	??0?$std_vector_column_ref@H@ntuple@wroot@tools@@QEAA@AEAVbranch@23@AEBV?$basic_string@DU?$char_traits@D@std@@V?$allocator@D@2@@std@@AEBV?$vector@HV?$allocator@H@std@@@6@@Z
	??0?$std_vector_column_ref@M@base_pntuple@wroot@tools@@QEAA@AEAVbranch@23@AEBV?$basic_string@DU?$char_traits@D@std@@V?$allocator@D@2@@std@@AEBV?$vector@MV?$allocator@M@std@@@6@@Z
	??0?$std_vector_column_ref@M@ntuple@wroot@tools@@QEAA@AEAVbranch@23@AEBV?$basic_string@DU?$char_traits@D@std@@V?$allocator@D@2@@std@@AEBV?$vector@MV?$allocator@M@std@@@6@@Z
	??0?$std_vector_column_ref@N@base_pntuple@wroot@tools@@QEAA@AEAVbranch@23@AEBV?$basic_string@DU?$char_traits@D@std@@V?$allocator@D@2@@std@@AEBV?$vector@NV?$allocator@N@std@@@6@@Z
	??0?$std_vector_column_ref@N@ntuple@wroot@tools@@QEAA@AEAVbranch@23@AEBV?$basic_string@DU?$char_traits@D@std@@V?$allocator@D@2@@std@@AEBV?$vector@NV?$allocator@N@std@@@6@@Z
	??0?$vector@DV?$allocator@D@std@@@std@@QEAA@AEBV01@@Z
	??0?$vector@FV?$allocator@F@std@@@std@@QEAA@AEBV01@@Z
	??0?$vector@GV?$allocator@G@std@@@std@@QEAA@AEBV01@@Z
	??0?$vector@HV?$allocator@H@std@@@std@@QEAA@AEBV01@@Z
	??0?$vector@IV?$allocator@I@std@@@std@@QEAA@AEBV01@@Z
	??0?$vector@MV?$allocator@M@std@@@std@@QEAA@AEBV01@@Z
	??0?$vector@NV?$allocator@N@std@@@std@@QEAA@AEBV01@@Z
	??0?$vector@NV?$allocator@N@std@@@std@@QEAA@_KAEBV?$allocator@N@1@@Z
	??0?$vector@PEAVG4HnInformation@@V?$allocator@PEAVG4HnInformation@@@std@@@std@@QEAA@AEBV01@@Z
	??0?$vector@PEAVnode@sg@tools@@V?$allocator@PEAVnode@sg@tools@@@std@@@std@@QEAA@AEBV01@@Z
	??0?$vector@V?$basic_string@DU?$char_traits@D@std@@V?$allocator@D@2@@std@@V?$allocator@V?$basic_string@DU?$char_traits@D@std@@V?$allocator@D@2@@std@@@2@@std@@QEAA@AEBV01@@Z
	??0?$vector@V?$vector@NV?$allocator@N@std@@@std@@V?$allocator@V?$vector@NV?$allocator@N@std@@@std@@@2@@std@@QEAA@AEBV01@@Z
	??0?$vector@Vmat4f@tools@@V?$allocator@Vmat4f@tools@@@std@@@std@@QEAA@AEBV01@@Z
	??0?$vector@Vrep_top_face2D@sg@tools@@V?$allocator@Vrep_top_face2D@sg@tools@@@std@@@std@@QEAA@_KAEBV?$allocator@Vrep_top_face2D@sg@tools@@@1@@Z
	??0?$vector@Vstyle@sg@tools@@V?$allocator@Vstyle@sg@tools@@@std@@@std@@QEAA@AEBV01@@Z
	??0?$vector@Vvec2f@tools@@V?$allocator@Vvec2f@tools@@@std@@@std@@QEAA@AEBV01@@Z
	??0?$vector@Vvec3f@tools@@V?$allocator@Vvec3f@tools@@@std@@@std@@QEAA@AEBV01@@Z
	??0?$vector@Vvec3f@tools@@V?$allocator@Vvec3f@tools@@@std@@@std@@QEAA@XZ
	??0?$vector@_JV?$allocator@_J@std@@@std@@QEAA@AEBV01@@Z
	??0?$vector@_KV?$allocator@_K@std@@@std@@QEAA@AEBV01@@Z
	??0BinData@G4AnalysisMessengerHelper@@QEAA@XZ
	??0CFnStr@ccontour@tools@@QEAA@XZ
	??0G4AccumulableManager@@AEAA@_N@Z
	??0G4AnalysisManagerState@@QEAA@AEBVG4String@@_N@Z
	??0G4AnalysisMessenger@@QEAA@PEAVG4VAnalysisManager@@@Z
	??0G4AnalysisMessengerHelper@@QEAA@AEBVG4String@@@Z
	??0G4AnalysisVerbose@@QEAA@AEBVG4String@@H@Z
	??0G4BaseAnalysisManager@@QEAA@AEBVG4AnalysisManagerState@@@Z
	??0G4BaseFileManager@@QEAA@AEBVG4AnalysisManagerState@@@Z
	??0G4BaseNtupleManager@@QEAA@AEBVG4AnalysisManagerState@@@Z
	??0G4BaseRNtupleManager@@QEAA@AEBVG4AnalysisManagerState@@@Z
	??0G4CsvAnalysisManager@@QEAA@_N@Z
	??0G4CsvAnalysisReader@@QEAA@_N@Z
	??0G4CsvFileManager@@QEAA@AEBVG4AnalysisManagerState@@@Z
	??0G4CsvNtupleManager@@QEAA@AEBVG4AnalysisManagerState@@@Z
	??0G4CsvRFileManager@@QEAA@AEBVG4AnalysisManagerState@@@Z
	??0G4CsvRNtupleManager@@IEAA@AEBVG4AnalysisManagerState@@@Z
	??0G4FileMessenger@@QEAA@PEAVG4VAnalysisManager@@@Z
	??0G4H1Messenger@@QEAA@PEAVG4VAnalysisManager@@@Z
	??0G4H1ToolsManager@@QEAA@AEBVG4AnalysisManagerState@@@Z
	??0G4H2Messenger@@QEAA@PEAVG4VAnalysisManager@@@Z
	??0G4H2ToolsManager@@QEAA@AEBVG4AnalysisManagerState@@@Z
	??0G4H3Messenger@@QEAA@PEAVG4VAnalysisManager@@@Z
	??0G4H3ToolsManager@@QEAA@AEBVG4AnalysisManagerState@@@Z
	??0G4HnInformation@@QEAA@AEBVG4String@@H@Z
	??0G4HnManager@@QEAA@AEBVG4String@@AEBVG4AnalysisManagerState@@@Z
	??0G4HnMessenger@@QEAA@AEAVG4HnManager@@@Z
	??0G4NtupleMessenger@@QEAA@PEAVG4VAnalysisManager@@@Z
	??0G4P1Messenger@@QEAA@PEAVG4VAnalysisManager@@@Z
	??0G4P1ToolsManager@@QEAA@AEBVG4AnalysisManagerState@@@Z
	??0G4P2Messenger@@QEAA@PEAVG4VAnalysisManager@@@Z
	??0G4P2ToolsManager@@QEAA@AEBVG4AnalysisManagerState@@@Z
	??0G4PlotManager@@QEAA@AEBVG4AnalysisManagerState@@@Z
	??0G4PlotMessenger@@QEAA@PEAVG4PlotParameters@@@Z
	??0G4PlotParameters@@QEAA@XZ
	??0G4RootAnalysisManager@@QEAA@_N@Z
	??0G4RootAnalysisReader@@QEAA@_N@Z
	??0G4RootFileManager@@QEAA@AEBVG4AnalysisManagerState@@@Z
	??0G4RootMainNtupleManager@@QEAA@PEAVG4RootNtupleManager@@_NAEBVG4AnalysisManagerState@@@Z
	??0G4RootNtupleManager@@QEAA@AEBVG4AnalysisManagerState@@H_N1@Z
	??0G4RootPNtupleDescription@@QEAA@XZ
	??0G4RootPNtupleManager@@QEAA@PEAVG4RootMainNtupleManager@@AEBVG4AnalysisManagerState@@_N2@Z
	??0G4RootRFileManager@@QEAA@AEBVG4AnalysisManagerState@@@Z
	??0G4RootRNtupleManager@@IEAA@AEBVG4AnalysisManagerState@@@Z
	??0G4ToolsAnalysisManager@@QEAA@AEBVG4String@@_N@Z
	??0G4ToolsAnalysisReader@@QEAA@AEBVG4String@@_N@Z
	??0G4VAnalysisManager@@QEAA@AEBVG4String@@_N@Z
	??0G4VAnalysisReader@@QEAA@AEBVG4String@@_N@Z
	??0G4VFileManager@@QEAA@AEBVG4AnalysisManagerState@@@Z
	??0G4XmlAnalysisManager@@QEAA@_N@Z
	??0G4XmlAnalysisReader@@QEAA@_N@Z
	??0G4XmlFileManager@@QEAA@AEBVG4AnalysisManagerState@@@Z
	??0G4XmlNtupleManager@@QEAA@AEBVG4AnalysisManagerState@@@Z
	??0G4XmlRFileManager@@QEAA@AEBVG4AnalysisManagerState@@@Z
	??0G4XmlRNtupleManager@@IEAA@AEBVG4AnalysisManagerState@@@Z
	??0ValueData@G4AnalysisMessengerHelper@@QEAA@XZ
	??0aida_col_ntu@aida@tools@@QEAA@AEAV?$basic_ostream@DU?$char_traits@D@std@@@std@@AEBV?$basic_string@DU?$char_traits@D@std@@V?$allocator@D@2@@4@@Z
	??0atb_vertices@sg@tools@@QEAA@XZ
	??0axis@sg@tools@@QEAA@AEBV012@@Z
	??0axis@sg@tools@@QEAA@AEBVbase_freetype@12@@Z
	??0back_area@sg@tools@@QEAA@AEBV012@@Z
	??0back_area@sg@tools@@QEAA@XZ
	??0bad_alloc@std@@QEAA@AEBV01@@Z
	??0bad_array_new_length@std@@QEAA@AEBV01@@Z
	??0bad_array_new_length@std@@QEAA@XZ
	??0bad_cast@std@@QEAA@AEBV01@@Z
	??0bad_cast@std@@QEAA@XZ
	??0base_camera@sg@tools@@IEAA@AEBV012@@Z
	??0base_camera@sg@tools@@IEAA@XZ
	??0base_freetype@sg@tools@@QEAA@AEBV012@@Z
	??0base_leaf@rroot@tools@@QEAA@AEAV?$basic_ostream@DU?$char_traits@D@std@@@std@@AEAVifac@12@@Z
	??0base_leaf@wroot@tools@@QEAA@AEAV?$basic_ostream@DU?$char_traits@D@std@@@std@@AEBV?$basic_string@DU?$char_traits@D@std@@V?$allocator@D@2@@4@1@Z
	??0base_ntu@aida@tools@@IEAA@AEBV012@@Z
	??0base_pntuple_column_wise@wroot@tools@@QEAA@AEAV?$basic_ostream@DU?$char_traits@D@std@@@std@@_NI_JAEBV?$vector@IV?$allocator@I@std@@@4@AEBVntuple_booking@2@1@Z
	??0base_pntuple_row_wise@wroot@tools@@QEAA@AEAV?$basic_ostream@DU?$char_traits@D@std@@@std@@_NI_JIAEBVntuple_booking@2@1@Z
	??0base_text@sg@tools@@IEAA@AEBV012@@Z
	??0base_text@sg@tools@@QEAA@XZ
	??0basket@rroot@tools@@QEAA@AEBV012@@Z
	??0basket@wroot@tools@@QEAA@AEAV?$basic_ostream@DU?$char_traits@D@std@@@std@@_N_JAEBV?$basic_string@DU?$char_traits@D@std@@V?$allocator@D@2@@4@33I1@Z
	??0bbox_action@sg@tools@@QEAA@AEAV?$basic_ostream@DU?$char_traits@D@std@@@std@@@Z
	??0branch@rroot@tools@@IEAA@AEBV012@@Z
	??0branch@rroot@tools@@QEAA@AEAV?$basic_ostream@DU?$char_traits@D@std@@@std@@AEAVifac@12@@Z
	??0branch@wroot@tools@@QEAA@AEAV?$basic_ostream@DU?$char_traits@D@std@@@std@@_NI_JAEBV?$basic_string@DU?$char_traits@D@std@@V?$allocator@D@2@@4@31@Z
	??0buffer@rroot@tools@@QEAA@AEAV?$basic_ostream@DU?$char_traits@D@std@@@std@@_NIPEADI1@Z
	??0buffer@wroot@tools@@QEAA@AEAV?$basic_ostream@DU?$char_traits@D@std@@@std@@_NI@Z
	??0by_value_colormap@sg@tools@@QEAA@AEAV?$basic_ostream@DU?$char_traits@D@std@@@std@@AEBV?$map@V?$basic_string@DU?$char_traits@D@std@@V?$allocator@D@2@@std@@Vstyle_colormap@sg@tools@@U?$less@V?$basic_string@DU?$char_traits@D@std@@V?$allocator@D@2@@std@@@2@V?$allocator@U?$pair@$$CBV?$basic_string@DU?$char_traits@D@std@@V?$allocator@D@2@@std@@Vstyle_colormap@sg@tools@@@std@@@2@@4@AEBV?$basic_string@DU?$char_traits@D@std@@V?$allocator@D@2@@4@@Z
	??0charp_out@tools@@QEAA@PEBD@Z
	??0clist_contour@tools@@QEAA@XZ
	??0column_string@base_pntuple@wroot@tools@@QEAA@AEAVbranch@23@AEBV?$basic_string@DU?$char_traits@D@std@@V?$allocator@D@2@@std@@1@Z
	??0column_string_ref@base_pntuple@wroot@tools@@QEAA@AEAVbranch@23@AEBV?$basic_string@DU?$char_traits@D@std@@V?$allocator@D@2@@std@@1@Z
	??0column_string_ref@ntuple@rroot@tools@@QEAA@AEAVifile@23@AEAVbranch@23@AEAVleaf_string@23@AEA_JAEAV?$basic_string@DU?$char_traits@D@std@@V?$allocator@D@2@@std@@@Z
	??0column_string_ref@ntuple@wroot@tools@@QEAA@AEAVbranch@23@AEBV?$basic_string@DU?$char_traits@D@std@@V?$allocator@D@2@@std@@1@Z
	??0column_vector_string@base_pntuple@wroot@tools@@QEAA@AEAVbranch@23@AEBV?$basic_string@DU?$char_traits@D@std@@V?$allocator@D@2@@std@@AEBV?$vector@V?$basic_string@DU?$char_traits@D@std@@V?$allocator@D@2@@std@@V?$allocator@V?$basic_string@DU?$char_traits@D@std@@V?$allocator@D@2@@std@@@2@@6@D@Z
	??0column_vector_string@ntuple@rroot@tools@@QEAA@AEAVifile@23@AEAVbranch@23@AEAVleaf_string@23@AEA_JD@Z
	??0column_vector_string_ref@base_pntuple@wroot@tools@@QEAA@AEAVbranch@23@AEBV?$basic_string@DU?$char_traits@D@std@@V?$allocator@D@2@@std@@AEBV?$vector@V?$basic_string@DU?$char_traits@D@std@@V?$allocator@D@2@@std@@V?$allocator@V?$basic_string@DU?$char_traits@D@std@@V?$allocator@D@2@@std@@@2@@6@D@Z
	??0column_vector_string_ref@ntuple@rroot@tools@@QEAA@AEAVifile@23@AEAVbranch@23@AEAVleaf_string@23@AEA_JAEAV?$vector@V?$basic_string@DU?$char_traits@D@std@@V?$allocator@D@2@@std@@V?$allocator@V?$basic_string@DU?$char_traits@D@std@@V?$allocator@D@2@@std@@@2@@std@@D@Z
	??0column_vector_string_ref@ntuple@wroot@tools@@QEAA@AEAVbranch@23@AEBV?$basic_string@DU?$char_traits@D@std@@V?$allocator@D@2@@std@@AEBV?$vector@V?$basic_string@DU?$char_traits@D@std@@V?$allocator@D@2@@std@@V?$allocator@V?$basic_string@DU?$char_traits@D@std@@V?$allocator@D@2@@std@@@2@@6@D@Z
	??0const_colormap@sg@tools@@QEAA@AEBVcolorf@2@@Z
	??0cubic@spline@tools@@QEAA@AEAV?$basic_ostream@DU?$char_traits@D@std@@@std@@_KQEAN2NN@Z
	??0data_point@histo@tools@@QEAA@AEBV012@@Z
	??0desc_fields@sg@tools@@QEAA@AEBV012@_KZZ
	??0directory@wroot@tools@@QEAA@AEAVifile@12@AEBV?$basic_string@DU?$char_traits@D@std@@V?$allocator@D@2@@std@@1@Z
	??0directory@wroot@tools@@QEAA@AEAVifile@12@PEAV012@AEBV?$basic_string@DU?$char_traits@D@std@@V?$allocator@D@2@@std@@2@Z
	??0draw_style@sg@tools@@QEAA@XZ
	??0ellipse@sg@tools@@QEAA@AEBV012@@Z
	??0exception@std@@QEAA@AEBV01@@Z
	??0field_desc@sg@tools@@QEAA@AEBV012@@Z
	??0field_desc@sg@tools@@QEAA@AEBV?$basic_string@DU?$char_traits@D@std@@V?$allocator@D@2@@std@@0_J_N@Z
	??0field_desc_enums@sg@tools@@QEAA@AEBV?$basic_string@DU?$char_traits@D@std@@V?$allocator@D@2@@std@@0_J_N_KZZ
	??0field_desc_opts@sg@tools@@QEAA@AEBV?$basic_string@DU?$char_traits@D@std@@V?$allocator@D@2@@std@@0_J_N_KZZ
	??0file@rroot@tools@@QEAA@AEAV?$basic_ostream@DU?$char_traits@D@std@@@std@@AEBV?$basic_string@DU?$char_traits@D@std@@V?$allocator@D@2@@4@_N@Z
	??0file@wroot@tools@@QEAA@AEAV?$basic_ostream@DU?$char_traits@D@std@@@std@@AEBV?$basic_string@DU?$char_traits@D@std@@V?$allocator@D@2@@4@_N@Z
	??0grey_scale_colormap@sg@tools@@QEAA@MM_K@Z
	??0grey_scale_inverse_colormap@sg@tools@@QEAA@MM_K@Z
	??0group@sg@tools@@QEAA@AEBV012@@Z
	??0h1d2plot@sg@tools@@QEAA@AEBVh1d@histo@2@@Z
	??0h1d@histo@tools@@QEAA@AEBV?$basic_string@DU?$char_traits@D@std@@V?$allocator@D@2@@std@@INN@Z
	??0h2d2plot@sg@tools@@QEAA@AEBVh2d@histo@2@@Z
	??0h2d@histo@tools@@QEAA@AEBV?$basic_string@DU?$char_traits@D@std@@V?$allocator@D@2@@std@@AEBV?$vector@NV?$allocator@N@std@@@4@1@Z
	??0h2d@histo@tools@@QEAA@AEBV?$basic_string@DU?$char_traits@D@std@@V?$allocator@D@2@@std@@INNINN@Z
	??0h3d@histo@tools@@QEAA@AEBV?$basic_string@DU?$char_traits@D@std@@V?$allocator@D@2@@std@@AEBV?$vector@NV?$allocator@N@std@@@4@11@Z
	??0h3d@histo@tools@@QEAA@AEBV?$basic_string@DU?$char_traits@D@std@@V?$allocator@D@2@@std@@INNINNINN@Z
	??0infos_box@sg@tools@@QEAA@AEBV012@@Z
	??0infos_box@sg@tools@@QEAA@AEBVbase_freetype@12@@Z
	??0iros@rroot@tools@@QEAA@AEBV012@@Z
	??0key@rroot@tools@@QEAA@AEAV?$basic_ostream@DU?$char_traits@D@std@@@std@@@Z
	??0key@rroot@tools@@QEAA@AEAV?$basic_ostream@DU?$char_traits@D@std@@@std@@_JI@Z
	??0key@wroot@tools@@QEAA@AEAV?$basic_ostream@DU?$char_traits@D@std@@@std@@AEAVifile@12@_JAEBV?$basic_string@DU?$char_traits@D@std@@V?$allocator@D@2@@4@33I@Z
	??0leaf_string_ref@wroot@tools@@QEAA@AEAV?$basic_ostream@DU?$char_traits@D@std@@@std@@AEBV?$basic_string@DU?$char_traits@D@std@@V?$allocator@D@2@@4@1@Z
	??0legend@sg@tools@@QEAA@AEBV012@@Z
	??0legend@sg@tools@@QEAA@AEBVbase_freetype@12@@Z
	??0line_style@sg@tools@@QEAA@AEBV012@@Z
	??0line_style@sg@tools@@QEAA@XZ
	??0long_out@tools@@QEAA@J@Z
	??0looper@xml@tools@@QEAA@AEBVtree@12@@Z
	??0markers@sg@tools@@QEAA@XZ
	??0mat4f@tools@@QEAA@AEBV01@@Z
	??0matrix@sg@tools@@QEAA@XZ
	??0matrix_action@sg@tools@@QEAA@AEAV?$basic_ostream@DU?$char_traits@D@std@@@std@@II@Z
	??0matrix_action@sg@tools@@QEAA@AEBV012@@Z
	??0normal@sg@tools@@QEAA@XZ
	??0ntuple@waxml@tools@@QEAA@AEAV?$basic_ostream@DU?$char_traits@D@std@@@std@@0AEBVntuple_booking@2@I@Z
	??0ntuple@wcsv@tools@@QEAA@AEAV?$basic_ostream@DU?$char_traits@D@std@@@std@@0AEBVntuple_booking@2@DD@Z
	??0ntuple@wroot@tools@@QEAA@AEAVidir@12@AEBVntuple_booking@2@_N@Z
	??0obj_list@rroot@tools@@QEAA@AEAVifac@12@@Z
	??0obj_list@rroot@tools@@QEAA@AEBV012@@Z
	??0ortho@sg@tools@@QEAA@AEBV012@@Z
	??0p1d2plot@sg@tools@@QEAA@AEBVp1d@histo@2@@Z
	??0p1d@histo@tools@@QEAA@AEBV?$basic_string@DU?$char_traits@D@std@@V?$allocator@D@2@@std@@INN@Z
	??0p2d@histo@tools@@QEAA@AEBV?$basic_string@DU?$char_traits@D@std@@V?$allocator@D@2@@std@@INNINN@Z
	??0plots@sg@tools@@QEAA@AEBV012@@Z
	??0plots@sg@tools@@QEAA@AEBVbase_freetype@12@@Z
	??0plots_viewer@sg@tools@@QEAA@AEAV?$basic_ostream@DU?$char_traits@D@std@@@std@@AEBVbase_freetype@12@IIII@Z
	??0plotter@sg@tools@@QEAA@AEBV012@@Z
	??0plotter@sg@tools@@QEAA@AEBVbase_freetype@12@@Z
	??0point@zb@tools@@QEAA@XZ
	??0raxml@tools@@QEAA@AEAVfactory@xml@1@AEAV?$basic_ostream@DU?$char_traits@D@std@@@std@@_N@Z
	??0raxml_out@tools@@QEAA@AEBV01@@Z
	??0raxml_out@tools@@QEAA@PEAVbase_handle@1@AEBV?$basic_string@DU?$char_traits@D@std@@V?$allocator@D@2@@std@@11@Z
	??0raxml_out@tools@@QEAA@XZ
	??0rgba@sg@tools@@QEAA@XZ
	??0rotf@tools@@QEAA@AEBVvec3f@1@M@Z
	??0sout@tools@@QEAA@AEBV?$basic_string@DU?$char_traits@D@std@@V?$allocator@D@2@@std@@@Z
	??0state@sg@tools@@QEAA@AEBV012@@Z
	??0state@sg@tools@@QEAA@XZ
	??0streamer_base@wroot@tools@@QEAA@AEBV?$basic_string@DU?$char_traits@D@std@@V?$allocator@D@2@@std@@0HH@Z
	??0streamer_basic_pointer@wroot@tools@@QEAA@AEBV?$basic_string@DU?$char_traits@D@std@@V?$allocator@D@2@@std@@0HH00H0@Z
	??0streamer_basic_type@wroot@tools@@QEAA@AEBV?$basic_string@DU?$char_traits@D@std@@V?$allocator@D@2@@std@@0HH0@Z
	??0streamer_bool@wroot@tools@@QEAA@AEAHAEBV?$basic_string@DU?$char_traits@D@std@@V?$allocator@D@2@@std@@1@Z
	??0streamer_double@wroot@tools@@QEAA@AEAHAEBV?$basic_string@DU?$char_traits@D@std@@V?$allocator@D@2@@std@@1@Z
	??0streamer_element@rroot@tools@@IEAA@AEBV012@@Z
	??0streamer_element@wroot@tools@@IEAA@AEBV012@@Z
	??0streamer_element@wroot@tools@@QEAA@AEBV?$basic_string@DU?$char_traits@D@std@@V?$allocator@D@2@@std@@0HH0@Z
	??0streamer_float@wroot@tools@@QEAA@AEAHAEBV?$basic_string@DU?$char_traits@D@std@@V?$allocator@D@2@@std@@1@Z
	??0streamer_info@wroot@tools@@QEAA@AEBV?$basic_string@DU?$char_traits@D@std@@V?$allocator@D@2@@std@@HI@Z
	??0streamer_int@wroot@tools@@QEAA@AEAHAEBV?$basic_string@DU?$char_traits@D@std@@V?$allocator@D@2@@std@@1@Z
	??0streamer_int@wroot@tools@@QEAA@AEBV?$basic_string@DU?$char_traits@D@std@@V?$allocator@D@2@@std@@0H@Z
	??0streamer_object@wroot@tools@@QEAA@AEBV?$basic_string@DU?$char_traits@D@std@@V?$allocator@D@2@@std@@0H0@Z
	??0streamer_object_any@wroot@tools@@QEAA@AEBV?$basic_string@DU?$char_traits@D@std@@V?$allocator@D@2@@std@@0H0@Z
	??0streamer_object_pointer@wroot@tools@@QEAA@AEBV?$basic_string@DU?$char_traits@D@std@@V?$allocator@D@2@@std@@0H0@Z
	??0streamer_short@wroot@tools@@QEAA@AEAHAEBV?$basic_string@DU?$char_traits@D@std@@V?$allocator@D@2@@std@@1@Z
	??0streamer_stat_t@wroot@tools@@QEAA@AEAHAEBV?$basic_string@DU?$char_traits@D@std@@V?$allocator@D@2@@std@@1@Z
	??0streamer_string@wroot@tools@@QEAA@AEAHAEBV?$basic_string@DU?$char_traits@D@std@@V?$allocator@D@2@@std@@1@Z
	??0streamer_string@wroot@tools@@QEAA@AEBV?$basic_string@DU?$char_traits@D@std@@V?$allocator@D@2@@std@@0H@Z
	??0streamer_uint@wroot@tools@@QEAA@AEAHAEBV?$basic_string@DU?$char_traits@D@std@@V?$allocator@D@2@@std@@1@Z
	??0streamer_uint@wroot@tools@@QEAA@AEBV?$basic_string@DU?$char_traits@D@std@@V?$allocator@D@2@@std@@0H@Z
	??0style@sg@tools@@QEAA@AEBV012@@Z
	??0style@sg@tools@@QEAA@XZ
	??0style_color@sg@tools@@QEAA@XZ
	??0style_default_colormap@sg@tools@@QEAA@XZ
	??0style_parser@sg@tools@@QEAA@XZ
	??0styles@xml@tools@@QEAA@AEAV?$basic_ostream@DU?$char_traits@D@std@@@std@@@Z
	??0text@sg@tools@@QEAA@AEBV012@@Z
	??0text@sg@tools@@QEAA@AEBVbase_freetype@12@@Z
	??0text_hershey@sg@tools@@QEAA@XZ
	??0text_style@sg@tools@@QEAA@AEBV012@@Z
	??0text_style@sg@tools@@QEAA@XZ
	??0torche@sg@tools@@QEAA@XZ
	??0value@tools@@QEAA@AEBV01@@Z
	??0value@tools@@QEAA@AEBV?$basic_string@DU?$char_traits@D@std@@V?$allocator@D@2@@std@@@Z
	??0vec3f@tools@@QEAA@XZ
	??0vertices@sg@tools@@QEAA@AEBV012@@Z
	??0vertices@sg@tools@@QEAA@XZ
	??0viewplot@tools@@QEAA@AEAV?$basic_ostream@DU?$char_traits@D@std@@@std@@IIII@Z
	??0violet_to_red_colormap@sg@tools@@QEAA@MM_K@Z
	??0wps@tools@@QEAA@AEAV?$basic_ostream@DU?$char_traits@D@std@@@std@@@Z
	??0zb_action@sg@tools@@QEAA@AEAVzb_manager@12@AEAV?$basic_ostream@DU?$char_traits@D@std@@@std@@II@Z
	??1?$G4THnManager@Vh1d@histo@tools@@@@UEAA@XZ
	??1?$G4THnManager@Vh2d@histo@tools@@@@UEAA@XZ
	??1?$G4THnManager@Vh3d@histo@tools@@@@UEAA@XZ
	??1?$G4THnManager@Vp1d@histo@tools@@@@UEAA@XZ
	??1?$G4THnManager@Vp2d@histo@tools@@@@UEAA@XZ
	??1?$G4TNtupleManager@Vntuple@waxml@tools@@@@UEAA@XZ
	??1?$G4TNtupleManager@Vntuple@wcsv@tools@@@@UEAA@XZ
	??1?$G4TNtupleManager@Vntuple@wroot@tools@@@@UEAA@XZ
	??1?$G4TRNtupleDescription@Vntuple@aida@tools@@@@QEAA@XZ
	??1?$G4TRNtupleDescription@Vntuple@rcsv@tools@@@@QEAA@XZ
	??1?$G4TRNtupleDescription@Vntuple@rroot@tools@@@@QEAA@XZ
	??1?$G4TRNtupleManager@Vntuple@aida@tools@@@@MEAA@XZ
	??1?$G4TRNtupleManager@Vntuple@rcsv@tools@@@@MEAA@XZ
	??1?$G4TRNtupleManager@Vntuple@rroot@tools@@@@MEAA@XZ
	??1?$G4TemplateAutoLock@Vmutex@std@@@@QEAA@XZ
	??1?$_Alloc_construct_ptr@V?$allocator@U?$_List_node@IPEAX@std@@@std@@@std@@QEAA@XZ
	??1?$_Alloc_construct_ptr@V?$allocator@U?$_List_node@PEAV?$list@IV?$allocator@I@std@@@std@@PEAX@std@@@std@@@std@@QEAA@XZ
	??1?$_Alloc_construct_ptr@V?$allocator@U?$_List_node@PEAVfree_seg@wroot@tools@@PEAX@std@@@std@@@std@@QEAA@XZ
	??1?$_Alloc_construct_ptr@V?$allocator@U?$_List_node@PEAVielem@xml@tools@@PEAX@std@@@std@@@std@@QEAA@XZ
	??1?$_Alloc_construct_ptr@V?$allocator@U?$_List_node@PEAVkey@wroot@tools@@PEAX@std@@@std@@@std@@QEAA@XZ
	??1?$_Alloc_construct_ptr@V?$allocator@U?$_Tree_node@U?$pair@$$CBDP6A_NAEAV?$basic_ostream@DU?$char_traits@D@std@@@std@@IIPEBDIPEADAEAI@Z@std@@PEAX@std@@@std@@@std@@QEAA@XZ
	??1?$_Alloc_construct_ptr@V?$allocator@U?$_Tree_node@U?$pair@$$CBDP6A_NAEAV?$basic_ostream@DU?$char_traits@D@std@@@std@@IPEBDIPEADAEAI@Z@std@@PEAX@std@@@std@@@std@@QEAA@XZ
	??1?$_Alloc_construct_ptr@V?$allocator@U?$_Tree_node@U?$pair@$$CBDPEAX@std@@PEAX@std@@@std@@@std@@QEAA@XZ
	??1?$_Alloc_construct_ptr@V?$allocator@U?$_Tree_node@U?$pair@$$CBIPEAViro@rroot@tools@@@std@@PEAX@std@@@std@@@std@@QEAA@XZ
	??1?$_Alloc_construct_ptr@V?$allocator@U?$_Tree_node@U?$pair@$$CBIU?$pair@PEAVbasket@rroot@tools@@_N@std@@@std@@PEAX@std@@@std@@@std@@QEAA@XZ
	??1?$_Alloc_construct_ptr@V?$allocator@U?$_Tree_node@U?$pair@$$CBIV?$img@E@tools@@@std@@PEAX@std@@@std@@@std@@QEAA@XZ
	??1?$_Alloc_construct_ptr@V?$allocator@U?$_Tree_node@U?$pair@$$CBIVcolorf@tools@@@std@@PEAX@std@@@std@@@std@@QEAA@XZ
	??1?$_Alloc_construct_ptr@V?$allocator@U?$_Tree_node@U?$pair@$$CBIVstyle_color@sg@tools@@@std@@PEAX@std@@@std@@@std@@QEAA@XZ
	??1?$_Alloc_construct_ptr@V?$allocator@U?$_Tree_node@U?$pair@$$CBV?$basic_string@DU?$char_traits@D@std@@V?$allocator@D@2@@std@@I@std@@PEAX@std@@@std@@@std@@QEAA@XZ
	??1?$_Alloc_construct_ptr@V?$allocator@U?$_Tree_node@U?$pair@$$CBV?$basic_string@DU?$char_traits@D@std@@V?$allocator@D@2@@std@@P6A?AVraxml_out@tools@@AEAVtree@xml@4@AEAV?$basic_ostream@DU?$char_traits@D@std@@@2@_NPEAX@Z@std@@PEAX@std@@@std@@@std@@QEAA@XZ
	??1?$_Alloc_construct_ptr@V?$allocator@U?$_Tree_node@U?$pair@$$CBV?$basic_string@DU?$char_traits@D@std@@V?$allocator@D@2@@std@@V12@@std@@PEAX@std@@@std@@@std@@QEAA@XZ
	??1?$_Alloc_construct_ptr@V?$allocator@U?$_Tree_node@U?$pair@$$CBV?$basic_string@DU?$char_traits@D@std@@V?$allocator@D@2@@std@@Vstyle_colormap@sg@tools@@@std@@PEAX@std@@@std@@@std@@QEAA@XZ
	??1?$_Alloc_construct_ptr@V?$allocator@U?$_Tree_node@U?$pair@$$CBVG4String@@H@std@@PEAX@std@@@std@@@std@@QEAA@XZ
	??1?$_Alloc_construct_ptr@V?$allocator@U?$_Tree_node@U?$pair@$$CBVG4String@@PEAV?$basic_ifstream@DU?$char_traits@D@std@@@std@@@std@@PEAX@std@@@std@@@std@@QEAA@XZ
	??1?$_Alloc_construct_ptr@V?$allocator@U?$_Tree_node@U?$pair@$$CBVG4String@@PEAVG4VAccumulable@@@std@@PEAX@std@@@std@@@std@@QEAA@XZ
	??1?$_Alloc_construct_ptr@V?$allocator@U?$_Tree_node@U?$pair@$$CBVG4String@@PEAVfile@rroot@tools@@@std@@PEAX@std@@@std@@@std@@QEAA@XZ
	??1?$_Alloc_construct_ptr@V?$allocator@U?$_Tree_node@U?$pair@$$CBVG4String@@PEAVraxml@tools@@@std@@PEAX@std@@@std@@@std@@QEAA@XZ
	??1?$_Alloc_construct_ptr@V?$allocator@U?$_Tree_node@U?$pair@$$CBVcolorf@tools@@I@std@@PEAX@std@@@std@@@std@@QEAA@XZ
	??1?$_Alloc_construct_ptr@V?$allocator@U?$_Tree_node@U?$pair@QEAVibo@wroot@tools@@I@std@@PEAX@std@@@std@@@std@@QEAA@XZ
	??1?$_Alloc_construct_ptr@V?$allocator@U?$_Tree_node@U?$pair@QEAVntuple@aida@tools@@PEAV?$vector@HV?$allocator@H@std@@@std@@@std@@PEAX@std@@@std@@@std@@QEAA@XZ
	??1?$_Alloc_construct_ptr@V?$allocator@U?$_Tree_node@U?$pair@QEAVntuple@aida@tools@@PEAV?$vector@MV?$allocator@M@std@@@std@@@std@@PEAX@std@@@std@@@std@@QEAA@XZ
	??1?$_Alloc_construct_ptr@V?$allocator@U?$_Tree_node@U?$pair@QEAVntuple@aida@tools@@PEAV?$vector@NV?$allocator@N@std@@@std@@@std@@PEAX@std@@@std@@@std@@QEAA@XZ
	??1?$_List_node_insert_op@V?$allocator@U?$_List_node@PEAV?$list@IV?$allocator@I@std@@@std@@PEAX@std@@@std@@@std@@QEAA@XZ
	??1?$_Tidy_guard@V?$vector@U?$pair@V?$basic_string@DU?$char_traits@D@std@@V?$allocator@D@2@@std@@H@std@@V?$allocator@U?$pair@V?$basic_string@DU?$char_traits@D@std@@V?$allocator@D@2@@std@@H@std@@@2@@std@@@std@@QEAA@XZ
	??1?$_Tidy_guard@V?$vector@V?$axis@NI@histo@tools@@V?$allocator@V?$axis@NI@histo@tools@@@std@@@std@@@std@@QEAA@XZ
	??1?$_Tidy_guard@V?$vector@V?$basic_string@DU?$char_traits@D@std@@V?$allocator@D@2@@std@@V?$allocator@V?$basic_string@DU?$char_traits@D@std@@V?$allocator@D@2@@std@@@2@@std@@@std@@QEAA@XZ
	??1?$_Tidy_guard@V?$vector@V?$vector@FV?$allocator@F@std@@@std@@V?$allocator@V?$vector@FV?$allocator@F@std@@@std@@@2@@std@@@std@@QEAA@XZ
	??1?$_Tidy_guard@V?$vector@V?$vector@GV?$allocator@G@std@@@std@@V?$allocator@V?$vector@GV?$allocator@G@std@@@std@@@2@@std@@@std@@QEAA@XZ
	??1?$_Tidy_guard@V?$vector@V?$vector@HV?$allocator@H@std@@@std@@V?$allocator@V?$vector@HV?$allocator@H@std@@@std@@@2@@std@@@std@@QEAA@XZ
	??1?$_Tidy_guard@V?$vector@V?$vector@IV?$allocator@I@std@@@std@@V?$allocator@V?$vector@IV?$allocator@I@std@@@std@@@2@@std@@@std@@QEAA@XZ
	??1?$_Tidy_guard@V?$vector@V?$vector@MV?$allocator@M@std@@@std@@V?$allocator@V?$vector@MV?$allocator@M@std@@@std@@@2@@std@@@std@@QEAA@XZ
	??1?$_Tidy_guard@V?$vector@V?$vector@NV?$allocator@N@std@@@std@@V?$allocator@V?$vector@NV?$allocator@N@std@@@std@@@2@@std@@@std@@QEAA@XZ
	??1?$_Tidy_guard@V?$vector@V?$vector@Vvec3f@tools@@V?$allocator@Vvec3f@tools@@@std@@@std@@V?$allocator@V?$vector@Vvec3f@tools@@V?$allocator@Vvec3f@tools@@@std@@@std@@@2@@std@@@std@@QEAA@XZ
	??1?$_Tidy_guard@V?$vector@Vntuple@aida@tools@@V?$allocator@Vntuple@aida@tools@@@std@@@std@@@std@@QEAA@XZ
	??1?$_Tidy_guard@V?$vector@Vstyle@sg@tools@@V?$allocator@Vstyle@sg@tools@@@std@@@std@@@std@@QEAA@XZ
	??1?$_Tree_head_scoped_ptr@V?$allocator@U?$_Tree_node@U?$pair@$$CBIVstyle_color@sg@tools@@@std@@PEAX@std@@@std@@V?$_Tree_val@U?$_Tree_simple_types@U?$pair@$$CBIVstyle_color@sg@tools@@@std@@@std@@@2@@std@@QEAA@XZ
	??1?$_Tree_head_scoped_ptr@V?$allocator@U?$_Tree_node@U?$pair@$$CBV?$basic_string@DU?$char_traits@D@std@@V?$allocator@D@2@@std@@V12@@std@@PEAX@std@@@std@@V?$_Tree_val@U?$_Tree_simple_types@U?$pair@$$CBV?$basic_string@DU?$char_traits@D@std@@V?$allocator@D@2@@std@@V12@@std@@@std@@@2@@std@@QEAA@XZ
	??1?$_Tree_head_scoped_ptr@V?$allocator@U?$_Tree_node@U?$pair@$$CBV?$basic_string@DU?$char_traits@D@std@@V?$allocator@D@2@@std@@Vstyle_colormap@sg@tools@@@std@@PEAX@std@@@std@@V?$_Tree_val@U?$_Tree_simple_types@U?$pair@$$CBV?$basic_string@DU?$char_traits@D@std@@V?$allocator@D@2@@std@@Vstyle_colormap@sg@tools@@@std@@@std@@@2@@std@@QEAA@XZ
	??1?$_Tree_temp_node_alloc@V?$allocator@U?$_Tree_node@U?$pair@$$CBIVstyle_color@sg@tools@@@std@@PEAX@std@@@std@@@std@@QEAA@XZ
	??1?$_Tree_temp_node_alloc@V?$allocator@U?$_Tree_node@U?$pair@$$CBV?$basic_string@DU?$char_traits@D@std@@V?$allocator@D@2@@std@@I@std@@PEAX@std@@@std@@@std@@QEAA@XZ
	??1?$_Tree_temp_node_alloc@V?$allocator@U?$_Tree_node@U?$pair@$$CBV?$basic_string@DU?$char_traits@D@std@@V?$allocator@D@2@@std@@P6A?AVraxml_out@tools@@AEAVtree@xml@4@AEAV?$basic_ostream@DU?$char_traits@D@std@@@2@_NPEAX@Z@std@@PEAX@std@@@std@@@std@@QEAA@XZ
	??1?$_Tree_temp_node_alloc@V?$allocator@U?$_Tree_node@U?$pair@$$CBV?$basic_string@DU?$char_traits@D@std@@V?$allocator@D@2@@std@@V12@@std@@PEAX@std@@@std@@@std@@QEAA@XZ
	??1?$_Tree_temp_node_alloc@V?$allocator@U?$_Tree_node@U?$pair@$$CBV?$basic_string@DU?$char_traits@D@std@@V?$allocator@D@2@@std@@Vstyle_colormap@sg@tools@@@std@@PEAX@std@@@std@@@std@@QEAA@XZ
	??1?$_Tree_temp_node_alloc@V?$allocator@U?$_Tree_node@U?$pair@$$CBVG4String@@H@std@@PEAX@std@@@std@@@std@@QEAA@XZ
	??1?$_Tree_temp_node_alloc@V?$allocator@U?$_Tree_node@U?$pair@$$CBVG4String@@PEAV?$basic_ifstream@DU?$char_traits@D@std@@@std@@@std@@PEAX@std@@@std@@@std@@QEAA@XZ
	??1?$_Tree_temp_node_alloc@V?$allocator@U?$_Tree_node@U?$pair@$$CBVG4String@@PEAVG4VAccumulable@@@std@@PEAX@std@@@std@@@std@@QEAA@XZ
	??1?$_Tree_temp_node_alloc@V?$allocator@U?$_Tree_node@U?$pair@$$CBVG4String@@PEAVfile@rroot@tools@@@std@@PEAX@std@@@std@@@std@@QEAA@XZ
	??1?$_Tree_temp_node_alloc@V?$allocator@U?$_Tree_node@U?$pair@$$CBVG4String@@PEAVraxml@tools@@@std@@PEAX@std@@@std@@@std@@QEAA@XZ
	??1?$_Uninitialized_backout_al@V?$allocator@U?$pair@V?$basic_string@DU?$char_traits@D@std@@V?$allocator@D@2@@std@@H@std@@@std@@@std@@QEAA@XZ
	??1?$_Uninitialized_backout_al@V?$allocator@U?$pair@V?$basic_string@DU?$char_traits@D@std@@V?$allocator@D@2@@std@@V12@@std@@@std@@@std@@QEAA@XZ
	??1?$_Uninitialized_backout_al@V?$allocator@UG4HnDimensionInformation@@@std@@@std@@QEAA@XZ
	??1?$_Uninitialized_backout_al@V?$allocator@Uyystype@G4UItokenNum@@@std@@@std@@QEAA@XZ
	??1?$_Uninitialized_backout_al@V?$allocator@V?$axis@NI@histo@tools@@@std@@@std@@QEAA@XZ
	??1?$_Uninitialized_backout_al@V?$allocator@V?$basic_string@DU?$char_traits@D@std@@V?$allocator@D@2@@std@@@std@@@std@@QEAA@XZ
	??1?$_Uninitialized_backout_al@V?$allocator@V?$list@PEAV?$list@IV?$allocator@I@std@@@std@@V?$allocator@PEAV?$list@IV?$allocator@I@std@@@std@@@2@@std@@@std@@@std@@QEAA@XZ
	??1?$_Uninitialized_backout_al@V?$allocator@V?$vector@FV?$allocator@F@std@@@std@@@std@@@std@@QEAA@XZ
	??1?$_Uninitialized_backout_al@V?$allocator@V?$vector@GV?$allocator@G@std@@@std@@@std@@@std@@QEAA@XZ
	??1?$_Uninitialized_backout_al@V?$allocator@V?$vector@HV?$allocator@H@std@@@std@@@std@@@std@@QEAA@XZ
	??1?$_Uninitialized_backout_al@V?$allocator@V?$vector@IV?$allocator@I@std@@@std@@@std@@@std@@QEAA@XZ
	??1?$_Uninitialized_backout_al@V?$allocator@V?$vector@MV?$allocator@M@std@@@std@@@std@@@std@@QEAA@XZ
	??1?$_Uninitialized_backout_al@V?$allocator@V?$vector@NV?$allocator@N@std@@@std@@@std@@@std@@QEAA@XZ
	??1?$_Uninitialized_backout_al@V?$allocator@V?$vector@Vvec3f@tools@@V?$allocator@Vvec3f@tools@@@std@@@std@@@std@@@std@@QEAA@XZ
	??1?$_Uninitialized_backout_al@V?$allocator@V_text@hplot@tools@@@std@@@std@@QEAA@XZ
	??1?$_Uninitialized_backout_al@V?$allocator@Vcolbook@aidas@xml@tools@@@std@@@std@@QEAA@XZ
	??1?$_Uninitialized_backout_al@V?$allocator@Vcolumn_binding@tools@@@std@@@std@@QEAA@XZ
	??1?$_Uninitialized_backout_al@V?$allocator@Vcolumn_booking@tools@@@std@@@std@@QEAA@XZ
	??1?$_Uninitialized_backout_al@V?$allocator@Vdata_point@histo@tools@@@std@@@std@@QEAA@XZ
	??1?$_Uninitialized_backout_al@V?$allocator@Vfield_desc@sg@tools@@@std@@@std@@QEAA@XZ
	??1?$_Uninitialized_backout_al@V?$allocator@Vntuple@aida@tools@@@std@@@std@@QEAA@XZ
	??1?$_Uninitialized_backout_al@V?$allocator@Vpick_element@sg@tools@@@std@@@std@@QEAA@XZ
	??1?$_Uninitialized_backout_al@V?$allocator@Vraxml_out@tools@@@std@@@std@@QEAA@XZ
	??1?$_Uninitialized_backout_al@V?$allocator@Vstyle@sg@tools@@@std@@@std@@QEAA@XZ
	??1?$_Uninitialized_backout_al@V?$allocator@Vvalue@tools@@@std@@@std@@QEAA@XZ
	??1?$_Vb_val@V?$allocator@_N@std@@@std@@QEAA@XZ
	??1?$aida_col@F@aida@tools@@UEAA@XZ
	??1?$aida_col@G@aida@tools@@UEAA@XZ
	??1?$aida_col@H@aida@tools@@UEAA@XZ
	??1?$aida_col@I@aida@tools@@UEAA@XZ
	??1?$aida_col@M@aida@tools@@UEAA@XZ
	??1?$aida_col@N@aida@tools@@UEAA@XZ
	??1?$aida_col@V?$basic_string@DU?$char_traits@D@std@@V?$allocator@D@2@@std@@@aida@tools@@UEAA@XZ
	??1?$aida_col@_J@aida@tools@@UEAA@XZ
	??1?$aida_col@_K@aida@tools@@UEAA@XZ
	??1?$aida_col@_N@aida@tools@@UEAA@XZ
	??1?$array@F@tools@@UEAA@XZ
	??1?$array@G@tools@@UEAA@XZ
	??1?$array@H@tools@@UEAA@XZ
	??1?$array@I@tools@@UEAA@XZ
	??1?$array@M@tools@@UEAA@XZ
	??1?$array@N@tools@@UEAA@XZ
	??1?$array@V?$basic_string@DU?$char_traits@D@std@@V?$allocator@D@2@@std@@@tools@@UEAA@XZ
	??1?$array@_J@tools@@UEAA@XZ
	??1?$array@_K@tools@@UEAA@XZ
	??1?$array@_N@tools@@UEAA@XZ
	??1?$axis@NI@histo@tools@@UEAA@XZ
	??1?$b1@NIINN@histo@tools@@MEAA@XZ
	??1?$b2@NIINN@histo@tools@@MEAA@XZ
	??1?$b3@NIINN@histo@tools@@UEAA@XZ
	??1?$base_histo@NIINN@histo@tools@@MEAA@XZ
	??1?$basic_filebuf@DU?$char_traits@D@std@@@std@@UEAA@XZ
	??1?$basic_ifstream@DU?$char_traits@D@std@@@std@@UEAA@XZ
	??1?$basic_istringstream@DU?$char_traits@D@std@@V?$allocator@D@2@@std@@UEAA@XZ
	??1?$basic_ofstream@DU?$char_traits@D@std@@@std@@UEAA@XZ
	??1?$basic_ostringstream@DU?$char_traits@D@std@@V?$allocator@D@2@@std@@UEAA@XZ
	??1?$basic_string@DU?$char_traits@D@std@@V?$allocator@D@2@@std@@QEAA@XZ
	??1?$basic_stringbuf@DU?$char_traits@D@std@@V?$allocator@D@2@@std@@UEAA@XZ
	??1?$bmf@M@sg@tools@@UEAA@XZ
	??1?$bmf@V?$basic_string@DU?$char_traits@D@std@@V?$allocator@D@2@@std@@@sg@tools@@UEAA@XZ
	??1?$bmf@V?$vector@IV?$allocator@I@std@@@std@@@sg@tools@@UEAA@XZ
	??1?$bmf@Vvec2f@tools@@@sg@tools@@UEAA@XZ
	??1?$bmf@W4unit_type@plotter@sg@tools@@@sg@tools@@UEAA@XZ
	??1?$box3@Vvec3f@tools@@@tools@@UEAA@XZ
	??1?$bsf@E@sg@tools@@UEAA@XZ
	??1?$bsf@G@sg@tools@@UEAA@XZ
	??1?$bsf@H@sg@tools@@UEAA@XZ
	??1?$bsf@I@sg@tools@@UEAA@XZ
	??1?$bsf@M@sg@tools@@UEAA@XZ
	??1?$bsf@N@sg@tools@@UEAA@XZ
	??1?$bsf@V?$basic_string@DU?$char_traits@D@std@@V?$allocator@D@2@@std@@@sg@tools@@UEAA@XZ
	??1?$bsf@V?$img@E@tools@@@sg@tools@@UEAA@XZ
	??1?$bsf@Vcolorf@tools@@@sg@tools@@UEAA@XZ
	??1?$bsf@Vmat4f@tools@@@sg@tools@@UEAA@XZ
	??1?$bsf@Vrotf@tools@@@sg@tools@@UEAA@XZ
	??1?$bsf@Vvec3f@tools@@@sg@tools@@UEAA@XZ
	??1?$bsf@Vvec4f@tools@@@sg@tools@@UEAA@XZ
	??1?$bsf@W4area_style@sg@tools@@@sg@tools@@UEAA@XZ
	??1?$bsf@W4colormap_axis_labeling_type@plotter@sg@tools@@@sg@tools@@UEAA@XZ
	??1?$bsf@W4draw_type@sg@tools@@@sg@tools@@UEAA@XZ
	??1?$bsf@W4font_modeling@sg@tools@@@sg@tools@@UEAA@XZ
	??1?$bsf@W4font_type@sg@tools@@@sg@tools@@UEAA@XZ
	??1?$bsf@W4hatching_policy@sg@tools@@@sg@tools@@UEAA@XZ
	??1?$bsf@W4hjust@sg@tools@@@sg@tools@@UEAA@XZ
	??1?$bsf@W4marker_style@sg@tools@@@sg@tools@@UEAA@XZ
	??1?$bsf@W4painting_policy@sg@tools@@@sg@tools@@UEAA@XZ
	??1?$bsf@W4projection_type@sg@tools@@@sg@tools@@UEAA@XZ
	??1?$bsf@W4shape_type@plotter@sg@tools@@@sg@tools@@UEAA@XZ
	??1?$bsf@W4vjust@sg@tools@@@sg@tools@@UEAA@XZ
	??1?$bsf@W4winding_type@sg@tools@@@sg@tools@@UEAA@XZ
	??1?$bsf@_N@sg@tools@@UEAA@XZ
	??1?$clip@Vvec3f@tools@@@tools@@UEAA@XZ
	??1?$column@D@base_pntuple@wroot@tools@@UEAA@XZ
	??1?$column@D@ntuple@rcsv@tools@@UEAA@XZ
	??1?$column@D@ntuple@wcsv@tools@@UEAA@XZ
	??1?$column@D@ntuple@wroot@tools@@UEAA@XZ
	??1?$column@DV?$leaf@D@rroot@tools@@@ntuple@rroot@tools@@UEAA@XZ
	??1?$column@E@ntuple@rcsv@tools@@UEAA@XZ
	??1?$column@E@ntuple@wcsv@tools@@UEAA@XZ
	??1?$column@F@base_pntuple@wroot@tools@@UEAA@XZ
	??1?$column@F@ntuple@rcsv@tools@@UEAA@XZ
	??1?$column@F@ntuple@wcsv@tools@@UEAA@XZ
	??1?$column@F@ntuple@wroot@tools@@UEAA@XZ
	??1?$column@FV?$leaf@F@rroot@tools@@@ntuple@rroot@tools@@UEAA@XZ
	??1?$column@G@ntuple@rcsv@tools@@UEAA@XZ
	??1?$column@G@ntuple@wcsv@tools@@UEAA@XZ
	??1?$column@H@base_pntuple@wroot@tools@@UEAA@XZ
	??1?$column@H@ntuple@rcsv@tools@@UEAA@XZ
	??1?$column@H@ntuple@waxml@tools@@UEAA@XZ
	??1?$column@H@ntuple@wcsv@tools@@UEAA@XZ
	??1?$column@H@ntuple@wroot@tools@@UEAA@XZ
	??1?$column@HV?$leaf@H@rroot@tools@@@ntuple@rroot@tools@@UEAA@XZ
	??1?$column@I@ntuple@rcsv@tools@@UEAA@XZ
	??1?$column@I@ntuple@wcsv@tools@@UEAA@XZ
	??1?$column@M@base_pntuple@wroot@tools@@UEAA@XZ
	??1?$column@M@ntuple@rcsv@tools@@UEAA@XZ
	??1?$column@M@ntuple@waxml@tools@@UEAA@XZ
	??1?$column@M@ntuple@wcsv@tools@@UEAA@XZ
	??1?$column@M@ntuple@wroot@tools@@UEAA@XZ
	??1?$column@MV?$leaf@M@rroot@tools@@@ntuple@rroot@tools@@UEAA@XZ
	??1?$column@N@base_pntuple@wroot@tools@@UEAA@XZ
	??1?$column@N@ntuple@rcsv@tools@@UEAA@XZ
	??1?$column@N@ntuple@waxml@tools@@UEAA@XZ
	??1?$column@N@ntuple@wcsv@tools@@UEAA@XZ
	??1?$column@N@ntuple@wroot@tools@@UEAA@XZ
	??1?$column@NV?$leaf@D@rroot@tools@@@ntuple@rroot@tools@@UEAA@XZ
	??1?$column@NV?$leaf@F@rroot@tools@@@ntuple@rroot@tools@@UEAA@XZ
	??1?$column@NV?$leaf@H@rroot@tools@@@ntuple@rroot@tools@@UEAA@XZ
	??1?$column@NV?$leaf@M@rroot@tools@@@ntuple@rroot@tools@@UEAA@XZ
	??1?$column@NV?$leaf@N@rroot@tools@@@ntuple@rroot@tools@@UEAA@XZ
	??1?$column@V?$basic_string@DU?$char_traits@D@std@@V?$allocator@D@2@@std@@@ntuple@rcsv@tools@@UEAA@XZ
	??1?$column@V?$basic_string@DU?$char_traits@D@std@@V?$allocator@D@2@@std@@@ntuple@waxml@tools@@UEAA@XZ
	??1?$column@V?$basic_string@DU?$char_traits@D@std@@V?$allocator@D@2@@std@@@ntuple@wcsv@tools@@UEAA@XZ
	??1?$column@V?$vector@DV?$allocator@D@std@@@std@@@ntuple@rcsv@tools@@UEAA@XZ
	??1?$column@V?$vector@EV?$allocator@E@std@@@std@@@ntuple@rcsv@tools@@UEAA@XZ
	??1?$column@V?$vector@FV?$allocator@F@std@@@std@@@ntuple@rcsv@tools@@UEAA@XZ
	??1?$column@V?$vector@GV?$allocator@G@std@@@std@@@ntuple@rcsv@tools@@UEAA@XZ
	??1?$column@V?$vector@HV?$allocator@H@std@@@std@@@ntuple@rcsv@tools@@UEAA@XZ
	??1?$column@V?$vector@IV?$allocator@I@std@@@std@@@ntuple@rcsv@tools@@UEAA@XZ
	??1?$column@V?$vector@MV?$allocator@M@std@@@std@@@ntuple@rcsv@tools@@UEAA@XZ
	??1?$column@V?$vector@NV?$allocator@N@std@@@std@@@ntuple@rcsv@tools@@UEAA@XZ
	??1?$column@V?$vector@V?$basic_string@DU?$char_traits@D@std@@V?$allocator@D@2@@std@@V?$allocator@V?$basic_string@DU?$char_traits@D@std@@V?$allocator@D@2@@std@@@2@@std@@@ntuple@rcsv@tools@@UEAA@XZ
	??1?$column@V?$vector@_JV?$allocator@_J@std@@@std@@@ntuple@rcsv@tools@@UEAA@XZ
	??1?$column@V?$vector@_KV?$allocator@_K@std@@@std@@@ntuple@rcsv@tools@@UEAA@XZ
	??1?$column@V?$vector@_NV?$allocator@_N@std@@@std@@@ntuple@rcsv@tools@@UEAA@XZ
	??1?$column@_J@ntuple@rcsv@tools@@UEAA@XZ
	??1?$column@_J@ntuple@wcsv@tools@@UEAA@XZ
	??1?$column@_K@ntuple@rcsv@tools@@UEAA@XZ
	??1?$column@_K@ntuple@wcsv@tools@@UEAA@XZ
	??1?$column@_N@ntuple@rcsv@tools@@UEAA@XZ
	??1?$column@_N@ntuple@wcsv@tools@@UEAA@XZ
	??1?$column_element@V?$stl_vector@D@rroot@tools@@V?$vector@DV?$allocator@D@std@@@std@@@ntuple@rroot@tools@@UEAA@XZ
	??1?$column_element@V?$stl_vector@F@rroot@tools@@V?$vector@FV?$allocator@F@std@@@std@@@ntuple@rroot@tools@@UEAA@XZ
	??1?$column_element@V?$stl_vector@H@rroot@tools@@V?$vector@HV?$allocator@H@std@@@std@@@ntuple@rroot@tools@@UEAA@XZ
	??1?$column_element@V?$stl_vector@M@rroot@tools@@V?$vector@MV?$allocator@M@std@@@std@@@ntuple@rroot@tools@@UEAA@XZ
	??1?$column_element@V?$stl_vector@N@rroot@tools@@V?$vector@NV?$allocator@N@std@@@std@@@ntuple@rroot@tools@@UEAA@XZ
	??1?$column_element_ref@V?$stl_vector@D@rroot@tools@@V?$vector@DV?$allocator@D@std@@@std@@@ntuple@rroot@tools@@UEAA@XZ
	??1?$column_element_ref@V?$stl_vector@F@rroot@tools@@V?$vector@FV?$allocator@F@std@@@std@@@ntuple@rroot@tools@@UEAA@XZ
	??1?$column_element_ref@V?$stl_vector@H@rroot@tools@@V?$vector@HV?$allocator@H@std@@@std@@@ntuple@rroot@tools@@UEAA@XZ
	??1?$column_element_ref@V?$stl_vector@M@rroot@tools@@V?$vector@MV?$allocator@M@std@@@std@@@ntuple@rroot@tools@@UEAA@XZ
	??1?$column_element_ref@V?$stl_vector@N@rroot@tools@@V?$vector@NV?$allocator@N@std@@@std@@@ntuple@rroot@tools@@UEAA@XZ
	??1?$column_ref@D@base_pntuple@wroot@tools@@UEAA@XZ
	??1?$column_ref@D@ntuple@wcsv@tools@@UEAA@XZ
	??1?$column_ref@D@ntuple@wroot@tools@@UEAA@XZ
	??1?$column_ref@DV?$leaf@D@rroot@tools@@@ntuple@rroot@tools@@UEAA@XZ
	??1?$column_ref@E@ntuple@wcsv@tools@@UEAA@XZ
	??1?$column_ref@F@base_pntuple@wroot@tools@@UEAA@XZ
	??1?$column_ref@F@ntuple@wcsv@tools@@UEAA@XZ
	??1?$column_ref@F@ntuple@wroot@tools@@UEAA@XZ
	??1?$column_ref@FV?$leaf@F@rroot@tools@@@ntuple@rroot@tools@@UEAA@XZ
	??1?$column_ref@G@ntuple@wcsv@tools@@UEAA@XZ
	??1?$column_ref@H@base_pntuple@wroot@tools@@UEAA@XZ
	??1?$column_ref@H@ntuple@wcsv@tools@@UEAA@XZ
	??1?$column_ref@H@ntuple@wroot@tools@@UEAA@XZ
	??1?$column_ref@HV?$leaf@H@rroot@tools@@@ntuple@rroot@tools@@UEAA@XZ
	??1?$column_ref@I@ntuple@wcsv@tools@@UEAA@XZ
	??1?$column_ref@M@base_pntuple@wroot@tools@@UEAA@XZ
	??1?$column_ref@M@ntuple@wcsv@tools@@UEAA@XZ
	??1?$column_ref@M@ntuple@wroot@tools@@UEAA@XZ
	??1?$column_ref@MV?$leaf@M@rroot@tools@@@ntuple@rroot@tools@@UEAA@XZ
	??1?$column_ref@N@base_pntuple@wroot@tools@@UEAA@XZ
	??1?$column_ref@N@ntuple@wcsv@tools@@UEAA@XZ
	??1?$column_ref@N@ntuple@wroot@tools@@UEAA@XZ
	??1?$column_ref@NV?$leaf@D@rroot@tools@@@ntuple@rroot@tools@@UEAA@XZ
	??1?$column_ref@NV?$leaf@F@rroot@tools@@@ntuple@rroot@tools@@UEAA@XZ
	??1?$column_ref@NV?$leaf@H@rroot@tools@@@ntuple@rroot@tools@@UEAA@XZ
	??1?$column_ref@NV?$leaf@M@rroot@tools@@@ntuple@rroot@tools@@UEAA@XZ
	??1?$column_ref@NV?$leaf@N@rroot@tools@@@ntuple@rroot@tools@@UEAA@XZ
	??1?$column_ref@V?$basic_string@DU?$char_traits@D@std@@V?$allocator@D@2@@std@@@ntuple@wcsv@tools@@UEAA@XZ
	??1?$column_ref@_J@ntuple@wcsv@tools@@UEAA@XZ
	??1?$column_ref@_K@ntuple@wcsv@tools@@UEAA@XZ
	??1?$column_ref@_N@ntuple@wcsv@tools@@UEAA@XZ
	??1?$h1@NIINN@histo@tools@@UEAA@XZ
	??1?$h2@NIINN@histo@tools@@UEAA@XZ
	??1?$h3@NIINN@histo@tools@@UEAA@XZ
	??1?$handle@Vc1d@histo@tools@@@tools@@UEAA@XZ
	??1?$handle@Vc2d@histo@tools@@@tools@@UEAA@XZ
	??1?$handle@Vc3d@histo@tools@@@tools@@UEAA@XZ
	??1?$handle@Vdps@histo@tools@@@tools@@UEAA@XZ
	??1?$handle@Vh1d@histo@tools@@@tools@@UEAA@XZ
	??1?$handle@Vh2d@histo@tools@@@tools@@UEAA@XZ
	??1?$handle@Vh3d@histo@tools@@@tools@@UEAA@XZ
	??1?$handle@Vntuple@aida@tools@@@tools@@UEAA@XZ
	??1?$handle@Vp1d@histo@tools@@@tools@@UEAA@XZ
	??1?$handle@Vp2d@histo@tools@@@tools@@UEAA@XZ
	??1?$histo_data@NIIN@histo@tools@@UEAA@XZ
	??1?$icolumn@D@read@tools@@UEAA@XZ
	??1?$icolumn@E@read@tools@@UEAA@XZ
	??1?$icolumn@F@read@tools@@UEAA@XZ
	??1?$icolumn@G@read@tools@@UEAA@XZ
	??1?$icolumn@H@read@tools@@UEAA@XZ
	??1?$icolumn@I@read@tools@@UEAA@XZ
	??1?$icolumn@M@read@tools@@UEAA@XZ
	??1?$icolumn@N@read@tools@@UEAA@XZ
	??1?$icolumn@V?$basic_string@DU?$char_traits@D@std@@V?$allocator@D@2@@std@@@read@tools@@UEAA@XZ
	??1?$icolumn@V?$vector@DV?$allocator@D@std@@@std@@@read@tools@@UEAA@XZ
	??1?$icolumn@V?$vector@EV?$allocator@E@std@@@std@@@read@tools@@UEAA@XZ
	??1?$icolumn@V?$vector@FV?$allocator@F@std@@@std@@@read@tools@@UEAA@XZ
	??1?$icolumn@V?$vector@GV?$allocator@G@std@@@std@@@read@tools@@UEAA@XZ
	??1?$icolumn@V?$vector@HV?$allocator@H@std@@@std@@@read@tools@@UEAA@XZ
	??1?$icolumn@V?$vector@IV?$allocator@I@std@@@std@@@read@tools@@UEAA@XZ
	??1?$icolumn@V?$vector@MV?$allocator@M@std@@@std@@@read@tools@@UEAA@XZ
	??1?$icolumn@V?$vector@NV?$allocator@N@std@@@std@@@read@tools@@UEAA@XZ
	??1?$icolumn@V?$vector@V?$basic_string@DU?$char_traits@D@std@@V?$allocator@D@2@@std@@V?$allocator@V?$basic_string@DU?$char_traits@D@std@@V?$allocator@D@2@@std@@@2@@std@@@read@tools@@UEAA@XZ
	??1?$icolumn@V?$vector@_JV?$allocator@_J@std@@@std@@@read@tools@@UEAA@XZ
	??1?$icolumn@V?$vector@_KV?$allocator@_K@std@@@std@@@read@tools@@UEAA@XZ
	??1?$icolumn@V?$vector@_NV?$allocator@_N@std@@@std@@@read@tools@@UEAA@XZ
	??1?$icolumn@_J@read@tools@@UEAA@XZ
	??1?$icolumn@_K@read@tools@@UEAA@XZ
	??1?$icolumn@_N@read@tools@@UEAA@XZ
	??1?$img@E@tools@@UEAA@XZ
	??1?$leaf@D@rroot@tools@@UEAA@XZ
	??1?$leaf@F@rroot@tools@@UEAA@XZ
	??1?$leaf@H@rroot@tools@@UEAA@XZ
	??1?$leaf@H@wroot@tools@@UEAA@XZ
	??1?$leaf@M@rroot@tools@@UEAA@XZ
	??1?$leaf@N@rroot@tools@@UEAA@XZ
	??1?$leaf@_N@rroot@tools@@UEAA@XZ
	??1?$leaf_ref@D@wroot@tools@@UEAA@XZ
	??1?$leaf_ref@F@wroot@tools@@UEAA@XZ
	??1?$leaf_ref@H@wroot@tools@@UEAA@XZ
	??1?$leaf_ref@M@wroot@tools@@UEAA@XZ
	??1?$leaf_ref@N@wroot@tools@@UEAA@XZ
	??1?$leaf_std_vector_ref@D@wroot@tools@@UEAA@XZ
	??1?$leaf_std_vector_ref@F@wroot@tools@@UEAA@XZ
	??1?$leaf_std_vector_ref@H@wroot@tools@@UEAA@XZ
	??1?$leaf_std_vector_ref@M@wroot@tools@@UEAA@XZ
	??1?$leaf_std_vector_ref@N@wroot@tools@@UEAA@XZ
	??1?$line@Vvec3f@tools@@@tools@@UEAA@XZ
	??1?$list@PEAV?$list@IV?$allocator@I@std@@@std@@V?$allocator@PEAV?$list@IV?$allocator@I@std@@@std@@@2@@std@@QEAA@XZ
	??1?$list@PEAVfree_seg@wroot@tools@@V?$allocator@PEAVfree_seg@wroot@tools@@@std@@@std@@QEAA@XZ
	??1?$list@PEAVkey@wroot@tools@@V?$allocator@PEAVkey@wroot@tools@@@std@@@std@@QEAA@XZ
	??1?$map@DP6A_NAEAV?$basic_ostream@DU?$char_traits@D@std@@@std@@IIPEBDIPEADAEAI@ZU?$less@D@2@V?$allocator@U?$pair@$$CBDP6A_NAEAV?$basic_ostream@DU?$char_traits@D@std@@@std@@IIPEBDIPEADAEAI@Z@std@@@2@@std@@QEAA@XZ
	??1?$map@DP6A_NAEAV?$basic_ostream@DU?$char_traits@D@std@@@std@@IPEBDIPEADAEAI@ZU?$less@D@2@V?$allocator@U?$pair@$$CBDP6A_NAEAV?$basic_ostream@DU?$char_traits@D@std@@@std@@IPEBDIPEADAEAI@Z@std@@@2@@std@@QEAA@XZ
	??1?$map@DPEAXU?$less@D@std@@V?$allocator@U?$pair@$$CBDPEAX@std@@@2@@std@@QEAA@XZ
	??1?$map@IU?$pair@PEAVbasket@rroot@tools@@_N@std@@U?$less@I@2@V?$allocator@U?$pair@$$CBIU?$pair@PEAVbasket@rroot@tools@@_N@std@@@std@@@2@@std@@QEAA@XZ
	??1?$map@PEAVibo@wroot@tools@@IU?$less@PEAVibo@wroot@tools@@@std@@V?$allocator@U?$pair@QEAVibo@wroot@tools@@I@std@@@5@@std@@QEAA@XZ
	??1?$map@PEAVntuple@aida@tools@@PEAV?$vector@HV?$allocator@H@std@@@std@@U?$less@PEAVntuple@aida@tools@@@5@V?$allocator@U?$pair@QEAVntuple@aida@tools@@PEAV?$vector@HV?$allocator@H@std@@@std@@@std@@@5@@std@@QEAA@XZ
	??1?$map@PEAVntuple@aida@tools@@PEAV?$vector@MV?$allocator@M@std@@@std@@U?$less@PEAVntuple@aida@tools@@@5@V?$allocator@U?$pair@QEAVntuple@aida@tools@@PEAV?$vector@MV?$allocator@M@std@@@std@@@std@@@5@@std@@QEAA@XZ
	??1?$map@PEAVntuple@rcsv@tools@@PEAV?$vector@HV?$allocator@H@std@@@std@@U?$less@PEAVntuple@rcsv@tools@@@5@V?$allocator@U?$pair@QEAVntuple@rcsv@tools@@PEAV?$vector@HV?$allocator@H@std@@@std@@@std@@@5@@std@@QEAA@XZ
	??1?$map@PEAVntuple@rcsv@tools@@PEAV?$vector@MV?$allocator@M@std@@@std@@U?$less@PEAVntuple@rcsv@tools@@@5@V?$allocator@U?$pair@QEAVntuple@rcsv@tools@@PEAV?$vector@MV?$allocator@M@std@@@std@@@std@@@5@@std@@QEAA@XZ
	??1?$map@PEAVntuple@rroot@tools@@PEAV?$vector@HV?$allocator@H@std@@@std@@U?$less@PEAVntuple@rroot@tools@@@5@V?$allocator@U?$pair@QEAVntuple@rroot@tools@@PEAV?$vector@HV?$allocator@H@std@@@std@@@std@@@5@@std@@QEAA@XZ
	??1?$map@PEAVntuple@rroot@tools@@PEAV?$vector@MV?$allocator@M@std@@@std@@U?$less@PEAVntuple@rroot@tools@@@5@V?$allocator@U?$pair@QEAVntuple@rroot@tools@@PEAV?$vector@MV?$allocator@M@std@@@std@@@std@@@5@@std@@QEAA@XZ
	??1?$map@V?$basic_string@DU?$char_traits@D@std@@V?$allocator@D@2@@std@@IU?$less@V?$basic_string@DU?$char_traits@D@std@@V?$allocator@D@2@@std@@@2@V?$allocator@U?$pair@$$CBV?$basic_string@DU?$char_traits@D@std@@V?$allocator@D@2@@std@@I@std@@@2@@std@@QEAA@XZ
	??1?$map@V?$basic_string@DU?$char_traits@D@std@@V?$allocator@D@2@@std@@P6A?AVraxml_out@tools@@AEAVtree@xml@4@AEAV?$basic_ostream@DU?$char_traits@D@std@@@2@_NPEAX@ZU?$less@V?$basic_string@DU?$char_traits@D@std@@V?$allocator@D@2@@std@@@2@V?$allocator@U?$pair@$$CBV?$basic_string@DU?$char_traits@D@std@@V?$allocator@D@2@@std@@P6A?AVraxml_out@tools@@AEAVtree@xml@4@AEAV?$basic_ostream@DU?$char_traits@D@std@@@2@_NPEAX@Z@std@@@2@@std@@QEAA@XZ
	??1?$map@V?$basic_string@DU?$char_traits@D@std@@V?$allocator@D@2@@std@@V12@U?$less@V?$basic_string@DU?$char_traits@D@std@@V?$allocator@D@2@@std@@@2@V?$allocator@U?$pair@$$CBV?$basic_string@DU?$char_traits@D@std@@V?$allocator@D@2@@std@@V12@@std@@@2@@std@@QEAA@XZ
	??1?$map@V?$basic_string@DU?$char_traits@D@std@@V?$allocator@D@2@@std@@Vstyle_colormap@sg@tools@@U?$less@V?$basic_string@DU?$char_traits@D@std@@V?$allocator@D@2@@std@@@2@V?$allocator@U?$pair@$$CBV?$basic_string@DU?$char_traits@D@std@@V?$allocator@D@2@@std@@Vstyle_colormap@sg@tools@@@std@@@2@@std@@QEAA@XZ
	??1?$map@VG4String@@HU?$less@VG4String@@@std@@V?$allocator@U?$pair@$$CBVG4String@@H@std@@@3@@std@@QEAA@XZ
	??1?$map@VG4String@@PEAVG4VAccumulable@@U?$less@VG4String@@@std@@V?$allocator@U?$pair@$$CBVG4String@@PEAVG4VAccumulable@@@std@@@4@@std@@QEAA@XZ
	??1?$map@Vcolorf@tools@@IUcmp_colorf@2@V?$allocator@U?$pair@$$CBVcolorf@tools@@I@std@@@std@@@std@@QEAA@XZ
	??1?$mat4@M@tools@@UEAA@XZ
	??1?$mat@M$03@tools@@UEAA@XZ
	??1?$mf@M@sg@tools@@UEAA@XZ
	??1?$mf_enum@W4unit_type@plotter@sg@tools@@@sg@tools@@UEAA@XZ
	??1?$mf_std_vec@I@sg@tools@@UEAA@XZ
	??1?$mf_vec@Vvec2f@tools@@M@sg@tools@@UEAA@XZ
	??1?$num_out@I@tools@@QEAA@XZ
	??1?$obj_array@Vbase_leaf@rroot@tools@@@rroot@tools@@UEAA@XZ
	??1?$obj_array@Vbase_leaf@wroot@tools@@@wroot@tools@@UEAA@XZ
	??1?$obj_array@Vbasket@rroot@tools@@@rroot@tools@@UEAA@XZ
	??1?$obj_array@Vbasket@wroot@tools@@@wroot@tools@@UEAA@XZ
	??1?$obj_array@Vbranch@rroot@tools@@@rroot@tools@@UEAA@XZ
	??1?$obj_array@Vbranch@wroot@tools@@@wroot@tools@@UEAA@XZ
	??1?$obj_array@Vstreamer_element@rroot@tools@@@rroot@tools@@UEAA@XZ
	??1?$obj_array@Vstreamer_element@wroot@tools@@@wroot@tools@@UEAA@XZ
	??1?$obj_list@Vstreamer_info@wroot@tools@@@wroot@tools@@UEAA@XZ
	??1?$p1@NIINNN@histo@tools@@UEAA@XZ
	??1?$p2@NIINNN@histo@tools@@UEAA@XZ
	??1?$pair@$$CBV?$basic_string@DU?$char_traits@D@std@@V?$allocator@D@2@@std@@V12@@std@@QEAA@XZ
	??1?$pair@$$CBV?$basic_string@DU?$char_traits@D@std@@V?$allocator@D@2@@std@@Vstyle_colormap@sg@tools@@@std@@QEAA@XZ
	??1?$pair@V?$basic_string@DU?$char_traits@D@std@@V?$allocator@D@2@@std@@H@std@@QEAA@XZ
	??1?$pair@V?$basic_string@DU?$char_traits@D@std@@V?$allocator@D@2@@std@@V12@@std@@QEAA@XZ
	??1?$pair@V?$basic_string@DU?$char_traits@D@std@@V?$allocator@D@2@@std@@V?$vector@U?$pair@V?$basic_string@DU?$char_traits@D@std@@V?$allocator@D@2@@std@@V12@@std@@V?$allocator@U?$pair@V?$basic_string@DU?$char_traits@D@std@@V?$allocator@D@2@@std@@V12@@std@@@2@@2@@std@@QEAA@XZ
	??1?$pair@V?$basic_string@DU?$char_traits@D@std@@V?$allocator@D@2@@std@@Vcolorf@tools@@@std@@QEAA@XZ
	??1?$plane@Vvec3d@tools@@@tools@@UEAA@XZ
	??1?$plane@Vvec3f@tools@@@tools@@UEAA@XZ
	??1?$profile_data@NIINN@histo@tools@@UEAA@XZ
	??1?$qrot@Vvec3f@tools@@Vvec4f@2@@tools@@UEAA@XZ
	??1?$sf@E@sg@tools@@UEAA@XZ
	??1?$sf@G@sg@tools@@UEAA@XZ
	??1?$sf@H@sg@tools@@UEAA@XZ
	??1?$sf@I@sg@tools@@UEAA@XZ
	??1?$sf@M@sg@tools@@UEAA@XZ
	??1?$sf@N@sg@tools@@UEAA@XZ
	??1?$sf@_N@sg@tools@@UEAA@XZ
	??1?$sf_enum@W4area_style@sg@tools@@@sg@tools@@UEAA@XZ
	??1?$sf_enum@W4colormap_axis_labeling_type@plotter@sg@tools@@@sg@tools@@UEAA@XZ
	??1?$sf_enum@W4draw_type@sg@tools@@@sg@tools@@UEAA@XZ
	??1?$sf_enum@W4font_modeling@sg@tools@@@sg@tools@@UEAA@XZ
	??1?$sf_enum@W4font_type@sg@tools@@@sg@tools@@UEAA@XZ
	??1?$sf_enum@W4hatching_policy@sg@tools@@@sg@tools@@UEAA@XZ
	??1?$sf_enum@W4hjust@sg@tools@@@sg@tools@@UEAA@XZ
	??1?$sf_enum@W4marker_style@sg@tools@@@sg@tools@@UEAA@XZ
	??1?$sf_enum@W4painting_policy@sg@tools@@@sg@tools@@UEAA@XZ
	??1?$sf_enum@W4projection_type@sg@tools@@@sg@tools@@UEAA@XZ
	??1?$sf_enum@W4shape_type@plotter@sg@tools@@@sg@tools@@UEAA@XZ
	??1?$sf_enum@W4vjust@sg@tools@@@sg@tools@@UEAA@XZ
	??1?$sf_enum@W4winding_type@sg@tools@@@sg@tools@@UEAA@XZ
	??1?$sf_img@E@sg@tools@@UEAA@XZ
	??1?$sf_vec@Vcolorf@tools@@M@sg@tools@@UEAA@XZ
	??1?$sf_vec@Vmat4f@tools@@M@sg@tools@@UEAA@XZ
	??1?$sf_vec@Vvec3f@tools@@M@sg@tools@@UEAA@XZ
	??1?$sf_vec@Vvec4f@tools@@M@sg@tools@@UEAA@XZ
	??1?$shared_ptr@V?$basic_ofstream@DU?$char_traits@D@std@@@std@@@std@@QEAA@XZ
	??1?$shared_ptr@VG4CsvFileManager@@@std@@QEAA@XZ
	??1?$shared_ptr@VG4HnManager@@@std@@QEAA@XZ
	??1?$shared_ptr@VG4PlotManager@@@std@@QEAA@XZ
	??1?$shared_ptr@VG4RootFileManager@@@std@@QEAA@XZ
	??1?$shared_ptr@VG4VFileManager@@@std@@QEAA@XZ
	??1?$shared_ptr@VG4XmlFileManager@@@std@@QEAA@XZ
	??1?$shared_ptr@Vfile@wroot@tools@@@std@@QEAA@XZ
	??1?$std_vector_be_pointer@D@wroot@tools@@UEAA@XZ
	??1?$std_vector_be_pointer@F@wroot@tools@@UEAA@XZ
	??1?$std_vector_be_pointer@H@wroot@tools@@UEAA@XZ
	??1?$std_vector_be_pointer@M@wroot@tools@@UEAA@XZ
	??1?$std_vector_be_pointer@N@wroot@tools@@UEAA@XZ
	??1?$std_vector_be_ref@D@wroot@tools@@UEAA@XZ
	??1?$std_vector_be_ref@F@wroot@tools@@UEAA@XZ
	??1?$std_vector_be_ref@H@wroot@tools@@UEAA@XZ
	??1?$std_vector_be_ref@M@wroot@tools@@UEAA@XZ
	??1?$std_vector_be_ref@N@wroot@tools@@UEAA@XZ
	??1?$std_vector_column@D@base_pntuple@wroot@tools@@UEAA@XZ
	??1?$std_vector_column@D@ntuple@wcsv@tools@@UEAA@XZ
	??1?$std_vector_column@D@ntuple@wroot@tools@@UEAA@XZ
	??1?$std_vector_column@E@ntuple@wcsv@tools@@UEAA@XZ
	??1?$std_vector_column@F@base_pntuple@wroot@tools@@UEAA@XZ
	??1?$std_vector_column@F@ntuple@wcsv@tools@@UEAA@XZ
	??1?$std_vector_column@F@ntuple@wroot@tools@@UEAA@XZ
	??1?$std_vector_column@G@ntuple@wcsv@tools@@UEAA@XZ
	??1?$std_vector_column@H@base_pntuple@wroot@tools@@UEAA@XZ
	??1?$std_vector_column@H@ntuple@waxml@tools@@UEAA@XZ
	??1?$std_vector_column@H@ntuple@wcsv@tools@@UEAA@XZ
	??1?$std_vector_column@H@ntuple@wroot@tools@@UEAA@XZ
	??1?$std_vector_column@I@ntuple@wcsv@tools@@UEAA@XZ
	??1?$std_vector_column@M@base_pntuple@wroot@tools@@UEAA@XZ
	??1?$std_vector_column@M@ntuple@waxml@tools@@UEAA@XZ
	??1?$std_vector_column@M@ntuple@wcsv@tools@@UEAA@XZ
	??1?$std_vector_column@M@ntuple@wroot@tools@@UEAA@XZ
	??1?$std_vector_column@N@base_pntuple@wroot@tools@@UEAA@XZ
	??1?$std_vector_column@N@ntuple@waxml@tools@@UEAA@XZ
	??1?$std_vector_column@N@ntuple@wcsv@tools@@UEAA@XZ
	??1?$std_vector_column@N@ntuple@wroot@tools@@UEAA@XZ
	??1?$std_vector_column@V?$basic_string@DU?$char_traits@D@std@@V?$allocator@D@2@@std@@@ntuple@wcsv@tools@@UEAA@XZ
	??1?$std_vector_column@_J@ntuple@wcsv@tools@@UEAA@XZ
	??1?$std_vector_column@_K@ntuple@wcsv@tools@@UEAA@XZ
	??1?$std_vector_column@_N@ntuple@wcsv@tools@@UEAA@XZ
	??1?$std_vector_column_ref@D@base_pntuple@wroot@tools@@UEAA@XZ
	??1?$std_vector_column_ref@D@ntuple@rroot@tools@@UEAA@XZ
	??1?$std_vector_column_ref@D@ntuple@wroot@tools@@UEAA@XZ
	??1?$std_vector_column_ref@F@base_pntuple@wroot@tools@@UEAA@XZ
	??1?$std_vector_column_ref@F@ntuple@rroot@tools@@UEAA@XZ
	??1?$std_vector_column_ref@F@ntuple@wroot@tools@@UEAA@XZ
	??1?$std_vector_column_ref@H@base_pntuple@wroot@tools@@UEAA@XZ
	??1?$std_vector_column_ref@H@ntuple@rroot@tools@@UEAA@XZ
	??1?$std_vector_column_ref@H@ntuple@wroot@tools@@UEAA@XZ
	??1?$std_vector_column_ref@M@base_pntuple@wroot@tools@@UEAA@XZ
	??1?$std_vector_column_ref@M@ntuple@rroot@tools@@UEAA@XZ
	??1?$std_vector_column_ref@M@ntuple@wroot@tools@@UEAA@XZ
	??1?$std_vector_column_ref@N@base_pntuple@wroot@tools@@UEAA@XZ
	??1?$std_vector_column_ref@N@ntuple@rroot@tools@@UEAA@XZ
	??1?$std_vector_column_ref@N@ntuple@wroot@tools@@UEAA@XZ
	??1?$stl_vector@F@rroot@tools@@UEAA@XZ
	??1?$stl_vector@G@rroot@tools@@UEAA@XZ
	??1?$stl_vector@H@rroot@tools@@UEAA@XZ
	??1?$stl_vector@I@rroot@tools@@UEAA@XZ
	??1?$stl_vector@M@rroot@tools@@UEAA@XZ
	??1?$stl_vector@N@rroot@tools@@UEAA@XZ
	??1?$stl_vector@_K@rroot@tools@@UEAA@XZ
	??1?$stl_vector_vector@F@rroot@tools@@UEAA@XZ
	??1?$stl_vector_vector@G@rroot@tools@@UEAA@XZ
	??1?$stl_vector_vector@H@rroot@tools@@UEAA@XZ
	??1?$stl_vector_vector@I@rroot@tools@@UEAA@XZ
	??1?$stl_vector_vector@M@rroot@tools@@UEAA@XZ
	??1?$stl_vector_vector@N@rroot@tools@@UEAA@XZ
	??1?$unique_ptr@VG4AnalysisMessengerHelper@@U?$default_delete@VG4AnalysisMessengerHelper@@@std@@@std@@QEAA@XZ
	??1?$unique_ptr@VG4FileMessenger@@U?$default_delete@VG4FileMessenger@@@std@@@std@@QEAA@XZ
	??1?$unique_ptr@VG4H1Messenger@@U?$default_delete@VG4H1Messenger@@@std@@@std@@QEAA@XZ
	??1?$unique_ptr@VG4H2Messenger@@U?$default_delete@VG4H2Messenger@@@std@@@std@@QEAA@XZ
	??1?$unique_ptr@VG4H3Messenger@@U?$default_delete@VG4H3Messenger@@@std@@@std@@QEAA@XZ
	??1?$unique_ptr@VG4HnMessenger@@U?$default_delete@VG4HnMessenger@@@std@@@std@@QEAA@XZ
	??1?$unique_ptr@VG4NtupleMessenger@@U?$default_delete@VG4NtupleMessenger@@@std@@@std@@QEAA@XZ
	??1?$unique_ptr@VG4P1Messenger@@U?$default_delete@VG4P1Messenger@@@std@@@std@@QEAA@XZ
	??1?$unique_ptr@VG4P2Messenger@@U?$default_delete@VG4P2Messenger@@@std@@@std@@QEAA@XZ
	??1?$unique_ptr@VG4PlotMessenger@@U?$default_delete@VG4PlotMessenger@@@std@@@std@@QEAA@XZ
	??1?$unique_ptr@VG4UIcmdWithABool@@U?$default_delete@VG4UIcmdWithABool@@@std@@@std@@QEAA@XZ
	??1?$unique_ptr@VG4UIcmdWithAString@@U?$default_delete@VG4UIcmdWithAString@@@std@@@std@@QEAA@XZ
	??1?$unique_ptr@VG4UIcmdWithAnInteger@@U?$default_delete@VG4UIcmdWithAnInteger@@@std@@@std@@QEAA@XZ
	??1?$unique_ptr@VG4UIcommand@@U?$default_delete@VG4UIcommand@@@std@@@std@@QEAA@XZ
	??1?$unique_ptr@VG4UIdirectory@@U?$default_delete@VG4UIdirectory@@@std@@@std@@QEAA@XZ
	??1?$unique_ptr@V_Facet_base@std@@U?$default_delete@V_Facet_base@std@@@2@@std@@QEAA@XZ
	??1?$unique_ptr@Vviewplot@tools@@U?$default_delete@Vviewplot@tools@@@std@@@std@@QEAA@XZ
	??1?$vec2@M@tools@@UEAA@XZ
	??1?$vec3@M@tools@@UEAA@XZ
	??1?$vec3@N@tools@@UEAA@XZ
	??1?$vec4@M@tools@@UEAA@XZ
	??1?$vector@DV?$allocator@D@std@@@std@@QEAA@XZ
	??1?$vector@EV?$allocator@E@std@@@std@@QEAA@XZ
	??1?$vector@FV?$allocator@F@std@@@std@@QEAA@XZ
	??1?$vector@GV?$allocator@G@std@@@std@@QEAA@XZ
	??1?$vector@HV?$allocator@H@std@@@std@@QEAA@XZ
	??1?$vector@IV?$allocator@I@std@@@std@@QEAA@XZ
	??1?$vector@MV?$allocator@M@std@@@std@@QEAA@XZ
	??1?$vector@NV?$allocator@N@std@@@std@@QEAA@XZ
	??1?$vector@PEAU?$G4TNtupleDescription@Vntuple@waxml@tools@@@@V?$allocator@PEAU?$G4TNtupleDescription@Vntuple@waxml@tools@@@@@std@@@std@@QEAA@XZ
	??1?$vector@PEAU?$G4TNtupleDescription@Vntuple@wcsv@tools@@@@V?$allocator@PEAU?$G4TNtupleDescription@Vntuple@wcsv@tools@@@@@std@@@std@@QEAA@XZ
	??1?$vector@PEAVG4HnInformation@@V?$allocator@PEAVG4HnInformation@@@std@@@std@@QEAA@XZ
	??1?$vector@PEAVG4RootMainNtupleManager@@V?$allocator@PEAVG4RootMainNtupleManager@@@std@@@std@@QEAA@XZ
	??1?$vector@PEAVG4VAccumulable@@V?$allocator@PEAVG4VAccumulable@@@std@@@std@@QEAA@XZ
	??1?$vector@PEAVbase_col@aida@tools@@V?$allocator@PEAVbase_col@aida@tools@@@std@@@std@@QEAA@XZ
	??1?$vector@PEAVbase_colormap@sg@tools@@V?$allocator@PEAVbase_colormap@sg@tools@@@std@@@std@@QEAA@XZ
	??1?$vector@PEAVbase_leaf@rroot@tools@@V?$allocator@PEAVbase_leaf@rroot@tools@@@std@@@std@@QEAA@XZ
	??1?$vector@PEAVbasket@rroot@tools@@V?$allocator@PEAVbasket@rroot@tools@@@std@@@std@@QEAA@XZ
	??1?$vector@PEAVbasket@wroot@tools@@V?$allocator@PEAVbasket@wroot@tools@@@std@@@std@@QEAA@XZ
	??1?$vector@PEAVbranch@rroot@tools@@V?$allocator@PEAVbranch@rroot@tools@@@std@@@std@@QEAA@XZ
	??1?$vector@PEAVbranch@wroot@tools@@V?$allocator@PEAVbranch@wroot@tools@@@std@@@std@@QEAA@XZ
	??1?$vector@PEAVdirectory@wroot@tools@@V?$allocator@PEAVdirectory@wroot@tools@@@std@@@std@@QEAA@XZ
	??1?$vector@PEAVh1d@histo@tools@@V?$allocator@PEAVh1d@histo@tools@@@std@@@std@@QEAA@XZ
	??1?$vector@PEAVh2d@histo@tools@@V?$allocator@PEAVh2d@histo@tools@@@std@@@std@@QEAA@XZ
	??1?$vector@PEAVh3d@histo@tools@@V?$allocator@PEAVh3d@histo@tools@@@std@@@std@@QEAA@XZ
	??1?$vector@PEAVicol@ntuple@wcsv@tools@@V?$allocator@PEAVicol@ntuple@wcsv@tools@@@std@@@std@@QEAA@XZ
	??1?$vector@PEAVicol@wroot@tools@@V?$allocator@PEAVicol@wroot@tools@@@std@@@std@@QEAA@XZ
	??1?$vector@PEAViobj@ntuple@waxml@tools@@V?$allocator@PEAViobj@ntuple@waxml@tools@@@std@@@std@@QEAA@XZ
	??1?$vector@PEAViobject@wroot@tools@@V?$allocator@PEAViobject@wroot@tools@@@std@@@std@@QEAA@XZ
	??1?$vector@PEAViro@rroot@tools@@V?$allocator@PEAViro@rroot@tools@@@std@@@std@@QEAA@XZ
	??1?$vector@PEAVmatrix@sg@tools@@V?$allocator@PEAVmatrix@sg@tools@@@std@@@std@@QEAA@XZ
	??1?$vector@PEAVnode@sg@tools@@V?$allocator@PEAVnode@sg@tools@@@std@@@std@@QEAA@XZ
	??1?$vector@PEAVp1d@histo@tools@@V?$allocator@PEAVp1d@histo@tools@@@std@@@std@@QEAA@XZ
	??1?$vector@PEAVp2d@histo@tools@@V?$allocator@PEAVp2d@histo@tools@@@std@@@std@@QEAA@XZ
	??1?$vector@PEAVplotprim@sg@tools@@V?$allocator@PEAVplotprim@sg@tools@@@std@@@std@@QEAA@XZ
	??1?$vector@PEAVplottable@sg@tools@@V?$allocator@PEAVplottable@sg@tools@@@std@@@std@@QEAA@XZ
	??1?$vector@PEAVseparator@sg@tools@@V?$allocator@PEAVseparator@sg@tools@@@std@@@std@@QEAA@XZ
	??1?$vector@PEAVstreamer_element@rroot@tools@@V?$allocator@PEAVstreamer_element@rroot@tools@@@std@@@std@@QEAA@XZ
	??1?$vector@PEAVtree@columns@tools@@V?$allocator@PEAVtree@columns@tools@@@std@@@std@@QEAA@XZ
	??1?$vector@U?$pair@II@std@@V?$allocator@U?$pair@II@std@@@2@@std@@QEAA@XZ
	??1?$vector@U?$pair@V?$basic_string@DU?$char_traits@D@std@@V?$allocator@D@2@@std@@H@std@@V?$allocator@U?$pair@V?$basic_string@DU?$char_traits@D@std@@V?$allocator@D@2@@std@@H@std@@@2@@std@@QEAA@XZ
	??1?$vector@U?$pair@V?$basic_string@DU?$char_traits@D@std@@V?$allocator@D@2@@std@@PEAX@std@@V?$allocator@U?$pair@V?$basic_string@DU?$char_traits@D@std@@V?$allocator@D@2@@std@@PEAX@std@@@2@@std@@QEAA@XZ
	??1?$vector@U?$pair@V?$basic_string@DU?$char_traits@D@std@@V?$allocator@D@2@@std@@V12@@std@@V?$allocator@U?$pair@V?$basic_string@DU?$char_traits@D@std@@V?$allocator@D@2@@std@@V12@@std@@@2@@std@@QEAA@XZ
	??1?$vector@U?$pair@V?$basic_string@DU?$char_traits@D@std@@V?$allocator@D@2@@std@@V?$vector@U?$pair@V?$basic_string@DU?$char_traits@D@std@@V?$allocator@D@2@@std@@V12@@std@@V?$allocator@U?$pair@V?$basic_string@DU?$char_traits@D@std@@V?$allocator@D@2@@std@@V12@@std@@@2@@2@@std@@V?$allocator@U?$pair@V?$basic_string@DU?$char_traits@D@std@@V?$allocator@D@2@@std@@V?$vector@U?$pair@V?$basic_string@DU?$char_traits@D@std@@V?$allocator@D@2@@std@@V12@@std@@V?$allocator@U?$pair@V?$basic_string@DU?$char_traits@D@std@@V?$allocator@D@2@@std@@V12@@std@@@2@@2@@std@@@2@@std@@QEAA@XZ
	??1?$vector@U?$pair@_K_K@std@@V?$allocator@U?$pair@_K_K@std@@@2@@std@@QEAA@XZ
	??1?$vector@UG4HnDimensionInformation@@V?$allocator@UG4HnDimensionInformation@@@std@@@std@@QEAA@XZ
	??1?$vector@Utess_triangle@tools@@V?$allocator@Utess_triangle@tools@@@std@@@std@@QEAA@XZ
	??1?$vector@V?$axis@NI@histo@tools@@V?$allocator@V?$axis@NI@histo@tools@@@std@@@std@@QEAA@XZ
	??1?$vector@V?$basic_string@DU?$char_traits@D@std@@V?$allocator@D@2@@std@@V?$allocator@V?$basic_string@DU?$char_traits@D@std@@V?$allocator@D@2@@std@@@2@@std@@QEAA@XZ
	??1?$vector@V?$list@PEAV?$list@IV?$allocator@I@std@@@std@@V?$allocator@PEAV?$list@IV?$allocator@I@std@@@std@@@2@@std@@V?$allocator@V?$list@PEAV?$list@IV?$allocator@I@std@@@std@@V?$allocator@PEAV?$list@IV?$allocator@I@std@@@std@@@2@@std@@@2@@std@@QEAA@XZ
	??1?$vector@V?$shared_ptr@Vfile@wroot@tools@@@std@@V?$allocator@V?$shared_ptr@Vfile@wroot@tools@@@std@@@2@@std@@QEAA@XZ
	??1?$vector@V?$vector@HV?$allocator@H@std@@@std@@V?$allocator@V?$vector@HV?$allocator@H@std@@@std@@@2@@std@@QEAA@XZ
	??1?$vector@V?$vector@MV?$allocator@M@std@@@std@@V?$allocator@V?$vector@MV?$allocator@M@std@@@std@@@2@@std@@QEAA@XZ
	??1?$vector@V?$vector@NV?$allocator@N@std@@@std@@V?$allocator@V?$vector@NV?$allocator@N@std@@@std@@@2@@std@@QEAA@XZ
	??1?$vector@V?$vector@Vvec3f@tools@@V?$allocator@Vvec3f@tools@@@std@@@std@@V?$allocator@V?$vector@Vvec3f@tools@@V?$allocator@Vvec3f@tools@@@std@@@std@@@2@@std@@QEAA@XZ
	??1?$vector@VG4String@@V?$allocator@VG4String@@@std@@@std@@QEAA@XZ
	??1?$vector@V_text@hplot@tools@@V?$allocator@V_text@hplot@tools@@@std@@@std@@QEAA@XZ
	??1?$vector@Vcolbook@aidas@xml@tools@@V?$allocator@Vcolbook@aidas@xml@tools@@@std@@@std@@QEAA@XZ
	??1?$vector@Vcubic_poly@spline@tools@@V?$allocator@Vcubic_poly@spline@tools@@@std@@@std@@QEAA@XZ
	??1?$vector@Vextra@plots@sg@tools@@V?$allocator@Vextra@plots@sg@tools@@@std@@@std@@QEAA@XZ
	??1?$vector@Vfield_desc@sg@tools@@V?$allocator@Vfield_desc@sg@tools@@@std@@@std@@QEAA@XZ
	??1?$vector@Vhchar@sg@tools@@V?$allocator@Vhchar@sg@tools@@@std@@@std@@QEAA@XZ
	??1?$vector@Vmat4f@tools@@V?$allocator@Vmat4f@tools@@@std@@@std@@QEAA@XZ
	??1?$vector@Vntuple@aida@tools@@V?$allocator@Vntuple@aida@tools@@@std@@@std@@QEAA@XZ
	??1?$vector@Vpick_element@sg@tools@@V?$allocator@Vpick_element@sg@tools@@@std@@@std@@QEAA@XZ
	??1?$vector@Vraxml_out@tools@@V?$allocator@Vraxml_out@tools@@@std@@@std@@QEAA@XZ
	??1?$vector@Vrep_bin1D@sg@tools@@V?$allocator@Vrep_bin1D@sg@tools@@@std@@@std@@QEAA@XZ
	??1?$vector@Vrep_bin2D@sg@tools@@V?$allocator@Vrep_bin2D@sg@tools@@@std@@@std@@QEAA@XZ
	??1?$vector@Vrep_top_face2D@sg@tools@@V?$allocator@Vrep_top_face2D@sg@tools@@@std@@@std@@QEAA@XZ
	??1?$vector@Vstate@sg@tools@@V?$allocator@Vstate@sg@tools@@@std@@@std@@QEAA@XZ
	??1?$vector@Vstyle@sg@tools@@V?$allocator@Vstyle@sg@tools@@@std@@@std@@QEAA@XZ
	??1?$vector@Vvalue@tools@@V?$allocator@Vvalue@tools@@@std@@@std@@QEAA@XZ
	??1?$vector@Vvec2f@tools@@V?$allocator@Vvec2f@tools@@@std@@@std@@QEAA@XZ
	??1?$vector@Vvec3f@tools@@V?$allocator@Vvec3f@tools@@@std@@@std@@QEAA@XZ
	??1?$vector@_JV?$allocator@_J@std@@@std@@QEAA@XZ
	??1?$vector@_KV?$allocator@_K@std@@@std@@QEAA@XZ
	??1?$vector@_NV?$allocator@_N@std@@@std@@QEAA@XZ
	??1BinData@G4AnalysisMessengerHelper@@QEAA@XZ
	??1CFnStr@ccontour@tools@@QEAA@XZ
	??1FILE_reader@tools@@UEAA@XZ
	??1G4AccumulableManager@@UEAA@XZ
	??1G4AnalysisManagerState@@QEAA@XZ
	??1G4AnalysisMessenger@@UEAA@XZ
	??1G4AnalysisMessengerHelper@@QEAA@XZ
	??1G4AnalysisVerbose@@QEAA@XZ
	??1G4BaseAnalysisManager@@UEAA@XZ
	??1G4BaseFileManager@@UEAA@XZ
	??1G4BaseNtupleManager@@UEAA@XZ
	??1G4BaseRNtupleManager@@UEAA@XZ
	??1G4CsvAnalysisManager@@UEAA@XZ
	??1G4CsvAnalysisReader@@UEAA@XZ
	??1G4CsvFileManager@@UEAA@XZ
	??1G4CsvNtupleManager@@UEAA@XZ
	??1G4CsvRFileManager@@UEAA@XZ
	??1G4CsvRNtupleManager@@MEAA@XZ
	??1G4FileMessenger@@UEAA@XZ
	??1G4H1Messenger@@UEAA@XZ
	??1G4H1ToolsManager@@UEAA@XZ
	??1G4H2Messenger@@UEAA@XZ
	??1G4H2ToolsManager@@UEAA@XZ
	??1G4H3Messenger@@UEAA@XZ
	??1G4H3ToolsManager@@UEAA@XZ
	??1G4HnDimensionInformation@@QEAA@XZ
	??1G4HnManager@@UEAA@XZ
	??1G4HnMessenger@@UEAA@XZ
	??1G4MPIToolsManager@@UEAA@XZ
	??1G4NtupleMessenger@@UEAA@XZ
	??1G4P1Messenger@@UEAA@XZ
	??1G4P1ToolsManager@@UEAA@XZ
	??1G4P2Messenger@@UEAA@XZ
	??1G4P2ToolsManager@@UEAA@XZ
	??1G4PlotManager@@QEAA@XZ
	??1G4PlotMessenger@@UEAA@XZ
	??1G4PlotParameters@@QEAA@XZ
	??1G4RootAnalysisManager@@UEAA@XZ
	??1G4RootAnalysisReader@@UEAA@XZ
	??1G4RootFileManager@@UEAA@XZ
	??1G4RootMainNtupleManager@@UEAA@XZ
	??1G4RootNtupleManager@@UEAA@XZ
	??1G4RootPNtupleManager@@UEAA@XZ
	??1G4RootRFileManager@@UEAA@XZ
	??1G4RootRNtupleManager@@MEAA@XZ
	??1G4String@@QEAA@XZ
	??1G4ToolsAnalysisManager@@UEAA@XZ
	??1G4ToolsAnalysisReader@@UEAA@XZ
	??1G4VAnalysisManager@@UEAA@XZ
	??1G4VAnalysisReader@@UEAA@XZ
	??1G4VFileManager@@UEAA@XZ
	??1G4VH1Manager@@UEAA@XZ
	??1G4VH2Manager@@UEAA@XZ
	??1G4VH3Manager@@UEAA@XZ
	??1G4VNtupleManager@@UEAA@XZ
	??1G4VP1Manager@@UEAA@XZ
	??1G4VP2Manager@@UEAA@XZ
	??1G4VRNtupleManager@@UEAA@XZ
	??1G4XmlAnalysisManager@@UEAA@XZ
	??1G4XmlAnalysisReader@@UEAA@XZ
	??1G4XmlFileManager@@UEAA@XZ
	??1G4XmlNtupleManager@@UEAA@XZ
	??1G4XmlRFileManager@@UEAA@XZ
	??1G4XmlRNtupleManager@@MEAA@XZ
	??1ValueData@G4AnalysisMessengerHelper@@QEAA@XZ
	??1_Ref_count_base@std@@UEAA@XZ
	??1_Sentry_base@?$basic_istream@DU?$char_traits@D@std@@@std@@QEAA@XZ
	??1_Sentry_base@?$basic_ostream@DU?$char_traits@D@std@@@std@@QEAA@XZ
	??1_switch@sg@tools@@UEAA@XZ
	??1_text@hplot@tools@@UEAA@XZ
	??1action@sg@tools@@UEAA@XZ
	??1aida_base_col@aida@tools@@UEAA@XZ
	??1aida_col_ntu@aida@tools@@UEAA@XZ
	??1aidas@xml@tools@@UEAA@XZ
	??1atb_vertices@sg@tools@@UEAA@XZ
	??1axis@hplot@tools@@UEAA@XZ
	??1axis@sg@tools@@UEAA@XZ
	??1back_area@sg@tools@@UEAA@XZ
	??1bad_array_new_length@std@@UEAA@XZ
	??1bad_cast@std@@UEAA@XZ
	??1base_camera@sg@tools@@UEAA@XZ
	??1base_cloud@histo@tools@@MEAA@XZ
	??1base_col@aida@tools@@UEAA@XZ
	??1base_colormap@sg@tools@@UEAA@XZ
	??1base_freetype@sg@tools@@UEAA@XZ
	??1base_handle@tools@@UEAA@XZ
	??1base_leaf@rroot@tools@@UEAA@XZ
	??1base_leaf@wroot@tools@@UEAA@XZ
	??1base_ntu@aida@tools@@MEAA@XZ
	??1base_pntuple@wroot@tools@@UEAA@XZ
	??1base_pntuple_column_wise@wroot@tools@@UEAA@XZ
	??1base_pntuple_row_wise@wroot@tools@@UEAA@XZ
	??1base_poly@spline@tools@@UEAA@XZ
	??1base_spline@spline@tools@@UEAA@XZ
	??1base_tex@sg@tools@@UEAA@XZ
	??1base_text@sg@tools@@UEAA@XZ
	??1basket@rroot@tools@@UEAA@XZ
	??1basket@wroot@tools@@UEAA@XZ
	??1bbox_action@sg@tools@@UEAA@XZ
	??1bins1D@sg@tools@@UEAA@XZ
	??1bins2D@sg@tools@@UEAA@XZ
	??1box3f@tools@@UEAA@XZ
	??1branch@rroot@tools@@UEAA@XZ
	??1branch@wroot@tools@@UEAA@XZ
	??1branch_element@rroot@tools@@UEAA@XZ
	??1branch_element@wroot@tools@@UEAA@XZ
	??1branch_object@rroot@tools@@UEAA@XZ
	??1bsf_enum@sg@tools@@UEAA@XZ
	??1buffer@rroot@tools@@UEAA@XZ
	??1buffer@wroot@tools@@UEAA@XZ
	??1buffer@zb@tools@@UEAA@XZ
	??1bufobj@wroot@tools@@UEAA@XZ
	??1by_value_colormap@sg@tools@@UEAA@XZ
	??1c1d@histo@tools@@UEAA@XZ
	??1c2d@histo@tools@@UEAA@XZ
	??1c3d@histo@tools@@UEAA@XZ
	??1ccontour@tools@@UEAA@XZ
	??1charp_out@tools@@QEAA@XZ
	??1clist_contour@tools@@UEAA@XZ
	??1colbook@aidas@xml@tools@@QEAA@XZ
	??1colorf@tools@@UEAA@XZ
	??1column_binding@tools@@UEAA@XZ
	??1column_booking@tools@@UEAA@XZ
	??1column_string@base_pntuple@wroot@tools@@UEAA@XZ
	??1column_string@ntuple@rroot@tools@@UEAA@XZ
	??1column_string@ntuple@wroot@tools@@UEAA@XZ
	??1column_string_ref@base_pntuple@wroot@tools@@UEAA@XZ
	??1column_string_ref@ntuple@rroot@tools@@UEAA@XZ
	??1column_string_ref@ntuple@wroot@tools@@UEAA@XZ
	??1column_vector_string@base_pntuple@wroot@tools@@UEAA@XZ
	??1column_vector_string@ntuple@rroot@tools@@UEAA@XZ
	??1column_vector_string@ntuple@wroot@tools@@UEAA@XZ
	??1column_vector_string_ref@base_pntuple@wroot@tools@@UEAA@XZ
	??1column_vector_string_ref@ntuple@rroot@tools@@UEAA@XZ
	??1column_vector_string_ref@ntuple@wroot@tools@@UEAA@XZ
	??1const_colormap@sg@tools@@UEAA@XZ
	??1cube@sg@tools@@UEAA@XZ
	??1cubic@spline@tools@@UEAA@XZ
	??1curve@tools@@UEAA@XZ
	??1data_axis@tools@@UEAA@XZ
	??1data_point@histo@tools@@UEAA@XZ
	??1default_factory@xml@tools@@UEAA@XZ
	??1desc_fields@sg@tools@@UEAA@XZ
	??1directory@rroot@tools@@UEAA@XZ
	??1directory@wroot@tools@@UEAA@XZ
	??1dps@histo@tools@@UEAA@XZ
	??1draw_style@sg@tools@@UEAA@XZ
	??1dummy@rroot@tools@@UEAA@XZ
	??1dummy_fac@rroot@tools@@UEAA@XZ
	??1dummy_freetype@sg@tools@@UEAA@XZ
	??1dummy_streamer_element@rroot@tools@@UEAA@XZ
	??1element@xml@tools@@UEAA@XZ
	??1ellipse@sg@tools@@UEAA@XZ
	??1event@sg@tools@@UEAA@XZ
	??1event_action@sg@tools@@UEAA@XZ
	??1exception@std@@UEAA@XZ
	??1extra@plots@sg@tools@@UEAA@XZ
	??1fac@rroot@tools@@UEAA@XZ
	??1factory@xml@tools@@UEAA@XZ
	??1field@sg@tools@@UEAA@XZ
	??1field_desc@sg@tools@@UEAA@XZ
	??1field_desc_enums@sg@tools@@UEAA@XZ
	??1field_desc_opts@sg@tools@@UEAA@XZ
	??1file@base_pntuple_column_wise@wroot@tools@@UEAA@XZ
	??1file@rroot@tools@@UEAA@XZ
	??1file@wroot@tools@@UEAA@XZ
	??1finder@columns@tools@@UEAA@XZ
	??1free_seg@wroot@tools@@UEAA@XZ
	??1gl2ps_manager@sg@tools@@UEAA@XZ
	??1graph@rroot@tools@@UEAA@XZ
	??1grey_scale_colormap@sg@tools@@UEAA@XZ
	??1grey_scale_inverse_colormap@sg@tools@@UEAA@XZ
	??1group@sg@tools@@UEAA@XZ
	??1gstos@sg@tools@@MEAA@XZ
	??1gstos_add@sg@tools@@UEAA@XZ
	??1h1d2plot@sg@tools@@UEAA@XZ
	??1h1d@histo@tools@@UEAA@XZ
	??1h2d2plot@sg@tools@@UEAA@XZ
	??1h2d@histo@tools@@UEAA@XZ
	??1h3d@histo@tools@@UEAA@XZ
	??1hatcher@tools@@UEAA@XZ
	??1hchar@sg@tools@@UEAA@XZ
	??1histo@rcsv@tools@@UEAA@XZ
	??1iadd_basket@branch@wroot@tools@@UEAA@XZ
	??1ibo@wroot@tools@@UEAA@XZ
	??1icol@ntuple@wcsv@tools@@UEAA@XZ
	??1icol@read@tools@@UEAA@XZ
	??1icol@wroot@tools@@UEAA@XZ
	??1idir@wroot@tools@@UEAA@XZ
	??1ielem@xml@tools@@UEAA@XZ
	??1ifac@rroot@tools@@UEAA@XZ
	??1ifile@rroot@tools@@UEAA@XZ
	??1ifile@wroot@tools@@UEAA@XZ
	??1imt_ntuple@wroot@tools@@UEAA@XZ
	??1imutex@wroot@tools@@UEAA@XZ
	??1infos_box@sg@tools@@UEAA@XZ
	??1intuple@read@tools@@UEAA@XZ
	??1iobj@ntuple@waxml@tools@@UEAA@XZ
	??1iobject@rroot@tools@@UEAA@XZ
	??1iobject@wroot@tools@@UEAA@XZ
	??1iro@rroot@tools@@UEAA@XZ
	??1iros@rroot@tools@@UEAA@XZ
	??1itree@wroot@tools@@UEAA@XZ
	??1key@rroot@tools@@UEAA@XZ
	??1key@wroot@tools@@UEAA@XZ
	??1leaf@ntuple@waxml@tools@@UEAA@XZ
	??1leaf_element@rroot@tools@@UEAA@XZ
	??1leaf_element@wroot@tools@@UEAA@XZ
	??1leaf_object@rroot@tools@@UEAA@XZ
	??1leaf_string@rroot@tools@@UEAA@XZ
	??1leaf_string_ref@wroot@tools@@UEAA@XZ
	??1legend@sg@tools@@UEAA@XZ
	??1line_style@sg@tools@@UEAA@XZ
	??1loader@xml@tools@@UEAA@XZ
	??1locale@std@@QEAA@XZ
	??1long_out@tools@@QEAA@XZ
	??1looper@xml@tools@@UEAA@XZ
	??1markers@sg@tools@@UEAA@XZ
	??1mat4f@tools@@UEAA@XZ
	??1matrix@rroot@tools@@UEAA@XZ
	??1matrix@sg@tools@@UEAA@XZ
	??1matrix_action@sg@tools@@UEAA@XZ
	??1measurement@histo@tools@@UEAA@XZ
	??1mf_string@sg@tools@@UEAA@XZ
	??1mt_ntuple_column_wise@wroot@tools@@UEAA@XZ
	??1mt_ntuple_row_wise@wroot@tools@@UEAA@XZ
	??1mutex@@UEAA@XZ
	??1named@rroot@tools@@UEAA@XZ
	??1node@sg@tools@@UEAA@XZ
	??1node_desc@sg@tools@@UEAA@XZ
	??1noderef@sg@tools@@UEAA@XZ
	??1normal@sg@tools@@UEAA@XZ
	??1nostream@tools@@UEAA@XZ
	??1ntuple@aida@tools@@UEAA@XZ
	??1ntuple@rcsv@tools@@UEAA@XZ
	??1ntuple@rroot@tools@@UEAA@XZ
	??1ntuple@waxml@tools@@UEAA@XZ
	??1ntuple@wcsv@tools@@UEAA@XZ
	??1ntuple@wroot@tools@@UEAA@XZ
	??1ntuple_binding@tools@@UEAA@XZ
	??1ntuple_booking@tools@@UEAA@XZ
	??1obj_list@rroot@tools@@UEAA@XZ
	??1ortho@sg@tools@@UEAA@XZ
	??1p1d2plot@sg@tools@@UEAA@XZ
	??1p1d@histo@tools@@UEAA@XZ
	??1p2d@histo@tools@@UEAA@XZ
	??1parser@columns@tools@@UEAA@XZ
	??1pick_action@sg@tools@@UEAA@XZ
	??1pick_element@sg@tools@@UEAA@XZ
	??1plots@sg@tools@@UEAA@XZ
	??1plots_viewer@sg@tools@@UEAA@XZ
	??1plottable@sg@tools@@UEAA@XZ
	??1plotter@sg@tools@@UEAA@XZ
	??1point_writer@buffer@zb@tools@@UEAA@XZ
	??1polygon@zb@tools@@UEAA@XZ
	??1primitive_visitor@sg@tools@@UEAA@XZ
	??1primvis@zb_action@sg@tools@@UEAA@XZ
	??1raxml@tools@@UEAA@XZ
	??1raxml_out@tools@@UEAA@XZ
	??1rbuf@rroot@tools@@UEAA@XZ
	??1reader@file@tools@@UEAA@XZ
	??1render_action@sg@tools@@UEAA@XZ
	??1render_gstos@sg@tools@@UEAA@XZ
	??1render_manager@sg@tools@@UEAA@XZ
	??1rgba@sg@tools@@UEAA@XZ
	??1rotf@tools@@UEAA@XZ
	??1rtausmef@tools@@UEAA@XZ
	??1rtausmeui@tools@@UEAA@XZ
	??1scan_writer@buffer@zb@tools@@UEAA@XZ
	??1scan_writer_1@buffer@zb@tools@@UEAA@XZ
	??1scan_writer_2@buffer@zb@tools@@UEAA@XZ
	??1scan_writer_3@buffer@zb@tools@@UEAA@XZ
	??1scan_writer_4@buffer@zb@tools@@UEAA@XZ
	??1sentry@?$basic_istream@DU?$char_traits@D@std@@@std@@QEAA@XZ
	??1sentry@?$basic_ostream@DU?$char_traits@D@std@@@std@@QEAA@XZ
	??1separator@sg@tools@@UEAA@XZ
	??1sf_mat4f@sg@tools@@UEAA@XZ
	??1sf_rotf@sg@tools@@UEAA@XZ
	??1sf_string@sg@tools@@UEAA@XZ
	??1sf_vec3f@sg@tools@@UEAA@XZ
	??1sf_vec4f@sg@tools@@UEAA@XZ
	??1size_event@sg@tools@@UEAA@XZ
	??1sout@tools@@QEAA@XZ
	??1state@sg@tools@@UEAA@XZ
	??1states@sg@tools@@UEAA@XZ
	??1stl_vector_string@rroot@tools@@UEAA@XZ
	??1streamer_STL@wroot@tools@@UEAA@XZ
	??1streamer_base@wroot@tools@@UEAA@XZ
	??1streamer_basic_pointer@wroot@tools@@UEAA@XZ
	??1streamer_basic_type@wroot@tools@@UEAA@XZ
	??1streamer_bool@wroot@tools@@UEAA@XZ
	??1streamer_double@wroot@tools@@UEAA@XZ
	??1streamer_element@rroot@tools@@UEAA@XZ
	??1streamer_element@wroot@tools@@UEAA@XZ
	??1streamer_fac@rroot@tools@@UEAA@XZ
	??1streamer_float@wroot@tools@@UEAA@XZ
	??1streamer_info@rroot@tools@@UEAA@XZ
	??1streamer_info@wroot@tools@@UEAA@XZ
	??1streamer_int@wroot@tools@@UEAA@XZ
	??1streamer_object@wroot@tools@@UEAA@XZ
	??1streamer_object_any@wroot@tools@@UEAA@XZ
	??1streamer_object_pointer@wroot@tools@@UEAA@XZ
	??1streamer_short@wroot@tools@@UEAA@XZ
	??1streamer_stat_t@wroot@tools@@UEAA@XZ
	??1streamer_string@wroot@tools@@UEAA@XZ
	??1streamer_uint@wroot@tools@@UEAA@XZ
	??1style@sg@tools@@UEAA@XZ
	??1style_color@sg@tools@@UEAA@XZ
	??1style_colormap@sg@tools@@UEAA@XZ
	??1style_default_colormap@sg@tools@@UEAA@XZ
	??1style_parser@sg@tools@@UEAA@XZ
	??1styles@xml@tools@@UEAA@XZ
	??1tess_contour@tools@@UEAA@XZ
	??1tex_rect@sg@tools@@UEAA@XZ
	??1text@sg@tools@@UEAA@XZ
	??1text_hershey@sg@tools@@UEAA@XZ
	??1text_style@sg@tools@@UEAA@XZ
	??1text_valop@sg@tools@@UEAA@XZ
	??1torche@sg@tools@@UEAA@XZ
	??1tree@columns@tools@@UEAA@XZ
	??1tree@rroot@tools@@UEAA@XZ
	??1tree@wroot@tools@@UEAA@XZ
	??1tree@xml@tools@@UEAA@XZ
	??1tree_index@rroot@tools@@UEAA@XZ
	??1valop2sg@tools@@UEAA@XZ
	??1valop@tools@@UEAA@XZ
	??1valop_visitor@tools@@UEAA@XZ
	??1value@tools@@UEAA@XZ
	??1vec2f@tools@@UEAA@XZ
	??1vec3d@tools@@UEAA@XZ
	??1vec3f@tools@@UEAA@XZ
	??1vec4f@tools@@UEAA@XZ
	??1vector3@rroot@tools@@UEAA@XZ
	??1vertices@sg@tools@@UEAA@XZ
	??1viewer@sg@tools@@UEAA@XZ
	??1viewplot@tools@@UEAA@XZ
	??1violet_to_red_colormap@sg@tools@@UEAA@XZ
	??1wbuf@wroot@tools@@UEAA@XZ
	??1win_action@sg@tools@@UEAA@XZ
	??1wps@tools@@UEAA@XZ
	??1writer@buffer@zb@tools@@UEAA@XZ
	??1zb_action@sg@tools@@UEAA@XZ
	??1zb_manager@sg@tools@@UEAA@XZ
	??4?$_Vb_reference@U?$_Wrap_alloc@V?$allocator@I@std@@@std@@@std@@QEAAAEAV01@_N@Z
	??4?$basic_string@DU?$char_traits@D@std@@V?$allocator@D@2@@std@@QEAAAEAV01@$$QEAV01@@Z
	??4?$basic_string@DU?$char_traits@D@std@@V?$allocator@D@2@@std@@QEAAAEAV01@AEBV01@@Z
	??4?$bmf@W4unit_type@plotter@sg@tools@@@sg@tools@@QEAAAEAV012@AEBV012@@Z
	??4?$histo_data@NIIN@histo@tools@@QEAAAEAV012@AEBV012@@Z
	??4?$img@E@tools@@QEAAAEAV01@AEBV01@@Z
	??4?$map@V?$basic_string@DU?$char_traits@D@std@@V?$allocator@D@2@@std@@Vstyle_colormap@sg@tools@@U?$less@V?$basic_string@DU?$char_traits@D@std@@V?$allocator@D@2@@std@@@2@V?$allocator@U?$pair@$$CBV?$basic_string@DU?$char_traits@D@std@@V?$allocator@D@2@@std@@Vstyle_colormap@sg@tools@@@std@@@2@@std@@QEAAAEAV01@AEBV01@@Z
	??4?$mf@M@sg@tools@@QEAAAEAV012@AEBV012@@Z
	??4?$mf_vec@Vvec2f@tools@@M@sg@tools@@QEAAAEAV012@AEBV012@@Z
	??4?$obj_array@Vstreamer_element@rroot@tools@@@rroot@tools@@QEAAAEAV012@AEBV012@@Z
	??4?$sf_vec@Vcolorf@tools@@M@sg@tools@@QEAAAEAV012@AEBV012@@Z
	??4?$sf_vec@Vcolorf@tools@@M@sg@tools@@QEAAAEAV012@AEBVcolorf@2@@Z
	??4?$shared_ptr@V?$basic_ofstream@DU?$char_traits@D@std@@@std@@@std@@QEAAAEAV01@$$QEAV01@@Z
	??4?$shared_ptr@VG4HnManager@@@std@@QEAAAEAV01@$$QEAV01@@Z
	??4?$shared_ptr@Vfile@wroot@tools@@@std@@QEAAAEAV01@$$QEAV01@@Z
	??4?$vector@DV?$allocator@D@std@@@std@@QEAAAEAV01@$$QEAV01@@Z
	??4?$vector@DV?$allocator@D@std@@@std@@QEAAAEAV01@AEBV01@@Z
	??4?$vector@EV?$allocator@E@std@@@std@@QEAAAEAV01@AEBV01@@Z
	??4?$vector@FV?$allocator@F@std@@@std@@QEAAAEAV01@$$QEAV01@@Z
	??4?$vector@FV?$allocator@F@std@@@std@@QEAAAEAV01@AEBV01@@Z
	??4?$vector@GV?$allocator@G@std@@@std@@QEAAAEAV01@AEBV01@@Z
	??4?$vector@HV?$allocator@H@std@@@std@@QEAAAEAV01@$$QEAV01@@Z
	??4?$vector@HV?$allocator@H@std@@@std@@QEAAAEAV01@AEBV01@@Z
	??4?$vector@IV?$allocator@I@std@@@std@@QEAAAEAV01@AEBV01@@Z
	??4?$vector@MV?$allocator@M@std@@@std@@QEAAAEAV01@$$QEAV01@@Z
	??4?$vector@MV?$allocator@M@std@@@std@@QEAAAEAV01@AEBV01@@Z
	??4?$vector@NV?$allocator@N@std@@@std@@QEAAAEAV01@$$QEAV01@@Z
	??4?$vector@NV?$allocator@N@std@@@std@@QEAAAEAV01@AEBV01@@Z
	??4?$vector@V?$basic_string@DU?$char_traits@D@std@@V?$allocator@D@2@@std@@V?$allocator@V?$basic_string@DU?$char_traits@D@std@@V?$allocator@D@2@@std@@@2@@std@@QEAAAEAV01@AEBV01@@Z
	??4?$vector@_JV?$allocator@_J@std@@@std@@QEAAAEAV01@AEBV01@@Z
	??4?$vector@_KV?$allocator@_K@std@@@std@@QEAAAEAV01@AEBV01@@Z
	??4axis@sg@tools@@QEAAAEAV012@AEBV012@@Z
	??4group@sg@tools@@QEAAAEAV012@AEBV012@@Z
	??4line_style@sg@tools@@QEAAAEAV012@AEBV012@@Z
	??4matrix_action@sg@tools@@QEAAAEAV012@AEBV012@@Z
	??4mf_string@sg@tools@@QEAAAEAV012@AEBV012@@Z
	??4ntuple@aida@tools@@QEAAAEAV012@AEBV012@@Z
	??4plotter@sg@tools@@QEAAAEAV012@AEBV012@@Z
	??4sf_string@sg@tools@@QEAAAEAV012@AEBV012@@Z
	??4sf_string@sg@tools@@QEAAAEAV012@AEBV?$basic_string@DU?$char_traits@D@std@@V?$allocator@D@2@@std@@@Z
	??4state@sg@tools@@QEAAAEAV012@AEBV012@@Z
	??4style@sg@tools@@QEAAAEAV012@AEBV012@@Z
	??4text_style@sg@tools@@QEAAAEAV012@AEBV012@@Z
	??9?$_Vb_const_iterator@U?$_Wrap_alloc@V?$allocator@I@std@@@std@@@std@@QEBA_NAEBV01@@Z
	??A?$map@IPEAViro@rroot@tools@@U?$less@I@std@@V?$allocator@U?$pair@$$CBIPEAViro@rroot@tools@@@std@@@5@@std@@QEAAAEAPEAViro@rroot@tools@@AEBI@Z
	??A?$map@IU?$pair@PEAVbasket@rroot@tools@@_N@std@@U?$less@I@2@V?$allocator@U?$pair@$$CBIU?$pair@PEAVbasket@rroot@tools@@_N@std@@@std@@@2@@std@@QEAAAEAU?$pair@PEAVbasket@rroot@tools@@_N@1@AEBI@Z
	??A?$map@IV?$img@E@tools@@U?$less@I@std@@V?$allocator@U?$pair@$$CBIV?$img@E@tools@@@std@@@4@@std@@QEAAAEAV?$img@E@tools@@AEBI@Z
	??A?$map@V?$basic_string@DU?$char_traits@D@std@@V?$allocator@D@2@@std@@V12@U?$less@V?$basic_string@DU?$char_traits@D@std@@V?$allocator@D@2@@std@@@2@V?$allocator@U?$pair@$$CBV?$basic_string@DU?$char_traits@D@std@@V?$allocator@D@2@@std@@V12@@std@@@2@@std@@QEAAAEAV?$basic_string@DU?$char_traits@D@std@@V?$allocator@D@2@@1@AEBV21@@Z
	??A?$vector@V?$axis@NI@histo@tools@@V?$allocator@V?$axis@NI@histo@tools@@@std@@@std@@QEAAAEAV?$axis@NI@histo@tools@@_K@Z
	??A?$vector@V?$vector@HV?$allocator@H@std@@@std@@V?$allocator@V?$vector@HV?$allocator@H@std@@@std@@@2@@std@@QEAAAEAV?$vector@HV?$allocator@H@std@@@1@_K@Z
	??A?$vector@V?$vector@NV?$allocator@N@std@@@std@@V?$allocator@V?$vector@NV?$allocator@N@std@@@std@@@2@@std@@QEAAAEAV?$vector@NV?$allocator@N@std@@@1@_K@Z
	??A?$vector@Vvec3f@tools@@V?$allocator@Vvec3f@tools@@@std@@@std@@QEAAAEAVvec3f@tools@@_K@Z
	??A?$vector@_NV?$allocator@_N@std@@@std@@QEAA?AV?$_Vb_reference@U?$_Wrap_alloc@V?$allocator@I@std@@@std@@@1@_K@Z
	??B?$_Vb_reference@U?$_Wrap_alloc@V?$allocator@I@std@@@std@@@std@@QEBA_NXZ
	??Drotf@tools@@QEBA?AV01@AEBV01@@Z
	??E?$_Tree_unchecked_const_iterator@V?$_Tree_val@U?$_Tree_simple_types@U?$pair@$$CBV?$basic_string@DU?$char_traits@D@std@@V?$allocator@D@2@@std@@V12@@std@@@std@@@std@@U_Iterator_base0@2@@std@@QEAAAEAV01@XZ
	??H?$_Vb_iterator@U?$_Wrap_alloc@V?$allocator@I@std@@@std@@@std@@QEBA?AV01@_J@Z
	??R?$less@V?$basic_string@DU?$char_traits@D@std@@V?$allocator@D@2@@std@@@std@@QEBA_NAEBV?$basic_string@DU?$char_traits@D@std@@V?$allocator@D@2@@1@0@Z
	??R?$less@VG4String@@@std@@QEBA_NAEBVG4String@@0@Z
	??_D?$basic_ifstream@DU?$char_traits@D@std@@@std@@QEAAXXZ
	??_D?$basic_istringstream@DU?$char_traits@D@std@@V?$allocator@D@2@@std@@QEAAXXZ
	??_D?$basic_ofstream@DU?$char_traits@D@std@@@std@@QEAAXXZ
	??_D?$basic_ostringstream@DU?$char_traits@D@std@@V?$allocator@D@2@@std@@QEAAXXZ
	??_D?$column@V?$basic_string@DU?$char_traits@D@std@@V?$allocator@D@2@@std@@@ntuple@waxml@tools@@QEAAXXZ
	??_D?$obj_array@Vbase_leaf@rroot@tools@@@rroot@tools@@QEAAXXZ
	??_D?$obj_array@Vbase_leaf@wroot@tools@@@wroot@tools@@QEAAXXZ
	??_D?$obj_array@Vbasket@rroot@tools@@@rroot@tools@@QEAAXXZ
	??_D?$obj_array@Vbasket@wroot@tools@@@wroot@tools@@QEAAXXZ
	??_D?$obj_array@Vbranch@rroot@tools@@@rroot@tools@@QEAAXXZ
	??_D?$obj_array@Vbranch@wroot@tools@@@wroot@tools@@QEAAXXZ
	??_D?$obj_array@Vstreamer_element@rroot@tools@@@rroot@tools@@QEAAXXZ
	??_D?$obj_array@Vstreamer_element@wroot@tools@@@wroot@tools@@QEAAXXZ
	??_D?$obj_list@Vstreamer_info@wroot@tools@@@wroot@tools@@QEAAXXZ
	??_D?$std_vector_column@H@ntuple@waxml@tools@@QEAAXXZ
	??_D?$std_vector_column@M@ntuple@waxml@tools@@QEAAXXZ
	??_D?$std_vector_column@N@ntuple@waxml@tools@@QEAAXXZ
	??_Dbasket_add@mt_ntuple_column_wise@wroot@tools@@QEAAXXZ
	??_Dbranch@wroot@tools@@QEAAXXZ
	??_Ddirectory@wroot@tools@@QEAAXXZ
	??_Ddummy@rroot@tools@@QEAAXXZ
	??_Ddummy_fac@rroot@tools@@QEAAXXZ
	??_Dgl2ps_manager@sg@tools@@QEAAXXZ
	??_Dmt_basket_add@wroot@tools@@QEAAXXZ
	??_Dmutex@@QEAAXXZ
	??_Dnostream@tools@@QEAAXXZ
	??_Dobj_list@rroot@tools@@QEAAXXZ
	??_Dpoint_writer@buffer@zb@tools@@QEAAXXZ
	??_Dscan_writer_1@buffer@zb@tools@@QEAAXXZ
	??_Dscan_writer_2@buffer@zb@tools@@QEAAXXZ
	??_Dscan_writer_3@buffer@zb@tools@@QEAAXXZ
	??_Dscan_writer_4@buffer@zb@tools@@QEAAXXZ
	??_Dstreamer_fac@rroot@tools@@QEAAXXZ
	??_Dvalop2sg@tools@@QEAAXXZ
	??_Dzb_manager@sg@tools@@QEAAXXZ
	??_H@YAXPEAX_K1P6APEAX0@Z@Z
	??__Fs_node_class@?1??node_desc_fields@_switch@sg@tools@@UEBAAEBVdesc_fields@23@XZ@YAXXZ
	??__Fs_node_class@?1??node_desc_fields@atb_vertices@sg@tools@@UEBAAEBVdesc_fields@23@XZ@YAXXZ
	??__Fs_node_class@?1??node_desc_fields@axis@sg@tools@@UEBAAEBVdesc_fields@23@XZ@YAXXZ
	??__Fs_node_class@?1??node_desc_fields@back_area@sg@tools@@UEBAAEBVdesc_fields@23@XZ@YAXXZ
	??__Fs_node_class@?1??node_desc_fields@base_camera@sg@tools@@UEBAAEBVdesc_fields@23@XZ@YAXXZ
	??__Fs_node_class@?1??node_desc_fields@base_freetype@sg@tools@@UEBAAEBVdesc_fields@23@XZ@YAXXZ
	??__Fs_node_class@?1??node_desc_fields@base_text@sg@tools@@UEBAAEBVdesc_fields@23@XZ@YAXXZ
	??__Fs_node_class@?1??node_desc_fields@cube@sg@tools@@UEBAAEBVdesc_fields@23@XZ@YAXXZ
	??__Fs_node_class@?1??node_desc_fields@draw_style@sg@tools@@UEBAAEBVdesc_fields@23@XZ@YAXXZ
	??__Fs_node_class@?1??node_desc_fields@ellipse@sg@tools@@UEBAAEBVdesc_fields@23@XZ@YAXXZ
	??__Fs_node_class@?1??node_desc_fields@infos_box@sg@tools@@UEBAAEBVdesc_fields@23@XZ@YAXXZ
	??__Fs_node_class@?1??node_desc_fields@legend@sg@tools@@UEBAAEBVdesc_fields@23@XZ@YAXXZ
	??__Fs_node_class@?1??node_desc_fields@line_style@sg@tools@@UEBAAEBVdesc_fields@23@XZ@YAXXZ
	??__Fs_node_class@?1??node_desc_fields@markers@sg@tools@@UEBAAEBVdesc_fields@23@XZ@YAXXZ
	??__Fs_node_class@?1??node_desc_fields@matrix@sg@tools@@UEBAAEBVdesc_fields@23@XZ@YAXXZ
	??__Fs_node_class@?1??node_desc_fields@normal@sg@tools@@UEBAAEBVdesc_fields@23@XZ@YAXXZ
	??__Fs_node_class@?1??node_desc_fields@ortho@sg@tools@@UEBAAEBVdesc_fields@23@XZ@YAXXZ
	??__Fs_node_class@?1??node_desc_fields@plots@sg@tools@@UEBAAEBVdesc_fields@23@XZ@YAXXZ
	??__Fs_node_class@?1??node_desc_fields@plotter@sg@tools@@UEBAAEBVdesc_fields@23@XZ@YAXXZ
	??__Fs_node_class@?1??node_desc_fields@rgba@sg@tools@@UEBAAEBVdesc_fields@23@XZ@YAXXZ
	??__Fs_node_class@?1??node_desc_fields@style@sg@tools@@UEBAAEBVdesc_fields@23@XZ@YAXXZ
	??__Fs_node_class@?1??node_desc_fields@tex_rect@sg@tools@@UEBAAEBVdesc_fields@23@XZ@YAXXZ
	??__Fs_node_class@?1??node_desc_fields@text@sg@tools@@UEBAAEBVdesc_fields@23@XZ@YAXXZ
	??__Fs_node_class@?1??node_desc_fields@text_hershey@sg@tools@@UEBAAEBVdesc_fields@23@XZ@YAXXZ
	??__Fs_node_class@?1??node_desc_fields@text_style@sg@tools@@UEBAAEBVdesc_fields@23@XZ@YAXXZ
	??__Fs_node_class@?1??node_desc_fields@text_valop@sg@tools@@UEBAAEBVdesc_fields@23@XZ@YAXXZ
	??__Fs_node_class@?1??node_desc_fields@torche@sg@tools@@UEBAAEBVdesc_fields@23@XZ@YAXXZ
	??__Fs_node_class@?1??node_desc_fields@vertices@sg@tools@@UEBAAEBVdesc_fields@23@XZ@YAXXZ
	??__Fs_v@?1???$_cid_std_vector@V?$basic_string@DU?$char_traits@D@std@@V?$allocator@D@2@@std@@@tools@@YAGXZ@YAXXZ
	??__Fs_v@?1???$get_color_black@Vcolorf@tools@@@tools@@YAAEBVcolorf@0@XZ@YAXXZ
	??__Fs_v@?1???$get_color_blue@Vcolorf@tools@@@tools@@YAAEBVcolorf@0@XZ@YAXXZ
	??__Fs_v@?1???$get_color_grey@Vcolorf@tools@@@tools@@YAAEBVcolorf@0@XZ@YAXXZ
	??__Fs_v@?1???$get_color_lightgrey@Vcolorf@tools@@@tools@@YAAEBVcolorf@0@XZ@YAXXZ
	??__Fs_v@?1???$get_color_red@Vcolorf@tools@@@tools@@YAAEBVcolorf@0@XZ@YAXXZ
	??__Fs_v@?1???$get_color_white@Vcolorf@tools@@@tools@@YAAEBVcolorf@0@XZ@YAXXZ
	??__Fs_v@?1??TTree_cls@rroot@tools@@YAAEBV?$basic_string@DU?$char_traits@D@std@@V?$allocator@D@2@@std@@XZ@YAXXZ
	??__Fs_v@?1??branch_element_store_class@wroot@tools@@YAAEBV?$basic_string@DU?$char_traits@D@std@@V?$allocator@D@2@@std@@XZ@YAXXZ
	??__Fs_v@?1??encoding_PAW@sg@tools@@YAAEBV?$basic_string@DU?$char_traits@D@std@@V?$allocator@D@2@@std@@XZ@YAXXZ
	??__Fs_v@?1??encoding_none@sg@tools@@YAAEBV?$basic_string@DU?$char_traits@D@std@@V?$allocator@D@2@@std@@XZ@YAXXZ
	??__Fs_v@?1??font_arial_ttf@sg@tools@@YAAEBV?$basic_string@DU?$char_traits@D@std@@V?$allocator@D@2@@std@@XZ@YAXXZ
	??__Fs_v@?1??font_arialbd_ttf@sg@tools@@YAAEBV?$basic_string@DU?$char_traits@D@std@@V?$allocator@D@2@@std@@XZ@YAXXZ
	??__Fs_v@?1??font_helvetica_ttf@sg@tools@@YAAEBV?$basic_string@DU?$char_traits@D@std@@V?$allocator@D@2@@std@@XZ@YAXXZ
	??__Fs_v@?1??font_hershey@sg@tools@@YAAEBV?$basic_string@DU?$char_traits@D@std@@V?$allocator@D@2@@std@@XZ@YAXXZ
	??__Fs_v@?1??font_stixgeneral_otf@sg@tools@@YAAEBV?$basic_string@DU?$char_traits@D@std@@V?$allocator@D@2@@std@@XZ@YAXXZ
	??__Fs_v@?1??font_symbol_ttf@sg@tools@@YAAEBV?$basic_string@DU?$char_traits@D@std@@V?$allocator@D@2@@std@@XZ@YAXXZ
	??__Fs_v@?1??font_times_roman_ttf@sg@tools@@YAAEBV?$basic_string@DU?$char_traits@D@std@@V?$allocator@D@2@@std@@XZ@YAXXZ
	??__Fs_v@?1??font_timesbd_ttf@sg@tools@@YAAEBV?$basic_string@DU?$char_traits@D@std@@V?$allocator@D@2@@std@@XZ@YAXXZ
	??__Fs_v@?1??id_class@?$column@V?$basic_string@DU?$char_traits@D@std@@V?$allocator@D@2@@std@@@ntuple@rcsv@tools@@SAGXZ@YAXXZ
	??__Fs_v@?1??id_class@?$column@V?$basic_string@DU?$char_traits@D@std@@V?$allocator@D@2@@std@@@ntuple@wcsv@tools@@SAGXZ@YAXXZ
	??__Fs_v@?1??id_class@?$column@V?$vector@DV?$allocator@D@std@@@std@@@ntuple@rcsv@tools@@SAGXZ@YAXXZ
	??__Fs_v@?1??id_class@?$column@V?$vector@EV?$allocator@E@std@@@std@@@ntuple@rcsv@tools@@SAGXZ@YAXXZ
	??__Fs_v@?1??id_class@?$column@V?$vector@FV?$allocator@F@std@@@std@@@ntuple@rcsv@tools@@SAGXZ@YAXXZ
	??__Fs_v@?1??id_class@?$column@V?$vector@GV?$allocator@G@std@@@std@@@ntuple@rcsv@tools@@SAGXZ@YAXXZ
	??__Fs_v@?1??id_class@?$column@V?$vector@HV?$allocator@H@std@@@std@@@ntuple@rcsv@tools@@SAGXZ@YAXXZ
	??__Fs_v@?1??id_class@?$column@V?$vector@IV?$allocator@I@std@@@std@@@ntuple@rcsv@tools@@SAGXZ@YAXXZ
	??__Fs_v@?1??id_class@?$column@V?$vector@MV?$allocator@M@std@@@std@@@ntuple@rcsv@tools@@SAGXZ@YAXXZ
	??__Fs_v@?1??id_class@?$column@V?$vector@NV?$allocator@N@std@@@std@@@ntuple@rcsv@tools@@SAGXZ@YAXXZ
	??__Fs_v@?1??id_class@?$column@V?$vector@V?$basic_string@DU?$char_traits@D@std@@V?$allocator@D@2@@std@@V?$allocator@V?$basic_string@DU?$char_traits@D@std@@V?$allocator@D@2@@std@@@2@@std@@@ntuple@rcsv@tools@@SAGXZ@YAXXZ
	??__Fs_v@?1??id_class@?$column@V?$vector@_JV?$allocator@_J@std@@@std@@@ntuple@rcsv@tools@@SAGXZ@YAXXZ
	??__Fs_v@?1??id_class@?$column@V?$vector@_KV?$allocator@_K@std@@@std@@@ntuple@rcsv@tools@@SAGXZ@YAXXZ
	??__Fs_v@?1??id_class@?$column@V?$vector@_NV?$allocator@_N@std@@@std@@@ntuple@rcsv@tools@@SAGXZ@YAXXZ
	??__Fs_v@?1??id_class@?$column_ref@V?$basic_string@DU?$char_traits@D@std@@V?$allocator@D@2@@std@@@ntuple@wcsv@tools@@SAGXZ@YAXXZ
	??__Fs_v@?1??id_class@?$icolumn@V?$basic_string@DU?$char_traits@D@std@@V?$allocator@D@2@@std@@@read@tools@@SAGXZ@YAXXZ
	??__Fs_v@?1??id_class@?$icolumn@V?$vector@DV?$allocator@D@std@@@std@@@read@tools@@SAGXZ@YAXXZ
	??__Fs_v@?1??id_class@?$icolumn@V?$vector@EV?$allocator@E@std@@@std@@@read@tools@@SAGXZ@YAXXZ
	??__Fs_v@?1??id_class@?$icolumn@V?$vector@FV?$allocator@F@std@@@std@@@read@tools@@SAGXZ@YAXXZ
	??__Fs_v@?1??id_class@?$icolumn@V?$vector@GV?$allocator@G@std@@@std@@@read@tools@@SAGXZ@YAXXZ
	??__Fs_v@?1??id_class@?$icolumn@V?$vector@HV?$allocator@H@std@@@std@@@read@tools@@SAGXZ@YAXXZ
	??__Fs_v@?1??id_class@?$icolumn@V?$vector@IV?$allocator@I@std@@@std@@@read@tools@@SAGXZ@YAXXZ
	??__Fs_v@?1??id_class@?$icolumn@V?$vector@MV?$allocator@M@std@@@std@@@read@tools@@SAGXZ@YAXXZ
	??__Fs_v@?1??id_class@?$icolumn@V?$vector@NV?$allocator@N@std@@@std@@@read@tools@@SAGXZ@YAXXZ
	??__Fs_v@?1??id_class@?$icolumn@V?$vector@V?$basic_string@DU?$char_traits@D@std@@V?$allocator@D@2@@std@@V?$allocator@V?$basic_string@DU?$char_traits@D@std@@V?$allocator@D@2@@std@@@2@@std@@@read@tools@@SAGXZ@YAXXZ
	??__Fs_v@?1??id_class@?$icolumn@V?$vector@_JV?$allocator@_J@std@@@std@@@read@tools@@SAGXZ@YAXXZ
	??__Fs_v@?1??id_class@?$icolumn@V?$vector@_KV?$allocator@_K@std@@@std@@@read@tools@@SAGXZ@YAXXZ
	??__Fs_v@?1??id_class@?$icolumn@V?$vector@_NV?$allocator@_N@std@@@std@@@read@tools@@SAGXZ@YAXXZ
	??__Fs_v@?1??id_class@column_string@base_pntuple@wroot@tools@@SAGXZ@YAXXZ
	??__Fs_v@?1??id_class@column_string@ntuple@rroot@tools@@SAGXZ@YAXXZ
	??__Fs_v@?1??id_class@column_string@ntuple@wroot@tools@@SAGXZ@YAXXZ
	??__Fs_v@?1??id_class@column_string_ref@base_pntuple@wroot@tools@@SAGXZ@YAXXZ
	??__Fs_v@?1??id_class@column_string_ref@ntuple@rroot@tools@@SAGXZ@YAXXZ
	??__Fs_v@?1??id_class@column_string_ref@ntuple@wroot@tools@@SAGXZ@YAXXZ
	??__Fs_v@?1??id_orientation@base_camera@sg@tools@@KAAEBV?$vec4@M@3@XZ@YAXXZ
	??__Fs_v@?1??infos_modeling_ROOT@sg@tools@@YAAEBV?$basic_string@DU?$char_traits@D@std@@V?$allocator@D@2@@std@@XZ@YAXXZ
	??__Fs_v@?1??key_axis_x_title@histo@tools@@YAAEBV?$basic_string@DU?$char_traits@D@std@@V?$allocator@D@2@@std@@XZ@YAXXZ
	??__Fs_v@?1??key_axis_y_title@histo@tools@@YAAEBV?$basic_string@DU?$char_traits@D@std@@V?$allocator@D@2@@std@@XZ@YAXXZ
	??__Fs_v@?1??key_axis_z_title@histo@tools@@YAAEBV?$basic_string@DU?$char_traits@D@std@@V?$allocator@D@2@@std@@XZ@YAXXZ
	??__Fs_v@?1??leaf_element_store_class@wroot@tools@@YAAEBV?$basic_string@DU?$char_traits@D@std@@V?$allocator@D@2@@std@@XZ@YAXXZ
	??__Fs_v@?1??leaf_store_class@rroot@tools@@YAAEBV?$basic_string@DU?$char_traits@D@std@@V?$allocator@D@2@@std@@D@Z@YAXXZ
	??__Fs_v@?1??leaf_store_class@rroot@tools@@YAAEBV?$basic_string@DU?$char_traits@D@std@@V?$allocator@D@2@@std@@F@Z@YAXXZ
	??__Fs_v@?1??leaf_store_class@rroot@tools@@YAAEBV?$basic_string@DU?$char_traits@D@std@@V?$allocator@D@2@@std@@H@Z@YAXXZ
	??__Fs_v@?1??leaf_store_class@rroot@tools@@YAAEBV?$basic_string@DU?$char_traits@D@std@@V?$allocator@D@2@@std@@M@Z@YAXXZ
	??__Fs_v@?1??leaf_store_class@rroot@tools@@YAAEBV?$basic_string@DU?$char_traits@D@std@@V?$allocator@D@2@@std@@N@Z@YAXXZ
	??__Fs_v@?1??leaf_store_class@rroot@tools@@YAAEBV?$basic_string@DU?$char_traits@D@std@@V?$allocator@D@2@@std@@_N@Z@YAXXZ
	??__Fs_v@?1??leaf_store_class@wroot@tools@@YAAEBV?$basic_string@DU?$char_traits@D@std@@V?$allocator@D@2@@std@@D@Z@YAXXZ
	??__Fs_v@?1??leaf_store_class@wroot@tools@@YAAEBV?$basic_string@DU?$char_traits@D@std@@V?$allocator@D@2@@std@@F@Z@YAXXZ
	??__Fs_v@?1??leaf_store_class@wroot@tools@@YAAEBV?$basic_string@DU?$char_traits@D@std@@V?$allocator@D@2@@std@@H@Z@YAXXZ
	??__Fs_v@?1??leaf_store_class@wroot@tools@@YAAEBV?$basic_string@DU?$char_traits@D@std@@V?$allocator@D@2@@std@@M@Z@YAXXZ
	??__Fs_v@?1??leaf_store_class@wroot@tools@@YAAEBV?$basic_string@DU?$char_traits@D@std@@V?$allocator@D@2@@std@@N@Z@YAXXZ
	??__Fs_v@?1??leaf_string_store_class@wroot@tools@@YAAEBV?$basic_string@DU?$char_traits@D@std@@V?$allocator@D@2@@std@@XZ@YAXXZ
	??__Fs_v@?1??light_model_base_color@sg@tools@@YAAEBV?$basic_string@DU?$char_traits@D@std@@V?$allocator@D@2@@std@@XZ@YAXXZ
	??__Fs_v@?1??light_model_phong@sg@tools@@YAAEBV?$basic_string@DU?$char_traits@D@std@@V?$allocator@D@2@@std@@XZ@YAXXZ
	??__Fs_v@?1??modeling_bar_chart@sg@tools@@YAAEBV?$basic_string@DU?$char_traits@D@std@@V?$allocator@D@2@@std@@XZ@YAXXZ
	??__Fs_v@?1??modeling_boxes@sg@tools@@YAAEBV?$basic_string@DU?$char_traits@D@std@@V?$allocator@D@2@@std@@XZ@YAXXZ
	??__Fs_v@?1??modeling_curve@sg@tools@@YAAEBV?$basic_string@DU?$char_traits@D@std@@V?$allocator@D@2@@std@@XZ@YAXXZ
	??__Fs_v@?1??modeling_filled_curve@sg@tools@@YAAEBV?$basic_string@DU?$char_traits@D@std@@V?$allocator@D@2@@std@@XZ@YAXXZ
	??__Fs_v@?1??modeling_lines@sg@tools@@YAAEBV?$basic_string@DU?$char_traits@D@std@@V?$allocator@D@2@@std@@XZ@YAXXZ
	??__Fs_v@?1??modeling_markers@sg@tools@@YAAEBV?$basic_string@DU?$char_traits@D@std@@V?$allocator@D@2@@std@@XZ@YAXXZ
	??__Fs_v@?1??modeling_plus@sg@tools@@YAAEBV?$basic_string@DU?$char_traits@D@std@@V?$allocator@D@2@@std@@XZ@YAXXZ
	??__Fs_v@?1??modeling_points@sg@tools@@YAAEBV?$basic_string@DU?$char_traits@D@std@@V?$allocator@D@2@@std@@XZ@YAXXZ
	??__Fs_v@?1??modeling_solid@sg@tools@@YAAEBV?$basic_string@DU?$char_traits@D@std@@V?$allocator@D@2@@std@@XZ@YAXXZ
	??__Fs_v@?1??modeling_texts@sg@tools@@YAAEBV?$basic_string@DU?$char_traits@D@std@@V?$allocator@D@2@@std@@XZ@YAXXZ
	??__Fs_v@?1??modeling_top_lines@sg@tools@@YAAEBV?$basic_string@DU?$char_traits@D@std@@V?$allocator@D@2@@std@@XZ@YAXXZ
	??__Fs_v@?1??modeling_top_lines_boxes@sg@tools@@YAAEBV?$basic_string@DU?$char_traits@D@std@@V?$allocator@D@2@@std@@XZ@YAXXZ
	??__Fs_v@?1??modeling_wire_boxes@sg@tools@@YAAEBV?$basic_string@DU?$char_traits@D@std@@V?$allocator@D@2@@std@@XZ@YAXXZ
	??__Fs_v@?1??node_desc_fields@_switch@sg@tools@@UEBAAEBVdesc_fields@23@XZ@YAXXZ
	??__Fs_v@?1??node_desc_fields@atb_vertices@sg@tools@@UEBAAEBVdesc_fields@23@XZ@YAXXZ
	??__Fs_v@?1??node_desc_fields@axis@sg@tools@@UEBAAEBVdesc_fields@23@XZ@YAXXZ
	??__Fs_v@?1??node_desc_fields@back_area@sg@tools@@UEBAAEBVdesc_fields@23@XZ@YAXXZ
	??__Fs_v@?1??node_desc_fields@base_camera@sg@tools@@UEBAAEBVdesc_fields@23@XZ@YAXXZ
	??__Fs_v@?1??node_desc_fields@base_freetype@sg@tools@@UEBAAEBVdesc_fields@23@XZ@YAXXZ
	??__Fs_v@?1??node_desc_fields@base_text@sg@tools@@UEBAAEBVdesc_fields@23@XZ@YAXXZ
	??__Fs_v@?1??node_desc_fields@cube@sg@tools@@UEBAAEBVdesc_fields@23@XZ@YAXXZ
	??__Fs_v@?1??node_desc_fields@draw_style@sg@tools@@UEBAAEBVdesc_fields@23@XZ@YAXXZ
	??__Fs_v@?1??node_desc_fields@ellipse@sg@tools@@UEBAAEBVdesc_fields@23@XZ@YAXXZ
	??__Fs_v@?1??node_desc_fields@infos_box@sg@tools@@UEBAAEBVdesc_fields@23@XZ@YAXXZ
	??__Fs_v@?1??node_desc_fields@legend@sg@tools@@UEBAAEBVdesc_fields@23@XZ@YAXXZ
	??__Fs_v@?1??node_desc_fields@line_style@sg@tools@@UEBAAEBVdesc_fields@23@XZ@YAXXZ
	??__Fs_v@?1??node_desc_fields@markers@sg@tools@@UEBAAEBVdesc_fields@23@XZ@YAXXZ
	??__Fs_v@?1??node_desc_fields@matrix@sg@tools@@UEBAAEBVdesc_fields@23@XZ@YAXXZ
	??__Fs_v@?1??node_desc_fields@node@sg@tools@@UEBAAEBVdesc_fields@23@XZ@YAXXZ
	??__Fs_v@?1??node_desc_fields@normal@sg@tools@@UEBAAEBVdesc_fields@23@XZ@YAXXZ
	??__Fs_v@?1??node_desc_fields@ortho@sg@tools@@UEBAAEBVdesc_fields@23@XZ@YAXXZ
	??__Fs_v@?1??node_desc_fields@plots@sg@tools@@UEBAAEBVdesc_fields@23@XZ@YAXXZ
	??__Fs_v@?1??node_desc_fields@plotter@sg@tools@@UEBAAEBVdesc_fields@23@XZ@YAXXZ
	??__Fs_v@?1??node_desc_fields@rgba@sg@tools@@UEBAAEBVdesc_fields@23@XZ@YAXXZ
	??__Fs_v@?1??node_desc_fields@style@sg@tools@@UEBAAEBVdesc_fields@23@XZ@YAXXZ
	??__Fs_v@?1??node_desc_fields@tex_rect@sg@tools@@UEBAAEBVdesc_fields@23@XZ@YAXXZ
	??__Fs_v@?1??node_desc_fields@text@sg@tools@@UEBAAEBVdesc_fields@23@XZ@YAXXZ
	??__Fs_v@?1??node_desc_fields@text_hershey@sg@tools@@UEBAAEBVdesc_fields@23@XZ@YAXXZ
	??__Fs_v@?1??node_desc_fields@text_style@sg@tools@@UEBAAEBVdesc_fields@23@XZ@YAXXZ
	??__Fs_v@?1??node_desc_fields@text_valop@sg@tools@@UEBAAEBVdesc_fields@23@XZ@YAXXZ
	??__Fs_v@?1??node_desc_fields@torche@sg@tools@@UEBAAEBVdesc_fields@23@XZ@YAXXZ
	??__Fs_v@?1??node_desc_fields@vertices@sg@tools@@UEBAAEBVdesc_fields@23@XZ@YAXXZ
	??__Fs_v@?1??s_aida@aidas@xml@tools@@KAAEBV?$basic_string@DU?$char_traits@D@std@@V?$allocator@D@2@@std@@XZ@YAXXZ
	??__Fs_v@?1??s_aida_type@aida@tools@@YAAEBV?$basic_string@DU?$char_traits@D@std@@V?$allocator@D@2@@std@@AEBV34@@Z@YAXXZ
	??__Fs_v@?1??s_aida_type@aida@tools@@YAAEBV?$basic_string@DU?$char_traits@D@std@@V?$allocator@D@2@@std@@F@Z@YAXXZ
	??__Fs_v@?1??s_aida_type@aida@tools@@YAAEBV?$basic_string@DU?$char_traits@D@std@@V?$allocator@D@2@@std@@G@Z@YAXXZ
	??__Fs_v@?1??s_aida_type@aida@tools@@YAAEBV?$basic_string@DU?$char_traits@D@std@@V?$allocator@D@2@@std@@H@Z@YAXXZ
	??__Fs_v@?1??s_aida_type@aida@tools@@YAAEBV?$basic_string@DU?$char_traits@D@std@@V?$allocator@D@2@@std@@I@Z@YAXXZ
	??__Fs_v@?1??s_aida_type@aida@tools@@YAAEBV?$basic_string@DU?$char_traits@D@std@@V?$allocator@D@2@@std@@M@Z@YAXXZ
	??__Fs_v@?1??s_aida_type@aida@tools@@YAAEBV?$basic_string@DU?$char_traits@D@std@@V?$allocator@D@2@@std@@N@Z@YAXXZ
	??__Fs_v@?1??s_aida_type@aida@tools@@YAAEBV?$basic_string@DU?$char_traits@D@std@@V?$allocator@D@2@@std@@_J@Z@YAXXZ
	??__Fs_v@?1??s_aida_type@aida@tools@@YAAEBV?$basic_string@DU?$char_traits@D@std@@V?$allocator@D@2@@std@@_K@Z@YAXXZ
	??__Fs_v@?1??s_aida_type@aida@tools@@YAAEBV?$basic_string@DU?$char_traits@D@std@@V?$allocator@D@2@@std@@_N@Z@YAXXZ
	??__Fs_v@?1??s_aida_type@ntuple@waxml@tools@@KAAEBV?$basic_string@DU?$char_traits@D@std@@V?$allocator@D@2@@std@@AEBV45@@Z@YAXXZ
	??__Fs_v@?1??s_aida_type@ntuple@waxml@tools@@KAAEBV?$basic_string@DU?$char_traits@D@std@@V?$allocator@D@2@@std@@H@Z@YAXXZ
	??__Fs_v@?1??s_aida_type@ntuple@waxml@tools@@KAAEBV?$basic_string@DU?$char_traits@D@std@@V?$allocator@D@2@@std@@M@Z@YAXXZ
	??__Fs_v@?1??s_aida_type@ntuple@waxml@tools@@KAAEBV?$basic_string@DU?$char_traits@D@std@@V?$allocator@D@2@@std@@N@Z@YAXXZ
	??__Fs_v@?1??s_aida_type_ituple@aida@tools@@YAAEBV?$basic_string@DU?$char_traits@D@std@@V?$allocator@D@2@@std@@XZ@YAXXZ
	??__Fs_v@?1??s_annotation@aidas@xml@tools@@KAAEBV?$basic_string@DU?$char_traits@D@std@@V?$allocator@D@2@@std@@XZ@YAXXZ
	??__Fs_v@?1??s_axis@aidas@xml@tools@@KAAEBV?$basic_string@DU?$char_traits@D@std@@V?$allocator@D@2@@std@@XZ@YAXXZ
	??__Fs_v@?1??s_binBorder@aidas@xml@tools@@KAAEBV?$basic_string@DU?$char_traits@D@std@@V?$allocator@D@2@@std@@XZ@YAXXZ
	??__Fs_v@?1??s_booking@aidas@xml@tools@@KAAEBV?$basic_string@DU?$char_traits@D@std@@V?$allocator@D@2@@std@@XZ@YAXXZ
	??__Fs_v@?1??s_class@?$aida_col@F@aida@tools@@SAAEBV?$basic_string@DU?$char_traits@D@std@@V?$allocator@D@2@@std@@XZ@YAXXZ
	??__Fs_v@?1??s_class@?$aida_col@G@aida@tools@@SAAEBV?$basic_string@DU?$char_traits@D@std@@V?$allocator@D@2@@std@@XZ@YAXXZ
	??__Fs_v@?1??s_class@?$aida_col@H@aida@tools@@SAAEBV?$basic_string@DU?$char_traits@D@std@@V?$allocator@D@2@@std@@XZ@YAXXZ
	??__Fs_v@?1??s_class@?$aida_col@I@aida@tools@@SAAEBV?$basic_string@DU?$char_traits@D@std@@V?$allocator@D@2@@std@@XZ@YAXXZ
	??__Fs_v@?1??s_class@?$aida_col@M@aida@tools@@SAAEBV?$basic_string@DU?$char_traits@D@std@@V?$allocator@D@2@@std@@XZ@YAXXZ
	??__Fs_v@?1??s_class@?$aida_col@N@aida@tools@@SAAEBV?$basic_string@DU?$char_traits@D@std@@V?$allocator@D@2@@std@@XZ@YAXXZ
	??__Fs_v@?1??s_class@?$aida_col@V?$basic_string@DU?$char_traits@D@std@@V?$allocator@D@2@@std@@@aida@tools@@SAAEBV?$basic_string@DU?$char_traits@D@std@@V?$allocator@D@2@@std@@XZ@YAXXZ
	??__Fs_v@?1??s_class@?$aida_col@_J@aida@tools@@SAAEBV?$basic_string@DU?$char_traits@D@std@@V?$allocator@D@2@@std@@XZ@YAXXZ
	??__Fs_v@?1??s_class@?$aida_col@_K@aida@tools@@SAAEBV?$basic_string@DU?$char_traits@D@std@@V?$allocator@D@2@@std@@XZ@YAXXZ
	??__Fs_v@?1??s_class@?$aida_col@_N@aida@tools@@SAAEBV?$basic_string@DU?$char_traits@D@std@@V?$allocator@D@2@@std@@XZ@YAXXZ
	??__Fs_v@?1??s_class@?$bmf@M@sg@tools@@SAAEBV?$basic_string@DU?$char_traits@D@std@@V?$allocator@D@2@@std@@XZ@YAXXZ
