EXPORTS 
	??_R0?AUG4ConversionFatalError@@@8 	 DATA
	??_R0?AU_Crt_new_delete@std@@@8 	 DATA
	??_R0?AV?$BasicVector3D@N@HepGeom@@@8 	 DATA
	??_R0?AV?$G4AttValueFilterT@HUG4ConversionFatalError@@@@@8 	 DATA
	??_R0?AV?$G4AttValueFilterT@NUG4ConversionFatalError@@@@@8 	 DATA
	??_R0?AV?$G4AttValueFilterT@V?$G4DimensionedType@NUG4ConversionFatalError@@@@UG4ConversionFatalError@@@@@8 	 DATA
	??_R0?AV?$G4AttValueFilterT@V?$G4DimensionedType@VHep3Vector@CLHEP@@UG4ConversionFatalError@@@@UG4ConversionFatalError@@@@@8 	 DATA
	??_R0?AV?$G4AttValueFilterT@VG4String@@UG4ConversionFatalError@@@@@8 	 DATA
	??_R0?AV?$G4AttValueFilterT@VHep3Vector@CLHEP@@UG4ConversionFatalError@@@@@8 	 DATA
	??_R0?AV?$G4AttValueFilterT@_NUG4ConversionFatalError@@@@@8 	 DATA
	??_R0?AV?$G4AttributeFilterT@VG4VDigi@@@@@8 	 DATA
	??_R0?AV?$G4AttributeFilterT@VG4VHit@@@@@8 	 DATA
	??_R0?AV?$G4AttributeFilterT@VG4VTrajectory@@@@@8 	 DATA
	??_R0?AV?$G4CreatorFactoryT@VG4VAttValueFilter@@VG4TypeKey@@P6APEAV1@XZ@@@8 	 DATA
	??_R0?AV?$G4DimensionedType@NUG4ConversionFatalError@@@@@8 	 DATA
	??_R0?AV?$G4DimensionedType@VHep3Vector@CLHEP@@UG4ConversionFatalError@@@@@8 	 DATA
	??_R0?AV?$G4ModelCmdActive@V?$G4AttributeFilterT@VG4VDigi@@@@@@@8 	 DATA
	??_R0?AV?$G4ModelCmdActive@V?$G4AttributeFilterT@VG4VHit@@@@@@@8 	 DATA
	??_R0?AV?$G4ModelCmdActive@V?$G4AttributeFilterT@VG4VTrajectory@@@@@@@8 	 DATA
	??_R0?AV?$G4ModelCmdActive@VG4TrajectoryChargeFilter@@@@@8 	 DATA
	??_R0?AV?$G4ModelCmdActive@VG4TrajectoryEncounteredVolumeFilter@@@@@8 	 DATA
	??_R0?AV?$G4ModelCmdActive@VG4TrajectoryOriginVolumeFilter@@@@@8 	 DATA
	??_R0?AV?$G4ModelCmdActive@VG4TrajectoryParticleFilter@@@@@8 	 DATA
	??_R0?AV?$G4ModelCmdAddInterval@V?$G4AttributeFilterT@VG4VDigi@@@@@@@8 	 DATA
	??_R0?AV?$G4ModelCmdAddInterval@V?$G4AttributeFilterT@VG4VHit@@@@@@@8 	 DATA
	??_R0?AV?$G4ModelCmdAddInterval@V?$G4AttributeFilterT@VG4VTrajectory@@@@@@@8 	 DATA
	??_R0?AV?$G4ModelCmdAddIntervalContext@VG4TrajectoryDrawByAttribute@@@@@8 	 DATA
	??_R0?AV?$G4ModelCmdAddString@VG4TrajectoryChargeFilter@@@@@8 	 DATA
	??_R0?AV?$G4ModelCmdAddString@VG4TrajectoryEncounteredVolumeFilter@@@@@8 	 DATA
	??_R0?AV?$G4ModelCmdAddString@VG4TrajectoryOriginVolumeFilter@@@@@8 	 DATA
	??_R0?AV?$G4ModelCmdAddString@VG4TrajectoryParticleFilter@@@@@8 	 DATA
	??_R0?AV?$G4ModelCmdAddValue@V?$G4AttributeFilterT@VG4VDigi@@@@@@@8 	 DATA
	??_R0?AV?$G4ModelCmdAddValue@V?$G4AttributeFilterT@VG4VHit@@@@@@@8 	 DATA
	??_R0?AV?$G4ModelCmdAddValue@V?$G4AttributeFilterT@VG4VTrajectory@@@@@@@8 	 DATA
	??_R0?AV?$G4ModelCmdAddValueContext@VG4TrajectoryDrawByAttribute@@@@@8 	 DATA
	??_R0?AV?$G4ModelCmdApplyBool@V?$G4AttributeFilterT@VG4VDigi@@@@@@@8 	 DATA
	??_R0?AV?$G4ModelCmdApplyBool@V?$G4AttributeFilterT@VG4VHit@@@@@@@8 	 DATA
	??_R0?AV?$G4ModelCmdApplyBool@V?$G4AttributeFilterT@VG4VTrajectory@@@@@@@8 	 DATA
	??_R0?AV?$G4ModelCmdApplyBool@VG4TrajectoryChargeFilter@@@@@8 	 DATA
	??_R0?AV?$G4ModelCmdApplyBool@VG4TrajectoryDrawByAttribute@@@@@8 	 DATA
	??_R0?AV?$G4ModelCmdApplyBool@VG4TrajectoryDrawByCharge@@@@@8 	 DATA
	??_R0?AV?$G4ModelCmdApplyBool@VG4TrajectoryDrawByEncounteredVolume@@@@@8 	 DATA
	??_R0?AV?$G4ModelCmdApplyBool@VG4TrajectoryDrawByOriginVolume@@@@@8 	 DATA
	??_R0?AV?$G4ModelCmdApplyBool@VG4TrajectoryDrawByParticleID@@@@@8 	 DATA
	??_R0?AV?$G4ModelCmdApplyBool@VG4TrajectoryEncounteredVolumeFilter@@@@@8 	 DATA
	??_R0?AV?$G4ModelCmdApplyBool@VG4TrajectoryGenericDrawer@@@@@8 	 DATA
	??_R0?AV?$G4ModelCmdApplyBool@VG4TrajectoryOriginVolumeFilter@@@@@8 	 DATA
	??_R0?AV?$G4ModelCmdApplyBool@VG4TrajectoryParticleFilter@@@@@8 	 DATA
	??_R0?AV?$G4ModelCmdApplyBool@VG4VisTrajContext@@@@@8 	 DATA
	??_R0?AV?$G4ModelCmdApplyColour@VG4TrajectoryDrawByEncounteredVolume@@@@@8 	 DATA
	??_R0?AV?$G4ModelCmdApplyColour@VG4TrajectoryDrawByOriginVolume@@@@@8 	 DATA
	??_R0?AV?$G4ModelCmdApplyColour@VG4TrajectoryDrawByParticleID@@@@@8 	 DATA
	??_R0?AV?$G4ModelCmdApplyColour@VG4VisTrajContext@@@@@8 	 DATA
	??_R0?AV?$G4ModelCmdApplyDouble@VG4VisTrajContext@@@@@8 	 DATA
	??_R0?AV?$G4ModelCmdApplyDoubleAndUnit@VG4VisTrajContext@@@@@8 	 DATA
	??_R0?AV?$G4ModelCmdApplyNull@V?$G4AttributeFilterT@VG4VDigi@@@@@@@8 	 DATA
	??_R0?AV?$G4ModelCmdApplyNull@V?$G4AttributeFilterT@VG4VHit@@@@@@@8 	 DATA
	??_R0?AV?$G4ModelCmdApplyNull@V?$G4AttributeFilterT@VG4VTrajectory@@@@@@@8 	 DATA
	??_R0?AV?$G4ModelCmdApplyNull@VG4TrajectoryChargeFilter@@@@@8 	 DATA
	??_R0?AV?$G4ModelCmdApplyNull@VG4TrajectoryEncounteredVolumeFilter@@@@@8 	 DATA
	??_R0?AV?$G4ModelCmdApplyNull@VG4TrajectoryOriginVolumeFilter@@@@@8 	 DATA
	??_R0?AV?$G4ModelCmdApplyNull@VG4TrajectoryParticleFilter@@@@@8 	 DATA
	??_R0?AV?$G4ModelCmdApplyString@V?$G4AttributeFilterT@VG4VDigi@@@@@@@8 	 DATA
	??_R0?AV?$G4ModelCmdApplyString@V?$G4AttributeFilterT@VG4VHit@@@@@@@8 	 DATA
	??_R0?AV?$G4ModelCmdApplyString@V?$G4AttributeFilterT@VG4VTrajectory@@@@@@@8 	 DATA
	??_R0?AV?$G4ModelCmdApplyString@VG4TrajectoryChargeFilter@@@@@8 	 DATA
	??_R0?AV?$G4ModelCmdApplyString@VG4TrajectoryDrawByAttribute@@@@@8 	 DATA
	??_R0?AV?$G4ModelCmdApplyString@VG4TrajectoryEncounteredVolumeFilter@@@@@8 	 DATA
	??_R0?AV?$G4ModelCmdApplyString@VG4TrajectoryOriginVolumeFilter@@@@@8 	 DATA
	??_R0?AV?$G4ModelCmdApplyString@VG4TrajectoryParticleFilter@@@@@8 	 DATA
	??_R0?AV?$G4ModelCmdApplyString@VG4VisTrajContext@@@@@8 	 DATA
	??_R0?AV?$G4ModelCmdApplyStringColour@VG4TrajectoryDrawByCharge@@@@@8 	 DATA
	??_R0?AV?$G4ModelCmdApplyStringColour@VG4TrajectoryDrawByEncounteredVolume@@@@@8 	 DATA
	??_R0?AV?$G4ModelCmdApplyStringColour@VG4TrajectoryDrawByOriginVolume@@@@@8 	 DATA
	??_R0?AV?$G4ModelCmdApplyStringColour@VG4TrajectoryDrawByParticleID@@@@@8 	 DATA
	??_R0?AV?$G4ModelCmdCreateContextDir@VG4VisTrajContext@@@@@8 	 DATA
	??_R0?AV?$G4ModelCmdInvert@V?$G4AttributeFilterT@VG4VDigi@@@@@@@8 	 DATA
	??_R0?AV?$G4ModelCmdInvert@V?$G4AttributeFilterT@VG4VHit@@@@@@@8 	 DATA
	??_R0?AV?$G4ModelCmdInvert@V?$G4AttributeFilterT@VG4VTrajectory@@@@@@@8 	 DATA
	??_R0?AV?$G4ModelCmdInvert@VG4TrajectoryChargeFilter@@@@@8 	 DATA
	??_R0?AV?$G4ModelCmdInvert@VG4TrajectoryEncounteredVolumeFilter@@@@@8 	 DATA
	??_R0?AV?$G4ModelCmdInvert@VG4TrajectoryOriginVolumeFilter@@@@@8 	 DATA
	??_R0?AV?$G4ModelCmdInvert@VG4TrajectoryParticleFilter@@@@@8 	 DATA
	??_R0?AV?$G4ModelCmdReset@V?$G4AttributeFilterT@VG4VDigi@@@@@@@8 	 DATA
	??_R0?AV?$G4ModelCmdReset@V?$G4AttributeFilterT@VG4VHit@@@@@@@8 	 DATA
	??_R0?AV?$G4ModelCmdReset@V?$G4AttributeFilterT@VG4VTrajectory@@@@@@@8 	 DATA
	??_R0?AV?$G4ModelCmdReset@VG4TrajectoryChargeFilter@@@@@8 	 DATA
	??_R0?AV?$G4ModelCmdReset@VG4TrajectoryEncounteredVolumeFilter@@@@@8 	 DATA
	??_R0?AV?$G4ModelCmdReset@VG4TrajectoryOriginVolumeFilter@@@@@8 	 DATA
	??_R0?AV?$G4ModelCmdReset@VG4TrajectoryParticleFilter@@@@@8 	 DATA
	??_R0?AV?$G4ModelCmdSetAuxPtsColour@VG4VisTrajContext@@@@@8 	 DATA
	??_R0?AV?$G4ModelCmdSetAuxPtsFillStyle@VG4VisTrajContext@@@@@8 	 DATA
	??_R0?AV?$G4ModelCmdSetAuxPtsSize@VG4VisTrajContext@@@@@8 	 DATA
	??_R0?AV?$G4ModelCmdSetAuxPtsSizeType@VG4VisTrajContext@@@@@8 	 DATA
	??_R0?AV?$G4ModelCmdSetAuxPtsType@VG4VisTrajContext@@@@@8 	 DATA
	??_R0?AV?$G4ModelCmdSetAuxPtsVisible@VG4VisTrajContext@@@@@8 	 DATA
	??_R0?AV?$G4ModelCmdSetDefaultColour@VG4TrajectoryDrawByEncounteredVolume@@@@@8 	 DATA
	??_R0?AV?$G4ModelCmdSetDefaultColour@VG4TrajectoryDrawByOriginVolume@@@@@8 	 DATA
	??_R0?AV?$G4ModelCmdSetDefaultColour@VG4TrajectoryDrawByParticleID@@@@@8 	 DATA
	??_R0?AV?$G4ModelCmdSetDrawAuxPts@VG4VisTrajContext@@@@@8 	 DATA
	??_R0?AV?$G4ModelCmdSetDrawLine@VG4VisTrajContext@@@@@8 	 DATA
	??_R0?AV?$G4ModelCmdSetDrawStepPts@VG4VisTrajContext@@@@@8 	 DATA
	??_R0?AV?$G4ModelCmdSetLineColour@VG4VisTrajContext@@@@@8 	 DATA
	??_R0?AV?$G4ModelCmdSetLineVisible@VG4VisTrajContext@@@@@8 	 DATA
	??_R0?AV?$G4ModelCmdSetLineWidth@VG4VisTrajContext@@@@@8 	 DATA
	??_R0?AV?$G4ModelCmdSetStepPtsColour@VG4VisTrajContext@@@@@8 	 DATA
	??_R0?AV?$G4ModelCmdSetStepPtsFillStyle@VG4VisTrajContext@@@@@8 	 DATA
	??_R0?AV?$G4ModelCmdSetStepPtsSize@VG4VisTrajContext@@@@@8 	 DATA
	??_R0?AV?$G4ModelCmdSetStepPtsSizeType@VG4VisTrajContext@@@@@8 	 DATA
	??_R0?AV?$G4ModelCmdSetStepPtsType@VG4VisTrajContext@@@@@8 	 DATA
	??_R0?AV?$G4ModelCmdSetStepPtsVisible@VG4VisTrajContext@@@@@8 	 DATA
	??_R0?AV?$G4ModelCmdSetString@V?$G4AttributeFilterT@VG4VDigi@@@@@@@8 	 DATA
	??_R0?AV?$G4ModelCmdSetString@V?$G4AttributeFilterT@VG4VHit@@@@@@@8 	 DATA
	??_R0?AV?$G4ModelCmdSetString@V?$G4AttributeFilterT@VG4VTrajectory@@@@@@@8 	 DATA
	??_R0?AV?$G4ModelCmdSetString@VG4TrajectoryDrawByAttribute@@@@@8 	 DATA
	??_R0?AV?$G4ModelCmdSetStringColour@VG4TrajectoryDrawByCharge@@@@@8 	 DATA
	??_R0?AV?$G4ModelCmdSetStringColour@VG4TrajectoryDrawByEncounteredVolume@@@@@8 	 DATA
	??_R0?AV?$G4ModelCmdSetStringColour@VG4TrajectoryDrawByOriginVolume@@@@@8 	 DATA
	??_R0?AV?$G4ModelCmdSetStringColour@VG4TrajectoryDrawByParticleID@@@@@8 	 DATA
	??_R0?AV?$G4ModelCmdSetTimeSliceInterval@VG4VisTrajContext@@@@@8 	 DATA
	??_R0?AV?$G4ModelCmdVerbose@V?$G4AttributeFilterT@VG4VDigi@@@@@@@8 	 DATA
	??_R0?AV?$G4ModelCmdVerbose@V?$G4AttributeFilterT@VG4VHit@@@@@@@8 	 DATA
	??_R0?AV?$G4ModelCmdVerbose@V?$G4AttributeFilterT@VG4VTrajectory@@@@@@@8 	 DATA
	??_R0?AV?$G4ModelCmdVerbose@VG4TrajectoryChargeFilter@@@@@8 	 DATA
	??_R0?AV?$G4ModelCmdVerbose@VG4TrajectoryDrawByAttribute@@@@@8 	 DATA
	??_R0?AV?$G4ModelCmdVerbose@VG4TrajectoryDrawByCharge@@@@@8 	 DATA
	??_R0?AV?$G4ModelCmdVerbose@VG4TrajectoryDrawByEncounteredVolume@@@@@8 	 DATA
	??_R0?AV?$G4ModelCmdVerbose@VG4TrajectoryDrawByOriginVolume@@@@@8 	 DATA
	??_R0?AV?$G4ModelCmdVerbose@VG4TrajectoryDrawByParticleID@@@@@8 	 DATA
	??_R0?AV?$G4ModelCmdVerbose@VG4TrajectoryEncounteredVolumeFilter@@@@@8 	 DATA
	??_R0?AV?$G4ModelCmdVerbose@VG4TrajectoryGenericDrawer@@@@@8 	 DATA
	??_R0?AV?$G4ModelCmdVerbose@VG4TrajectoryOriginVolumeFilter@@@@@8 	 DATA
	??_R0?AV?$G4ModelCmdVerbose@VG4TrajectoryParticleFilter@@@@@8 	 DATA
	??_R0?AV?$G4ModelColourMap@VG4String@@@@@8 	 DATA
	??_R0?AV?$G4ModelColourMap@W4Charge@G4TrajectoryDrawByCharge@@@@@8 	 DATA
	??_R0?AV?$G4SmartFilter@VG4VDigi@@@@@8 	 DATA
	??_R0?AV?$G4SmartFilter@VG4VHit@@@@@8 	 DATA
	??_R0?AV?$G4SmartFilter@VG4VTrajectory@@@@@8 	 DATA
	??_R0?AV?$G4TypeKeyT@H@@@8 	 DATA
	??_R0?AV?$G4TypeKeyT@N@@@8 	 DATA
	??_R0?AV?$G4TypeKeyT@V?$G4DimensionedType@NUG4ConversionFatalError@@@@@@@8 	 DATA
	??_R0?AV?$G4TypeKeyT@V?$G4DimensionedType@VHep3Vector@CLHEP@@UG4ConversionFatalError@@@@@@@8 	 DATA
	??_R0?AV?$G4TypeKeyT@VG4String@@@@@8 	 DATA
	??_R0?AV?$G4TypeKeyT@VHep3Vector@CLHEP@@@@@8 	 DATA
	??_R0?AV?$G4TypeKeyT@_N@@@8 	 DATA
	??_R0?AV?$G4VFilter@VG4AttValue@@@@@8 	 DATA
	??_R0?AV?$G4VFilter@VG4VDigi@@@@@8 	 DATA
	??_R0?AV?$G4VFilter@VG4VHit@@@@@8 	 DATA
	??_R0?AV?$G4VFilter@VG4VTrajectory@@@@@8 	 DATA
	??_R0?AV?$G4VModelCommand@V?$G4AttributeFilterT@VG4VDigi@@@@@@@8 	 DATA
	??_R0?AV?$G4VModelCommand@V?$G4AttributeFilterT@VG4VHit@@@@@@@8 	 DATA
	??_R0?AV?$G4VModelCommand@V?$G4AttributeFilterT@VG4VTrajectory@@@@@@@8 	 DATA
	??_R0?AV?$G4VModelCommand@VG4TrajectoryChargeFilter@@@@@8 	 DATA
	??_R0?AV?$G4VModelCommand@VG4TrajectoryDrawByAttribute@@@@@8 	 DATA
	??_R0?AV?$G4VModelCommand@VG4TrajectoryDrawByCharge@@@@@8 	 DATA
	??_R0?AV?$G4VModelCommand@VG4TrajectoryDrawByEncounteredVolume@@@@@8 	 DATA
	??_R0?AV?$G4VModelCommand@VG4TrajectoryDrawByOriginVolume@@@@@8 	 DATA
	??_R0?AV?$G4VModelCommand@VG4TrajectoryDrawByParticleID@@@@@8 	 DATA
	??_R0?AV?$G4VModelCommand@VG4TrajectoryEncounteredVolumeFilter@@@@@8 	 DATA
	??_R0?AV?$G4VModelCommand@VG4TrajectoryGenericDrawer@@@@@8 	 DATA
	??_R0?AV?$G4VModelCommand@VG4TrajectoryOriginVolumeFilter@@@@@8 	 DATA
	??_R0?AV?$G4VModelCommand@VG4TrajectoryParticleFilter@@@@@8 	 DATA
	??_R0?AV?$G4VModelCommand@VG4VisTrajContext@@@@@8 	 DATA
	??_R0?AV?$G4VModelFactory@V?$G4VFilter@VG4VDigi@@@@@@@8 	 DATA
	??_R0?AV?$G4VModelFactory@V?$G4VFilter@VG4VHit@@@@@@@8 	 DATA
	??_R0?AV?$G4VModelFactory@V?$G4VFilter@VG4VTrajectory@@@@@@@8 	 DATA
	??_R0?AV?$G4VModelFactory@VG4VTrajectoryModel@@@@@8 	 DATA
	??_R0?AV?$Point3D@N@HepGeom@@@8 	 DATA
	??_R0?AV?$Vector3D@N@HepGeom@@@8 	 DATA
	??_R0?AV?$_Iosb@H@std@@@8 	 DATA
	??_R0?AV?$_Node_class@DV?$regex_traits@D@std@@@std@@@8 	 DATA
	??_R0?AV?$_Node_str@D@std@@@8 	 DATA
	??_R0?AV?$basic_ios@DU?$char_traits@D@std@@@std@@@8 	 DATA
	??_R0?AV?$basic_istream@DU?$char_traits@D@std@@@std@@@8 	 DATA
	??_R0?AV?$basic_istringstream@DU?$char_traits@D@std@@V?$allocator@D@2@@std@@@8 	 DATA
	??_R0?AV?$basic_ostream@DU?$char_traits@D@std@@@std@@@8 	 DATA
	??_R0?AV?$basic_ostringstream@DU?$char_traits@D@std@@V?$allocator@D@2@@std@@@8 	 DATA
	??_R0?AV?$basic_streambuf@DU?$char_traits@D@std@@@std@@@8 	 DATA
	??_R0?AV?$basic_stringbuf@DU?$char_traits@D@std@@V?$allocator@D@2@@std@@@8 	 DATA
	??_R0?AV?$collate@D@std@@@8 	 DATA
	??_R0?AVG4ArrowModel@@@8 	 DATA
	??_R0?AVG4AttDef@@@8 	 DATA
	??_R0?AVG4AxesModel@@@8 	 DATA
	??_R0?AVG4BoundingExtentScene@@@8 	 DATA
	??_R0?AVG4BoundingSphereScene@@@8 	 DATA
	??_R0?AVG4DigiAttributeFilterFactory@@@8 	 DATA
	??_R0?AVG4DigiModel@@@8 	 DATA
	??_R0?AVG4GPSModel@@@8 	 DATA
	??_R0?AVG4HitAttributeFilterFactory@@@8 	 DATA
	??_R0?AVG4HitsModel@@@8 	 DATA
	??_R0?AVG4LogicalVolumeModel@@@8 	 DATA
	??_R0?AVG4NullModel@@@8 	 DATA
	??_R0?AVG4PSHitsModel@@@8 	 DATA
	??_R0?AVG4PVParameterised@@@8 	 DATA
	??_R0?AVG4PVPlacement@@@8 	 DATA
	??_R0?AVG4PhysicalVolumeMassScene@@@8 	 DATA
	??_R0?AVG4PhysicalVolumeModel@@@8 	 DATA
	??_R0?AVG4PhysicalVolumeModelTouchable@G4PhysicalVolumeModel@@@8 	 DATA
	??_R0?AVG4PhysicalVolumeSearchScene@@@8 	 DATA
	??_R0?AVG4PhysicalVolumesSearchScene@@@8 	 DATA
	??_R0?AVG4PseudoScene@@@8 	 DATA
	??_R0?AVG4RichTrajectory@@@8 	 DATA
	??_R0?AVG4Scale@@@8 	 DATA
	??_R0?AVG4ScaleModel@@@8 	 DATA
	??_R0?AVG4TextModel@@@8 	 DATA
	??_R0?AVG4TouchablePropertiesScene@@@8 	 DATA
	??_R0?AVG4TrajectoriesModel@@@8 	 DATA
	??_R0?AVG4TrajectoryAttributeFilterFactory@@@8 	 DATA
	??_R0?AVG4TrajectoryChargeFilter@@@8 	 DATA
	??_R0?AVG4TrajectoryChargeFilterFactory@@@8 	 DATA
	??_R0?AVG4TrajectoryDrawByAttribute@@@8 	 DATA
	??_R0?AVG4TrajectoryDrawByAttributeFactory@@@8 	 DATA
	??_R0?AVG4TrajectoryDrawByCharge@@@8 	 DATA
	??_R0?AVG4TrajectoryDrawByChargeFactory@@@8 	 DATA
	??_R0?AVG4TrajectoryDrawByEncounteredVolume@@@8 	 DATA
	??_R0?AVG4TrajectoryDrawByEncounteredVolumeFactory@@@8 	 DATA
	??_R0?AVG4TrajectoryDrawByOriginVolume@@@8 	 DATA
	??_R0?AVG4TrajectoryDrawByOriginVolumeFactory@@@8 	 DATA
	??_R0?AVG4TrajectoryDrawByParticleID@@@8 	 DATA
	??_R0?AVG4TrajectoryDrawByParticleIDFactory@@@8 	 DATA
	??_R0?AVG4TrajectoryEncounteredVolumeFilter@@@8 	 DATA
	??_R0?AVG4TrajectoryEncounteredVolumeFilterFactory@@@8 	 DATA
	??_R0?AVG4TrajectoryGenericDrawer@@@8 	 DATA
	??_R0?AVG4TrajectoryGenericDrawerFactory@@@8 	 DATA
	??_R0?AVG4TrajectoryOriginVolumeFilter@@@8 	 DATA
	??_R0?AVG4TrajectoryOriginVolumeFilterFactory@@@8 	 DATA
	??_R0?AVG4TrajectoryParticleFilter@@@8 	 DATA
	??_R0?AVG4TrajectoryParticleFilterFactory@@@8 	 DATA
	??_R0?AVG4TypeKey@@@8 	 DATA
	??_R0?AVG4UImessenger@@@8 	 DATA
	??_R0?AVG4VAttValueFilter@@@8 	 DATA
	??_R0?AVG4VFieldModel@@@8 	 DATA
	??_R0?AVG4VGraphicsScene@@@8 	 DATA
	??_R0?AVG4VMarker@@@8 	 DATA
	??_R0?AVG4VModel@@@8 	 DATA
	??_R0?AVG4VPhysicalVolume@@@8 	 DATA
	??_R0?AVG4VTouchable@@@8 	 DATA
	??_R0?AVG4VTrajectory@@@8 	 DATA
	??_R0?AVG4VTrajectoryModel@@@8 	 DATA
	??_R0?AVG4VisTrajContext@@@8 	 DATA
	??_R0?AVG4Visible@@@8 	 DATA
	??_R0?AV_Facet_base@std@@@8 	 DATA
	??_R0?AV_Node_assert@std@@@8 	 DATA
	??_R0?AV_Node_back@std@@@8 	 DATA
	??_R0?AV_Node_base@std@@@8 	 DATA
	??_R0?AV_Node_capture@std@@@8 	 DATA
	??_R0?AV_Node_end_group@std@@@8 	 DATA
	??_R0?AV_Node_end_rep@std@@@8 	 DATA
	??_R0?AV_Node_endif@std@@@8 	 DATA
	??_R0?AV_Node_if@std@@@8 	 DATA
	??_R0?AV_Node_rep@std@@@8 	 DATA
	??_R0?AV_Root_node@std@@@8 	 DATA
	??_R0?AVbad_alloc@std@@@8 	 DATA
	??_R0?AVbad_array_new_length@std@@@8 	 DATA
	??_R0?AVbad_cast@std@@@8 	 DATA
	??_R0?AVexception@std@@@8 	 DATA
	??_R0?AVfacet@locale@std@@@8 	 DATA
	??_R0?AVios_base@std@@@8 	 DATA
	?_Psave@?$_Facetptr@V?$collate@D@std@@@std@@2PEBVfacet@locale@2@EB 	 DATA
	?_Psave@?$_Facetptr@V?$ctype@D@std@@@std@@2PEBVfacet@locale@2@EB 	 DATA
	?dstrctr@?$G4Cache@Ua_check@G4SPSRandomGenerator@@@@0U?$atomic@I@std@@A 	 DATA
	?dstrctr@?$G4Cache@Ubweights_t@G4SPSRandomGenerator@@@@0U?$atomic@I@std@@A 	 DATA
	?dstrctr@?$G4Cache@Upart_prop_t@G4SingleParticleSource@@@@0U?$atomic@I@std@@A 	 DATA
	?dstrctr@?$G4Cache@UthreadLocal_t@G4SPSEneDistribution@@@@0U?$atomic@I@std@@A 	 DATA
	?dstrctr@?$G4Cache@Uthread_data_t@G4SPSPosDistribution@@@@0U?$atomic@I@std@@A 	 DATA
	?instancesctr@?$G4Cache@Ua_check@G4SPSRandomGenerator@@@@0U?$atomic@I@std@@A 	 DATA
	?instancesctr@?$G4Cache@Ubweights_t@G4SPSRandomGenerator@@@@0U?$atomic@I@std@@A 	 DATA
	?instancesctr@?$G4Cache@Upart_prop_t@G4SingleParticleSource@@@@0U?$atomic@I@std@@A 	 DATA
	?instancesctr@?$G4Cache@UthreadLocal_t@G4SPSEneDistribution@@@@0U?$atomic@I@std@@A 	 DATA
	?instancesctr@?$G4Cache@Uthread_data_t@G4SPSPosDistribution@@@@0U?$atomic@I@std@@A 	 DATA
	?npKey@?1??NextKey@G4TypeKey@@IEBAKXZ@4PEAKEA 	 DATA
	?pkey@?1???0?$G4TypeKeyT@H@@QEAA@XZ@4PEAKEA 	 DATA
	?pkey@?1???0?$G4TypeKeyT@N@@QEAA@XZ@4PEAKEA 	 DATA
	?pkey@?1???0?$G4TypeKeyT@V?$G4DimensionedType@NUG4ConversionFatalError@@@@@@QEAA@XZ@4PEAKEA 	 DATA
	?pkey@?1???0?$G4TypeKeyT@V?$G4DimensionedType@VHep3Vector@CLHEP@@UG4ConversionFatalError@@@@@@QEAA@XZ@4PEAKEA 	 DATA
	?pkey@?1???0?$G4TypeKeyT@VG4String@@@@QEAA@XZ@4PEAKEA 	 DATA
	?pkey@?1???0?$G4TypeKeyT@VHep3Vector@CLHEP@@@@QEAA@XZ@4PEAKEA 	 DATA
	?pkey@?1???0?$G4TypeKeyT@_N@@QEAA@XZ@4PEAKEA 	 DATA
	?warnedUnableToExtract@?BN@??Evaluate@?$G4AttributeFilterT@VG4VDigi@@@@UEBA_NAEBVG4VDigi@@@Z@4_NA 	 DATA
	?warnedUnableToExtract@?BN@??Evaluate@?$G4AttributeFilterT@VG4VHit@@@@UEBA_NAEBVG4VHit@@@Z@4_NA 	 DATA
	?warnedUnableToExtract@?BN@??Evaluate@?$G4AttributeFilterT@VG4VTrajectory@@@@UEBA_NAEBVG4VTrajectory@@@Z@4_NA 	 DATA
	?warnedUnableToExtract@?O@??Evaluate@?$G4AttributeFilterT@VG4VDigi@@@@UEBA_NAEBVG4VDigi@@@Z@4_NA 	 DATA
	?warnedUnableToExtract@?O@??Evaluate@?$G4AttributeFilterT@VG4VHit@@@@UEBA_NAEBVG4VHit@@@Z@4_NA 	 DATA
	?warnedUnableToExtract@?O@??Evaluate@?$G4AttributeFilterT@VG4VTrajectory@@@@UEBA_NAEBVG4VTrajectory@@@Z@4_NA 	 DATA
	??$?0$$QEAVG4String@@$$Z$$V@?$pair@$$CBVG4String@@VG4AttDef@@@std@@QEAA@Upiecewise_construct_t@1@V?$tuple@$$QEAVG4String@@@1@V?$tuple@$$V@1@@Z
	??$?0AEBU?$pair@VG4String@@W4Config@G4TrajectoryDrawByAttribute@@@std@@$$Z$$V@?$pair@$$CBU?$pair@VG4String@@W4Config@G4TrajectoryDrawByAttribute@@@std@@PEAVG4VisTrajContext@@@std@@QEAA@Upiecewise_construct_t@1@V?$tuple@AEBU?$pair@VG4String@@W4Config@G4TrajectoryDrawByAttribute@@@std@@@1@V?$tuple@$$V@1@@Z
	??$?0AEBVG4String@@$$Z$$V@?$pair@$$CBVG4String@@H@std@@QEAA@Upiecewise_construct_t@1@V?$tuple@AEBVG4String@@@1@V?$tuple@$$V@1@@Z
	??$?0AEBVG4String@@$$Z$$V@?$pair@$$CBVG4String@@N@std@@QEAA@Upiecewise_construct_t@1@V?$tuple@AEBVG4String@@@1@V?$tuple@$$V@1@@Z
	??$?0AEBVG4String@@$$Z$$V@?$pair@$$CBVG4String@@U?$pair@HH@std@@@std@@QEAA@Upiecewise_construct_t@1@V?$tuple@AEBVG4String@@@1@V?$tuple@$$V@1@@Z
	??$?0AEBVG4String@@$$Z$$V@?$pair@$$CBVG4String@@U?$pair@NN@std@@@std@@QEAA@Upiecewise_construct_t@1@V?$tuple@AEBVG4String@@@1@V?$tuple@$$V@1@@Z
	??$?0AEBVG4String@@$$Z$$V@?$pair@$$CBVG4String@@U?$pair@V?$G4DimensionedType@NUG4ConversionFatalError@@@@V1@@std@@@std@@QEAA@Upiecewise_construct_t@1@V?$tuple@AEBVG4String@@@1@V?$tuple@$$V@1@@Z
	??$?0AEBVG4String@@$$Z$$V@?$pair@$$CBVG4String@@U?$pair@V?$G4DimensionedType@VHep3Vector@CLHEP@@UG4ConversionFatalError@@@@V1@@std@@@std@@QEAA@Upiecewise_construct_t@1@V?$tuple@AEBVG4String@@@1@V?$tuple@$$V@1@@Z
	??$?0AEBVG4String@@$$Z$$V@?$pair@$$CBVG4String@@U?$pair@VG4String@@V1@@std@@@std@@QEAA@Upiecewise_construct_t@1@V?$tuple@AEBVG4String@@@1@V?$tuple@$$V@1@@Z
	??$?0AEBVG4String@@$$Z$$V@?$pair@$$CBVG4String@@U?$pair@VHep3Vector@CLHEP@@V12@@std@@@std@@QEAA@Upiecewise_construct_t@1@V?$tuple@AEBVG4String@@@1@V?$tuple@$$V@1@@Z
	??$?0AEBVG4String@@$$Z$$V@?$pair@$$CBVG4String@@U?$pair@_N_N@std@@@std@@QEAA@Upiecewise_construct_t@1@V?$tuple@AEBVG4String@@@1@V?$tuple@$$V@1@@Z
	??$?0AEBVG4String@@$$Z$$V@?$pair@$$CBVG4String@@V1@@std@@QEAA@Upiecewise_construct_t@1@V?$tuple@AEBVG4String@@@1@V?$tuple@$$V@1@@Z
	??$?0AEBVG4String@@$$Z$$V@?$pair@$$CBVG4String@@V?$G4DimensionedType@NUG4ConversionFatalError@@@@@std@@QEAA@Upiecewise_construct_t@1@V?$tuple@AEBVG4String@@@1@V?$tuple@$$V@1@@Z
	??$?0AEBVG4String@@$$Z$$V@?$pair@$$CBVG4String@@V?$G4DimensionedType@VHep3Vector@CLHEP@@UG4ConversionFatalError@@@@@std@@QEAA@Upiecewise_construct_t@1@V?$tuple@AEBVG4String@@@1@V?$tuple@$$V@1@@Z
	??$?0AEBVG4String@@$$Z$$V@?$pair@$$CBVG4String@@VG4Colour@@@std@@QEAA@Upiecewise_construct_t@1@V?$tuple@AEBVG4String@@@1@V?$tuple@$$V@1@@Z
	??$?0AEBVG4String@@$$Z$$V@?$pair@$$CBVG4String@@VHep3Vector@CLHEP@@@std@@QEAA@Upiecewise_construct_t@1@V?$tuple@AEBVG4String@@@1@V?$tuple@$$V@1@@Z
	??$?0AEBVG4String@@$$Z$$V@?$pair@$$CBVG4String@@_N@std@@QEAA@Upiecewise_construct_t@1@V?$tuple@AEBVG4String@@@1@V?$tuple@$$V@1@@Z
	??$?0AEBW4Charge@G4TrajectoryDrawByCharge@@$$Z$$V@?$pair@$$CBW4Charge@G4TrajectoryDrawByCharge@@VG4Colour@@@std@@QEAA@Upiecewise_construct_t@1@V?$tuple@AEBW4Charge@G4TrajectoryDrawByCharge@@@1@V?$tuple@$$V@1@@Z
	??$?0V?$tuple@$$QEAVG4String@@@std@@V?$tuple@$$V@1@$0A@$$Z$S@?$pair@$$CBVG4String@@VG4AttDef@@@std@@QEAA@AEAV?$tuple@$$QEAVG4String@@@1@AEAV?$tuple@$$V@1@U?$integer_sequence@_K$0A@@1@U?$integer_sequence@_K$S@1@@Z
	??$?0V?$tuple@AEBU?$pair@VG4String@@W4Config@G4TrajectoryDrawByAttribute@@@std@@@std@@V?$tuple@$$V@1@$0A@$$Z$S@?$pair@$$CBU?$pair@VG4String@@W4Config@G4TrajectoryDrawByAttribute@@@std@@PEAVG4VisTrajContext@@@std@@QEAA@AEAV?$tuple@AEBU?$pair@VG4String@@W4Config@G4TrajectoryDrawByAttribute@@@std@@@1@AEAV?$tuple@$$V@1@U?$integer_sequence@_K$0A@@1@U?$integer_sequence@_K$S@1@@Z
	??$?0V?$tuple@AEBVG4String@@@std@@V?$tuple@$$V@1@$0A@$$Z$S@?$pair@$$CBVG4String@@H@std@@QEAA@AEAV?$tuple@AEBVG4String@@@1@AEAV?$tuple@$$V@1@U?$integer_sequence@_K$0A@@1@U?$integer_sequence@_K$S@1@@Z
	??$?0V?$tuple@AEBVG4String@@@std@@V?$tuple@$$V@1@$0A@$$Z$S@?$pair@$$CBVG4String@@N@std@@QEAA@AEAV?$tuple@AEBVG4String@@@1@AEAV?$tuple@$$V@1@U?$integer_sequence@_K$0A@@1@U?$integer_sequence@_K$S@1@@Z
	??$?0V?$tuple@AEBVG4String@@@std@@V?$tuple@$$V@1@$0A@$$Z$S@?$pair@$$CBVG4String@@U?$pair@HH@std@@@std@@QEAA@AEAV?$tuple@AEBVG4String@@@1@AEAV?$tuple@$$V@1@U?$integer_sequence@_K$0A@@1@U?$integer_sequence@_K$S@1@@Z
	??$?0V?$tuple@AEBVG4String@@@std@@V?$tuple@$$V@1@$0A@$$Z$S@?$pair@$$CBVG4String@@U?$pair@NN@std@@@std@@QEAA@AEAV?$tuple@AEBVG4String@@@1@AEAV?$tuple@$$V@1@U?$integer_sequence@_K$0A@@1@U?$integer_sequence@_K$S@1@@Z
	??$?0V?$tuple@AEBVG4String@@@std@@V?$tuple@$$V@1@$0A@$$Z$S@?$pair@$$CBVG4String@@U?$pair@V?$G4DimensionedType@NUG4ConversionFatalError@@@@V1@@std@@@std@@QEAA@AEAV?$tuple@AEBVG4String@@@1@AEAV?$tuple@$$V@1@U?$integer_sequence@_K$0A@@1@U?$integer_sequence@_K$S@1@@Z
	??$?0V?$tuple@AEBVG4String@@@std@@V?$tuple@$$V@1@$0A@$$Z$S@?$pair@$$CBVG4String@@U?$pair@V?$G4DimensionedType@VHep3Vector@CLHEP@@UG4ConversionFatalError@@@@V1@@std@@@std@@QEAA@AEAV?$tuple@AEBVG4String@@@1@AEAV?$tuple@$$V@1@U?$integer_sequence@_K$0A@@1@U?$integer_sequence@_K$S@1@@Z
	??$?0V?$tuple@AEBVG4String@@@std@@V?$tuple@$$V@1@$0A@$$Z$S@?$pair@$$CBVG4String@@U?$pair@VG4String@@V1@@std@@@std@@QEAA@AEAV?$tuple@AEBVG4String@@@1@AEAV?$tuple@$$V@1@U?$integer_sequence@_K$0A@@1@U?$integer_sequence@_K$S@1@@Z
	??$?0V?$tuple@AEBVG4String@@@std@@V?$tuple@$$V@1@$0A@$$Z$S@?$pair@$$CBVG4String@@U?$pair@VHep3Vector@CLHEP@@V12@@std@@@std@@QEAA@AEAV?$tuple@AEBVG4String@@@1@AEAV?$tuple@$$V@1@U?$integer_sequence@_K$0A@@1@U?$integer_sequence@_K$S@1@@Z
	??$?0V?$tuple@AEBVG4String@@@std@@V?$tuple@$$V@1@$0A@$$Z$S@?$pair@$$CBVG4String@@U?$pair@_N_N@std@@@std@@QEAA@AEAV?$tuple@AEBVG4String@@@1@AEAV?$tuple@$$V@1@U?$integer_sequence@_K$0A@@1@U?$integer_sequence@_K$S@1@@Z
	??$?0V?$tuple@AEBVG4String@@@std@@V?$tuple@$$V@1@$0A@$$Z$S@?$pair@$$CBVG4String@@V1@@std@@QEAA@AEAV?$tuple@AEBVG4String@@@1@AEAV?$tuple@$$V@1@U?$integer_sequence@_K$0A@@1@U?$integer_sequence@_K$S@1@@Z
	??$?0V?$tuple@AEBVG4String@@@std@@V?$tuple@$$V@1@$0A@$$Z$S@?$pair@$$CBVG4String@@V?$G4DimensionedType@NUG4ConversionFatalError@@@@@std@@QEAA@AEAV?$tuple@AEBVG4String@@@1@AEAV?$tuple@$$V@1@U?$integer_sequence@_K$0A@@1@U?$integer_sequence@_K$S@1@@Z
	??$?0V?$tuple@AEBVG4String@@@std@@V?$tuple@$$V@1@$0A@$$Z$S@?$pair@$$CBVG4String@@V?$G4DimensionedType@VHep3Vector@CLHEP@@UG4ConversionFatalError@@@@@std@@QEAA@AEAV?$tuple@AEBVG4String@@@1@AEAV?$tuple@$$V@1@U?$integer_sequence@_K$0A@@1@U?$integer_sequence@_K$S@1@@Z
	??$?0V?$tuple@AEBVG4String@@@std@@V?$tuple@$$V@1@$0A@$$Z$S@?$pair@$$CBVG4String@@VG4Colour@@@std@@QEAA@AEAV?$tuple@AEBVG4String@@@1@AEAV?$tuple@$$V@1@U?$integer_sequence@_K$0A@@1@U?$integer_sequence@_K$S@1@@Z
	??$?0V?$tuple@AEBVG4String@@@std@@V?$tuple@$$V@1@$0A@$$Z$S@?$pair@$$CBVG4String@@VHep3Vector@CLHEP@@@std@@QEAA@AEAV?$tuple@AEBVG4String@@@1@AEAV?$tuple@$$V@1@U?$integer_sequence@_K$0A@@1@U?$integer_sequence@_K$S@1@@Z
	??$?0V?$tuple@AEBVG4String@@@std@@V?$tuple@$$V@1@$0A@$$Z$S@?$pair@$$CBVG4String@@_N@std@@QEAA@AEAV?$tuple@AEBVG4String@@@1@AEAV?$tuple@$$V@1@U?$integer_sequence@_K$0A@@1@U?$integer_sequence@_K$S@1@@Z
	??$?0V?$tuple@AEBW4Charge@G4TrajectoryDrawByCharge@@@std@@V?$tuple@$$V@1@$0A@$$Z$S@?$pair@$$CBW4Charge@G4TrajectoryDrawByCharge@@VG4Colour@@@std@@QEAA@AEAV?$tuple@AEBW4Charge@G4TrajectoryDrawByCharge@@@1@AEAV?$tuple@$$V@1@U?$integer_sequence@_K$0A@@1@U?$integer_sequence@_K$S@1@@Z
	??$?5DU?$char_traits@D@std@@V?$allocator@D@1@@std@@YAAEAV?$basic_istream@DU?$char_traits@D@std@@@0@$$QEAV10@AEAV?$basic_string@DU?$char_traits@D@std@@V?$allocator@D@2@@0@@Z
	??$?5DU?$char_traits@D@std@@V?$allocator@D@1@@std@@YAAEAV?$basic_istream@DU?$char_traits@D@std@@@0@AEAV10@AEAV?$basic_string@DU?$char_traits@D@std@@V?$allocator@D@2@@0@@Z
	??$?6DU?$char_traits@D@std@@V?$allocator@D@1@@std@@YAAEAV?$basic_ostream@DU?$char_traits@D@std@@@0@AEAV10@AEBV?$basic_string@DU?$char_traits@D@std@@V?$allocator@D@2@@0@@Z
	??$?6DU?$char_traits@D@std@@_J@std@@YAAEAV?$basic_ostream@DU?$char_traits@D@std@@@0@AEAV10@AEBU?$_Smanip@_J@0@@Z
	??$?6N@@YAAEAV?$basic_ostream@DU?$char_traits@D@std@@@std@@AEAV01@AEBV?$G4DimensionedType@NUG4ConversionFatalError@@@@@Z
	??$?6U?$char_traits@D@std@@@std@@YAAEAV?$basic_ostream@DU?$char_traits@D@std@@@0@AEAV10@D@Z
	??$?6U?$char_traits@D@std@@@std@@YAAEAV?$basic_ostream@DU?$char_traits@D@std@@@0@AEAV10@PEBD@Z
	??$?6VHep3Vector@CLHEP@@@@YAAEAV?$basic_ostream@DU?$char_traits@D@std@@@std@@AEAV01@AEBV?$G4DimensionedType@VHep3Vector@CLHEP@@UG4ConversionFatalError@@@@@Z
	??$?8DU?$char_traits@D@std@@V?$allocator@D@1@@std@@YA_NAEBV?$basic_string@DU?$char_traits@D@std@@V?$allocator@D@2@@0@0@Z
	??$?8NV?$allocator@N@std@@@std@@YA_NAEBV?$vector@NV?$allocator@N@std@@@0@0@Z
	??$?8VPVNameCopyNo@G4ModelingParameters@@V?$allocator@VPVNameCopyNo@G4ModelingParameters@@@std@@@std@@YA_NAEBV?$vector@VPVNameCopyNo@G4ModelingParameters@@V?$allocator@VPVNameCopyNo@G4ModelingParameters@@@std@@@0@0@Z
	??$?8VVisAttributesModifier@G4ModelingParameters@@V?$allocator@VVisAttributesModifier@G4ModelingParameters@@@std@@@std@@YA_NAEBV?$vector@VVisAttributesModifier@G4ModelingParameters@@V?$allocator@VVisAttributesModifier@G4ModelingParameters@@@std@@@0@0@Z
	??$?9NV?$allocator@N@std@@@std@@YA_NAEBV?$vector@NV?$allocator@N@std@@@0@0@Z
	??$?9VPVNameCopyNo@G4ModelingParameters@@V?$allocator@VPVNameCopyNo@G4ModelingParameters@@@std@@@std@@YA_NAEBV?$vector@VPVNameCopyNo@G4ModelingParameters@@V?$allocator@VPVNameCopyNo@G4ModelingParameters@@@std@@@0@0@Z
	??$?9VVisAttributesModifier@G4ModelingParameters@@V?$allocator@VVisAttributesModifier@G4ModelingParameters@@@std@@@std@@YA_NAEBV?$vector@VVisAttributesModifier@G4ModelingParameters@@V?$allocator@VVisAttributesModifier@G4ModelingParameters@@@std@@@0@0@Z
	??$?HDU?$char_traits@D@std@@V?$allocator@D@1@@std@@YA?AV?$basic_string@DU?$char_traits@D@std@@V?$allocator@D@2@@0@$$QEAV10@0@Z
	??$?HDU?$char_traits@D@std@@V?$allocator@D@1@@std@@YA?AV?$basic_string@DU?$char_traits@D@std@@V?$allocator@D@2@@0@$$QEAV10@AEBV10@@Z
	??$?HDU?$char_traits@D@std@@V?$allocator@D@1@@std@@YA?AV?$basic_string@DU?$char_traits@D@std@@V?$allocator@D@2@@0@$$QEAV10@QEBD@Z
	??$?HDU?$char_traits@D@std@@V?$allocator@D@1@@std@@YA?AV?$basic_string@DU?$char_traits@D@std@@V?$allocator@D@2@@0@AEBV10@$$QEAV10@@Z
	??$?HDU?$char_traits@D@std@@V?$allocator@D@1@@std@@YA?AV?$basic_string@DU?$char_traits@D@std@@V?$allocator@D@2@@0@AEBV10@QEBD@Z
	??$?HDU?$char_traits@D@std@@V?$allocator@D@1@@std@@YA?AV?$basic_string@DU?$char_traits@D@std@@V?$allocator@D@2@@0@QEBD$$QEAV10@@Z
	??$?HDU?$char_traits@D@std@@V?$allocator@D@1@@std@@YA?AV?$basic_string@DU?$char_traits@D@std@@V?$allocator@D@2@@0@QEBDAEBV10@@Z
	??$?MDU?$char_traits@D@std@@V?$allocator@D@1@@std@@YA_NAEBV?$basic_string@DU?$char_traits@D@std@@V?$allocator@D@2@@0@0@Z
	??$?ODU?$char_traits@D@std@@V?$allocator@D@1@@std@@YA_NAEBV?$basic_string@DU?$char_traits@D@std@@V?$allocator@D@2@@0@0@Z
	??$Convert@H@G4ConversionUtils@@YA_NAEBVG4String@@AEAH1@Z
	??$Convert@H@G4ConversionUtils@@YA_NAEBVG4String@@AEAH@Z
	??$Convert@N@G4ConversionUtils@@YA_NAEBVG4String@@AEAN1@Z
	??$Convert@N@G4ConversionUtils@@YA_NAEBVG4String@@AEAN@Z
	??$Convert@V?$G4DimensionedType@NUG4ConversionFatalError@@@@@G4ConversionUtils@@YA_NAEBVG4String@@AEAV?$G4DimensionedType@NUG4ConversionFatalError@@@@1@Z
	??$Convert@V?$G4DimensionedType@NUG4ConversionFatalError@@@@@G4ConversionUtils@@YA_NAEBVG4String@@AEAV?$G4DimensionedType@NUG4ConversionFatalError@@@@@Z
	??$Convert@V?$G4DimensionedType@VHep3Vector@CLHEP@@UG4ConversionFatalError@@@@@G4ConversionUtils@@YA_NAEBVG4String@@AEAV?$G4DimensionedType@VHep3Vector@CLHEP@@UG4ConversionFatalError@@@@1@Z
	??$Convert@V?$G4DimensionedType@VHep3Vector@CLHEP@@UG4ConversionFatalError@@@@@G4ConversionUtils@@YA_NAEBVG4String@@AEAV?$G4DimensionedType@VHep3Vector@CLHEP@@UG4ConversionFatalError@@@@@Z
	??$Convert@VG4String@@@G4ConversionUtils@@YA_NAEBVG4String@@AEAV1@1@Z
	??$Convert@VG4String@@@G4ConversionUtils@@YA_NAEBVG4String@@AEAV1@@Z
	??$Convert@VHep3Vector@CLHEP@@@G4ConversionUtils@@YA_NAEBVG4String@@AEAVHep3Vector@CLHEP@@1@Z
	??$Convert@VHep3Vector@CLHEP@@@G4ConversionUtils@@YA_NAEBVG4String@@AEAVHep3Vector@CLHEP@@@Z
	??$Convert@_N@G4ConversionUtils@@YA_NAEBVG4String@@AEA_N1@Z
	??$Convert@_N@G4ConversionUtils@@YA_NAEBVG4String@@AEA_N@Z
	??$ExtractAttDef@VG4VDigi@@@G4AttUtils@@YA_NAEBVG4VDigi@@AEBVG4String@@AEAVG4AttDef@@@Z
	??$ExtractAttDef@VG4VHit@@@G4AttUtils@@YA_NAEBVG4VHit@@AEBVG4String@@AEAVG4AttDef@@@Z
	??$ExtractAttDef@VG4VTrajectory@@@G4AttUtils@@YA_NAEBVG4VTrajectory@@AEBVG4String@@AEAVG4AttDef@@@Z
	??$ExtractAttValue@VG4VDigi@@@G4AttUtils@@YA_NAEBVG4VDigi@@AEBVG4String@@AEAVG4AttValue@@@Z
	??$ExtractAttValue@VG4VHit@@@G4AttUtils@@YA_NAEBVG4VHit@@AEBVG4String@@AEAVG4AttValue@@@Z
	??$ExtractAttValue@VG4VTrajectory@@@G4AttUtils@@YA_NAEBVG4VTrajectory@@AEBVG4String@@AEAVG4AttValue@@@Z
	??$_Allocate@$0BA@U_Default_allocate_traits@std@@$0A@@std@@YAPEAX_K@Z
	??$_Allocate_manually_vector_aligned@U_Default_allocate_traits@std@@@std@@YAPEAX_K@Z
	??$_Assign_range@PEAV?$Point3D@N@HepGeom@@@?$vector@V?$Point3D@N@HepGeom@@V?$allocator@V?$Point3D@N@HepGeom@@@std@@@std@@AEAAXPEAV?$Point3D@N@HepGeom@@0Uforward_iterator_tag@1@@Z
	??$_Assign_range@PEAVG4PhysicalVolumeNodeID@G4PhysicalVolumeModel@@@?$vector@VG4PhysicalVolumeNodeID@G4PhysicalVolumeModel@@V?$allocator@VG4PhysicalVolumeNodeID@G4PhysicalVolumeModel@@@std@@@std@@AEAAXPEAVG4PhysicalVolumeNodeID@G4PhysicalVolumeModel@@0Uforward_iterator_tag@1@@Z
	??$_Assign_range@PEAVPVNameCopyNo@G4ModelingParameters@@@?$vector@VPVNameCopyNo@G4ModelingParameters@@V?$allocator@VPVNameCopyNo@G4ModelingParameters@@@std@@@std@@AEAAXPEAVPVNameCopyNo@G4ModelingParameters@@0Uforward_iterator_tag@1@@Z
	??$_Assign_range@PEAVVisAttributesModifier@G4ModelingParameters@@@?$vector@VVisAttributesModifier@G4ModelingParameters@@V?$allocator@VVisAttributesModifier@G4ModelingParameters@@@std@@@std@@AEAAXPEAVVisAttributesModifier@G4ModelingParameters@@0Uforward_iterator_tag@1@@Z
	??$_Cmp_chrange@PEBDPEBDU?$_Cmp_collate@V?$regex_traits@D@std@@@std@@@std@@YAPEBDPEBD000U?$_Cmp_collate@V?$regex_traits@D@std@@@0@@Z
	??$_Cmp_chrange@PEBDPEBDU?$_Cmp_cs@V?$regex_traits@D@std@@@std@@@std@@YAPEBDPEBD000U?$_Cmp_cs@V?$regex_traits@D@std@@@0@@Z
	??$_Cmp_chrange@PEBDPEBDU?$_Cmp_icase@V?$regex_traits@D@std@@@std@@@std@@YAPEBDPEBD000U?$_Cmp_icase@V?$regex_traits@D@std@@@0@@Z
	??$_Compare@PEBDPEBDV?$regex_traits@D@std@@@std@@YAPEBDPEBD000AEBV?$regex_traits@D@0@W4syntax_option_type@regex_constants@0@@Z
	??$_Const_cast@$$CBVG4AttValue@@@std@@YAPEAVG4AttValue@@PEBV1@@Z
	??$_Const_cast@$$CBVG4PhysicalVolumeNodeID@G4PhysicalVolumeModel@@@std@@YAPEAVG4PhysicalVolumeNodeID@G4PhysicalVolumeModel@@PEBV12@@Z
	??$_Construct_in_place@PEADAEBQEAD@std@@YAXAEAPEADAEBQEAD@Z
	??$_Construct_in_place@PEAU?$_Tree_node@U?$pair@$$CBU?$pair@VG4String@@W4Config@G4TrajectoryDrawByAttribute@@@std@@PEAVG4VisTrajContext@@@std@@PEAX@std@@AEAPEAU12@@std@@YAXAEAPEAU?$_Tree_node@U?$pair@$$CBU?$pair@VG4String@@W4Config@G4TrajectoryDrawByAttribute@@@std@@PEAVG4VisTrajContext@@@std@@PEAX@0@0@Z
	??$_Construct_in_place@PEAU?$_Tree_node@U?$pair@$$CBU?$pair@VG4String@@W4Config@G4TrajectoryDrawByAttribute@@@std@@PEAVG4VisTrajContext@@@std@@PEAX@std@@AEBQEAU12@@std@@YAXAEAPEAU?$_Tree_node@U?$pair@$$CBU?$pair@VG4String@@W4Config@G4TrajectoryDrawByAttribute@@@std@@PEAVG4VisTrajContext@@@std@@PEAX@0@AEBQEAU10@@Z
	??$_Construct_in_place@PEAU?$_Tree_node@U?$pair@$$CBVG4String@@H@std@@PEAX@std@@AEAPEAU12@@std@@YAXAEAPEAU?$_Tree_node@U?$pair@$$CBVG4String@@H@std@@PEAX@0@0@Z
	??$_Construct_in_place@PEAU?$_Tree_node@U?$pair@$$CBVG4String@@H@std@@PEAX@std@@AEBQEAU12@@std@@YAXAEAPEAU?$_Tree_node@U?$pair@$$CBVG4String@@H@std@@PEAX@0@AEBQEAU10@@Z
	??$_Construct_in_place@PEAU?$_Tree_node@U?$pair@$$CBVG4String@@N@std@@PEAX@std@@AEAPEAU12@@std@@YAXAEAPEAU?$_Tree_node@U?$pair@$$CBVG4String@@N@std@@PEAX@0@0@Z
	??$_Construct_in_place@PEAU?$_Tree_node@U?$pair@$$CBVG4String@@N@std@@PEAX@std@@AEBQEAU12@@std@@YAXAEAPEAU?$_Tree_node@U?$pair@$$CBVG4String@@N@std@@PEAX@0@AEBQEAU10@@Z
	??$_Construct_in_place@PEAU?$_Tree_node@U?$pair@$$CBVG4String@@PEAV?$G4THitsMap@VG4StatDouble@@@@@std@@PEAX@std@@AEAPEAU12@@std@@YAXAEAPEAU?$_Tree_node@U?$pair@$$CBVG4String@@PEAV?$G4THitsMap@VG4StatDouble@@@@@std@@PEAX@0@0@Z
	??$_Construct_in_place@PEAU?$_Tree_node@U?$pair@$$CBVG4String@@PEAV?$G4THitsMap@VG4StatDouble@@@@@std@@PEAX@std@@AEBQEAU12@@std@@YAXAEAPEAU?$_Tree_node@U?$pair@$$CBVG4String@@PEAV?$G4THitsMap@VG4StatDouble@@@@@std@@PEAX@0@AEBQEAU10@@Z
	??$_Construct_in_place@PEAU?$_Tree_node@U?$pair@$$CBVG4String@@U?$pair@HH@std@@@std@@PEAX@std@@AEAPEAU12@@std@@YAXAEAPEAU?$_Tree_node@U?$pair@$$CBVG4String@@U?$pair@HH@std@@@std@@PEAX@0@0@Z
	??$_Construct_in_place@PEAU?$_Tree_node@U?$pair@$$CBVG4String@@U?$pair@HH@std@@@std@@PEAX@std@@AEBQEAU12@@std@@YAXAEAPEAU?$_Tree_node@U?$pair@$$CBVG4String@@U?$pair@HH@std@@@std@@PEAX@0@AEBQEAU10@@Z
	??$_Construct_in_place@PEAU?$_Tree_node@U?$pair@$$CBVG4String@@U?$pair@NN@std@@@std@@PEAX@std@@AEAPEAU12@@std@@YAXAEAPEAU?$_Tree_node@U?$pair@$$CBVG4String@@U?$pair@NN@std@@@std@@PEAX@0@0@Z
	??$_Construct_in_place@PEAU?$_Tree_node@U?$pair@$$CBVG4String@@U?$pair@NN@std@@@std@@PEAX@std@@AEBQEAU12@@std@@YAXAEAPEAU?$_Tree_node@U?$pair@$$CBVG4String@@U?$pair@NN@std@@@std@@PEAX@0@AEBQEAU10@@Z
	??$_Construct_in_place@PEAU?$_Tree_node@U?$pair@$$CBVG4String@@U?$pair@V?$G4DimensionedType@NUG4ConversionFatalError@@@@V1@@std@@@std@@PEAX@std@@AEAPEAU12@@std@@YAXAEAPEAU?$_Tree_node@U?$pair@$$CBVG4String@@U?$pair@V?$G4DimensionedType@NUG4ConversionFatalError@@@@V1@@std@@@std@@PEAX@0@0@Z
	??$_Construct_in_place@PEAU?$_Tree_node@U?$pair@$$CBVG4String@@U?$pair@V?$G4DimensionedType@NUG4ConversionFatalError@@@@V1@@std@@@std@@PEAX@std@@AEBQEAU12@@std@@YAXAEAPEAU?$_Tree_node@U?$pair@$$CBVG4String@@U?$pair@V?$G4DimensionedType@NUG4ConversionFatalError@@@@V1@@std@@@std@@PEAX@0@AEBQEAU10@@Z
	??$_Construct_in_place@PEAU?$_Tree_node@U?$pair@$$CBVG4String@@U?$pair@V?$G4DimensionedType@VHep3Vector@CLHEP@@UG4ConversionFatalError@@@@V1@@std@@@std@@PEAX@std@@AEAPEAU12@@std@@YAXAEAPEAU?$_Tree_node@U?$pair@$$CBVG4String@@U?$pair@V?$G4DimensionedType@VHep3Vector@CLHEP@@UG4ConversionFatalError@@@@V1@@std@@@std@@PEAX@0@0@Z
	??$_Construct_in_place@PEAU?$_Tree_node@U?$pair@$$CBVG4String@@U?$pair@V?$G4DimensionedType@VHep3Vector@CLHEP@@UG4ConversionFatalError@@@@V1@@std@@@std@@PEAX@std@@AEBQEAU12@@std@@YAXAEAPEAU?$_Tree_node@U?$pair@$$CBVG4String@@U?$pair@V?$G4DimensionedType@VHep3Vector@CLHEP@@UG4ConversionFatalError@@@@V1@@std@@@std@@PEAX@0@AEBQEAU10@@Z
	??$_Construct_in_place@PEAU?$_Tree_node@U?$pair@$$CBVG4String@@U?$pair@VG4String@@V1@@std@@@std@@PEAX@std@@AEAPEAU12@@std@@YAXAEAPEAU?$_Tree_node@U?$pair@$$CBVG4String@@U?$pair@VG4String@@V1@@std@@@std@@PEAX@0@0@Z
	??$_Construct_in_place@PEAU?$_Tree_node@U?$pair@$$CBVG4String@@U?$pair@VG4String@@V1@@std@@@std@@PEAX@std@@AEBQEAU12@@std@@YAXAEAPEAU?$_Tree_node@U?$pair@$$CBVG4String@@U?$pair@VG4String@@V1@@std@@@std@@PEAX@0@AEBQEAU10@@Z
	??$_Construct_in_place@PEAU?$_Tree_node@U?$pair@$$CBVG4String@@U?$pair@VHep3Vector@CLHEP@@V12@@std@@@std@@PEAX@std@@AEAPEAU12@@std@@YAXAEAPEAU?$_Tree_node@U?$pair@$$CBVG4String@@U?$pair@VHep3Vector@CLHEP@@V12@@std@@@std@@PEAX@0@0@Z
	??$_Construct_in_place@PEAU?$_Tree_node@U?$pair@$$CBVG4String@@U?$pair@VHep3Vector@CLHEP@@V12@@std@@@std@@PEAX@std@@AEBQEAU12@@std@@YAXAEAPEAU?$_Tree_node@U?$pair@$$CBVG4String@@U?$pair@VHep3Vector@CLHEP@@V12@@std@@@std@@PEAX@0@AEBQEAU10@@Z
	??$_Construct_in_place@PEAU?$_Tree_node@U?$pair@$$CBVG4String@@U?$pair@_N_N@std@@@std@@PEAX@std@@AEAPEAU12@@std@@YAXAEAPEAU?$_Tree_node@U?$pair@$$CBVG4String@@U?$pair@_N_N@std@@@std@@PEAX@0@0@Z
	??$_Construct_in_place@PEAU?$_Tree_node@U?$pair@$$CBVG4String@@U?$pair@_N_N@std@@@std@@PEAX@std@@AEBQEAU12@@std@@YAXAEAPEAU?$_Tree_node@U?$pair@$$CBVG4String@@U?$pair@_N_N@std@@@std@@PEAX@0@AEBQEAU10@@Z
	??$_Construct_in_place@PEAU?$_Tree_node@U?$pair@$$CBVG4String@@V1@@std@@PEAX@std@@AEAPEAU12@@std@@YAXAEAPEAU?$_Tree_node@U?$pair@$$CBVG4String@@V1@@std@@PEAX@0@0@Z
	??$_Construct_in_place@PEAU?$_Tree_node@U?$pair@$$CBVG4String@@V1@@std@@PEAX@std@@AEBQEAU12@@std@@YAXAEAPEAU?$_Tree_node@U?$pair@$$CBVG4String@@V1@@std@@PEAX@0@AEBQEAU10@@Z
	??$_Construct_in_place@PEAU?$_Tree_node@U?$pair@$$CBVG4String@@V?$G4DimensionedType@NUG4ConversionFatalError@@@@@std@@PEAX@std@@AEAPEAU12@@std@@YAXAEAPEAU?$_Tree_node@U?$pair@$$CBVG4String@@V?$G4DimensionedType@NUG4ConversionFatalError@@@@@std@@PEAX@0@0@Z
	??$_Construct_in_place@PEAU?$_Tree_node@U?$pair@$$CBVG4String@@V?$G4DimensionedType@NUG4ConversionFatalError@@@@@std@@PEAX@std@@AEBQEAU12@@std@@YAXAEAPEAU?$_Tree_node@U?$pair@$$CBVG4String@@V?$G4DimensionedType@NUG4ConversionFatalError@@@@@std@@PEAX@0@AEBQEAU10@@Z
	??$_Construct_in_place@PEAU?$_Tree_node@U?$pair@$$CBVG4String@@V?$G4DimensionedType@VHep3Vector@CLHEP@@UG4ConversionFatalError@@@@@std@@PEAX@std@@AEAPEAU12@@std@@YAXAEAPEAU?$_Tree_node@U?$pair@$$CBVG4String@@V?$G4DimensionedType@VHep3Vector@CLHEP@@UG4ConversionFatalError@@@@@std@@PEAX@0@0@Z
	??$_Construct_in_place@PEAU?$_Tree_node@U?$pair@$$CBVG4String@@V?$G4DimensionedType@VHep3Vector@CLHEP@@UG4ConversionFatalError@@@@@std@@PEAX@std@@AEBQEAU12@@std@@YAXAEAPEAU?$_Tree_node@U?$pair@$$CBVG4String@@V?$G4DimensionedType@VHep3Vector@CLHEP@@UG4ConversionFatalError@@@@@std@@PEAX@0@AEBQEAU10@@Z
	??$_Construct_in_place@PEAU?$_Tree_node@U?$pair@$$CBVG4String@@VG4AttDef@@@std@@PEAX@std@@AEAPEAU12@@std@@YAXAEAPEAU?$_Tree_node@U?$pair@$$CBVG4String@@VG4AttDef@@@std@@PEAX@0@0@Z
	??$_Construct_in_place@PEAU?$_Tree_node@U?$pair@$$CBVG4String@@VG4AttDef@@@std@@PEAX@std@@AEBQEAU12@@std@@YAXAEAPEAU?$_Tree_node@U?$pair@$$CBVG4String@@VG4AttDef@@@std@@PEAX@0@AEBQEAU10@@Z
	??$_Construct_in_place@PEAU?$_Tree_node@U?$pair@$$CBVG4String@@VG4Colour@@@std@@PEAX@std@@AEAPEAU12@@std@@YAXAEAPEAU?$_Tree_node@U?$pair@$$CBVG4String@@VG4Colour@@@std@@PEAX@0@0@Z
	??$_Construct_in_place@PEAU?$_Tree_node@U?$pair@$$CBVG4String@@VG4Colour@@@std@@PEAX@std@@AEBQEAU12@@std@@YAXAEAPEAU?$_Tree_node@U?$pair@$$CBVG4String@@VG4Colour@@@std@@PEAX@0@AEBQEAU10@@Z
	??$_Construct_in_place@PEAU?$_Tree_node@U?$pair@$$CBVG4String@@VHep3Vector@CLHEP@@@std@@PEAX@std@@AEAPEAU12@@std@@YAXAEAPEAU?$_Tree_node@U?$pair@$$CBVG4String@@VHep3Vector@CLHEP@@@std@@PEAX@0@0@Z
	??$_Construct_in_place@PEAU?$_Tree_node@U?$pair@$$CBVG4String@@VHep3Vector@CLHEP@@@std@@PEAX@std@@AEBQEAU12@@std@@YAXAEAPEAU?$_Tree_node@U?$pair@$$CBVG4String@@VHep3Vector@CLHEP@@@std@@PEAX@0@AEBQEAU10@@Z
	??$_Construct_in_place@PEAU?$_Tree_node@U?$pair@$$CBVG4String@@_N@std@@PEAX@std@@AEAPEAU12@@std@@YAXAEAPEAU?$_Tree_node@U?$pair@$$CBVG4String@@_N@std@@PEAX@0@0@Z
	??$_Construct_in_place@PEAU?$_Tree_node@U?$pair@$$CBVG4String@@_N@std@@PEAX@std@@AEBQEAU12@@std@@YAXAEAPEAU?$_Tree_node@U?$pair@$$CBVG4String@@_N@std@@PEAX@0@AEBQEAU10@@Z
	??$_Construct_in_place@PEAU?$_Tree_node@U?$pair@$$CBVG4TypeKey@@P6APEAVG4VAttValueFilter@@XZ@std@@PEAX@std@@AEAPEAU12@@std@@YAXAEAPEAU?$_Tree_node@U?$pair@$$CBVG4TypeKey@@P6APEAVG4VAttValueFilter@@XZ@std@@PEAX@0@0@Z
	??$_Construct_in_place@PEAU?$_Tree_node@U?$pair@$$CBVG4TypeKey@@P6APEAVG4VAttValueFilter@@XZ@std@@PEAX@std@@AEBQEAU12@@std@@YAXAEAPEAU?$_Tree_node@U?$pair@$$CBVG4TypeKey@@P6APEAVG4VAttValueFilter@@XZ@std@@PEAX@0@AEBQEAU10@@Z
	??$_Construct_in_place@PEAU?$_Tree_node@U?$pair@$$CBW4Charge@G4TrajectoryDrawByCharge@@VG4Colour@@@std@@PEAX@std@@AEAPEAU12@@std@@YAXAEAPEAU?$_Tree_node@U?$pair@$$CBW4Charge@G4TrajectoryDrawByCharge@@VG4Colour@@@std@@PEAX@0@0@Z
	??$_Construct_in_place@PEAU?$_Tree_node@U?$pair@$$CBW4Charge@G4TrajectoryDrawByCharge@@VG4Colour@@@std@@PEAX@std@@AEBQEAU12@@std@@YAXAEAPEAU?$_Tree_node@U?$pair@$$CBW4Charge@G4TrajectoryDrawByCharge@@VG4Colour@@@std@@PEAX@0@AEBQEAU10@@Z
	??$_Construct_in_place@U_Container_proxy@std@@PEAU_Container_base12@2@@std@@YAXAEAU_Container_proxy@0@$$QEAPEAU_Container_base12@0@@Z
	??$_Copy_memmove@PEADPEAD@std@@YAPEADPEAD00@Z
	??$_Copy_memmove@PEAIPEAI@std@@YAPEAIPEAI00@Z
	??$_Copy_memmove@PEANPEAN@std@@YAPEANPEAN00@Z
	??$_Copy_memmove@PEAPEANPEAPEAN@std@@YAPEAPEANPEAPEAN00@Z
	??$_Copy_memmove@PEAPEAVG4UImessenger@@PEAPEAV1@@std@@YAPEAPEAVG4UImessenger@@PEAPEAV1@00@Z
	??$_Copy_memmove@PEAPEAVG4UIparameter@@PEAPEAV1@@std@@YAPEAPEAVG4UIparameter@@PEAPEAV1@00@Z
	??$_Copy_memmove@PEAU_Grp_t@?$_Tgt_state_t@PEBD@std@@PEAU123@@std@@YAPEAU_Grp_t@?$_Tgt_state_t@PEBD@0@PEAU120@00@Z
	??$_Copy_memmove@PEAU_Loop_vals_t@std@@PEAU12@@std@@YAPEAU_Loop_vals_t@0@PEAU10@00@Z
	??$_Copy_memmove@PEAVG4PhysicalVolumeNodeID@G4PhysicalVolumeModel@@PEAV12@@std@@YAPEAVG4PhysicalVolumeNodeID@G4PhysicalVolumeModel@@PEAV12@00@Z
	??$_Copy_memmove@PEAW4MyCharge@G4TrajectoryChargeFilter@@PEAW412@@std@@YAPEAW4MyCharge@G4TrajectoryChargeFilter@@PEAW412@00@Z
	??$_Copy_memmove@PEBDPEAD@std@@YAPEADPEBD0PEAD@Z
	??$_Copy_nodes@U_Copy_tag@?$_Tree@V?$_Tmap_traits@VG4String@@PEAV?$G4THitsMap@VG4StatDouble@@@@U?$less@VG4String@@@std@@V?$allocator@U?$pair@$$CBVG4String@@PEAV?$G4THitsMap@VG4StatDouble@@@@@std@@@4@$0A@@std@@@std@@@?$_Tree@V?$_Tmap_traits@VG4String@@PEAV?$G4THitsMap@VG4StatDouble@@@@U?$less@VG4String@@@std@@V?$allocator@U?$pair@$$CBVG4String@@PEAV?$G4THitsMap@VG4StatDouble@@@@@std@@@4@$0A@@std@@@std@@IEAAPEAU?$_Tree_node@U?$pair@$$CBVG4String@@PEAV?$G4THitsMap@VG4StatDouble@@@@@std@@PEAX@1@PEAU21@0U_Copy_tag@01@@Z
	??$_Copy_unchecked@PEAV?$Point3D@N@HepGeom@@PEAV12@@std@@YAPEAV?$Point3D@N@HepGeom@@PEAV12@00@Z
	??$_Copy_unchecked@PEAVPVNameCopyNo@G4ModelingParameters@@PEAV12@@std@@YAPEAVPVNameCopyNo@G4ModelingParameters@@PEAV12@00@Z
	??$_Copy_unchecked@PEAVVisAttributesModifier@G4ModelingParameters@@PEAV12@@std@@YAPEAVVisAttributesModifier@G4ModelingParameters@@PEAV12@00@Z
	??$_Copy_unchecked@V?$_Vb_iterator@U?$_Wrap_alloc@V?$allocator@I@std@@@std@@@std@@V12@@std@@YA?AV?$_Vb_iterator@U?$_Wrap_alloc@V?$allocator@I@std@@@std@@@0@V10@00@Z
	??$_Deallocate@$0BA@$0A@@std@@YAXPEAX_K@Z
	??$_Deallocate_plain@V?$allocator@U_Container_proxy@std@@@std@@@std@@YAXAEAV?$allocator@U_Container_proxy@std@@@0@QEAU_Container_proxy@0@@Z
	??$_Delete_plain_internal@V?$allocator@U_Container_proxy@std@@@std@@@std@@YAXAEAV?$allocator@U_Container_proxy@std@@@0@QEAU_Container_proxy@0@@Z
	??$_Destroy_in_place@PEAD@std@@YAXAEAPEAD@Z
	??$_Destroy_in_place@PEAN@std@@YAXAEAPEAN@Z
	??$_Destroy_in_place@PEAU?$_Tree_node@U?$pair@$$CBU?$pair@VG4String@@W4Config@G4TrajectoryDrawByAttribute@@@std@@PEAVG4VisTrajContext@@@std@@PEAX@std@@@std@@YAXAEAPEAU?$_Tree_node@U?$pair@$$CBU?$pair@VG4String@@W4Config@G4TrajectoryDrawByAttribute@@@std@@PEAVG4VisTrajContext@@@std@@PEAX@0@@Z
	??$_Destroy_in_place@PEAU?$_Tree_node@U?$pair@$$CBVG4String@@H@std@@PEAX@std@@@std@@YAXAEAPEAU?$_Tree_node@U?$pair@$$CBVG4String@@H@std@@PEAX@0@@Z
	??$_Destroy_in_place@PEAU?$_Tree_node@U?$pair@$$CBVG4String@@N@std@@PEAX@std@@@std@@YAXAEAPEAU?$_Tree_node@U?$pair@$$CBVG4String@@N@std@@PEAX@0@@Z
	??$_Destroy_in_place@PEAU?$_Tree_node@U?$pair@$$CBVG4String@@PEAV?$G4THitsMap@VG4StatDouble@@@@@std@@PEAX@std@@@std@@YAXAEAPEAU?$_Tree_node@U?$pair@$$CBVG4String@@PEAV?$G4THitsMap@VG4StatDouble@@@@@std@@PEAX@0@@Z
	??$_Destroy_in_place@PEAU?$_Tree_node@U?$pair@$$CBVG4String@@U?$pair@HH@std@@@std@@PEAX@std@@@std@@YAXAEAPEAU?$_Tree_node@U?$pair@$$CBVG4String@@U?$pair@HH@std@@@std@@PEAX@0@@Z
	??$_Destroy_in_place@PEAU?$_Tree_node@U?$pair@$$CBVG4String@@U?$pair@NN@std@@@std@@PEAX@std@@@std@@YAXAEAPEAU?$_Tree_node@U?$pair@$$CBVG4String@@U?$pair@NN@std@@@std@@PEAX@0@@Z
	??$_Destroy_in_place@PEAU?$_Tree_node@U?$pair@$$CBVG4String@@U?$pair@V?$G4DimensionedType@NUG4ConversionFatalError@@@@V1@@std@@@std@@PEAX@std@@@std@@YAXAEAPEAU?$_Tree_node@U?$pair@$$CBVG4String@@U?$pair@V?$G4DimensionedType@NUG4ConversionFatalError@@@@V1@@std@@@std@@PEAX@0@@Z
	??$_Destroy_in_place@PEAU?$_Tree_node@U?$pair@$$CBVG4String@@U?$pair@V?$G4DimensionedType@VHep3Vector@CLHEP@@UG4ConversionFatalError@@@@V1@@std@@@std@@PEAX@std@@@std@@YAXAEAPEAU?$_Tree_node@U?$pair@$$CBVG4String@@U?$pair@V?$G4DimensionedType@VHep3Vector@CLHEP@@UG4ConversionFatalError@@@@V1@@std@@@std@@PEAX@0@@Z
	??$_Destroy_in_place@PEAU?$_Tree_node@U?$pair@$$CBVG4String@@U?$pair@VG4String@@V1@@std@@@std@@PEAX@std@@@std@@YAXAEAPEAU?$_Tree_node@U?$pair@$$CBVG4String@@U?$pair@VG4String@@V1@@std@@@std@@PEAX@0@@Z
	??$_Destroy_in_place@PEAU?$_Tree_node@U?$pair@$$CBVG4String@@U?$pair@VHep3Vector@CLHEP@@V12@@std@@@std@@PEAX@std@@@std@@YAXAEAPEAU?$_Tree_node@U?$pair@$$CBVG4String@@U?$pair@VHep3Vector@CLHEP@@V12@@std@@@std@@PEAX@0@@Z
	??$_Destroy_in_place@PEAU?$_Tree_node@U?$pair@$$CBVG4String@@U?$pair@_N_N@std@@@std@@PEAX@std@@@std@@YAXAEAPEAU?$_Tree_node@U?$pair@$$CBVG4String@@U?$pair@_N_N@std@@@std@@PEAX@0@@Z
	??$_Destroy_in_place@PEAU?$_Tree_node@U?$pair@$$CBVG4String@@V1@@std@@PEAX@std@@@std@@YAXAEAPEAU?$_Tree_node@U?$pair@$$CBVG4String@@V1@@std@@PEAX@0@@Z
	??$_Destroy_in_place@PEAU?$_Tree_node@U?$pair@$$CBVG4String@@V?$G4DimensionedType@NUG4ConversionFatalError@@@@@std@@PEAX@std@@@std@@YAXAEAPEAU?$_Tree_node@U?$pair@$$CBVG4String@@V?$G4DimensionedType@NUG4ConversionFatalError@@@@@std@@PEAX@0@@Z
	??$_Destroy_in_place@PEAU?$_Tree_node@U?$pair@$$CBVG4String@@V?$G4DimensionedType@VHep3Vector@CLHEP@@UG4ConversionFatalError@@@@@std@@PEAX@std@@@std@@YAXAEAPEAU?$_Tree_node@U?$pair@$$CBVG4String@@V?$G4DimensionedType@VHep3Vector@CLHEP@@UG4ConversionFatalError@@@@@std@@PEAX@0@@Z
	??$_Destroy_in_place@PEAU?$_Tree_node@U?$pair@$$CBVG4String@@VG4AttDef@@@std@@PEAX@std@@@std@@YAXAEAPEAU?$_Tree_node@U?$pair@$$CBVG4String@@VG4AttDef@@@std@@PEAX@0@@Z
	??$_Destroy_in_place@PEAU?$_Tree_node@U?$pair@$$CBVG4String@@VG4Colour@@@std@@PEAX@std@@@std@@YAXAEAPEAU?$_Tree_node@U?$pair@$$CBVG4String@@VG4Colour@@@std@@PEAX@0@@Z
	??$_Destroy_in_place@PEAU?$_Tree_node@U?$pair@$$CBVG4String@@VHep3Vector@CLHEP@@@std@@PEAX@std@@@std@@YAXAEAPEAU?$_Tree_node@U?$pair@$$CBVG4String@@VHep3Vector@CLHEP@@@std@@PEAX@0@@Z
	??$_Destroy_in_place@PEAU?$_Tree_node@U?$pair@$$CBVG4String@@_N@std@@PEAX@std@@@std@@YAXAEAPEAU?$_Tree_node@U?$pair@$$CBVG4String@@_N@std@@PEAX@0@@Z
	??$_Destroy_in_place@PEAU?$_Tree_node@U?$pair@$$CBVG4TypeKey@@P6APEAVG4VAttValueFilter@@XZ@std@@PEAX@std@@@std@@YAXAEAPEAU?$_Tree_node@U?$pair@$$CBVG4TypeKey@@P6APEAVG4VAttValueFilter@@XZ@std@@PEAX@0@@Z
	??$_Destroy_in_place@PEAU?$_Tree_node@U?$pair@$$CBW4Charge@G4TrajectoryDrawByCharge@@VG4Colour@@@std@@PEAX@std@@@std@@YAXAEAPEAU?$_Tree_node@U?$pair@$$CBW4Charge@G4TrajectoryDrawByCharge@@VG4Colour@@@std@@PEAX@0@@Z
	??$_Destroy_range@PEAPEAN@std@@YAXPEAPEANQEAPEAN@Z
	??$_Destroy_range@V?$allocator@D@std@@@std@@YAXPEADQEADAEAV?$allocator@D@0@@Z
	??$_Destroy_range@V?$allocator@I@std@@@std@@YAXPEAIQEAIAEAV?$allocator@I@0@@Z
	??$_Destroy_range@V?$allocator@N@std@@@std@@YAXPEANQEANAEAV?$allocator@N@0@@Z
	??$_Destroy_range@V?$allocator@PEAVG4UImessenger@@@std@@@std@@YAXPEAPEAVG4UImessenger@@QEAPEAV1@AEAV?$allocator@PEAVG4UImessenger@@@0@@Z
	??$_Destroy_range@V?$allocator@PEAVG4UIparameter@@@std@@@std@@YAXPEAPEAVG4UIparameter@@QEAPEAV1@AEAV?$allocator@PEAVG4UIparameter@@@0@@Z
	??$_Destroy_range@V?$allocator@U?$pair@PEAVG4VSolid@@H@std@@@std@@@std@@YAXPEAU?$pair@PEAVG4VSolid@@H@0@QEAU10@AEAV?$allocator@U?$pair@PEAVG4VSolid@@H@std@@@0@@Z
	??$_Destroy_range@V?$allocator@U?$pair@VG4String@@W4Config@?$G4AttributeFilterT@VG4VDigi@@@@@std@@@std@@@std@@YAXPEAU?$pair@VG4String@@W4Config@?$G4AttributeFilterT@VG4VDigi@@@@@0@QEAU10@AEAV?$allocator@U?$pair@VG4String@@W4Config@?$G4AttributeFilterT@VG4VDigi@@@@@std@@@0@@Z
	??$_Destroy_range@V?$allocator@U?$pair@VG4String@@W4Config@?$G4AttributeFilterT@VG4VHit@@@@@std@@@std@@@std@@YAXPEAU?$pair@VG4String@@W4Config@?$G4AttributeFilterT@VG4VHit@@@@@0@QEAU10@AEAV?$allocator@U?$pair@VG4String@@W4Config@?$G4AttributeFilterT@VG4VHit@@@@@std@@@0@@Z
	??$_Destroy_range@V?$allocator@U?$pair@VG4String@@W4Config@?$G4AttributeFilterT@VG4VTrajectory@@@@@std@@@std@@@std@@YAXPEAU?$pair@VG4String@@W4Config@?$G4AttributeFilterT@VG4VTrajectory@@@@@0@QEAU10@AEAV?$allocator@U?$pair@VG4String@@W4Config@?$G4AttributeFilterT@VG4VTrajectory@@@@@std@@@0@@Z
	??$_Destroy_range@V?$allocator@UFindings@G4PhysicalVolumesSearchScene@@@std@@@std@@YAXPEAUFindings@G4PhysicalVolumesSearchScene@@QEAU12@AEAV?$allocator@UFindings@G4PhysicalVolumesSearchScene@@@0@@Z
	??$_Destroy_range@V?$allocator@U_Grp_t@?$_Tgt_state_t@PEBD@std@@@std@@@std@@YAXPEAU_Grp_t@?$_Tgt_state_t@PEBD@0@QEAU120@AEAV?$allocator@U_Grp_t@?$_Tgt_state_t@PEBD@std@@@0@@Z
	??$_Destroy_range@V?$allocator@U_Loop_vals_t@std@@@std@@@std@@YAXPEAU_Loop_vals_t@0@QEAU10@AEAV?$allocator@U_Loop_vals_t@std@@@0@@Z
	??$_Destroy_range@V?$allocator@Uyystype@G4UItokenNum@@@std@@@std@@YAXPEAUyystype@G4UItokenNum@@QEAU12@AEAV?$allocator@Uyystype@G4UItokenNum@@@0@@Z
	??$_Destroy_range@V?$allocator@V?$Point3D@N@HepGeom@@@std@@@std@@YAXPEAV?$Point3D@N@HepGeom@@QEAV12@AEAV?$allocator@V?$Point3D@N@HepGeom@@@0@@Z
	??$_Destroy_range@V?$allocator@V?$sub_match@PEBD@std@@@std@@@std@@YAXPEAV?$sub_match@PEBD@0@QEAV10@AEAV?$allocator@V?$sub_match@PEBD@std@@@0@@Z
	??$_Destroy_range@V?$allocator@VG4AttValue@@@std@@@std@@YAXPEAVG4AttValue@@QEAV1@AEAV?$allocator@VG4AttValue@@@0@@Z
	??$_Destroy_range@V?$allocator@VG4PhysicalVolumeNodeID@G4PhysicalVolumeModel@@@std@@@std@@YAXPEAVG4PhysicalVolumeNodeID@G4PhysicalVolumeModel@@QEAV12@AEAV?$allocator@VG4PhysicalVolumeNodeID@G4PhysicalVolumeModel@@@0@@Z
	??$_Destroy_range@V?$allocator@VG4PlacedPolyhedron@@@std@@@std@@YAXPEAVG4PlacedPolyhedron@@QEAV1@AEAV?$allocator@VG4PlacedPolyhedron@@@0@@Z
	??$_Destroy_range@V?$allocator@VG4String@@@std@@@std@@YAXPEAVG4String@@QEAV1@AEAV?$allocator@VG4String@@@0@@Z
	??$_Destroy_range@V?$allocator@VHep3Vector@CLHEP@@@std@@@std@@YAXPEAVHep3Vector@CLHEP@@QEAV12@AEAV?$allocator@VHep3Vector@CLHEP@@@0@@Z
	??$_Destroy_range@V?$allocator@VPVNameCopyNo@G4ModelingParameters@@@std@@@std@@YAXPEAVPVNameCopyNo@G4ModelingParameters@@QEAV12@AEAV?$allocator@VPVNameCopyNo@G4ModelingParameters@@@0@@Z
	??$_Destroy_range@V?$allocator@VVisAttributesModifier@G4ModelingParameters@@@std@@@std@@YAXPEAVVisAttributesModifier@G4ModelingParameters@@QEAV12@AEAV?$allocator@VVisAttributesModifier@G4ModelingParameters@@@0@@Z
	??$_Destroy_range@V?$allocator@W4MyCharge@G4TrajectoryChargeFilter@@@std@@@std@@YAXPEAW4MyCharge@G4TrajectoryChargeFilter@@QEAW412@AEAV?$allocator@W4MyCharge@G4TrajectoryChargeFilter@@@0@@Z
	??$_Emplace_reallocate@AEBN@?$vector@NV?$allocator@N@std@@@std@@QEAAPEANQEANAEBN@Z
	??$_Emplace_reallocate@AEBQEAVG4UIparameter@@@?$vector@PEAVG4UIparameter@@V?$allocator@PEAVG4UIparameter@@@std@@@std@@QEAAPEAPEAVG4UIparameter@@QEAPEAV2@AEBQEAV2@@Z
	??$_Emplace_reallocate@AEBU?$pair@PEAVG4VSolid@@H@std@@@?$vector@U?$pair@PEAVG4VSolid@@H@std@@V?$allocator@U?$pair@PEAVG4VSolid@@H@std@@@2@@std@@QEAAPEAU?$pair@PEAVG4VSolid@@H@1@QEAU21@AEBU21@@Z
	??$_Emplace_reallocate@AEBU?$pair@VG4String@@W4Config@?$G4AttributeFilterT@VG4VDigi@@@@@std@@@?$vector@U?$pair@VG4String@@W4Config@?$G4AttributeFilterT@VG4VDigi@@@@@std@@V?$allocator@U?$pair@VG4String@@W4Config@?$G4AttributeFilterT@VG4VDigi@@@@@std@@@2@@std@@QEAAPEAU?$pair@VG4String@@W4Config@?$G4AttributeFilterT@VG4VDigi@@@@@1@QEAU21@AEBU21@@Z
	??$_Emplace_reallocate@AEBU?$pair@VG4String@@W4Config@?$G4AttributeFilterT@VG4VHit@@@@@std@@@?$vector@U?$pair@VG4String@@W4Config@?$G4AttributeFilterT@VG4VHit@@@@@std@@V?$allocator@U?$pair@VG4String@@W4Config@?$G4AttributeFilterT@VG4VHit@@@@@std@@@2@@std@@QEAAPEAU?$pair@VG4String@@W4Config@?$G4AttributeFilterT@VG4VHit@@@@@1@QEAU21@AEBU21@@Z
	??$_Emplace_reallocate@AEBU?$pair@VG4String@@W4Config@?$G4AttributeFilterT@VG4VTrajectory@@@@@std@@@?$vector@U?$pair@VG4String@@W4Config@?$G4AttributeFilterT@VG4VTrajectory@@@@@std@@V?$allocator@U?$pair@VG4String@@W4Config@?$G4AttributeFilterT@VG4VTrajectory@@@@@std@@@2@@std@@QEAAPEAU?$pair@VG4String@@W4Config@?$G4AttributeFilterT@VG4VTrajectory@@@@@1@QEAU21@AEBU21@@Z
	??$_Emplace_reallocate@AEBV?$Point3D@N@HepGeom@@@?$vector@V?$Point3D@N@HepGeom@@V?$allocator@V?$Point3D@N@HepGeom@@@std@@@std@@QEAAPEAV?$Point3D@N@HepGeom@@QEAV23@AEBV23@@Z
	??$_Emplace_reallocate@AEBVG4String@@@?$vector@VG4String@@V?$allocator@VG4String@@@std@@@std@@QEAAPEAVG4String@@QEAV2@AEBV2@@Z
	??$_Emplace_reallocate@AEBVHep3Vector@CLHEP@@@?$vector@VHep3Vector@CLHEP@@V?$allocator@VHep3Vector@CLHEP@@@std@@@std@@QEAAPEAVHep3Vector@CLHEP@@QEAV23@AEBV23@@Z
	??$_Emplace_reallocate@AEBW4MyCharge@G4TrajectoryChargeFilter@@@?$vector@W4MyCharge@G4TrajectoryChargeFilter@@V?$allocator@W4MyCharge@G4TrajectoryChargeFilter@@@std@@@std@@QEAAPEAW4MyCharge@G4TrajectoryChargeFilter@@QEAW423@AEBW423@@Z
	??$_Emplace_reallocate@PEAVG4UImessenger@@@?$vector@PEAVG4UImessenger@@V?$allocator@PEAVG4UImessenger@@@std@@@std@@QEAAPEAPEAVG4UImessenger@@QEAPEAV2@$$QEAPEAV2@@Z
	??$_Emplace_reallocate@UFindings@G4PhysicalVolumesSearchScene@@@?$vector@UFindings@G4PhysicalVolumesSearchScene@@V?$allocator@UFindings@G4PhysicalVolumesSearchScene@@@std@@@std@@QEAAPEAUFindings@G4PhysicalVolumesSearchScene@@QEAU23@$$QEAU23@@Z
	??$_Emplace_reallocate@V?$Point3D@N@HepGeom@@@?$vector@V?$Point3D@N@HepGeom@@V?$allocator@V?$Point3D@N@HepGeom@@@std@@@std@@QEAAPEAV?$Point3D@N@HepGeom@@QEAV23@$$QEAV23@@Z
	??$_Emplace_reallocate@VG4AttValue@@@?$vector@VG4AttValue@@V?$allocator@VG4AttValue@@@std@@@std@@QEAAPEAVG4AttValue@@QEAV2@$$QEAV2@@Z
	??$_Emplace_reallocate@VG4PhysicalVolumeNodeID@G4PhysicalVolumeModel@@@?$vector@VG4PhysicalVolumeNodeID@G4PhysicalVolumeModel@@V?$allocator@VG4PhysicalVolumeNodeID@G4PhysicalVolumeModel@@@std@@@std@@QEAAPEAVG4PhysicalVolumeNodeID@G4PhysicalVolumeModel@@QEAV23@$$QEAV23@@Z
	??$_Emplace_reallocate@VG4String@@@?$vector@VG4String@@V?$allocator@VG4String@@@std@@@std@@QEAAPEAVG4String@@QEAV2@$$QEAV2@@Z
	??$_Emplace_reallocate@VPVNameCopyNo@G4ModelingParameters@@@?$vector@VPVNameCopyNo@G4ModelingParameters@@V?$allocator@VPVNameCopyNo@G4ModelingParameters@@@std@@@std@@QEAAPEAVPVNameCopyNo@G4ModelingParameters@@QEAV23@$$QEAV23@@Z
	??$_Erase_tree@V?$allocator@U?$_Tree_node@U?$pair@$$CBU?$pair@VG4String@@W4Config@G4TrajectoryDrawByAttribute@@@std@@PEAVG4VisTrajContext@@@std@@PEAX@std@@@std@@@?$_Tree_val@U?$_Tree_simple_types@U?$pair@$$CBU?$pair@VG4String@@W4Config@G4TrajectoryDrawByAttribute@@@std@@PEAVG4VisTrajContext@@@std@@@std@@@std@@QEAAXAEAV?$allocator@U?$_Tree_node@U?$pair@$$CBU?$pair@VG4String@@W4Config@G4TrajectoryDrawByAttribute@@@std@@PEAVG4VisTrajContext@@@std@@PEAX@std@@@1@PEAU?$_Tree_node@U?$pair@$$CBU?$pair@VG4String@@W4Config@G4TrajectoryDrawByAttribute@@@std@@PEAVG4VisTrajContext@@@std@@PEAX@1@@Z
	??$_Erase_tree@V?$allocator@U?$_Tree_node@U?$pair@$$CBVG4String@@H@std@@PEAX@std@@@std@@@?$_Tree_val@U?$_Tree_simple_types@U?$pair@$$CBVG4String@@H@std@@@std@@@std@@QEAAXAEAV?$allocator@U?$_Tree_node@U?$pair@$$CBVG4String@@H@std@@PEAX@std@@@1@PEAU?$_Tree_node@U?$pair@$$CBVG4String@@H@std@@PEAX@1@@Z
	??$_Erase_tree@V?$allocator@U?$_Tree_node@U?$pair@$$CBVG4String@@N@std@@PEAX@std@@@std@@@?$_Tree_val@U?$_Tree_simple_types@U?$pair@$$CBVG4String@@N@std@@@std@@@std@@QEAAXAEAV?$allocator@U?$_Tree_node@U?$pair@$$CBVG4String@@N@std@@PEAX@std@@@1@PEAU?$_Tree_node@U?$pair@$$CBVG4String@@N@std@@PEAX@1@@Z
	??$_Erase_tree@V?$allocator@U?$_Tree_node@U?$pair@$$CBVG4String@@PEAV?$G4THitsMap@VG4StatDouble@@@@@std@@PEAX@std@@@std@@@?$_Tree_val@U?$_Tree_simple_types@U?$pair@$$CBVG4String@@PEAV?$G4THitsMap@VG4StatDouble@@@@@std@@@std@@@std@@QEAAXAEAV?$allocator@U?$_Tree_node@U?$pair@$$CBVG4String@@PEAV?$G4THitsMap@VG4StatDouble@@@@@std@@PEAX@std@@@1@PEAU?$_Tree_node@U?$pair@$$CBVG4String@@PEAV?$G4THitsMap@VG4StatDouble@@@@@std@@PEAX@1@@Z
	??$_Erase_tree@V?$allocator@U?$_Tree_node@U?$pair@$$CBVG4String@@U?$pair@HH@std@@@std@@PEAX@std@@@std@@@?$_Tree_val@U?$_Tree_simple_types@U?$pair@$$CBVG4String@@U?$pair@HH@std@@@std@@@std@@@std@@QEAAXAEAV?$allocator@U?$_Tree_node@U?$pair@$$CBVG4String@@U?$pair@HH@std@@@std@@PEAX@std@@@1@PEAU?$_Tree_node@U?$pair@$$CBVG4String@@U?$pair@HH@std@@@std@@PEAX@1@@Z
	??$_Erase_tree@V?$allocator@U?$_Tree_node@U?$pair@$$CBVG4String@@U?$pair@NN@std@@@std@@PEAX@std@@@std@@@?$_Tree_val@U?$_Tree_simple_types@U?$pair@$$CBVG4String@@U?$pair@NN@std@@@std@@@std@@@std@@QEAAXAEAV?$allocator@U?$_Tree_node@U?$pair@$$CBVG4String@@U?$pair@NN@std@@@std@@PEAX@std@@@1@PEAU?$_Tree_node@U?$pair@$$CBVG4String@@U?$pair@NN@std@@@std@@PEAX@1@@Z
	??$_Erase_tree@V?$allocator@U?$_Tree_node@U?$pair@$$CBVG4String@@U?$pair@V?$G4DimensionedType@NUG4ConversionFatalError@@@@V1@@std@@@std@@PEAX@std@@@std@@@?$_Tree_val@U?$_Tree_simple_types@U?$pair@$$CBVG4String@@U?$pair@V?$G4DimensionedType@NUG4ConversionFatalError@@@@V1@@std@@@std@@@std@@@std@@QEAAXAEAV?$allocator@U?$_Tree_node@U?$pair@$$CBVG4String@@U?$pair@V?$G4DimensionedType@NUG4ConversionFatalError@@@@V1@@std@@@std@@PEAX@std@@@1@PEAU?$_Tree_node@U?$pair@$$CBVG4String@@U?$pair@V?$G4DimensionedType@NUG4ConversionFatalError@@@@V1@@std@@@std@@PEAX@1@@Z
	??$_Erase_tree@V?$allocator@U?$_Tree_node@U?$pair@$$CBVG4String@@U?$pair@V?$G4DimensionedType@VHep3Vector@CLHEP@@UG4ConversionFatalError@@@@V1@@std@@@std@@PEAX@std@@@std@@@?$_Tree_val@U?$_Tree_simple_types@U?$pair@$$CBVG4String@@U?$pair@V?$G4DimensionedType@VHep3Vector@CLHEP@@UG4ConversionFatalError@@@@V1@@std@@@std@@@std@@@std@@QEAAXAEAV?$allocator@U?$_Tree_node@U?$pair@$$CBVG4String@@U?$pair@V?$G4DimensionedType@VHep3Vector@CLHEP@@UG4ConversionFatalError@@@@V1@@std@@@std@@PEAX@std@@@1@PEAU?$_Tree_node@U?$pair@$$CBVG4String@@U?$pair@V?$G4DimensionedType@VHep3Vector@CLHEP@@UG4ConversionFatalError@@@@V1@@std@@@std@@PEAX@1@@Z
	??$_Erase_tree@V?$allocator@U?$_Tree_node@U?$pair@$$CBVG4String@@U?$pair@VG4String@@V1@@std@@@std@@PEAX@std@@@std@@@?$_Tree_val@U?$_Tree_simple_types@U?$pair@$$CBVG4String@@U?$pair@VG4String@@V1@@std@@@std@@@std@@@std@@QEAAXAEAV?$allocator@U?$_Tree_node@U?$pair@$$CBVG4String@@U?$pair@VG4String@@V1@@std@@@std@@PEAX@std@@@1@PEAU?$_Tree_node@U?$pair@$$CBVG4String@@U?$pair@VG4String@@V1@@std@@@std@@PEAX@1@@Z
	??$_Erase_tree@V?$allocator@U?$_Tree_node@U?$pair@$$CBVG4String@@U?$pair@VHep3Vector@CLHEP@@V12@@std@@@std@@PEAX@std@@@std@@@?$_Tree_val@U?$_Tree_simple_types@U?$pair@$$CBVG4String@@U?$pair@VHep3Vector@CLHEP@@V12@@std@@@std@@@std@@@std@@QEAAXAEAV?$allocator@U?$_Tree_node@U?$pair@$$CBVG4String@@U?$pair@VHep3Vector@CLHEP@@V12@@std@@@std@@PEAX@std@@@1@PEAU?$_Tree_node@U?$pair@$$CBVG4String@@U?$pair@VHep3Vector@CLHEP@@V12@@std@@@std@@PEAX@1@@Z
	??$_Erase_tree@V?$allocator@U?$_Tree_node@U?$pair@$$CBVG4String@@U?$pair@_N_N@std@@@std@@PEAX@std@@@std@@@?$_Tree_val@U?$_Tree_simple_types@U?$pair@$$CBVG4String@@U?$pair@_N_N@std@@@std@@@std@@@std@@QEAAXAEAV?$allocator@U?$_Tree_node@U?$pair@$$CBVG4String@@U?$pair@_N_N@std@@@std@@PEAX@std@@@1@PEAU?$_Tree_node@U?$pair@$$CBVG4String@@U?$pair@_N_N@std@@@std@@PEAX@1@@Z
	??$_Erase_tree@V?$allocator@U?$_Tree_node@U?$pair@$$CBVG4String@@V1@@std@@PEAX@std@@@std@@@?$_Tree_val@U?$_Tree_simple_types@U?$pair@$$CBVG4String@@V1@@std@@@std@@@std@@QEAAXAEAV?$allocator@U?$_Tree_node@U?$pair@$$CBVG4String@@V1@@std@@PEAX@std@@@1@PEAU?$_Tree_node@U?$pair@$$CBVG4String@@V1@@std@@PEAX@1@@Z
	??$_Erase_tree@V?$allocator@U?$_Tree_node@U?$pair@$$CBVG4String@@V?$G4DimensionedType@NUG4ConversionFatalError@@@@@std@@PEAX@std@@@std@@@?$_Tree_val@U?$_Tree_simple_types@U?$pair@$$CBVG4String@@V?$G4DimensionedType@NUG4ConversionFatalError@@@@@std@@@std@@@std@@QEAAXAEAV?$allocator@U?$_Tree_node@U?$pair@$$CBVG4String@@V?$G4DimensionedType@NUG4ConversionFatalError@@@@@std@@PEAX@std@@@1@PEAU?$_Tree_node@U?$pair@$$CBVG4String@@V?$G4DimensionedType@NUG4ConversionFatalError@@@@@std@@PEAX@1@@Z
	??$_Erase_tree@V?$allocator@U?$_Tree_node@U?$pair@$$CBVG4String@@V?$G4DimensionedType@VHep3Vector@CLHEP@@UG4ConversionFatalError@@@@@std@@PEAX@std@@@std@@@?$_Tree_val@U?$_Tree_simple_types@U?$pair@$$CBVG4String@@V?$G4DimensionedType@VHep3Vector@CLHEP@@UG4ConversionFatalError@@@@@std@@@std@@@std@@QEAAXAEAV?$allocator@U?$_Tree_node@U?$pair@$$CBVG4String@@V?$G4DimensionedType@VHep3Vector@CLHEP@@UG4ConversionFatalError@@@@@std@@PEAX@std@@@1@PEAU?$_Tree_node@U?$pair@$$CBVG4String@@V?$G4DimensionedType@VHep3Vector@CLHEP@@UG4ConversionFatalError@@@@@std@@PEAX@1@@Z
	??$_Erase_tree@V?$allocator@U?$_Tree_node@U?$pair@$$CBVG4String@@VG4AttDef@@@std@@PEAX@std@@@std@@@?$_Tree_val@U?$_Tree_simple_types@U?$pair@$$CBVG4String@@VG4AttDef@@@std@@@std@@@std@@QEAAXAEAV?$allocator@U?$_Tree_node@U?$pair@$$CBVG4String@@VG4AttDef@@@std@@PEAX@std@@@1@PEAU?$_Tree_node@U?$pair@$$CBVG4String@@VG4AttDef@@@std@@PEAX@1@@Z
	??$_Erase_tree@V?$allocator@U?$_Tree_node@U?$pair@$$CBVG4String@@VG4Colour@@@std@@PEAX@std@@@std@@@?$_Tree_val@U?$_Tree_simple_types@U?$pair@$$CBVG4String@@VG4Colour@@@std@@@std@@@std@@QEAAXAEAV?$allocator@U?$_Tree_node@U?$pair@$$CBVG4String@@VG4Colour@@@std@@PEAX@std@@@1@PEAU?$_Tree_node@U?$pair@$$CBVG4String@@VG4Colour@@@std@@PEAX@1@@Z
	??$_Erase_tree@V?$allocator@U?$_Tree_node@U?$pair@$$CBVG4String@@VHep3Vector@CLHEP@@@std@@PEAX@std@@@std@@@?$_Tree_val@U?$_Tree_simple_types@U?$pair@$$CBVG4String@@VHep3Vector@CLHEP@@@std@@@std@@@std@@QEAAXAEAV?$allocator@U?$_Tree_node@U?$pair@$$CBVG4String@@VHep3Vector@CLHEP@@@std@@PEAX@std@@@1@PEAU?$_Tree_node@U?$pair@$$CBVG4String@@VHep3Vector@CLHEP@@@std@@PEAX@1@@Z
	??$_Erase_tree@V?$allocator@U?$_Tree_node@U?$pair@$$CBVG4String@@_N@std@@PEAX@std@@@std@@@?$_Tree_val@U?$_Tree_simple_types@U?$pair@$$CBVG4String@@_N@std@@@std@@@std@@QEAAXAEAV?$allocator@U?$_Tree_node@U?$pair@$$CBVG4String@@_N@std@@PEAX@std@@@1@PEAU?$_Tree_node@U?$pair@$$CBVG4String@@_N@std@@PEAX@1@@Z
	??$_Erase_tree@V?$allocator@U?$_Tree_node@U?$pair@$$CBVG4TypeKey@@P6APEAVG4VAttValueFilter@@XZ@std@@PEAX@std@@@std@@@?$_Tree_val@U?$_Tree_simple_types@U?$pair@$$CBVG4TypeKey@@P6APEAVG4VAttValueFilter@@XZ@std@@@std@@@std@@QEAAXAEAV?$allocator@U?$_Tree_node@U?$pair@$$CBVG4TypeKey@@P6APEAVG4VAttValueFilter@@XZ@std@@PEAX@std@@@1@PEAU?$_Tree_node@U?$pair@$$CBVG4TypeKey@@P6APEAVG4VAttValueFilter@@XZ@std@@PEAX@1@@Z
	??$_Erase_tree@V?$allocator@U?$_Tree_node@U?$pair@$$CBW4Charge@G4TrajectoryDrawByCharge@@VG4Colour@@@std@@PEAX@std@@@std@@@?$_Tree_val@U?$_Tree_simple_types@U?$pair@$$CBW4Charge@G4TrajectoryDrawByCharge@@VG4Colour@@@std@@@std@@@std@@QEAAXAEAV?$allocator@U?$_Tree_node@U?$pair@$$CBW4Charge@G4TrajectoryDrawByCharge@@VG4Colour@@@std@@PEAX@std@@@1@PEAU?$_Tree_node@U?$pair@$$CBW4Charge@G4TrajectoryDrawByCharge@@VG4Colour@@@std@@PEAX@1@@Z
	??$_Erase_tree_and_orphan@V?$allocator@U?$_Tree_node@U?$pair@$$CBVG4String@@PEAV?$G4THitsMap@VG4StatDouble@@@@@std@@PEAX@std@@@std@@@?$_Tree_val@U?$_Tree_simple_types@U?$pair@$$CBVG4String@@PEAV?$G4THitsMap@VG4StatDouble@@@@@std@@@std@@@std@@QEAAXAEAV?$allocator@U?$_Tree_node@U?$pair@$$CBVG4String@@PEAV?$G4THitsMap@VG4StatDouble@@@@@std@@PEAX@std@@@1@PEAU?$_Tree_node@U?$pair@$$CBVG4String@@PEAV?$G4THitsMap@VG4StatDouble@@@@@std@@PEAX@1@@Z
	??$_Find_lower_bound@U?$pair@VG4String@@W4Config@G4TrajectoryDrawByAttribute@@@std@@@?$_Tree@V?$_Tmap_traits@U?$pair@VG4String@@W4Config@G4TrajectoryDrawByAttribute@@@std@@PEAVG4VisTrajContext@@U?$less@U?$pair@VG4String@@W4Config@G4TrajectoryDrawByAttribute@@@std@@@2@V?$allocator@U?$pair@$$CBU?$pair@VG4String@@W4Config@G4TrajectoryDrawByAttribute@@@std@@PEAVG4VisTrajContext@@@std@@@2@$0A@@std@@@std@@IEBA?AU?$_Tree_find_result@PEAU?$_Tree_node@U?$pair@$$CBU?$pair@VG4String@@W4Config@G4TrajectoryDrawByAttribute@@@std@@PEAVG4VisTrajContext@@@std@@PEAX@std@@@1@AEBU?$pair@VG4String@@W4Config@G4TrajectoryDrawByAttribute@@@1@@Z
	??$_Find_lower_bound@VG4String@@@?$_Tree@V?$_Tmap_traits@VG4String@@VG4Colour@@U?$less@VG4String@@@std@@V?$allocator@U?$pair@$$CBVG4String@@VG4Colour@@@std@@@4@$0A@@std@@@std@@IEBA?AU?$_Tree_find_result@PEAU?$_Tree_node@U?$pair@$$CBVG4String@@VG4Colour@@@std@@PEAX@std@@@1@AEBVG4String@@@Z
	??$_Find_unchecked1@PEAU?$pair@VG4String@@W4Config@?$G4AttributeFilterT@VG4VDigi@@@@@std@@U12@@std@@YAPEAU?$pair@VG4String@@W4Config@?$G4AttributeFilterT@VG4VDigi@@@@@0@PEAU10@QEAU10@AEBU10@U?$integral_constant@_N$0A@@0@@Z
	??$_Find_unchecked1@PEAU?$pair@VG4String@@W4Config@?$G4AttributeFilterT@VG4VHit@@@@@std@@U12@@std@@YAPEAU?$pair@VG4String@@W4Config@?$G4AttributeFilterT@VG4VHit@@@@@0@PEAU10@QEAU10@AEBU10@U?$integral_constant@_N$0A@@0@@Z
	??$_Find_unchecked1@PEAU?$pair@VG4String@@W4Config@?$G4AttributeFilterT@VG4VTrajectory@@@@@std@@U12@@std@@YAPEAU?$pair@VG4String@@W4Config@?$G4AttributeFilterT@VG4VTrajectory@@@@@0@PEAU10@QEAU10@AEBU10@U?$integral_constant@_N$0A@@0@@Z
	??$_Find_unchecked1@PEBDE@std@@YAPEBDPEBDQEBDAEBEU?$integral_constant@_N$00@0@@Z
	??$_Find_unchecked1@PEBDW4_Meta_type@std@@@std@@YAPEBDPEBDQEBDAEBW4_Meta_type@0@U?$integral_constant@_N$0A@@0@@Z
	??$_Find_unchecked1@PEBVG4String@@V1@@std@@YAPEBVG4String@@PEBV1@QEBV1@AEBV1@U?$integral_constant@_N$0A@@0@@Z
	??$_Find_unchecked1@PEBW4MyCharge@G4TrajectoryChargeFilter@@W412@@std@@YAPEBW4MyCharge@G4TrajectoryChargeFilter@@PEBW412@QEBW412@AEBW412@U?$integral_constant@_N$0A@@0@@Z
	??$_Find_unchecked@PEAU?$pair@VG4String@@W4Config@?$G4AttributeFilterT@VG4VDigi@@@@@std@@U12@@std@@YAPEAU?$pair@VG4String@@W4Config@?$G4AttributeFilterT@VG4VDigi@@@@@0@QEAU10@0AEBU10@@Z
	??$_Find_unchecked@PEAU?$pair@VG4String@@W4Config@?$G4AttributeFilterT@VG4VHit@@@@@std@@U12@@std@@YAPEAU?$pair@VG4String@@W4Config@?$G4AttributeFilterT@VG4VHit@@@@@0@QEAU10@0AEBU10@@Z
	??$_Find_unchecked@PEAU?$pair@VG4String@@W4Config@?$G4AttributeFilterT@VG4VTrajectory@@@@@std@@U12@@std@@YAPEAU?$pair@VG4String@@W4Config@?$G4AttributeFilterT@VG4VTrajectory@@@@@0@QEAU10@0AEBU10@@Z
	??$_Find_unchecked@PEBDE@std@@YAPEBDQEBD0AEBE@Z
	??$_Find_unchecked@PEBDW4_Meta_type@std@@@std@@YAPEBDQEBD0AEBW4_Meta_type@0@@Z
	??$_Find_unchecked@PEBVG4String@@V1@@std@@YAPEBVG4String@@QEBV1@0AEBV1@@Z
	??$_Find_unchecked@PEBW4MyCharge@G4TrajectoryChargeFilter@@W412@@std@@YAPEBW4MyCharge@G4TrajectoryChargeFilter@@QEBW412@0AEBW412@@Z
	??$_Getvals@_W@?$time_get@DV?$istreambuf_iterator@DU?$char_traits@D@std@@@std@@@std@@IEAAX_WAEBV_Locinfo@1@@Z
	??$_Getvals@_W@?$time_get@_WV?$istreambuf_iterator@_WU?$char_traits@_W@std@@@std@@@std@@IEAAX_WAEBV_Locinfo@1@@Z
	??$_Hash_array_representation@D@std@@YA_KQEBD_K@Z
	??$_Idl_distance@PEAPEANPEAPEAN@std@@YA_JAEBQEAPEAN0@Z
	??$_Idl_distance@PEBDPEBD@std@@YA_JAEBQEBD0@Z
	??$_Idl_distance@PEBNPEBN@std@@YA_JAEBQEBN0@Z
	??$_Idl_distance@PEBVPVNameCopyNo@G4ModelingParameters@@PEBV12@@std@@YA_JAEBQEBVPVNameCopyNo@G4ModelingParameters@@0@Z
	??$_Idl_distance@PEBVVisAttributesModifier@G4ModelingParameters@@PEBV12@@std@@YA_JAEBQEBVVisAttributesModifier@G4ModelingParameters@@0@Z
	??$_Idl_distance@V?$_Vb_iterator@U?$_Wrap_alloc@V?$allocator@I@std@@@std@@@std@@V12@@std@@YA_JAEBV?$_Vb_iterator@U?$_Wrap_alloc@V?$allocator@I@std@@@std@@@0@0@Z
	??$_Insert_string@DU?$char_traits@D@std@@_K@std@@YAAEAV?$basic_ostream@DU?$char_traits@D@std@@@0@AEAV10@QEBD_K@Z
	??$_Lookup_coll@PEBDD@std@@YAPEBDPEBD0PEBU?$_Sequence@D@0@@Z
	??$_Lookup_equiv@DV?$regex_traits@D@std@@@std@@YA_NEPEBU?$_Sequence@D@0@AEBV?$regex_traits@D@0@@Z
	??$_Lookup_range@D@std@@YA_NIPEBU?$_Buf@D@0@@Z
	??$_Maklocstr@D@std@@YAPEADPEBDPEADAEBU_Cvtvec@@@Z
	??$_Match@V?$allocator@V?$sub_match@PEBD@std@@@std@@@?$_Matcher@PEBDDV?$regex_traits@D@std@@PEBD@std@@QEAA_NPEAV?$match_results@PEBDV?$allocator@V?$sub_match@PEBD@std@@@std@@@1@_N@Z
	??$_Move_unchecked@PEAIPEAI@std@@YAPEAIPEAI00@Z
	??$_Pocca@V?$allocator@D@std@@@std@@YAXAEAV?$allocator@D@0@AEBV10@@Z
	??$_Pocca@V?$allocator@I@std@@@std@@YAXAEAV?$allocator@I@0@AEBV10@@Z
	??$_Pocca@V?$allocator@N@std@@@std@@YAXAEAV?$allocator@N@0@AEBV10@@Z
	??$_Pocca@V?$allocator@U_Grp_t@?$_Tgt_state_t@PEBD@std@@@std@@@std@@YAXAEAV?$allocator@U_Grp_t@?$_Tgt_state_t@PEBD@std@@@0@AEBV10@@Z
	??$_Pocca@V?$allocator@V?$Point3D@N@HepGeom@@@std@@@std@@YAXAEAV?$allocator@V?$Point3D@N@HepGeom@@@0@AEBV10@@Z
	??$_Pocca@V?$allocator@VG4PhysicalVolumeNodeID@G4PhysicalVolumeModel@@@std@@@std@@YAXAEAV?$allocator@VG4PhysicalVolumeNodeID@G4PhysicalVolumeModel@@@0@AEBV10@@Z
	??$_Pocca@V?$allocator@VPVNameCopyNo@G4ModelingParameters@@@std@@@std@@YAXAEAV?$allocator@VPVNameCopyNo@G4ModelingParameters@@@0@AEBV10@@Z
	??$_Pocca@V?$allocator@VVisAttributesModifier@G4ModelingParameters@@@std@@@std@@YAXAEAV?$allocator@VVisAttributesModifier@G4ModelingParameters@@@0@AEBV10@@Z
	??$_Pocma@V?$allocator@D@std@@@std@@YAXAEAV?$allocator@D@0@0@Z
	??$_Reallocate_grow_by@V<lambda_319d5e083f45f90dcdce5dce53cbb275>@@D@?$basic_string@DU?$char_traits@D@std@@V?$allocator@D@2@@std@@AEAAAEAV01@_KV<lambda_319d5e083f45f90dcdce5dce53cbb275>@@D@Z
	??$_Reallocate_grow_by@V<lambda_65e615be2a453ca0576c979606f46740>@@PEBD_K@?$basic_string@DU?$char_traits@D@std@@V?$allocator@D@2@@std@@AEAAAEAV01@_KV<lambda_65e615be2a453ca0576c979606f46740>@@PEBD_K@Z
	??$_Reallocate_grow_by@V<lambda_e1befb086ad3257e3f042a63030725f7>@@_KD@?$basic_string@DU?$char_traits@D@std@@V?$allocator@D@2@@std@@AEAAAEAV01@_KV<lambda_e1befb086ad3257e3f042a63030725f7>@@_KD@Z
	??$_Reallocate_grow_by@V<lambda_f3a66ab6a0570788f31503db83886f49>@@_KPEBD_K@?$basic_string@DU?$char_traits@D@std@@V?$allocator@D@2@@std@@AEAAAEAV01@_KV<lambda_f3a66ab6a0570788f31503db83886f49>@@_KPEBD2@Z
	??$_Refancy@PEAD$0A@@std@@YAPEADPEAD@Z
	??$_Refancy@PEAI$0A@@std@@YAPEAIPEAI@Z
	??$_Refancy@PEAN$0A@@std@@YAPEANPEAN@Z
	??$_Refancy@PEAU?$pair@VG4String@@W4Config@?$G4AttributeFilterT@VG4VDigi@@@@@std@@$0A@@std@@YAPEAU?$pair@VG4String@@W4Config@?$G4AttributeFilterT@VG4VDigi@@@@@0@PEAU10@@Z
	??$_Refancy@PEAU?$pair@VG4String@@W4Config@?$G4AttributeFilterT@VG4VHit@@@@@std@@$0A@@std@@YAPEAU?$pair@VG4String@@W4Config@?$G4AttributeFilterT@VG4VHit@@@@@0@PEAU10@@Z
	??$_Refancy@PEAU?$pair@VG4String@@W4Config@?$G4AttributeFilterT@VG4VTrajectory@@@@@std@@$0A@@std@@YAPEAU?$pair@VG4String@@W4Config@?$G4AttributeFilterT@VG4VTrajectory@@@@@0@PEAU10@@Z
	??$_Refancy@PEAU_Grp_t@?$_Tgt_state_t@PEBD@std@@$0A@@std@@YAPEAU_Grp_t@?$_Tgt_state_t@PEBD@0@PEAU120@@Z
	??$_Refancy@PEAVG4AttValue@@$0A@@std@@YAPEAVG4AttValue@@PEAV1@@Z
	??$_Refancy@PEAVG4PhysicalVolumeNodeID@G4PhysicalVolumeModel@@$0A@@std@@YAPEAVG4PhysicalVolumeNodeID@G4PhysicalVolumeModel@@PEAV12@@Z
	??$_Refancy@PEAVG4String@@$0A@@std@@YAPEAVG4String@@PEAV1@@Z
	??$_Refancy@PEAW4MyCharge@G4TrajectoryChargeFilter@@$0A@@std@@YAPEAW4MyCharge@G4TrajectoryChargeFilter@@PEAW412@@Z
	??$_Regex_search1@PEBDV?$allocator@V?$sub_match@PEBD@std@@@std@@DV?$regex_traits@D@2@PEBD@std@@YA_NPEBD0PEAV?$match_results@PEBDV?$allocator@V?$sub_match@PEBD@std@@@std@@@0@AEBV?$basic_regex@DV?$regex_traits@D@std@@@0@W4match_flag_type@regex_constants@0@0@Z
	??$_Reset@PEBD@?$basic_regex@DV?$regex_traits@D@std@@@std@@AEAAXPEBD0W4syntax_option_type@regex_constants@1@Uforward_iterator_tag@1@@Z
	??$_Resize_reallocate@I@?$vector@IV?$allocator@I@std@@@std@@AEAAX_KAEBI@Z
	??$_Resize_reallocate@U_Value_init_tag@std@@@?$vector@U_Grp_t@?$_Tgt_state_t@PEBD@std@@V?$allocator@U_Grp_t@?$_Tgt_state_t@PEBD@std@@@3@@std@@AEAAX_KAEBU_Value_init_tag@1@@Z
	??$_Resize_reallocate@U_Value_init_tag@std@@@?$vector@U_Loop_vals_t@std@@V?$allocator@U_Loop_vals_t@std@@@2@@std@@AEAAX_KAEBU_Value_init_tag@1@@Z
	??$_Resize_reallocate@U_Value_init_tag@std@@@?$vector@Uyystype@G4UItokenNum@@V?$allocator@Uyystype@G4UItokenNum@@@std@@@std@@AEAAX_KAEBU_Value_init_tag@1@@Z
	??$_Resize_reallocate@U_Value_init_tag@std@@@?$vector@V?$sub_match@PEBD@std@@V?$allocator@V?$sub_match@PEBD@std@@@2@@std@@AEAAX_KAEBU_Value_init_tag@1@@Z
	??$_Swap_adl@PEAV_Node_base@std@@@std@@YAXAEAPEAV_Node_base@0@0@Z
	??$_Traits_find@U?$char_traits@D@std@@@std@@YA_KQEBD_K101@Z
	??$_Try_emplace@AEBVG4String@@$$V@?$map@VG4String@@HU?$less@VG4String@@@std@@V?$allocator@U?$pair@$$CBVG4String@@H@std@@@3@@std@@AEAA?AU?$pair@PEAU?$_Tree_node@U?$pair@$$CBVG4String@@H@std@@PEAX@std@@_N@1@AEBVG4String@@@Z
	??$_Try_emplace@AEBVG4String@@$$V@?$map@VG4String@@NU?$less@VG4String@@@std@@V?$allocator@U?$pair@$$CBVG4String@@N@std@@@3@@std@@AEAA?AU?$pair@PEAU?$_Tree_node@U?$pair@$$CBVG4String@@N@std@@PEAX@std@@_N@1@AEBVG4String@@@Z
	??$_Try_emplace@AEBVG4String@@$$V@?$map@VG4String@@U?$pair@HH@std@@U?$less@VG4String@@@3@V?$allocator@U?$pair@$$CBVG4String@@U?$pair@HH@std@@@std@@@3@@std@@AEAA?AU?$pair@PEAU?$_Tree_node@U?$pair@$$CBVG4String@@U?$pair@HH@std@@@std@@PEAX@std@@_N@1@AEBVG4String@@@Z
	??$_Try_emplace@AEBVG4String@@$$V@?$map@VG4String@@U?$pair@NN@std@@U?$less@VG4String@@@3@V?$allocator@U?$pair@$$CBVG4String@@U?$pair@NN@std@@@std@@@3@@std@@AEAA?AU?$pair@PEAU?$_Tree_node@U?$pair@$$CBVG4String@@U?$pair@NN@std@@@std@@PEAX@std@@_N@1@AEBVG4String@@@Z
	??$_Try_emplace@AEBVG4String@@$$V@?$map@VG4String@@U?$pair@V?$G4DimensionedType@NUG4ConversionFatalError@@@@V1@@std@@U?$less@VG4String@@@3@V?$allocator@U?$pair@$$CBVG4String@@U?$pair@V?$G4DimensionedType@NUG4ConversionFatalError@@@@V1@@std@@@std@@@3@@std@@AEAA?AU?$pair@PEAU?$_Tree_node@U?$pair@$$CBVG4String@@U?$pair@V?$G4DimensionedType@NUG4ConversionFatalError@@@@V1@@std@@@std@@PEAX@std@@_N@1@AEBVG4String@@@Z
	??$_Try_emplace@AEBVG4String@@$$V@?$map@VG4String@@U?$pair@V?$G4DimensionedType@VHep3Vector@CLHEP@@UG4ConversionFatalError@@@@V1@@std@@U?$less@VG4String@@@3@V?$allocator@U?$pair@$$CBVG4String@@U?$pair@V?$G4DimensionedType@VHep3Vector@CLHEP@@UG4ConversionFatalError@@@@V1@@std@@@std@@@3@@std@@AEAA?AU?$pair@PEAU?$_Tree_node@U?$pair@$$CBVG4String@@U?$pair@V?$G4DimensionedType@VHep3Vector@CLHEP@@UG4ConversionFatalError@@@@V1@@std@@@std@@PEAX@std@@_N@1@AEBVG4String@@@Z
	??$_Try_emplace@AEBVG4String@@$$V@?$map@VG4String@@U?$pair@VG4String@@V1@@std@@U?$less@VG4String@@@3@V?$allocator@U?$pair@$$CBVG4String@@U?$pair@VG4String@@V1@@std@@@std@@@3@@std@@AEAA?AU?$pair@PEAU?$_Tree_node@U?$pair@$$CBVG4String@@U?$pair@VG4String@@V1@@std@@@std@@PEAX@std@@_N@1@AEBVG4String@@@Z
	??$_Try_emplace@AEBVG4String@@$$V@?$map@VG4String@@U?$pair@VHep3Vector@CLHEP@@V12@@std@@U?$less@VG4String@@@3@V?$allocator@U?$pair@$$CBVG4String@@U?$pair@VHep3Vector@CLHEP@@V12@@std@@@std@@@3@@std@@AEAA?AU?$pair@PEAU?$_Tree_node@U?$pair@$$CBVG4String@@U?$pair@VHep3Vector@CLHEP@@V12@@std@@@std@@PEAX@std@@_N@1@AEBVG4String@@@Z
	??$_Try_emplace@AEBVG4String@@$$V@?$map@VG4String@@U?$pair@_N_N@std@@U?$less@VG4String@@@3@V?$allocator@U?$pair@$$CBVG4String@@U?$pair@_N_N@std@@@std@@@3@@std@@AEAA?AU?$pair@PEAU?$_Tree_node@U?$pair@$$CBVG4String@@U?$pair@_N_N@std@@@std@@PEAX@std@@_N@1@AEBVG4String@@@Z
	??$_Try_emplace@AEBVG4String@@$$V@?$map@VG4String@@V1@U?$less@VG4String@@@std@@V?$allocator@U?$pair@$$CBVG4String@@V1@@std@@@3@@std@@AEAA?AU?$pair@PEAU?$_Tree_node@U?$pair@$$CBVG4String@@V1@@std@@PEAX@std@@_N@1@AEBVG4String@@@Z
	??$_Try_emplace@AEBVG4String@@$$V@?$map@VG4String@@V?$G4DimensionedType@NUG4ConversionFatalError@@@@U?$less@VG4String@@@std@@V?$allocator@U?$pair@$$CBVG4String@@V?$G4DimensionedType@NUG4ConversionFatalError@@@@@std@@@4@@std@@AEAA?AU?$pair@PEAU?$_Tree_node@U?$pair@$$CBVG4String@@V?$G4DimensionedType@NUG4ConversionFatalError@@@@@std@@PEAX@std@@_N@1@AEBVG4String@@@Z
	??$_Try_emplace@AEBVG4String@@$$V@?$map@VG4String@@V?$G4DimensionedType@VHep3Vector@CLHEP@@UG4ConversionFatalError@@@@U?$less@VG4String@@@std@@V?$allocator@U?$pair@$$CBVG4String@@V?$G4DimensionedType@VHep3Vector@CLHEP@@UG4ConversionFatalError@@@@@std@@@4@@std@@AEAA?AU?$pair@PEAU?$_Tree_node@U?$pair@$$CBVG4String@@V?$G4DimensionedType@VHep3Vector@CLHEP@@UG4ConversionFatalError@@@@@std@@PEAX@std@@_N@1@AEBVG4String@@@Z
	??$_Try_emplace@AEBVG4String@@$$V@?$map@VG4String@@VHep3Vector@CLHEP@@U?$less@VG4String@@@std@@V?$allocator@U?$pair@$$CBVG4String@@VHep3Vector@CLHEP@@@std@@@5@@std@@AEAA?AU?$pair@PEAU?$_Tree_node@U?$pair@$$CBVG4String@@VHep3Vector@CLHEP@@@std@@PEAX@std@@_N@1@AEBVG4String@@@Z
	??$_Try_emplace@AEBVG4String@@$$V@?$map@VG4String@@_NU?$less@VG4String@@@std@@V?$allocator@U?$pair@$$CBVG4String@@_N@std@@@3@@std@@AEAA?AU?$pair@PEAU?$_Tree_node@U?$pair@$$CBVG4String@@_N@std@@PEAX@std@@_N@1@AEBVG4String@@@Z
	??$_Try_emplace@VG4String@@$$V@?$map@VG4String@@VG4AttDef@@U?$less@VG4String@@@std@@V?$allocator@U?$pair@$$CBVG4String@@VG4AttDef@@@std@@@4@@std@@AEAA?AU?$pair@PEAU?$_Tree_node@U?$pair@$$CBVG4String@@VG4AttDef@@@std@@PEAX@std@@_N@1@$$QEAVG4String@@@Z
	??$_Unfancy_maybe_null@D@std@@YAPEADPEAD@Z
	??$_Unfancy_maybe_null@I@std@@YAPEAIPEAI@Z
	??$_Uninitialized_copy@PEADV?$allocator@D@std@@@std@@YAPEADQEAD0PEADAEAV?$allocator@D@0@@Z
	??$_Uninitialized_copy@PEAIV?$allocator@I@std@@@std@@YAPEAIQEAI0PEAIAEAV?$allocator@I@0@@Z
	??$_Uninitialized_copy@PEAPEAVG4UImessenger@@V?$allocator@PEAVG4UImessenger@@@std@@@std@@YAPEAPEAVG4UImessenger@@QEAPEAV1@0PEAPEAV1@AEAV?$allocator@PEAVG4UImessenger@@@0@@Z
	??$_Uninitialized_copy@PEAUFindings@G4PhysicalVolumesSearchScene@@V?$allocator@UFindings@G4PhysicalVolumesSearchScene@@@std@@@std@@YAPEAUFindings@G4PhysicalVolumesSearchScene@@QEAU12@0PEAU12@AEAV?$allocator@UFindings@G4PhysicalVolumesSearchScene@@@0@@Z
	??$_Uninitialized_copy@PEAU_Grp_t@?$_Tgt_state_t@PEBD@std@@V?$allocator@U_Grp_t@?$_Tgt_state_t@PEBD@std@@@3@@std@@YAPEAU_Grp_t@?$_Tgt_state_t@PEBD@0@QEAU120@0PEAU120@AEAV?$allocator@U_Grp_t@?$_Tgt_state_t@PEBD@std@@@0@@Z
	??$_Uninitialized_copy@PEAUyystype@G4UItokenNum@@V?$allocator@Uyystype@G4UItokenNum@@@std@@@std@@YAPEAUyystype@G4UItokenNum@@QEAU12@0PEAU12@AEAV?$allocator@Uyystype@G4UItokenNum@@@0@@Z
	??$_Uninitialized_copy@PEAV?$Point3D@N@HepGeom@@V?$allocator@V?$Point3D@N@HepGeom@@@std@@@std@@YAPEAV?$Point3D@N@HepGeom@@QEAV12@0PEAV12@AEAV?$allocator@V?$Point3D@N@HepGeom@@@0@@Z
	??$_Uninitialized_copy@PEAVG4PhysicalVolumeNodeID@G4PhysicalVolumeModel@@V?$allocator@VG4PhysicalVolumeNodeID@G4PhysicalVolumeModel@@@std@@@std@@YAPEAVG4PhysicalVolumeNodeID@G4PhysicalVolumeModel@@QEAV12@0PEAV12@AEAV?$allocator@VG4PhysicalVolumeNodeID@G4PhysicalVolumeModel@@@0@@Z
	??$_Uninitialized_copy@PEAVPVNameCopyNo@G4ModelingParameters@@V?$allocator@VPVNameCopyNo@G4ModelingParameters@@@std@@@std@@YAPEAVPVNameCopyNo@G4ModelingParameters@@QEAV12@0PEAV12@AEAV?$allocator@VPVNameCopyNo@G4ModelingParameters@@@0@@Z
	??$_Uninitialized_copy@PEAVVisAttributesModifier@G4ModelingParameters@@V?$allocator@VVisAttributesModifier@G4ModelingParameters@@@std@@@std@@YAPEAVVisAttributesModifier@G4ModelingParameters@@QEAV12@0PEAV12@AEAV?$allocator@VVisAttributesModifier@G4ModelingParameters@@@0@@Z
	??$_Uninitialized_copy@PEBDV?$allocator@D@std@@@std@@YAPEADQEBD0PEADAEAV?$allocator@D@0@@Z
	??$_Uninitialized_fill_n@V?$allocator@I@std@@@std@@YAPEAIPEAI_KAEBIAEAV?$allocator@I@0@@Z
	??$_Uninitialized_move@PEAIV?$allocator@I@std@@@std@@YAPEAIQEAI0PEAIAEAV?$allocator@I@0@@Z
	??$_Uninitialized_move@PEANV?$allocator@N@std@@@std@@YAPEANQEAN0PEANAEAV?$allocator@N@0@@Z
	??$_Uninitialized_move@PEAPEAVG4UImessenger@@V?$allocator@PEAVG4UImessenger@@@std@@@std@@YAPEAPEAVG4UImessenger@@QEAPEAV1@0PEAPEAV1@AEAV?$allocator@PEAVG4UImessenger@@@0@@Z
	??$_Uninitialized_move@PEAPEAVG4UIparameter@@V?$allocator@PEAVG4UIparameter@@@std@@@std@@YAPEAPEAVG4UIparameter@@QEAPEAV1@0PEAPEAV1@AEAV?$allocator@PEAVG4UIparameter@@@0@@Z
	??$_Uninitialized_move@PEAU?$pair@PEAVG4VSolid@@H@std@@V?$allocator@U?$pair@PEAVG4VSolid@@H@std@@@2@@std@@YAPEAU?$pair@PEAVG4VSolid@@H@0@QEAU10@0PEAU10@AEAV?$allocator@U?$pair@PEAVG4VSolid@@H@std@@@0@@Z
	??$_Uninitialized_move@PEAU?$pair@VG4String@@W4Config@?$G4AttributeFilterT@VG4VDigi@@@@@std@@V?$allocator@U?$pair@VG4String@@W4Config@?$G4AttributeFilterT@VG4VDigi@@@@@std@@@2@@std@@YAPEAU?$pair@VG4String@@W4Config@?$G4AttributeFilterT@VG4VDigi@@@@@0@QEAU10@0PEAU10@AEAV?$allocator@U?$pair@VG4String@@W4Config@?$G4AttributeFilterT@VG4VDigi@@@@@std@@@0@@Z
	??$_Uninitialized_move@PEAU?$pair@VG4String@@W4Config@?$G4AttributeFilterT@VG4VHit@@@@@std@@V?$allocator@U?$pair@VG4String@@W4Config@?$G4AttributeFilterT@VG4VHit@@@@@std@@@2@@std@@YAPEAU?$pair@VG4String@@W4Config@?$G4AttributeFilterT@VG4VHit@@@@@0@QEAU10@0PEAU10@AEAV?$allocator@U?$pair@VG4String@@W4Config@?$G4AttributeFilterT@VG4VHit@@@@@std@@@0@@Z
	??$_Uninitialized_move@PEAU?$pair@VG4String@@W4Config@?$G4AttributeFilterT@VG4VTrajectory@@@@@std@@V?$allocator@U?$pair@VG4String@@W4Config@?$G4AttributeFilterT@VG4VTrajectory@@@@@std@@@2@@std@@YAPEAU?$pair@VG4String@@W4Config@?$G4AttributeFilterT@VG4VTrajectory@@@@@0@QEAU10@0PEAU10@AEAV?$allocator@U?$pair@VG4String@@W4Config@?$G4AttributeFilterT@VG4VTrajectory@@@@@std@@@0@@Z
	??$_Uninitialized_move@PEAUFindings@G4PhysicalVolumesSearchScene@@V?$allocator@UFindings@G4PhysicalVolumesSearchScene@@@std@@@std@@YAPEAUFindings@G4PhysicalVolumesSearchScene@@QEAU12@0PEAU12@AEAV?$allocator@UFindings@G4PhysicalVolumesSearchScene@@@0@@Z
	??$_Uninitialized_move@PEAU_Grp_t@?$_Tgt_state_t@PEBD@std@@V?$allocator@U_Grp_t@?$_Tgt_state_t@PEBD@std@@@3@@std@@YAPEAU_Grp_t@?$_Tgt_state_t@PEBD@0@QEAU120@0PEAU120@AEAV?$allocator@U_Grp_t@?$_Tgt_state_t@PEBD@std@@@0@@Z
	??$_Uninitialized_move@PEAU_Loop_vals_t@std@@V?$allocator@U_Loop_vals_t@std@@@2@@std@@YAPEAU_Loop_vals_t@0@QEAU10@0PEAU10@AEAV?$allocator@U_Loop_vals_t@std@@@0@@Z
	??$_Uninitialized_move@PEAV?$Point3D@N@HepGeom@@V?$allocator@V?$Point3D@N@HepGeom@@@std@@@std@@YAPEAV?$Point3D@N@HepGeom@@QEAV12@0PEAV12@AEAV?$allocator@V?$Point3D@N@HepGeom@@@0@@Z
	??$_Uninitialized_move@PEAV?$sub_match@PEBD@std@@V?$allocator@V?$sub_match@PEBD@std@@@2@@std@@YAPEAV?$sub_match@PEBD@0@QEAV10@0PEAV10@AEAV?$allocator@V?$sub_match@PEBD@std@@@0@@Z
	??$_Uninitialized_move@PEAVG4AttValue@@V?$allocator@VG4AttValue@@@std@@@std@@YAPEAVG4AttValue@@QEAV1@0PEAV1@AEAV?$allocator@VG4AttValue@@@0@@Z
	??$_Uninitialized_move@PEAVG4PhysicalVolumeNodeID@G4PhysicalVolumeModel@@V?$allocator@VG4PhysicalVolumeNodeID@G4PhysicalVolumeModel@@@std@@@std@@YAPEAVG4PhysicalVolumeNodeID@G4PhysicalVolumeModel@@QEAV12@0PEAV12@AEAV?$allocator@VG4PhysicalVolumeNodeID@G4PhysicalVolumeModel@@@0@@Z
	??$_Uninitialized_move@PEAVG4String@@V?$allocator@VG4String@@@std@@@std@@YAPEAVG4String@@QEAV1@0PEAV1@AEAV?$allocator@VG4String@@@0@@Z
	??$_Uninitialized_move@PEAVHep3Vector@CLHEP@@V?$allocator@VHep3Vector@CLHEP@@@std@@@std@@YAPEAVHep3Vector@CLHEP@@QEAV12@0PEAV12@AEAV?$allocator@VHep3Vector@CLHEP@@@0@@Z
	??$_Uninitialized_move@PEAVPVNameCopyNo@G4ModelingParameters@@V?$allocator@VPVNameCopyNo@G4ModelingParameters@@@std@@@std@@YAPEAVPVNameCopyNo@G4ModelingParameters@@QEAV12@0PEAV12@AEAV?$allocator@VPVNameCopyNo@G4ModelingParameters@@@0@@Z
	??$_Uninitialized_move@PEAW4MyCharge@G4TrajectoryChargeFilter@@V?$allocator@W4MyCharge@G4TrajectoryChargeFilter@@@std@@@std@@YAPEAW4MyCharge@G4TrajectoryChargeFilter@@QEAW412@0PEAW412@AEAV?$allocator@W4MyCharge@G4TrajectoryChargeFilter@@@0@@Z
	??$_Uninitialized_value_construct_n@V?$allocator@U_Grp_t@?$_Tgt_state_t@PEBD@std@@@std@@@std@@YAPEAU_Grp_t@?$_Tgt_state_t@PEBD@0@PEAU120@_KAEAV?$allocator@U_Grp_t@?$_Tgt_state_t@PEBD@std@@@0@@Z
	??$_Uninitialized_value_construct_n@V?$allocator@U_Loop_vals_t@std@@@std@@@std@@YAPEAU_Loop_vals_t@0@PEAU10@_KAEAV?$allocator@U_Loop_vals_t@std@@@0@@Z
	??$_Uninitialized_value_construct_n@V?$allocator@Uyystype@G4UItokenNum@@@std@@@std@@YAPEAUyystype@G4UItokenNum@@PEAU12@_KAEAV?$allocator@Uyystype@G4UItokenNum@@@0@@Z
	??$_Uninitialized_value_construct_n@V?$allocator@V?$Point3D@N@HepGeom@@@std@@@std@@YAPEAV?$Point3D@N@HepGeom@@PEAV12@_KAEAV?$allocator@V?$Point3D@N@HepGeom@@@0@@Z
	??$_Uninitialized_value_construct_n@V?$allocator@V?$sub_match@PEBD@std@@@std@@@std@@YAPEAV?$sub_match@PEBD@0@PEAV10@_KAEAV?$allocator@V?$sub_match@PEBD@std@@@0@@Z
	??$_Uninitialized_value_construct_n_unchecked1@PEAPEAN_K@std@@YAPEAPEANPEAPEAN_K@Z
	??$_Within_limits@E@std@@YA_NAEBEU?$integral_constant@_N$00@0@U?$integral_constant@_N$0A@@0@2@Z
	??$_Within_limits@PEBDE@std@@YA_NPEBDAEBE@Z
	??$_Zero_range@PEAPEAN@std@@YAPEAPEANQEAPEAN0@Z
	??$copy@V?$_Vb_iterator@U?$_Wrap_alloc@V?$allocator@I@std@@@std@@@std@@V12@@std@@YA?AV?$_Vb_iterator@U?$_Wrap_alloc@V?$allocator@I@std@@@std@@@0@V10@00@Z
	??$copy_backward@V?$_Vb_iterator@U?$_Wrap_alloc@V?$allocator@I@std@@@std@@@std@@V12@@std@@YA?AV?$_Vb_iterator@U?$_Wrap_alloc@V?$allocator@I@std@@@std@@@0@V10@00@Z
	??$endl@DU?$char_traits@D@std@@@std@@YAAEAV?$basic_ostream@DU?$char_traits@D@std@@@0@AEAV10@@Z
	??$equal@PEBDPEBDU?$_Cmp_icase@V?$_Regex_traits@D@std@@@std@@@std@@YA_NQEBD000U?$_Cmp_icase@V?$_Regex_traits@D@std@@@0@@Z
	??$equal@PEBDPEBDU?$_Cmp_icase@V?$_Regex_traits@D@std@@@std@@@std@@YA_NQEBD00U?$_Cmp_icase@V?$_Regex_traits@D@std@@@0@@Z
	??$equal@PEBNPEBN@std@@YA_NQEBN00@Z
	??$equal@PEBNPEBNU?$equal_to@X@std@@@std@@YA_NQEBN00U?$equal_to@X@0@@Z
	??$equal@PEBVPVNameCopyNo@G4ModelingParameters@@PEBV12@@std@@YA_NQEBVPVNameCopyNo@G4ModelingParameters@@00@Z
	??$equal@PEBVPVNameCopyNo@G4ModelingParameters@@PEBV12@U?$equal_to@X@std@@@std@@YA_NQEBVPVNameCopyNo@G4ModelingParameters@@00U?$equal_to@X@0@@Z
	??$equal@PEBVVisAttributesModifier@G4ModelingParameters@@PEBV12@@std@@YA_NQEBVVisAttributesModifier@G4ModelingParameters@@00@Z
	??$equal@PEBVVisAttributesModifier@G4ModelingParameters@@PEBV12@U?$equal_to@X@std@@@std@@YA_NQEBVVisAttributesModifier@G4ModelingParameters@@00U?$equal_to@X@0@@Z
	??$exchange@PEAU?$_Tree_node@U?$pair@$$CBU?$pair@VG4String@@W4Config@G4TrajectoryDrawByAttribute@@@std@@PEAVG4VisTrajContext@@@std@@PEAX@std@@$$T@std@@YAPEAU?$_Tree_node@U?$pair@$$CBU?$pair@VG4String@@W4Config@G4TrajectoryDrawByAttribute@@@std@@PEAVG4VisTrajContext@@@std@@PEAX@0@AEAPEAU10@$$QEA$$T@Z
	??$exchange@PEAU?$_Tree_node@U?$pair@$$CBU?$pair@VG4String@@W4Config@G4TrajectoryDrawByAttribute@@@std@@PEAVG4VisTrajContext@@@std@@PEAX@std@@AEAPEAU12@@std@@YAPEAU?$_Tree_node@U?$pair@$$CBU?$pair@VG4String@@W4Config@G4TrajectoryDrawByAttribute@@@std@@PEAVG4VisTrajContext@@@std@@PEAX@0@AEAPEAU10@0@Z
	??$exchange@PEAU?$_Tree_node@U?$pair@$$CBVG4String@@H@std@@PEAX@std@@$$T@std@@YAPEAU?$_Tree_node@U?$pair@$$CBVG4String@@H@std@@PEAX@0@AEAPEAU10@$$QEA$$T@Z
	??$exchange@PEAU?$_Tree_node@U?$pair@$$CBVG4String@@H@std@@PEAX@std@@AEAPEAU12@@std@@YAPEAU?$_Tree_node@U?$pair@$$CBVG4String@@H@std@@PEAX@0@AEAPEAU10@0@Z
	??$exchange@PEAU?$_Tree_node@U?$pair@$$CBVG4String@@N@std@@PEAX@std@@$$T@std@@YAPEAU?$_Tree_node@U?$pair@$$CBVG4String@@N@std@@PEAX@0@AEAPEAU10@$$QEA$$T@Z
	??$exchange@PEAU?$_Tree_node@U?$pair@$$CBVG4String@@N@std@@PEAX@std@@AEAPEAU12@@std@@YAPEAU?$_Tree_node@U?$pair@$$CBVG4String@@N@std@@PEAX@0@AEAPEAU10@0@Z
	??$exchange@PEAU?$_Tree_node@U?$pair@$$CBVG4String@@PEAV?$G4THitsMap@VG4StatDouble@@@@@std@@PEAX@std@@$$T@std@@YAPEAU?$_Tree_node@U?$pair@$$CBVG4String@@PEAV?$G4THitsMap@VG4StatDouble@@@@@std@@PEAX@0@AEAPEAU10@$$QEA$$T@Z
	??$exchange@PEAU?$_Tree_node@U?$pair@$$CBVG4String@@PEAV?$G4THitsMap@VG4StatDouble@@@@@std@@PEAX@std@@AEAPEAU12@@std@@YAPEAU?$_Tree_node@U?$pair@$$CBVG4String@@PEAV?$G4THitsMap@VG4StatDouble@@@@@std@@PEAX@0@AEAPEAU10@0@Z
	??$exchange@PEAU?$_Tree_node@U?$pair@$$CBVG4String@@U?$pair@HH@std@@@std@@PEAX@std@@$$T@std@@YAPEAU?$_Tree_node@U?$pair@$$CBVG4String@@U?$pair@HH@std@@@std@@PEAX@0@AEAPEAU10@$$QEA$$T@Z
	??$exchange@PEAU?$_Tree_node@U?$pair@$$CBVG4String@@U?$pair@HH@std@@@std@@PEAX@std@@AEAPEAU12@@std@@YAPEAU?$_Tree_node@U?$pair@$$CBVG4String@@U?$pair@HH@std@@@std@@PEAX@0@AEAPEAU10@0@Z
	??$exchange@PEAU?$_Tree_node@U?$pair@$$CBVG4String@@U?$pair@NN@std@@@std@@PEAX@std@@$$T@std@@YAPEAU?$_Tree_node@U?$pair@$$CBVG4String@@U?$pair@NN@std@@@std@@PEAX@0@AEAPEAU10@$$QEA$$T@Z
	??$exchange@PEAU?$_Tree_node@U?$pair@$$CBVG4String@@U?$pair@NN@std@@@std@@PEAX@std@@AEAPEAU12@@std@@YAPEAU?$_Tree_node@U?$pair@$$CBVG4String@@U?$pair@NN@std@@@std@@PEAX@0@AEAPEAU10@0@Z
	??$exchange@PEAU?$_Tree_node@U?$pair@$$CBVG4String@@U?$pair@V?$G4DimensionedType@NUG4ConversionFatalError@@@@V1@@std@@@std@@PEAX@std@@$$T@std@@YAPEAU?$_Tree_node@U?$pair@$$CBVG4String@@U?$pair@V?$G4DimensionedType@NUG4ConversionFatalError@@@@V1@@std@@@std@@PEAX@0@AEAPEAU10@$$QEA$$T@Z
	??$exchange@PEAU?$_Tree_node@U?$pair@$$CBVG4String@@U?$pair@V?$G4DimensionedType@NUG4ConversionFatalError@@@@V1@@std@@@std@@PEAX@std@@AEAPEAU12@@std@@YAPEAU?$_Tree_node@U?$pair@$$CBVG4String@@U?$pair@V?$G4DimensionedType@NUG4ConversionFatalError@@@@V1@@std@@@std@@PEAX@0@AEAPEAU10@0@Z
	??$exchange@PEAU?$_Tree_node@U?$pair@$$CBVG4String@@U?$pair@V?$G4DimensionedType@VHep3Vector@CLHEP@@UG4ConversionFatalError@@@@V1@@std@@@std@@PEAX@std@@$$T@std@@YAPEAU?$_Tree_node@U?$pair@$$CBVG4String@@U?$pair@V?$G4DimensionedType@VHep3Vector@CLHEP@@UG4ConversionFatalError@@@@V1@@std@@@std@@PEAX@0@AEAPEAU10@$$QEA$$T@Z
	??$exchange@PEAU?$_Tree_node@U?$pair@$$CBVG4String@@U?$pair@V?$G4DimensionedType@VHep3Vector@CLHEP@@UG4ConversionFatalError@@@@V1@@std@@@std@@PEAX@std@@AEAPEAU12@@std@@YAPEAU?$_Tree_node@U?$pair@$$CBVG4String@@U?$pair@V?$G4DimensionedType@VHep3Vector@CLHEP@@UG4ConversionFatalError@@@@V1@@std@@@std@@PEAX@0@AEAPEAU10@0@Z
	??$exchange@PEAU?$_Tree_node@U?$pair@$$CBVG4String@@U?$pair@VG4String@@V1@@std@@@std@@PEAX@std@@$$T@std@@YAPEAU?$_Tree_node@U?$pair@$$CBVG4String@@U?$pair@VG4String@@V1@@std@@@std@@PEAX@0@AEAPEAU10@$$QEA$$T@Z
	??$exchange@PEAU?$_Tree_node@U?$pair@$$CBVG4String@@U?$pair@VG4String@@V1@@std@@@std@@PEAX@std@@AEAPEAU12@@std@@YAPEAU?$_Tree_node@U?$pair@$$CBVG4String@@U?$pair@VG4String@@V1@@std@@@std@@PEAX@0@AEAPEAU10@0@Z
	??$exchange@PEAU?$_Tree_node@U?$pair@$$CBVG4String@@U?$pair@VHep3Vector@CLHEP@@V12@@std@@@std@@PEAX@std@@$$T@std@@YAPEAU?$_Tree_node@U?$pair@$$CBVG4String@@U?$pair@VHep3Vector@CLHEP@@V12@@std@@@std@@PEAX@0@AEAPEAU10@$$QEA$$T@Z
	??$exchange@PEAU?$_Tree_node@U?$pair@$$CBVG4String@@U?$pair@VHep3Vector@CLHEP@@V12@@std@@@std@@PEAX@std@@AEAPEAU12@@std@@YAPEAU?$_Tree_node@U?$pair@$$CBVG4String@@U?$pair@VHep3Vector@CLHEP@@V12@@std@@@std@@PEAX@0@AEAPEAU10@0@Z
	??$exchange@PEAU?$_Tree_node@U?$pair@$$CBVG4String@@U?$pair@_N_N@std@@@std@@PEAX@std@@$$T@std@@YAPEAU?$_Tree_node@U?$pair@$$CBVG4String@@U?$pair@_N_N@std@@@std@@PEAX@0@AEAPEAU10@$$QEA$$T@Z
	??$exchange@PEAU?$_Tree_node@U?$pair@$$CBVG4String@@U?$pair@_N_N@std@@@std@@PEAX@std@@AEAPEAU12@@std@@YAPEAU?$_Tree_node@U?$pair@$$CBVG4String@@U?$pair@_N_N@std@@@std@@PEAX@0@AEAPEAU10@0@Z
	??$exchange@PEAU?$_Tree_node@U?$pair@$$CBVG4String@@V1@@std@@PEAX@std@@$$T@std@@YAPEAU?$_Tree_node@U?$pair@$$CBVG4String@@V1@@std@@PEAX@0@AEAPEAU10@$$QEA$$T@Z
	??$exchange@PEAU?$_Tree_node@U?$pair@$$CBVG4String@@V1@@std@@PEAX@std@@AEAPEAU12@@std@@YAPEAU?$_Tree_node@U?$pair@$$CBVG4String@@V1@@std@@PEAX@0@AEAPEAU10@0@Z
	??$exchange@PEAU?$_Tree_node@U?$pair@$$CBVG4String@@V?$G4DimensionedType@NUG4ConversionFatalError@@@@@std@@PEAX@std@@$$T@std@@YAPEAU?$_Tree_node@U?$pair@$$CBVG4String@@V?$G4DimensionedType@NUG4ConversionFatalError@@@@@std@@PEAX@0@AEAPEAU10@$$QEA$$T@Z
	??$exchange@PEAU?$_Tree_node@U?$pair@$$CBVG4String@@V?$G4DimensionedType@NUG4ConversionFatalError@@@@@std@@PEAX@std@@AEAPEAU12@@std@@YAPEAU?$_Tree_node@U?$pair@$$CBVG4String@@V?$G4DimensionedType@NUG4ConversionFatalError@@@@@std@@PEAX@0@AEAPEAU10@0@Z
	??$exchange@PEAU?$_Tree_node@U?$pair@$$CBVG4String@@V?$G4DimensionedType@VHep3Vector@CLHEP@@UG4ConversionFatalError@@@@@std@@PEAX@std@@$$T@std@@YAPEAU?$_Tree_node@U?$pair@$$CBVG4String@@V?$G4DimensionedType@VHep3Vector@CLHEP@@UG4ConversionFatalError@@@@@std@@PEAX@0@AEAPEAU10@$$QEA$$T@Z
	??$exchange@PEAU?$_Tree_node@U?$pair@$$CBVG4String@@V?$G4DimensionedType@VHep3Vector@CLHEP@@UG4ConversionFatalError@@@@@std@@PEAX@std@@AEAPEAU12@@std@@YAPEAU?$_Tree_node@U?$pair@$$CBVG4String@@V?$G4DimensionedType@VHep3Vector@CLHEP@@UG4ConversionFatalError@@@@@std@@PEAX@0@AEAPEAU10@0@Z
	??$exchange@PEAU?$_Tree_node@U?$pair@$$CBVG4String@@VG4AttDef@@@std@@PEAX@std@@$$T@std@@YAPEAU?$_Tree_node@U?$pair@$$CBVG4String@@VG4AttDef@@@std@@PEAX@0@AEAPEAU10@$$QEA$$T@Z
	??$exchange@PEAU?$_Tree_node@U?$pair@$$CBVG4String@@VG4AttDef@@@std@@PEAX@std@@AEAPEAU12@@std@@YAPEAU?$_Tree_node@U?$pair@$$CBVG4String@@VG4AttDef@@@std@@PEAX@0@AEAPEAU10@0@Z
	??$exchange@PEAU?$_Tree_node@U?$pair@$$CBVG4String@@VG4Colour@@@std@@PEAX@std@@$$T@std@@YAPEAU?$_Tree_node@U?$pair@$$CBVG4String@@VG4Colour@@@std@@PEAX@0@AEAPEAU10@$$QEA$$T@Z
	??$exchange@PEAU?$_Tree_node@U?$pair@$$CBVG4String@@VG4Colour@@@std@@PEAX@std@@AEAPEAU12@@std@@YAPEAU?$_Tree_node@U?$pair@$$CBVG4String@@VG4Colour@@@std@@PEAX@0@AEAPEAU10@0@Z
	??$exchange@PEAU?$_Tree_node@U?$pair@$$CBVG4String@@VHep3Vector@CLHEP@@@std@@PEAX@std@@$$T@std@@YAPEAU?$_Tree_node@U?$pair@$$CBVG4String@@VHep3Vector@CLHEP@@@std@@PEAX@0@AEAPEAU10@$$QEA$$T@Z
	??$exchange@PEAU?$_Tree_node@U?$pair@$$CBVG4String@@VHep3Vector@CLHEP@@@std@@PEAX@std@@AEAPEAU12@@std@@YAPEAU?$_Tree_node@U?$pair@$$CBVG4String@@VHep3Vector@CLHEP@@@std@@PEAX@0@AEAPEAU10@0@Z
	??$exchange@PEAU?$_Tree_node@U?$pair@$$CBVG4String@@_N@std@@PEAX@std@@$$T@std@@YAPEAU?$_Tree_node@U?$pair@$$CBVG4String@@_N@std@@PEAX@0@AEAPEAU10@$$QEA$$T@Z
	??$exchange@PEAU?$_Tree_node@U?$pair@$$CBVG4String@@_N@std@@PEAX@std@@AEAPEAU12@@std@@YAPEAU?$_Tree_node@U?$pair@$$CBVG4String@@_N@std@@PEAX@0@AEAPEAU10@0@Z
	??$exchange@PEAU?$_Tree_node@U?$pair@$$CBVG4TypeKey@@P6APEAVG4VAttValueFilter@@XZ@std@@PEAX@std@@$$T@std@@YAPEAU?$_Tree_node@U?$pair@$$CBVG4TypeKey@@P6APEAVG4VAttValueFilter@@XZ@std@@PEAX@0@AEAPEAU10@$$QEA$$T@Z
	??$exchange@PEAU?$_Tree_node@U?$pair@$$CBVG4TypeKey@@P6APEAVG4VAttValueFilter@@XZ@std@@PEAX@std@@AEAPEAU12@@std@@YAPEAU?$_Tree_node@U?$pair@$$CBVG4TypeKey@@P6APEAVG4VAttValueFilter@@XZ@std@@PEAX@0@AEAPEAU10@0@Z
	??$exchange@PEAU?$_Tree_node@U?$pair@$$CBW4Charge@G4TrajectoryDrawByCharge@@VG4Colour@@@std@@PEAX@std@@$$T@std@@YAPEAU?$_Tree_node@U?$pair@$$CBW4Charge@G4TrajectoryDrawByCharge@@VG4Colour@@@std@@PEAX@0@AEAPEAU10@$$QEA$$T@Z
	??$exchange@PEAU?$_Tree_node@U?$pair@$$CBW4Charge@G4TrajectoryDrawByCharge@@VG4Colour@@@std@@PEAX@std@@AEAPEAU12@@std@@YAPEAU?$_Tree_node@U?$pair@$$CBW4Charge@G4TrajectoryDrawByCharge@@VG4Colour@@@std@@PEAX@0@AEAPEAU10@0@Z
	??$exchange@PEAU_Container_proxy@std@@$$T@std@@YAPEAU_Container_proxy@0@AEAPEAU10@$$QEA$$T@Z
	??$exchange@PEAV_Facet_base@std@@PEAV12@@std@@YAPEAV_Facet_base@0@AEAPEAV10@$$QEAPEAV10@@Z
	??$exchange@PEAV_Node_assert@std@@PEAV12@@std@@YAPEAV_Node_assert@0@AEAPEAV10@$$QEAPEAV10@@Z
	??$fill@V?$_Vb_iterator@U?$_Wrap_alloc@V?$allocator@I@std@@@std@@@std@@_N@std@@YAXV?$_Vb_iterator@U?$_Wrap_alloc@V?$allocator@I@std@@@std@@@0@0AEB_N@Z
	??$find@PEBDE@std@@YAPEBDPEBDQEBDAEBE@Z
	??$find@PEBDW4_Meta_type@std@@@std@@YAPEBDPEBDQEBDAEBW4_Meta_type@0@@Z
	??$find@V?$_Vector_const_iterator@V?$_Vector_val@U?$_Simple_types@VG4String@@@std@@@std@@@std@@VG4String@@@std@@YA?AV?$_Vector_const_iterator@V?$_Vector_val@U?$_Simple_types@VG4String@@@std@@@std@@@0@V10@V10@AEBVG4String@@@Z
	??$find@V?$_Vector_const_iterator@V?$_Vector_val@U?$_Simple_types@W4MyCharge@G4TrajectoryChargeFilter@@@std@@@std@@@std@@W4MyCharge@G4TrajectoryChargeFilter@@@std@@YA?AV?$_Vector_const_iterator@V?$_Vector_val@U?$_Simple_types@W4MyCharge@G4TrajectoryChargeFilter@@@std@@@std@@@0@V10@V10@AEBW4MyCharge@G4TrajectoryChargeFilter@@@Z
	??$find@V?$_Vector_iterator@V?$_Vector_val@U?$_Simple_types@U?$pair@VG4String@@W4Config@?$G4AttributeFilterT@VG4VDigi@@@@@std@@@std@@@std@@@std@@U?$pair@VG4String@@W4Config@?$G4AttributeFilterT@VG4VDigi@@@@@2@@std@@YA?AV?$_Vector_iterator@V?$_Vector_val@U?$_Simple_types@U?$pair@VG4String@@W4Config@?$G4AttributeFilterT@VG4VDigi@@@@@std@@@std@@@std@@@0@V10@V10@AEBU?$pair@VG4String@@W4Config@?$G4AttributeFilterT@VG4VDigi@@@@@0@@Z
	??$find@V?$_Vector_iterator@V?$_Vector_val@U?$_Simple_types@U?$pair@VG4String@@W4Config@?$G4AttributeFilterT@VG4VHit@@@@@std@@@std@@@std@@@std@@U?$pair@VG4String@@W4Config@?$G4AttributeFilterT@VG4VHit@@@@@2@@std@@YA?AV?$_Vector_iterator@V?$_Vector_val@U?$_Simple_types@U?$pair@VG4String@@W4Config@?$G4AttributeFilterT@VG4VHit@@@@@std@@@std@@@std@@@0@V10@V10@AEBU?$pair@VG4String@@W4Config@?$G4AttributeFilterT@VG4VHit@@@@@0@@Z
	??$find@V?$_Vector_iterator@V?$_Vector_val@U?$_Simple_types@U?$pair@VG4String@@W4Config@?$G4AttributeFilterT@VG4VTrajectory@@@@@std@@@std@@@std@@@std@@U?$pair@VG4String@@W4Config@?$G4AttributeFilterT@VG4VTrajectory@@@@@2@@std@@YA?AV?$_Vector_iterator@V?$_Vector_val@U?$_Simple_types@U?$pair@VG4String@@W4Config@?$G4AttributeFilterT@VG4VTrajectory@@@@@std@@@std@@@std@@@0@V10@V10@AEBU?$pair@VG4String@@W4Config@?$G4AttributeFilterT@VG4VTrajectory@@@@@0@@Z
	??$lookup_classname@PEBD@?$_Regex_traits@D@std@@QEBAFPEBD0_N@Z
	??$make_unique@V_Node_assert@std@@W4_Node_type@2@$0A@@std@@YA?AV?$unique_ptr@V_Node_assert@std@@U?$default_delete@V_Node_assert@std@@@2@@0@$$QEAW4_Node_type@0@@Z
	??$regex_search@DV?$allocator@V?$sub_match@PEBD@std@@@std@@V?$regex_traits@D@2@@std@@YA_NPEBDAEAV?$match_results@PEBDV?$allocator@V?$sub_match@PEBD@std@@@std@@@0@AEBV?$basic_regex@DV?$regex_traits@D@std@@@0@W4match_flag_type@regex_constants@0@@Z
	??$swap@PEAV_Node_base@std@@X@std@@YAXAEAPEAV_Node_base@0@0@Z
	??$transform_primary@PEAD@?$_Regex_traits@D@std@@QEBA?AV?$basic_string@DU?$char_traits@D@std@@V?$allocator@D@2@@1@PEAD0@Z
	??$transform_primary@PEBD@?$_Regex_traits@D@std@@QEBA?AV?$basic_string@DU?$char_traits@D@std@@V?$allocator@D@2@@1@PEBD0@Z
	??$transform_primary@V?$_String_iterator@V?$_String_val@U?$_Simple_types@D@std@@@std@@@std@@@?$_Regex_traits@D@std@@QEBA?AV?$basic_string@DU?$char_traits@D@std@@V?$allocator@D@2@@1@V?$_String_iterator@V?$_String_val@U?$_Simple_types@D@std@@@std@@@1@0@Z
	??$uninitialized_copy@PEAPEANPEAPEAN@std@@YAPEAPEANQEAPEAN0PEAPEAN@Z
	??$use_facet@V?$collate@D@std@@@std@@YAAEBV?$collate@D@0@AEBVlocale@0@@Z
	??$use_facet@V?$ctype@D@std@@@std@@YAAEBV?$ctype@D@0@AEBVlocale@0@@Z
	??0?$G4AttValueFilterT@HUG4ConversionFatalError@@@@QEAA@XZ
	??0?$G4AttValueFilterT@NUG4ConversionFatalError@@@@QEAA@XZ
	??0?$G4AttValueFilterT@V?$G4DimensionedType@NUG4ConversionFatalError@@@@UG4ConversionFatalError@@@@QEAA@XZ
	??0?$G4AttValueFilterT@V?$G4DimensionedType@VHep3Vector@CLHEP@@UG4ConversionFatalError@@@@UG4ConversionFatalError@@@@QEAA@XZ
	??0?$G4AttValueFilterT@VG4String@@UG4ConversionFatalError@@@@QEAA@XZ
	??0?$G4AttValueFilterT@VHep3Vector@CLHEP@@UG4ConversionFatalError@@@@QEAA@XZ
	??0?$G4AttValueFilterT@_NUG4ConversionFatalError@@@@QEAA@XZ
	??0?$G4AttributeFilterT@VG4VDigi@@@@QEAA@AEBVG4String@@@Z
	??0?$G4AttributeFilterT@VG4VHit@@@@QEAA@AEBVG4String@@@Z
	??0?$G4AttributeFilterT@VG4VTrajectory@@@@QEAA@AEBVG4String@@@Z
	??0?$G4CreatorFactoryT@VG4VAttValueFilter@@VG4TypeKey@@P6APEAV1@XZ@@QEAA@XZ
	??0?$G4DimensionedType@NUG4ConversionFatalError@@@@QEAA@AEBNAEBVG4String@@@Z
	??0?$G4DimensionedType@NUG4ConversionFatalError@@@@QEAA@XZ
	??0?$G4DimensionedType@VHep3Vector@CLHEP@@UG4ConversionFatalError@@@@QEAA@AEBVHep3Vector@CLHEP@@AEBVG4String@@@Z
	??0?$G4DimensionedType@VHep3Vector@CLHEP@@UG4ConversionFatalError@@@@QEAA@XZ
	??0?$G4ModelCmdApplyBool@V?$G4AttributeFilterT@VG4VDigi@@@@@@QEAA@PEAV?$G4AttributeFilterT@VG4VDigi@@@@AEBVG4String@@1@Z
	??0?$G4ModelCmdApplyBool@V?$G4AttributeFilterT@VG4VHit@@@@@@QEAA@PEAV?$G4AttributeFilterT@VG4VHit@@@@AEBVG4String@@1@Z
	??0?$G4ModelCmdApplyBool@V?$G4AttributeFilterT@VG4VTrajectory@@@@@@QEAA@PEAV?$G4AttributeFilterT@VG4VTrajectory@@@@AEBVG4String@@1@Z
	??0?$G4ModelCmdApplyBool@VG4TrajectoryChargeFilter@@@@QEAA@PEAVG4TrajectoryChargeFilter@@AEBVG4String@@1@Z
	??0?$G4ModelCmdApplyBool@VG4TrajectoryDrawByAttribute@@@@QEAA@PEAVG4TrajectoryDrawByAttribute@@AEBVG4String@@1@Z
	??0?$G4ModelCmdApplyBool@VG4TrajectoryDrawByCharge@@@@QEAA@PEAVG4TrajectoryDrawByCharge@@AEBVG4String@@1@Z
	??0?$G4ModelCmdApplyBool@VG4TrajectoryDrawByEncounteredVolume@@@@QEAA@PEAVG4TrajectoryDrawByEncounteredVolume@@AEBVG4String@@1@Z
	??0?$G4ModelCmdApplyBool@VG4TrajectoryDrawByOriginVolume@@@@QEAA@PEAVG4TrajectoryDrawByOriginVolume@@AEBVG4String@@1@Z
	??0?$G4ModelCmdApplyBool@VG4TrajectoryDrawByParticleID@@@@QEAA@PEAVG4TrajectoryDrawByParticleID@@AEBVG4String@@1@Z
	??0?$G4ModelCmdApplyBool@VG4TrajectoryEncounteredVolumeFilter@@@@QEAA@PEAVG4TrajectoryEncounteredVolumeFilter@@AEBVG4String@@1@Z
	??0?$G4ModelCmdApplyBool@VG4TrajectoryGenericDrawer@@@@QEAA@PEAVG4TrajectoryGenericDrawer@@AEBVG4String@@1@Z
	??0?$G4ModelCmdApplyBool@VG4TrajectoryOriginVolumeFilter@@@@QEAA@PEAVG4TrajectoryOriginVolumeFilter@@AEBVG4String@@1@Z
	??0?$G4ModelCmdApplyBool@VG4TrajectoryParticleFilter@@@@QEAA@PEAVG4TrajectoryParticleFilter@@AEBVG4String@@1@Z
	??0?$G4ModelCmdApplyBool@VG4VisTrajContext@@@@QEAA@PEAVG4VisTrajContext@@AEBVG4String@@1@Z
	??0?$G4ModelCmdApplyColour@VG4TrajectoryDrawByEncounteredVolume@@@@QEAA@PEAVG4TrajectoryDrawByEncounteredVolume@@AEBVG4String@@1@Z
	??0?$G4ModelCmdApplyColour@VG4TrajectoryDrawByOriginVolume@@@@QEAA@PEAVG4TrajectoryDrawByOriginVolume@@AEBVG4String@@1@Z
	??0?$G4ModelCmdApplyColour@VG4TrajectoryDrawByParticleID@@@@QEAA@PEAVG4TrajectoryDrawByParticleID@@AEBVG4String@@1@Z
	??0?$G4ModelCmdApplyColour@VG4VisTrajContext@@@@QEAA@PEAVG4VisTrajContext@@AEBVG4String@@1@Z
	??0?$G4ModelCmdApplyDouble@VG4VisTrajContext@@@@QEAA@PEAVG4VisTrajContext@@AEBVG4String@@1@Z
	??0?$G4ModelCmdApplyDoubleAndUnit@VG4VisTrajContext@@@@QEAA@PEAVG4VisTrajContext@@AEBVG4String@@1@Z
	??0?$G4ModelCmdApplyNull@V?$G4AttributeFilterT@VG4VDigi@@@@@@QEAA@PEAV?$G4AttributeFilterT@VG4VDigi@@@@AEBVG4String@@1@Z
	??0?$G4ModelCmdApplyNull@V?$G4AttributeFilterT@VG4VHit@@@@@@QEAA@PEAV?$G4AttributeFilterT@VG4VHit@@@@AEBVG4String@@1@Z
	??0?$G4ModelCmdApplyNull@V?$G4AttributeFilterT@VG4VTrajectory@@@@@@QEAA@PEAV?$G4AttributeFilterT@VG4VTrajectory@@@@AEBVG4String@@1@Z
	??0?$G4ModelCmdApplyNull@VG4TrajectoryChargeFilter@@@@QEAA@PEAVG4TrajectoryChargeFilter@@AEBVG4String@@1@Z
	??0?$G4ModelCmdApplyNull@VG4TrajectoryEncounteredVolumeFilter@@@@QEAA@PEAVG4TrajectoryEncounteredVolumeFilter@@AEBVG4String@@1@Z
	??0?$G4ModelCmdApplyNull@VG4TrajectoryOriginVolumeFilter@@@@QEAA@PEAVG4TrajectoryOriginVolumeFilter@@AEBVG4String@@1@Z
	??0?$G4ModelCmdApplyNull@VG4TrajectoryParticleFilter@@@@QEAA@PEAVG4TrajectoryParticleFilter@@AEBVG4String@@1@Z
	??0?$G4ModelCmdApplyString@V?$G4AttributeFilterT@VG4VDigi@@@@@@QEAA@PEAV?$G4AttributeFilterT@VG4VDigi@@@@AEBVG4String@@1@Z
	??0?$G4ModelCmdApplyString@V?$G4AttributeFilterT@VG4VHit@@@@@@QEAA@PEAV?$G4AttributeFilterT@VG4VHit@@@@AEBVG4String@@1@Z
	??0?$G4ModelCmdApplyString@V?$G4AttributeFilterT@VG4VTrajectory@@@@@@QEAA@PEAV?$G4AttributeFilterT@VG4VTrajectory@@@@AEBVG4String@@1@Z
	??0?$G4ModelCmdApplyString@VG4TrajectoryChargeFilter@@@@QEAA@PEAVG4TrajectoryChargeFilter@@AEBVG4String@@1@Z
	??0?$G4ModelCmdApplyString@VG4TrajectoryDrawByAttribute@@@@QEAA@PEAVG4TrajectoryDrawByAttribute@@AEBVG4String@@1@Z
	??0?$G4ModelCmdApplyString@VG4TrajectoryEncounteredVolumeFilter@@@@QEAA@PEAVG4TrajectoryEncounteredVolumeFilter@@AEBVG4String@@1@Z
	??0?$G4ModelCmdApplyString@VG4TrajectoryOriginVolumeFilter@@@@QEAA@PEAVG4TrajectoryOriginVolumeFilter@@AEBVG4String@@1@Z
	??0?$G4ModelCmdApplyString@VG4TrajectoryParticleFilter@@@@QEAA@PEAVG4TrajectoryParticleFilter@@AEBVG4String@@1@Z
	??0?$G4ModelCmdApplyString@VG4VisTrajContext@@@@QEAA@PEAVG4VisTrajContext@@AEBVG4String@@1@Z
	??0?$G4ModelCmdApplyStringColour@VG4TrajectoryDrawByCharge@@@@QEAA@PEAVG4TrajectoryDrawByCharge@@AEBVG4String@@1@Z
	??0?$G4ModelCmdApplyStringColour@VG4TrajectoryDrawByEncounteredVolume@@@@QEAA@PEAVG4TrajectoryDrawByEncounteredVolume@@AEBVG4String@@1@Z
	??0?$G4ModelCmdApplyStringColour@VG4TrajectoryDrawByOriginVolume@@@@QEAA@PEAVG4TrajectoryDrawByOriginVolume@@AEBVG4String@@1@Z
	??0?$G4ModelCmdApplyStringColour@VG4TrajectoryDrawByParticleID@@@@QEAA@PEAVG4TrajectoryDrawByParticleID@@AEBVG4String@@1@Z
	??0?$G4ModelCmdCreateContextDir@VG4VisTrajContext@@@@QEAA@PEAVG4VisTrajContext@@AEBVG4String@@@Z
	??0?$G4ModelColourMap@VG4String@@@@QEAA@XZ
	??0?$G4ModelColourMap@W4Charge@G4TrajectoryDrawByCharge@@@@QEAA@XZ
	??0?$G4SmartFilter@VG4VDigi@@@@QEAA@AEBVG4String@@@Z
	??0?$G4SmartFilter@VG4VHit@@@@QEAA@AEBVG4String@@@Z
	??0?$G4SmartFilter@VG4VTrajectory@@@@QEAA@AEBVG4String@@@Z
	??0?$G4VFilter@VG4AttValue@@@@QEAA@AEBVG4String@@@Z
	??0?$G4VFilter@VG4VDigi@@@@QEAA@AEBVG4String@@@Z
	??0?$G4VFilter@VG4VHit@@@@QEAA@AEBVG4String@@@Z
	??0?$G4VFilter@VG4VTrajectory@@@@QEAA@AEBVG4String@@@Z
	??0?$G4VModelCommand@V?$G4AttributeFilterT@VG4VDigi@@@@@@QEAA@PEAV?$G4AttributeFilterT@VG4VDigi@@@@AEBVG4String@@@Z
	??0?$G4VModelCommand@V?$G4AttributeFilterT@VG4VHit@@@@@@QEAA@PEAV?$G4AttributeFilterT@VG4VHit@@@@AEBVG4String@@@Z
	??0?$G4VModelCommand@V?$G4AttributeFilterT@VG4VTrajectory@@@@@@QEAA@PEAV?$G4AttributeFilterT@VG4VTrajectory@@@@AEBVG4String@@@Z
	??0?$G4VModelCommand@VG4TrajectoryChargeFilter@@@@QEAA@PEAVG4TrajectoryChargeFilter@@AEBVG4String@@@Z
	??0?$G4VModelCommand@VG4TrajectoryDrawByAttribute@@@@QEAA@PEAVG4TrajectoryDrawByAttribute@@AEBVG4String@@@Z
	??0?$G4VModelCommand@VG4TrajectoryDrawByCharge@@@@QEAA@PEAVG4TrajectoryDrawByCharge@@AEBVG4String@@@Z
	??0?$G4VModelCommand@VG4TrajectoryDrawByEncounteredVolume@@@@QEAA@PEAVG4TrajectoryDrawByEncounteredVolume@@AEBVG4String@@@Z
	??0?$G4VModelCommand@VG4TrajectoryDrawByOriginVolume@@@@QEAA@PEAVG4TrajectoryDrawByOriginVolume@@AEBVG4String@@@Z
	??0?$G4VModelCommand@VG4TrajectoryDrawByParticleID@@@@QEAA@PEAVG4TrajectoryDrawByParticleID@@AEBVG4String@@@Z
	??0?$G4VModelCommand@VG4TrajectoryEncounteredVolumeFilter@@@@QEAA@PEAVG4TrajectoryEncounteredVolumeFilter@@AEBVG4String@@@Z
	??0?$G4VModelCommand@VG4TrajectoryGenericDrawer@@@@QEAA@PEAVG4TrajectoryGenericDrawer@@AEBVG4String@@@Z
	??0?$G4VModelCommand@VG4TrajectoryOriginVolumeFilter@@@@QEAA@PEAVG4TrajectoryOriginVolumeFilter@@AEBVG4String@@@Z
	??0?$G4VModelCommand@VG4TrajectoryParticleFilter@@@@QEAA@PEAVG4TrajectoryParticleFilter@@AEBVG4String@@@Z
	??0?$G4VModelCommand@VG4VisTrajContext@@@@QEAA@PEAVG4VisTrajContext@@AEBVG4String@@@Z
	??0?$G4VModelFactory@V?$G4VFilter@VG4VDigi@@@@@@QEAA@AEBVG4String@@@Z
	??0?$G4VModelFactory@V?$G4VFilter@VG4VHit@@@@@@QEAA@AEBVG4String@@@Z
	??0?$G4VModelFactory@V?$G4VFilter@VG4VTrajectory@@@@@@QEAA@AEBVG4String@@@Z
	??0?$G4VModelFactory@VG4VTrajectoryModel@@@@QEAA@AEBVG4String@@@Z
	??0?$_Bt_state_t@PEBD@std@@QEAA@AEBV01@@Z
	??0?$_Builder@PEBDDV?$regex_traits@D@std@@@std@@QEAA@AEBV?$regex_traits@D@1@W4syntax_option_type@regex_constants@1@@Z
	??0?$_Matcher@PEBDDV?$regex_traits@D@std@@PEBD@std@@QEAA@PEBD0AEBV?$regex_traits@D@1@PEAV_Root_node@1@IW4syntax_option_type@regex_constants@1@W4match_flag_type@51@@Z
	??0?$_Parser@PEBDDV?$regex_traits@D@std@@@std@@QEAA@AEBV?$regex_traits@D@1@PEBD1W4syntax_option_type@regex_constants@1@@Z
	??0?$_Tgt_state_t@PEBD@std@@QEAA@AEBV01@@Z
	??0?$basic_string@DU?$char_traits@D@std@@V?$allocator@D@2@@std@@QEAA@AEBV01@@Z
	??0?$basic_string@DU?$char_traits@D@std@@V?$allocator@D@2@@std@@QEAA@QEBD@Z
	??0?$basic_stringbuf@DU?$char_traits@D@std@@V?$allocator@D@2@@std@@QEAA@AEBV?$basic_string@DU?$char_traits@D@std@@V?$allocator@D@2@@1@H@Z
	??0?$vector@PEAVG4UImessenger@@V?$allocator@PEAVG4UImessenger@@@std@@@std@@QEAA@AEBV01@@Z
	??0?$vector@UFindings@G4PhysicalVolumesSearchScene@@V?$allocator@UFindings@G4PhysicalVolumesSearchScene@@@std@@@std@@QEAA@AEBV01@@Z
	??0?$vector@VG4PhysicalVolumeNodeID@G4PhysicalVolumeModel@@V?$allocator@VG4PhysicalVolumeNodeID@G4PhysicalVolumeModel@@@std@@@std@@QEAA@AEBV01@@Z
	??0?$vector@VPVNameCopyNo@G4ModelingParameters@@V?$allocator@VPVNameCopyNo@G4ModelingParameters@@@std@@@std@@QEAA@AEBV01@@Z
	??0G4ArrowModel@@QEAA@NNNNNNNAEBVG4Colour@@AEBVG4String@@H@Z
	??0G4AttDef@@QEAA@AEBVG4String@@0000@Z
	??0G4AttValue@@QEAA@AEBVG4String@@00@Z
	??0G4AxesModel@@QEAA@NNNNNAEBVG4String@@0_NN@Z
	??0G4BoundingExtentScene@@QEAA@PEAVG4VModel@@@Z
	??0G4BoundingSphereScene@@QEAA@PEAVG4VModel@@@Z
	??0G4DigiAttributeFilterFactory@@QEAA@XZ
	??0G4DigiModel@@QEAA@XZ
	??0G4GPSModel@@QEAA@AEBVG4Colour@@@Z
	??0G4HitAttributeFilterFactory@@QEAA@XZ
	??0G4HitsModel@@QEAA@XZ
	??0G4LogicalVolumeModel@@QEAA@PEAVG4LogicalVolume@@H_N111AEBVTransform3D@HepGeom@@PEBVG4ModelingParameters@@@Z
	??0G4ModelingParameters@@QEAA@PEBVG4VisAttributes@@W4DrawingStyle@0@_N22N2H@Z
	??0G4ModelingParameters@@QEAA@XZ
	??0G4NullModel@@QEAA@PEBVG4ModelingParameters@@@Z
	??0G4PSHitsModel@@QEAA@AEBVG4String@@@Z
	??0G4PhysicalVolumeMassScene@@QEAA@PEAVG4PhysicalVolumeModel@@@Z
	??0G4PhysicalVolumeModel@@QEAA@PEAVG4VPhysicalVolume@@HAEBVTransform3D@HepGeom@@PEBVG4ModelingParameters@@_NAEBV?$vector@VG4PhysicalVolumeNodeID@G4PhysicalVolumeModel@@V?$allocator@VG4PhysicalVolumeNodeID@G4PhysicalVolumeModel@@@std@@@std@@@Z
	??0G4PhysicalVolumeModelTouchable@G4PhysicalVolumeModel@@QEAA@AEBV?$vector@VG4PhysicalVolumeNodeID@G4PhysicalVolumeModel@@V?$allocator@VG4PhysicalVolumeNodeID@G4PhysicalVolumeModel@@@std@@@std@@@Z
	??0G4PhysicalVolumeSearchScene@@QEAA@PEAVG4PhysicalVolumeModel@@AEBVG4String@@HH@Z
	??0G4PhysicalVolumesSearchScene@@QEAA@PEAVG4PhysicalVolumeModel@@AEBVG4String@@H@Z
	??0G4ScaleModel@@QEAA@AEBVG4Scale@@@Z
	??0G4String@@QEAA@$$QEAV0@@Z
	??0G4String@@QEAA@PEBD@Z
	??0G4TextModel@@QEAA@AEBVG4Text@@@Z
	??0G4TouchablePropertiesScene@@QEAA@PEAVG4PhysicalVolumeModel@@AEBV?$vector@VPVNameCopyNo@G4ModelingParameters@@V?$allocator@VPVNameCopyNo@G4ModelingParameters@@@std@@@std@@@Z
	??0G4TrajectoriesModel@@QEAA@XZ
	??0G4TrajectoryAttributeFilterFactory@@QEAA@XZ
	??0G4TrajectoryChargeFilter@@QEAA@AEBVG4String@@@Z
	??0G4TrajectoryChargeFilterFactory@@QEAA@XZ
	??0G4TrajectoryDrawByAttribute@@QEAA@AEBVG4String@@PEAVG4VisTrajContext@@@Z
	??0G4TrajectoryDrawByAttributeFactory@@QEAA@XZ
	??0G4TrajectoryDrawByCharge@@QEAA@AEBVG4String@@AEBVG4Colour@@11@Z
	??0G4TrajectoryDrawByCharge@@QEAA@AEBVG4String@@PEAVG4VisTrajContext@@@Z
	??0G4TrajectoryDrawByChargeFactory@@QEAA@XZ
	??0G4TrajectoryDrawByEncounteredVolume@@QEAA@AEBVG4String@@PEAVG4VisTrajContext@@@Z
	??0G4TrajectoryDrawByEncounteredVolumeFactory@@QEAA@XZ
	??0G4TrajectoryDrawByOriginVolume@@QEAA@AEBVG4String@@PEAVG4VisTrajContext@@@Z
	??0G4TrajectoryDrawByOriginVolumeFactory@@QEAA@XZ
	??0G4TrajectoryDrawByParticleID@@QEAA@AEBVG4String@@PEAVG4VisTrajContext@@@Z
	??0G4TrajectoryDrawByParticleIDFactory@@QEAA@XZ
	??0G4TrajectoryEncounteredVolumeFilter@@QEAA@AEBVG4String@@@Z
	??0G4TrajectoryEncounteredVolumeFilterFactory@@QEAA@XZ
	??0G4TrajectoryGenericDrawer@@QEAA@AEBVG4String@@PEAVG4VisTrajContext@@@Z
	??0G4TrajectoryGenericDrawerFactory@@QEAA@XZ
	??0G4TrajectoryOriginVolumeFilter@@QEAA@AEBVG4String@@@Z
	??0G4TrajectoryOriginVolumeFilterFactory@@QEAA@XZ
	??0G4TrajectoryParticleFilter@@QEAA@AEBVG4String@@@Z
	??0G4TrajectoryParticleFilterFactory@@QEAA@XZ
	??0G4VFieldModel@@QEAA@AEBVG4String@@0AEBVG4VisExtent@@AEBV?$vector@UFindings@G4PhysicalVolumesSearchScene@@V?$allocator@UFindings@G4PhysicalVolumesSearchScene@@@std@@@std@@HW4Representation@0@H@Z
	??0G4VModel@@QEAA@AEBVTransform3D@HepGeom@@PEBVG4ModelingParameters@@@Z
	??0G4VTrajectoryModel@@QEAA@AEBVG4String@@PEAVG4VisTrajContext@@@Z
	??0G4VisTrajContext@@QEAA@AEBVG4String@@@Z
	??0Matcher@G4PhysicalVolumesSearchScene@@QEAA@AEBVG4String@@@Z
	??0Transform3D@HepGeom@@QEAA@AEBVHepRotation@CLHEP@@AEBVHep3Vector@3@@Z
	??0bad_alloc@std@@QEAA@AEBV01@@Z
	??0bad_array_new_length@std@@QEAA@AEBV01@@Z
	??0bad_array_new_length@std@@QEAA@XZ
	??0bad_cast@std@@QEAA@AEBV01@@Z
	??0bad_cast@std@@QEAA@XZ
	??0exception@std@@QEAA@AEBV01@@Z
	??1?$BasicVector3D@N@HepGeom@@UEAA@XZ
	??1?$G4AttValueFilterT@HUG4ConversionFatalError@@@@UEAA@XZ
	??1?$G4AttValueFilterT@NUG4ConversionFatalError@@@@UEAA@XZ
	??1?$G4AttValueFilterT@V?$G4DimensionedType@NUG4ConversionFatalError@@@@UG4ConversionFatalError@@@@UEAA@XZ
	??1?$G4AttValueFilterT@V?$G4DimensionedType@VHep3Vector@CLHEP@@UG4ConversionFatalError@@@@UG4ConversionFatalError@@@@UEAA@XZ
	??1?$G4AttValueFilterT@VG4String@@UG4ConversionFatalError@@@@UEAA@XZ
	??1?$G4AttValueFilterT@VHep3Vector@CLHEP@@UG4ConversionFatalError@@@@UEAA@XZ
	??1?$G4AttValueFilterT@_NUG4ConversionFatalError@@@@UEAA@XZ
	??1?$G4AttributeFilterT@VG4VDigi@@@@UEAA@XZ
	??1?$G4AttributeFilterT@VG4VHit@@@@UEAA@XZ
	??1?$G4AttributeFilterT@VG4VTrajectory@@@@UEAA@XZ
	??1?$G4CreatorFactoryT@VG4VAttValueFilter@@VG4TypeKey@@P6APEAV1@XZ@@UEAA@XZ
	??1?$G4DimensionedType@NUG4ConversionFatalError@@@@UEAA@XZ
	??1?$G4DimensionedType@VHep3Vector@CLHEP@@UG4ConversionFatalError@@@@UEAA@XZ
	??1?$G4ModelCmdActive@V?$G4AttributeFilterT@VG4VDigi@@@@@@UEAA@XZ
	??1?$G4ModelCmdActive@V?$G4AttributeFilterT@VG4VHit@@@@@@UEAA@XZ
	??1?$G4ModelCmdActive@V?$G4AttributeFilterT@VG4VTrajectory@@@@@@UEAA@XZ
	??1?$G4ModelCmdActive@VG4TrajectoryChargeFilter@@@@UEAA@XZ
	??1?$G4ModelCmdActive@VG4TrajectoryEncounteredVolumeFilter@@@@UEAA@XZ
	??1?$G4ModelCmdActive@VG4TrajectoryOriginVolumeFilter@@@@UEAA@XZ
	??1?$G4ModelCmdActive@VG4TrajectoryParticleFilter@@@@UEAA@XZ
	??1?$G4ModelCmdAddInterval@V?$G4AttributeFilterT@VG4VDigi@@@@@@UEAA@XZ
	??1?$G4ModelCmdAddInterval@V?$G4AttributeFilterT@VG4VHit@@@@@@UEAA@XZ
	??1?$G4ModelCmdAddInterval@V?$G4AttributeFilterT@VG4VTrajectory@@@@@@UEAA@XZ
	??1?$G4ModelCmdAddIntervalContext@VG4TrajectoryDrawByAttribute@@@@UEAA@XZ
	??1?$G4ModelCmdAddString@VG4TrajectoryChargeFilter@@@@UEAA@XZ
	??1?$G4ModelCmdAddString@VG4TrajectoryEncounteredVolumeFilter@@@@UEAA@XZ
	??1?$G4ModelCmdAddString@VG4TrajectoryOriginVolumeFilter@@@@UEAA@XZ
	??1?$G4ModelCmdAddString@VG4TrajectoryParticleFilter@@@@UEAA@XZ
	??1?$G4ModelCmdAddValue@V?$G4AttributeFilterT@VG4VDigi@@@@@@UEAA@XZ
	??1?$G4ModelCmdAddValue@V?$G4AttributeFilterT@VG4VHit@@@@@@UEAA@XZ
	??1?$G4ModelCmdAddValue@V?$G4AttributeFilterT@VG4VTrajectory@@@@@@UEAA@XZ
	??1?$G4ModelCmdAddValueContext@VG4TrajectoryDrawByAttribute@@@@UEAA@XZ
	??1?$G4ModelCmdApplyBool@V?$G4AttributeFilterT@VG4VDigi@@@@@@UEAA@XZ
	??1?$G4ModelCmdApplyBool@V?$G4AttributeFilterT@VG4VHit@@@@@@UEAA@XZ
	??1?$G4ModelCmdApplyBool@V?$G4AttributeFilterT@VG4VTrajectory@@@@@@UEAA@XZ
	??1?$G4ModelCmdApplyBool@VG4TrajectoryChargeFilter@@@@UEAA@XZ
	??1?$G4ModelCmdApplyBool@VG4TrajectoryDrawByAttribute@@@@UEAA@XZ
	??1?$G4ModelCmdApplyBool@VG4TrajectoryDrawByCharge@@@@UEAA@XZ
	??1?$G4ModelCmdApplyBool@VG4TrajectoryDrawByEncounteredVolume@@@@UEAA@XZ
	??1?$G4ModelCmdApplyBool@VG4TrajectoryDrawByOriginVolume@@@@UEAA@XZ
	??1?$G4ModelCmdApplyBool@VG4TrajectoryDrawByParticleID@@@@UEAA@XZ
	??1?$G4ModelCmdApplyBool@VG4TrajectoryEncounteredVolumeFilter@@@@UEAA@XZ
	??1?$G4ModelCmdApplyBool@VG4TrajectoryGenericDrawer@@@@UEAA@XZ
	??1?$G4ModelCmdApplyBool@VG4TrajectoryOriginVolumeFilter@@@@UEAA@XZ
	??1?$G4ModelCmdApplyBool@VG4TrajectoryParticleFilter@@@@UEAA@XZ
	??1?$G4ModelCmdApplyBool@VG4VisTrajContext@@@@UEAA@XZ
	??1?$G4ModelCmdApplyColour@VG4TrajectoryDrawByEncounteredVolume@@@@UEAA@XZ
	??1?$G4ModelCmdApplyColour@VG4TrajectoryDrawByOriginVolume@@@@UEAA@XZ
	??1?$G4ModelCmdApplyColour@VG4TrajectoryDrawByParticleID@@@@UEAA@XZ
	??1?$G4ModelCmdApplyColour@VG4VisTrajContext@@@@UEAA@XZ
	??1?$G4ModelCmdApplyDouble@VG4VisTrajContext@@@@UEAA@XZ
	??1?$G4ModelCmdApplyDoubleAndUnit@VG4VisTrajContext@@@@UEAA@XZ
	??1?$G4ModelCmdApplyNull@V?$G4AttributeFilterT@VG4VDigi@@@@@@UEAA@XZ
	??1?$G4ModelCmdApplyNull@V?$G4AttributeFilterT@VG4VHit@@@@@@UEAA@XZ
	??1?$G4ModelCmdApplyNull@V?$G4AttributeFilterT@VG4VTrajectory@@@@@@UEAA@XZ
	??1?$G4ModelCmdApplyNull@VG4TrajectoryChargeFilter@@@@UEAA@XZ
	??1?$G4ModelCmdApplyNull@VG4TrajectoryEncounteredVolumeFilter@@@@UEAA@XZ
	??1?$G4ModelCmdApplyNull@VG4TrajectoryOriginVolumeFilter@@@@UEAA@XZ
	??1?$G4ModelCmdApplyNull@VG4TrajectoryParticleFilter@@@@UEAA@XZ
	??1?$G4ModelCmdApplyString@V?$G4AttributeFilterT@VG4VDigi@@@@@@UEAA@XZ
	??1?$G4ModelCmdApplyString@V?$G4AttributeFilterT@VG4VHit@@@@@@UEAA@XZ
	??1?$G4ModelCmdApplyString@V?$G4AttributeFilterT@VG4VTrajectory@@@@@@UEAA@XZ
	??1?$G4ModelCmdApplyString@VG4TrajectoryChargeFilter@@@@UEAA@XZ
	??1?$G4ModelCmdApplyString@VG4TrajectoryDrawByAttribute@@@@UEAA@XZ
	??1?$G4ModelCmdApplyString@VG4TrajectoryEncounteredVolumeFilter@@@@UEAA@XZ
	??1?$G4ModelCmdApplyString@VG4TrajectoryOriginVolumeFilter@@@@UEAA@XZ
	??1?$G4ModelCmdApplyString@VG4TrajectoryParticleFilter@@@@UEAA@XZ
	??1?$G4ModelCmdApplyString@VG4VisTrajContext@@@@UEAA@XZ
	??1?$G4ModelCmdApplyStringColour@VG4TrajectoryDrawByCharge@@@@UEAA@XZ
	??1?$G4ModelCmdApplyStringColour@VG4TrajectoryDrawByEncounteredVolume@@@@UEAA@XZ
	??1?$G4ModelCmdApplyStringColour@VG4TrajectoryDrawByOriginVolume@@@@UEAA@XZ
	??1?$G4ModelCmdApplyStringColour@VG4TrajectoryDrawByParticleID@@@@UEAA@XZ
	??1?$G4ModelCmdCreateContextDir@VG4VisTrajContext@@@@UEAA@XZ
	??1?$G4ModelCmdInvert@V?$G4AttributeFilterT@VG4VDigi@@@@@@UEAA@XZ
	??1?$G4ModelCmdInvert@V?$G4AttributeFilterT@VG4VHit@@@@@@UEAA@XZ
	??1?$G4ModelCmdInvert@V?$G4AttributeFilterT@VG4VTrajectory@@@@@@UEAA@XZ
	??1?$G4ModelCmdInvert@VG4TrajectoryChargeFilter@@@@UEAA@XZ
	??1?$G4ModelCmdInvert@VG4TrajectoryEncounteredVolumeFilter@@@@UEAA@XZ
	??1?$G4ModelCmdInvert@VG4TrajectoryOriginVolumeFilter@@@@UEAA@XZ
	??1?$G4ModelCmdInvert@VG4TrajectoryParticleFilter@@@@UEAA@XZ
	??1?$G4ModelCmdReset@V?$G4AttributeFilterT@VG4VDigi@@@@@@UEAA@XZ
	??1?$G4ModelCmdReset@V?$G4AttributeFilterT@VG4VHit@@@@@@UEAA@XZ
	??1?$G4ModelCmdReset@V?$G4AttributeFilterT@VG4VTrajectory@@@@@@UEAA@XZ
	??1?$G4ModelCmdReset@VG4TrajectoryChargeFilter@@@@UEAA@XZ
	??1?$G4ModelCmdReset@VG4TrajectoryEncounteredVolumeFilter@@@@UEAA@XZ
	??1?$G4ModelCmdReset@VG4TrajectoryOriginVolumeFilter@@@@UEAA@XZ
	??1?$G4ModelCmdReset@VG4TrajectoryParticleFilter@@@@UEAA@XZ
	??1?$G4ModelCmdSetDefaultColour@VG4TrajectoryDrawByEncounteredVolume@@@@UEAA@XZ
	??1?$G4ModelCmdSetDefaultColour@VG4TrajectoryDrawByOriginVolume@@@@UEAA@XZ
	??1?$G4ModelCmdSetDefaultColour@VG4TrajectoryDrawByParticleID@@@@UEAA@XZ
	??1?$G4ModelCmdSetString@V?$G4AttributeFilterT@VG4VDigi@@@@@@UEAA@XZ
	??1?$G4ModelCmdSetString@V?$G4AttributeFilterT@VG4VHit@@@@@@UEAA@XZ
	??1?$G4ModelCmdSetString@V?$G4AttributeFilterT@VG4VTrajectory@@@@@@UEAA@XZ
	??1?$G4ModelCmdSetString@VG4TrajectoryDrawByAttribute@@@@UEAA@XZ
	??1?$G4ModelCmdSetStringColour@VG4TrajectoryDrawByCharge@@@@UEAA@XZ
	??1?$G4ModelCmdSetStringColour@VG4TrajectoryDrawByEncounteredVolume@@@@UEAA@XZ
	??1?$G4ModelCmdSetStringColour@VG4TrajectoryDrawByOriginVolume@@@@UEAA@XZ
	??1?$G4ModelCmdSetStringColour@VG4TrajectoryDrawByParticleID@@@@UEAA@XZ
	??1?$G4ModelCmdVerbose@V?$G4AttributeFilterT@VG4VDigi@@@@@@UEAA@XZ
	??1?$G4ModelCmdVerbose@V?$G4AttributeFilterT@VG4VHit@@@@@@UEAA@XZ
	??1?$G4ModelCmdVerbose@V?$G4AttributeFilterT@VG4VTrajectory@@@@@@UEAA@XZ
	??1?$G4ModelCmdVerbose@VG4TrajectoryChargeFilter@@@@UEAA@XZ
	??1?$G4ModelCmdVerbose@VG4TrajectoryDrawByAttribute@@@@UEAA@XZ
	??1?$G4ModelCmdVerbose@VG4TrajectoryDrawByCharge@@@@UEAA@XZ
	??1?$G4ModelCmdVerbose@VG4TrajectoryDrawByEncounteredVolume@@@@UEAA@XZ
	??1?$G4ModelCmdVerbose@VG4TrajectoryDrawByOriginVolume@@@@UEAA@XZ
	??1?$G4ModelCmdVerbose@VG4TrajectoryDrawByParticleID@@@@UEAA@XZ
	??1?$G4ModelCmdVerbose@VG4TrajectoryEncounteredVolumeFilter@@@@UEAA@XZ
	??1?$G4ModelCmdVerbose@VG4TrajectoryGenericDrawer@@@@UEAA@XZ
	??1?$G4ModelCmdVerbose@VG4TrajectoryOriginVolumeFilter@@@@UEAA@XZ
	??1?$G4ModelCmdVerbose@VG4TrajectoryParticleFilter@@@@UEAA@XZ
	??1?$G4ModelColourMap@VG4String@@@@UEAA@XZ
	??1?$G4ModelColourMap@W4Charge@G4TrajectoryDrawByCharge@@@@UEAA@XZ
	??1?$G4SmartFilter@VG4VDigi@@@@UEAA@XZ
	??1?$G4SmartFilter@VG4VHit@@@@UEAA@XZ
	??1?$G4SmartFilter@VG4VTrajectory@@@@UEAA@XZ
	??1?$G4TypeKeyT@H@@UEAA@XZ
	??1?$G4TypeKeyT@N@@UEAA@XZ
	??1?$G4TypeKeyT@V?$G4DimensionedType@NUG4ConversionFatalError@@@@@@UEAA@XZ
	??1?$G4TypeKeyT@V?$G4DimensionedType@VHep3Vector@CLHEP@@UG4ConversionFatalError@@@@@@UEAA@XZ
	??1?$G4TypeKeyT@VG4String@@@@UEAA@XZ
	??1?$G4TypeKeyT@VHep3Vector@CLHEP@@@@UEAA@XZ
	??1?$G4TypeKeyT@_N@@UEAA@XZ
	??1?$G4VFilter@VG4AttValue@@@@UEAA@XZ
	??1?$G4VFilter@VG4VDigi@@@@UEAA@XZ
	??1?$G4VFilter@VG4VHit@@@@UEAA@XZ
	??1?$G4VFilter@VG4VTrajectory@@@@UEAA@XZ
	??1?$G4VModelCommand@V?$G4AttributeFilterT@VG4VDigi@@@@@@UEAA@XZ
	??1?$G4VModelCommand@V?$G4AttributeFilterT@VG4VHit@@@@@@UEAA@XZ
	??1?$G4VModelCommand@V?$G4AttributeFilterT@VG4VTrajectory@@@@@@UEAA@XZ
	??1?$G4VModelCommand@VG4TrajectoryChargeFilter@@@@UEAA@XZ
	??1?$G4VModelCommand@VG4TrajectoryDrawByAttribute@@@@UEAA@XZ
	??1?$G4VModelCommand@VG4TrajectoryDrawByCharge@@@@UEAA@XZ
	??1?$G4VModelCommand@VG4TrajectoryDrawByEncounteredVolume@@@@UEAA@XZ
	??1?$G4VModelCommand@VG4TrajectoryDrawByOriginVolume@@@@UEAA@XZ
	??1?$G4VModelCommand@VG4TrajectoryDrawByParticleID@@@@UEAA@XZ
	??1?$G4VModelCommand@VG4TrajectoryEncounteredVolumeFilter@@@@UEAA@XZ
	??1?$G4VModelCommand@VG4TrajectoryGenericDrawer@@@@UEAA@XZ
	??1?$G4VModelCommand@VG4TrajectoryOriginVolumeFilter@@@@UEAA@XZ
	??1?$G4VModelCommand@VG4TrajectoryParticleFilter@@@@UEAA@XZ
	??1?$G4VModelCommand@VG4VisTrajContext@@@@UEAA@XZ
	??1?$G4VModelFactory@V?$G4VFilter@VG4VDigi@@@@@@UEAA@XZ
	??1?$G4VModelFactory@V?$G4VFilter@VG4VHit@@@@@@UEAA@XZ
	??1?$G4VModelFactory@V?$G4VFilter@VG4VTrajectory@@@@@@UEAA@XZ
	??1?$G4VModelFactory@VG4VTrajectoryModel@@@@UEAA@XZ
	??1?$_Alloc_construct_ptr@V?$allocator@U?$_Tree_node@U?$pair@$$CBU?$pair@VG4String@@W4Config@G4TrajectoryDrawByAttribute@@@std@@PEAVG4VisTrajContext@@@std@@PEAX@std@@@std@@@std@@QEAA@XZ
	??1?$_Alloc_construct_ptr@V?$allocator@U?$_Tree_node@U?$pair@$$CBVG4String@@H@std@@PEAX@std@@@std@@@std@@QEAA@XZ
	??1?$_Alloc_construct_ptr@V?$allocator@U?$_Tree_node@U?$pair@$$CBVG4String@@N@std@@PEAX@std@@@std@@@std@@QEAA@XZ
	??1?$_Alloc_construct_ptr@V?$allocator@U?$_Tree_node@U?$pair@$$CBVG4String@@PEAV?$G4THitsMap@VG4StatDouble@@@@@std@@PEAX@std@@@std@@@std@@QEAA@XZ
	??1?$_Alloc_construct_ptr@V?$allocator@U?$_Tree_node@U?$pair@$$CBVG4String@@U?$pair@HH@std@@@std@@PEAX@std@@@std@@@std@@QEAA@XZ
	??1?$_Alloc_construct_ptr@V?$allocator@U?$_Tree_node@U?$pair@$$CBVG4String@@U?$pair@NN@std@@@std@@PEAX@std@@@std@@@std@@QEAA@XZ
	??1?$_Alloc_construct_ptr@V?$allocator@U?$_Tree_node@U?$pair@$$CBVG4String@@U?$pair@V?$G4DimensionedType@NUG4ConversionFatalError@@@@V1@@std@@@std@@PEAX@std@@@std@@@std@@QEAA@XZ
	??1?$_Alloc_construct_ptr@V?$allocator@U?$_Tree_node@U?$pair@$$CBVG4String@@U?$pair@V?$G4DimensionedType@VHep3Vector@CLHEP@@UG4ConversionFatalError@@@@V1@@std@@@std@@PEAX@std@@@std@@@std@@QEAA@XZ
	??1?$_Alloc_construct_ptr@V?$allocator@U?$_Tree_node@U?$pair@$$CBVG4String@@U?$pair@VG4String@@V1@@std@@@std@@PEAX@std@@@std@@@std@@QEAA@XZ
	??1?$_Alloc_construct_ptr@V?$allocator@U?$_Tree_node@U?$pair@$$CBVG4String@@U?$pair@VHep3Vector@CLHEP@@V12@@std@@@std@@PEAX@std@@@std@@@std@@QEAA@XZ
	??1?$_Alloc_construct_ptr@V?$allocator@U?$_Tree_node@U?$pair@$$CBVG4String@@U?$pair@_N_N@std@@@std@@PEAX@std@@@std@@@std@@QEAA@XZ
	??1?$_Alloc_construct_ptr@V?$allocator@U?$_Tree_node@U?$pair@$$CBVG4String@@V1@@std@@PEAX@std@@@std@@@std@@QEAA@XZ
	??1?$_Alloc_construct_ptr@V?$allocator@U?$_Tree_node@U?$pair@$$CBVG4String@@V?$G4DimensionedType@NUG4ConversionFatalError@@@@@std@@PEAX@std@@@std@@@std@@QEAA@XZ
	??1?$_Alloc_construct_ptr@V?$allocator@U?$_Tree_node@U?$pair@$$CBVG4String@@V?$G4DimensionedType@VHep3Vector@CLHEP@@UG4ConversionFatalError@@@@@std@@PEAX@std@@@std@@@std@@QEAA@XZ
	??1?$_Alloc_construct_ptr@V?$allocator@U?$_Tree_node@U?$pair@$$CBVG4String@@VG4AttDef@@@std@@PEAX@std@@@std@@@std@@QEAA@XZ
	??1?$_Alloc_construct_ptr@V?$allocator@U?$_Tree_node@U?$pair@$$CBVG4String@@VG4Colour@@@std@@PEAX@std@@@std@@@std@@QEAA@XZ
	??1?$_Alloc_construct_ptr@V?$allocator@U?$_Tree_node@U?$pair@$$CBVG4String@@VHep3Vector@CLHEP@@@std@@PEAX@std@@@std@@@std@@QEAA@XZ
	??1?$_Alloc_construct_ptr@V?$allocator@U?$_Tree_node@U?$pair@$$CBVG4String@@_N@std@@PEAX@std@@@std@@@std@@QEAA@XZ
	??1?$_Alloc_construct_ptr@V?$allocator@U?$_Tree_node@U?$pair@$$CBVG4TypeKey@@P6APEAVG4VAttValueFilter@@XZ@std@@PEAX@std@@@std@@@std@@QEAA@XZ
	??1?$_Alloc_construct_ptr@V?$allocator@U?$_Tree_node@U?$pair@$$CBW4Charge@G4TrajectoryDrawByCharge@@VG4Colour@@@std@@PEAX@std@@@std@@@std@@QEAA@XZ
	??1?$_Bt_state_t@PEBD@std@@QEAA@XZ
	??1?$_Matcher@PEBDDV?$regex_traits@D@std@@PEBD@std@@QEAA@XZ
	??1?$_Parser@PEBDDV?$regex_traits@D@std@@@std@@QEAA@XZ
	??1?$_Tgt_state_t@PEBD@std@@QEAA@XZ
	??1?$_Tidy_guard@V?$_Builder@PEBDDV?$regex_traits@D@std@@@std@@@std@@QEAA@XZ
	??1?$_Tidy_guard@V?$vector@UFindings@G4PhysicalVolumesSearchScene@@V?$allocator@UFindings@G4PhysicalVolumesSearchScene@@@std@@@std@@@std@@QEAA@XZ
	??1?$_Tidy_guard@V?$vector@VPVNameCopyNo@G4ModelingParameters@@V?$allocator@VPVNameCopyNo@G4ModelingParameters@@@std@@@std@@@std@@QEAA@XZ
	??1?$_Tree_head_scoped_ptr@V?$allocator@U?$_Tree_node@U?$pair@$$CBVG4String@@PEAV?$G4THitsMap@VG4StatDouble@@@@@std@@PEAX@std@@@std@@V?$_Tree_val@U?$_Tree_simple_types@U?$pair@$$CBVG4String@@PEAV?$G4THitsMap@VG4StatDouble@@@@@std@@@std@@@2@@std@@QEAA@XZ
	??1?$_Tree_temp_node_alloc@V?$allocator@U?$_Tree_node@U?$pair@$$CBU?$pair@VG4String@@W4Config@G4TrajectoryDrawByAttribute@@@std@@PEAVG4VisTrajContext@@@std@@PEAX@std@@@std@@@std@@QEAA@XZ
	??1?$_Tree_temp_node_alloc@V?$allocator@U?$_Tree_node@U?$pair@$$CBVG4String@@H@std@@PEAX@std@@@std@@@std@@QEAA@XZ
	??1?$_Tree_temp_node_alloc@V?$allocator@U?$_Tree_node@U?$pair@$$CBVG4String@@N@std@@PEAX@std@@@std@@@std@@QEAA@XZ
	??1?$_Tree_temp_node_alloc@V?$allocator@U?$_Tree_node@U?$pair@$$CBVG4String@@U?$pair@HH@std@@@std@@PEAX@std@@@std@@@std@@QEAA@XZ
	??1?$_Tree_temp_node_alloc@V?$allocator@U?$_Tree_node@U?$pair@$$CBVG4String@@U?$pair@NN@std@@@std@@PEAX@std@@@std@@@std@@QEAA@XZ
	??1?$_Tree_temp_node_alloc@V?$allocator@U?$_Tree_node@U?$pair@$$CBVG4String@@U?$pair@V?$G4DimensionedType@NUG4ConversionFatalError@@@@V1@@std@@@std@@PEAX@std@@@std@@@std@@QEAA@XZ
	??1?$_Tree_temp_node_alloc@V?$allocator@U?$_Tree_node@U?$pair@$$CBVG4String@@U?$pair@V?$G4DimensionedType@VHep3Vector@CLHEP@@UG4ConversionFatalError@@@@V1@@std@@@std@@PEAX@std@@@std@@@std@@QEAA@XZ
	??1?$_Tree_temp_node_alloc@V?$allocator@U?$_Tree_node@U?$pair@$$CBVG4String@@U?$pair@VG4String@@V1@@std@@@std@@PEAX@std@@@std@@@std@@QEAA@XZ
	??1?$_Tree_temp_node_alloc@V?$allocator@U?$_Tree_node@U?$pair@$$CBVG4String@@U?$pair@VHep3Vector@CLHEP@@V12@@std@@@std@@PEAX@std@@@std@@@std@@QEAA@XZ
	??1?$_Tree_temp_node_alloc@V?$allocator@U?$_Tree_node@U?$pair@$$CBVG4String@@U?$pair@_N_N@std@@@std@@PEAX@std@@@std@@@std@@QEAA@XZ
	??1?$_Tree_temp_node_alloc@V?$allocator@U?$_Tree_node@U?$pair@$$CBVG4String@@V1@@std@@PEAX@std@@@std@@@std@@QEAA@XZ
	??1?$_Tree_temp_node_alloc@V?$allocator@U?$_Tree_node@U?$pair@$$CBVG4String@@V?$G4DimensionedType@NUG4ConversionFatalError@@@@@std@@PEAX@std@@@std@@@std@@QEAA@XZ
	??1?$_Tree_temp_node_alloc@V?$allocator@U?$_Tree_node@U?$pair@$$CBVG4String@@V?$G4DimensionedType@VHep3Vector@CLHEP@@UG4ConversionFatalError@@@@@std@@PEAX@std@@@std@@@std@@QEAA@XZ
	??1?$_Tree_temp_node_alloc@V?$allocator@U?$_Tree_node@U?$pair@$$CBVG4String@@VG4Colour@@@std@@PEAX@std@@@std@@@std@@QEAA@XZ
	??1?$_Tree_temp_node_alloc@V?$allocator@U?$_Tree_node@U?$pair@$$CBVG4String@@VHep3Vector@CLHEP@@@std@@PEAX@std@@@std@@@std@@QEAA@XZ
	??1?$_Tree_temp_node_alloc@V?$allocator@U?$_Tree_node@U?$pair@$$CBVG4String@@_N@std@@PEAX@std@@@std@@@std@@QEAA@XZ
	??1?$_Tree_temp_node_alloc@V?$allocator@U?$_Tree_node@U?$pair@$$CBW4Charge@G4TrajectoryDrawByCharge@@VG4Colour@@@std@@PEAX@std@@@std@@@std@@QEAA@XZ
	??1?$_Uninitialized_backout_al@V?$allocator@UFindings@G4PhysicalVolumesSearchScene@@@std@@@std@@QEAA@XZ
	??1?$_Uninitialized_backout_al@V?$allocator@Uyystype@G4UItokenNum@@@std@@@std@@QEAA@XZ
	??1?$_Uninitialized_backout_al@V?$allocator@VPVNameCopyNo@G4ModelingParameters@@@std@@@std@@QEAA@XZ
	??1?$_Uninitialized_backout_al@V?$allocator@VVisAttributesModifier@G4ModelingParameters@@@std@@@std@@QEAA@XZ
	??1?$_Vb_val@V?$allocator@_N@std@@@std@@QEAA@XZ
	??1?$basic_istringstream@DU?$char_traits@D@std@@V?$allocator@D@2@@std@@UEAA@XZ
	??1?$basic_ostringstream@DU?$char_traits@D@std@@V?$allocator@D@2@@std@@UEAA@XZ
	??1?$basic_regex@DV?$regex_traits@D@std@@@std@@QEAA@XZ
	??1?$basic_string@DU?$char_traits@D@std@@V?$allocator@D@2@@std@@QEAA@XZ
	??1?$basic_stringbuf@DU?$char_traits@D@std@@V?$allocator@D@2@@std@@UEAA@XZ
	??1?$map@VG4String@@PEAV?$G4THitsMap@VG4StatDouble@@@@U?$less@VG4String@@@std@@V?$allocator@U?$pair@$$CBVG4String@@PEAV?$G4THitsMap@VG4StatDouble@@@@@std@@@4@@std@@QEAA@XZ
	??1?$map@VG4String@@U?$pair@HH@std@@U?$less@VG4String@@@3@V?$allocator@U?$pair@$$CBVG4String@@U?$pair@HH@std@@@std@@@3@@std@@QEAA@XZ
	??1?$map@VG4String@@U?$pair@NN@std@@U?$less@VG4String@@@3@V?$allocator@U?$pair@$$CBVG4String@@U?$pair@NN@std@@@std@@@3@@std@@QEAA@XZ
	??1?$map@VG4String@@U?$pair@V?$G4DimensionedType@NUG4ConversionFatalError@@@@V1@@std@@U?$less@VG4String@@@3@V?$allocator@U?$pair@$$CBVG4String@@U?$pair@V?$G4DimensionedType@NUG4ConversionFatalError@@@@V1@@std@@@std@@@3@@std@@QEAA@XZ
	??1?$map@VG4String@@U?$pair@V?$G4DimensionedType@VHep3Vector@CLHEP@@UG4ConversionFatalError@@@@V1@@std@@U?$less@VG4String@@@3@V?$allocator@U?$pair@$$CBVG4String@@U?$pair@V?$G4DimensionedType@VHep3Vector@CLHEP@@UG4ConversionFatalError@@@@V1@@std@@@std@@@3@@std@@QEAA@XZ
	??1?$map@VG4String@@U?$pair@VG4String@@V1@@std@@U?$less@VG4String@@@3@V?$allocator@U?$pair@$$CBVG4String@@U?$pair@VG4String@@V1@@std@@@std@@@3@@std@@QEAA@XZ
	??1?$map@VG4String@@U?$pair@VHep3Vector@CLHEP@@V12@@std@@U?$less@VG4String@@@3@V?$allocator@U?$pair@$$CBVG4String@@U?$pair@VHep3Vector@CLHEP@@V12@@std@@@std@@@3@@std@@QEAA@XZ
	??1?$map@VG4String@@U?$pair@_N_N@std@@U?$less@VG4String@@@3@V?$allocator@U?$pair@$$CBVG4String@@U?$pair@_N_N@std@@@std@@@3@@std@@QEAA@XZ
	??1?$map@VG4String@@VG4AttDef@@U?$less@VG4String@@@std@@V?$allocator@U?$pair@$$CBVG4String@@VG4AttDef@@@std@@@4@@std@@QEAA@XZ
	??1?$match_results@PEBDV?$allocator@V?$sub_match@PEBD@std@@@std@@@std@@QEAA@XZ
	??1?$pair@$$CBVG4String@@U?$pair@V?$G4DimensionedType@NUG4ConversionFatalError@@@@V1@@std@@@std@@QEAA@XZ
	??1?$pair@$$CBVG4String@@U?$pair@V?$G4DimensionedType@VHep3Vector@CLHEP@@UG4ConversionFatalError@@@@V1@@std@@@std@@QEAA@XZ
	??1?$pair@$$CBVG4String@@U?$pair@VG4String@@V1@@std@@@std@@QEAA@XZ
	??1?$pair@$$CBVG4String@@V1@@std@@QEAA@XZ
	??1?$pair@$$CBVG4String@@V?$G4DimensionedType@NUG4ConversionFatalError@@@@@std@@QEAA@XZ
	??1?$pair@$$CBVG4String@@V?$G4DimensionedType@VHep3Vector@CLHEP@@UG4ConversionFatalError@@@@@std@@QEAA@XZ
	??1?$pair@$$CBVG4String@@VG4AttDef@@@std@@QEAA@XZ
	??1?$pair@V?$G4DimensionedType@NUG4ConversionFatalError@@@@V1@@std@@QEAA@XZ
	??1?$pair@V?$G4DimensionedType@VHep3Vector@CLHEP@@UG4ConversionFatalError@@@@V1@@std@@QEAA@XZ
	??1?$pair@VG4String@@V1@@std@@QEAA@XZ
	??1?$pair@VG4String@@W4Config@?$G4AttributeFilterT@VG4VDigi@@@@@std@@QEAA@XZ
	??1?$pair@VG4String@@W4Config@?$G4AttributeFilterT@VG4VHit@@@@@std@@QEAA@XZ
	??1?$pair@VG4String@@W4Config@?$G4AttributeFilterT@VG4VTrajectory@@@@@std@@QEAA@XZ
	??1?$pair@VG4String@@W4Config@G4TrajectoryDrawByAttribute@@@std@@QEAA@XZ
	??1?$pair@VG4TypeKey@@P6APEAVG4VAttValueFilter@@XZ@std@@QEAA@XZ
	??1?$regex_traits@D@std@@QEAA@XZ
	??1?$unique_ptr@V_Facet_base@std@@U?$default_delete@V_Facet_base@std@@@2@@std@@QEAA@XZ
	??1?$unique_ptr@V_Node_assert@std@@U?$default_delete@V_Node_assert@std@@@2@@std@@QEAA@XZ
	??1?$vector@DV?$allocator@D@std@@@std@@QEAA@XZ
	??1?$vector@NV?$allocator@N@std@@@std@@QEAA@XZ
	??1?$vector@PEAVG4UImessenger@@V?$allocator@PEAVG4UImessenger@@@std@@@std@@QEAA@XZ
	??1?$vector@U?$pair@VG4String@@W4Config@?$G4AttributeFilterT@VG4VDigi@@@@@std@@V?$allocator@U?$pair@VG4String@@W4Config@?$G4AttributeFilterT@VG4VDigi@@@@@std@@@2@@std@@QEAA@XZ
	??1?$vector@U?$pair@VG4String@@W4Config@?$G4AttributeFilterT@VG4VHit@@@@@std@@V?$allocator@U?$pair@VG4String@@W4Config@?$G4AttributeFilterT@VG4VHit@@@@@std@@@2@@std@@QEAA@XZ
	??1?$vector@U?$pair@VG4String@@W4Config@?$G4AttributeFilterT@VG4VTrajectory@@@@@std@@V?$allocator@U?$pair@VG4String@@W4Config@?$G4AttributeFilterT@VG4VTrajectory@@@@@std@@@2@@std@@QEAA@XZ
	??1?$vector@UFindings@G4PhysicalVolumesSearchScene@@V?$allocator@UFindings@G4PhysicalVolumesSearchScene@@@std@@@std@@QEAA@XZ
	??1?$vector@U_Loop_vals_t@std@@V?$allocator@U_Loop_vals_t@std@@@2@@std@@QEAA@XZ
	??1?$vector@V?$Point3D@N@HepGeom@@V?$allocator@V?$Point3D@N@HepGeom@@@std@@@std@@QEAA@XZ
	??1?$vector@V?$sub_match@PEBD@std@@V?$allocator@V?$sub_match@PEBD@std@@@2@@std@@QEAA@XZ
	??1?$vector@VG4AttValue@@V?$allocator@VG4AttValue@@@std@@@std@@QEAA@XZ
	??1?$vector@VG4PhysicalVolumeNodeID@G4PhysicalVolumeModel@@V?$allocator@VG4PhysicalVolumeNodeID@G4PhysicalVolumeModel@@@std@@@std@@QEAA@XZ
	??1?$vector@VG4String@@V?$allocator@VG4String@@@std@@@std@@QEAA@XZ
	??1?$vector@VHep3Vector@CLHEP@@V?$allocator@VHep3Vector@CLHEP@@@std@@@std@@QEAA@XZ
	??1?$vector@VPVNameCopyNo@G4ModelingParameters@@V?$allocator@VPVNameCopyNo@G4ModelingParameters@@@std@@@std@@QEAA@XZ
	??1?$vector@VVisAttributesModifier@G4ModelingParameters@@V?$allocator@VVisAttributesModifier@G4ModelingParameters@@@std@@@std@@QEAA@XZ
	??1?$vector@_NV?$allocator@_N@std@@@std@@QEAA@XZ
	??1Findings@G4PhysicalVolumesSearchScene@@QEAA@XZ
	??1G4ArrowModel@@UEAA@XZ
	??1G4AttDef@@UEAA@XZ
	??1G4AttValue@@QEAA@XZ
	??1G4AxesModel@@UEAA@XZ
	??1G4BoundingExtentScene@@UEAA@XZ
	??1G4BoundingSphereScene@@UEAA@XZ
	??1G4DigiAttributeFilterFactory@@UEAA@XZ
	??1G4DigiModel@@UEAA@XZ
	??1G4GPSModel@@UEAA@XZ
	??1G4HitAttributeFilterFactory@@UEAA@XZ
	??1G4HitsModel@@UEAA@XZ
	??1G4LogicalVolumeModel@@UEAA@XZ
	??1G4ModelingParameters@@QEAA@XZ
	??1G4NullModel@@UEAA@XZ
	??1G4PSHitsModel@@UEAA@XZ
	??1G4PhysicalVolumeMassScene@@UEAA@XZ
	??1G4PhysicalVolumeModel@@UEAA@XZ
	??1G4PhysicalVolumeModelTouchable@G4PhysicalVolumeModel@@UEAA@XZ
	??1G4PhysicalVolumeSearchScene@@UEAA@XZ
	??1G4PhysicalVolumesSearchScene@@UEAA@XZ
	??1G4PseudoScene@@UEAA@XZ
	??1G4ScaleModel@@UEAA@XZ
	??1G4String@@QEAA@XZ
	??1G4TextModel@@UEAA@XZ
	??1G4TouchablePropertiesScene@@UEAA@XZ
	??1G4TrajectoriesModel@@UEAA@XZ
	??1G4TrajectoryAttributeFilterFactory@@UEAA@XZ
	??1G4TrajectoryChargeFilter@@UEAA@XZ
	??1G4TrajectoryChargeFilterFactory@@UEAA@XZ
	??1G4TrajectoryDrawByAttribute@@UEAA@XZ
	??1G4TrajectoryDrawByAttributeFactory@@UEAA@XZ
	??1G4TrajectoryDrawByCharge@@UEAA@XZ
	??1G4TrajectoryDrawByChargeFactory@@UEAA@XZ
	??1G4TrajectoryDrawByEncounteredVolume@@UEAA@XZ
	??1G4TrajectoryDrawByEncounteredVolumeFactory@@UEAA@XZ
	??1G4TrajectoryDrawByOriginVolume@@UEAA@XZ
	??1G4TrajectoryDrawByOriginVolumeFactory@@UEAA@XZ
	??1G4TrajectoryDrawByParticleID@@UEAA@XZ
	??1G4TrajectoryDrawByParticleIDFactory@@UEAA@XZ
	??1G4TrajectoryEncounteredVolumeFilter@@UEAA@XZ
	??1G4TrajectoryEncounteredVolumeFilterFactory@@UEAA@XZ
	??1G4TrajectoryGenericDrawer@@UEAA@XZ
	??1G4TrajectoryGenericDrawerFactory@@UEAA@XZ
	??1G4TrajectoryOriginVolumeFilter@@UEAA@XZ
	??1G4TrajectoryOriginVolumeFilterFactory@@UEAA@XZ
	??1G4TrajectoryParticleFilter@@UEAA@XZ
	??1G4TrajectoryParticleFilterFactory@@UEAA@XZ
	??1G4TypeKey@@UEAA@XZ
	??1G4VAttValueFilter@@UEAA@XZ
	??1G4VFieldModel@@UEAA@XZ
	??1G4VModel@@UEAA@XZ
	??1G4VTrajectoryModel@@UEAA@XZ
	??1G4VisTrajContext@@UEAA@XZ
	??1Hep3Vector@CLHEP@@QEAA@XZ
	??1Matcher@G4PhysicalVolumesSearchScene@@QEAA@XZ
	??1PVNameCopyNo@G4ModelingParameters@@QEAA@XZ
	??1TouchableProperties@G4PhysicalVolumeModel@@QEAA@XZ
	??1_Node_base@std@@UEAA@XZ
	??1_Sentry_base@?$basic_istream@DU?$char_traits@D@std@@@std@@QEAA@XZ
	??1_Sentry_base@?$basic_ostream@DU?$char_traits@D@std@@@std@@QEAA@XZ
	??1bad_array_new_length@std@@UEAA@XZ
	??1bad_cast@std@@UEAA@XZ
	??1exception@std@@UEAA@XZ
	??1locale@std@@QEAA@XZ
	??1sentry@?$basic_istream@DU?$char_traits@D@std@@@std@@QEAA@XZ
	??1sentry@?$basic_ostream@DU?$char_traits@D@std@@@std@@QEAA@XZ
	??4?$G4DimensionedType@VHep3Vector@CLHEP@@UG4ConversionFatalError@@@@QEAAAEAV0@AEBV0@@Z
	??4?$_Tgt_state_t@PEBD@std@@QEAAAEAV01@AEBV01@@Z
	??4?$vector@_NV?$allocator@_N@std@@@std@@QEAAAEAV01@AEBV01@@Z
	??4G4AttDef@@QEAAAEAV0@AEBV0@@Z
	??4G4ModelingParameters@@QEAAAEAV0@AEBV0@@Z
	??6@YAAEAV?$basic_ostream@DU?$char_traits@D@std@@@std@@AEAV01@AEBV?$vector@VG4PhysicalVolumeNodeID@G4PhysicalVolumeModel@@V?$allocator@VG4PhysicalVolumeNodeID@G4PhysicalVolumeModel@@@std@@@1@@Z
	??6@YAAEAV?$basic_ostream@DU?$char_traits@D@std@@@std@@AEAV01@AEBV?$vector@VPVNameCopyNo@G4ModelingParameters@@V?$allocator@VPVNameCopyNo@G4ModelingParameters@@@std@@@1@@Z
	??6@YAAEAV?$basic_ostream@DU?$char_traits@D@std@@@std@@AEAV01@AEBV?$vector@VPVPointerCopyNo@G4ModelingParameters@@V?$allocator@VPVPointerCopyNo@G4ModelingParameters@@@std@@@1@@Z
	??6@YAAEAV?$basic_ostream@DU?$char_traits@D@std@@@std@@AEAV01@AEBV?$vector@VVisAttributesModifier@G4ModelingParameters@@V?$allocator@VVisAttributesModifier@G4ModelingParameters@@@std@@@1@@Z
	??6@YAAEAV?$basic_ostream@DU?$char_traits@D@std@@@std@@AEAV01@AEBVG4ModelingParameters@@@Z
	??6@YAAEAV?$basic_ostream@DU?$char_traits@D@std@@@std@@AEAV01@AEBVG4PhysicalVolumeNodeID@G4PhysicalVolumeModel@@@Z
	??6@YAAEAV?$basic_ostream@DU?$char_traits@D@std@@@std@@AEAV01@AEBVG4VModel@@@Z
	??8?$G4DimensionedType@NUG4ConversionFatalError@@@@QEBA_NAEBV0@@Z
	??8?$G4DimensionedType@VHep3Vector@CLHEP@@UG4ConversionFatalError@@@@QEBA_NAEBV0@@Z
	??9?$_Vb_const_iterator@U?$_Wrap_alloc@V?$allocator@I@std@@@std@@@std@@QEBA_NAEBV01@@Z
	??9G4ModelingParameters@@QEBA_NAEBV0@@Z
	??9PVNameCopyNo@G4ModelingParameters@@QEBA_NAEBV01@@Z
	??9PVPointerCopyNo@G4ModelingParameters@@QEBA_NAEBV01@@Z
	??9VisAttributesModifier@G4ModelingParameters@@QEBA_NAEBV01@@Z
	??A?$G4ModelColourMap@VG4String@@@@QEAAAEAVG4Colour@@AEBVG4String@@@Z
	??A?$G4ModelColourMap@W4Charge@G4TrajectoryDrawByCharge@@@@QEAAAEAVG4Colour@@AEBW4Charge@G4TrajectoryDrawByCharge@@@Z
	??A?$basic_string@DU?$char_traits@D@std@@V?$allocator@D@2@@std@@QEAAAEAD_K@Z
	??A?$map@U?$pair@VG4String@@W4Config@G4TrajectoryDrawByAttribute@@@std@@PEAVG4VisTrajContext@@U?$less@U?$pair@VG4String@@W4Config@G4TrajectoryDrawByAttribute@@@std@@@2@V?$allocator@U?$pair@$$CBU?$pair@VG4String@@W4Config@G4TrajectoryDrawByAttribute@@@std@@PEAVG4VisTrajContext@@@std@@@2@@std@@QEAAAEAPEAVG4VisTrajContext@@AEBU?$pair@VG4String@@W4Config@G4TrajectoryDrawByAttribute@@@1@@Z
	??A?$map@VG4String@@VG4AttDef@@U?$less@VG4String@@@std@@V?$allocator@U?$pair@$$CBVG4String@@VG4AttDef@@@std@@@4@@std@@QEAAAEAVG4AttDef@@$$QEAVG4String@@@Z
	??A?$map@VG4String@@VG4Colour@@U?$less@VG4String@@@std@@V?$allocator@U?$pair@$$CBVG4String@@VG4Colour@@@std@@@4@@std@@QEAAAEAVG4Colour@@AEBVG4String@@@Z
	??A?$map@W4Charge@G4TrajectoryDrawByCharge@@VG4Colour@@U?$less@W4Charge@G4TrajectoryDrawByCharge@@@std@@V?$allocator@U?$pair@$$CBW4Charge@G4TrajectoryDrawByCharge@@VG4Colour@@@std@@@5@@std@@QEAAAEAVG4Colour@@AEBW4Charge@G4TrajectoryDrawByCharge@@@Z
	??H?$_Vb_iterator@U?$_Wrap_alloc@V?$allocator@I@std@@@std@@@std@@QEBA?AV01@_J@Z
	??M?$G4DimensionedType@NUG4ConversionFatalError@@@@QEBA_NAEBV0@@Z
	??M?$G4DimensionedType@VHep3Vector@CLHEP@@UG4ConversionFatalError@@@@QEBA_NAEBV0@@Z
	??MG4PhysicalVolumeNodeID@G4PhysicalVolumeModel@@QEBA_NAEBV01@@Z
	??O?$G4DimensionedType@NUG4ConversionFatalError@@@@QEBA_NAEBV0@@Z
	??O?$G4DimensionedType@VHep3Vector@CLHEP@@UG4ConversionFatalError@@@@QEBA_NAEBV0@@Z
	??R?$less@U?$pair@VG4String@@W4Config@G4TrajectoryDrawByAttribute@@@std@@@std@@QEBA_NAEBU?$pair@VG4String@@W4Config@G4TrajectoryDrawByAttribute@@@1@0@Z
	??R?$less@VG4String@@@std@@QEBA_NAEBVG4String@@0@Z
	??_D?$basic_istringstream@DU?$char_traits@D@std@@V?$allocator@D@2@@std@@QEAAXXZ
	??_D?$basic_ostringstream@DU?$char_traits@D@std@@V?$allocator@D@2@@std@@QEAAXXZ
	?Accept@?$G4AttValueFilterT@HUG4ConversionFatalError@@@@UEBA_NAEBVG4AttValue@@@Z
	?Accept@?$G4AttValueFilterT@NUG4ConversionFatalError@@@@UEBA_NAEBVG4AttValue@@@Z
	?Accept@?$G4AttValueFilterT@V?$G4DimensionedType@NUG4ConversionFatalError@@@@UG4ConversionFatalError@@@@UEBA_NAEBVG4AttValue@@@Z
	?Accept@?$G4AttValueFilterT@V?$G4DimensionedType@VHep3Vector@CLHEP@@UG4ConversionFatalError@@@@UG4ConversionFatalError@@@@UEBA_NAEBVG4AttValue@@@Z
	?Accept@?$G4AttValueFilterT@VG4String@@UG4ConversionFatalError@@@@UEBA_NAEBVG4AttValue@@@Z
	?Accept@?$G4AttValueFilterT@VHep3Vector@CLHEP@@UG4ConversionFatalError@@@@UEBA_NAEBVG4AttValue@@@Z
	?Accept@?$G4AttValueFilterT@_NUG4ConversionFatalError@@@@UEBA_NAEBVG4AttValue@@@Z
	?Accept@?$G4SmartFilter@VG4VDigi@@@@UEBA_NAEBVG4VDigi@@@Z
	?Accept@?$G4SmartFilter@VG4VHit@@@@UEBA_NAEBVG4VHit@@@Z
	?Accept@?$G4SmartFilter@VG4VTrajectory@@@@UEBA_NAEBVG4VTrajectory@@@Z
	?AccrueBoundingExtent@G4BoundingExtentScene@@QEAAXAEBVG4VisExtent@@@Z
	?AccrueBoundingSphere@G4BoundingSphereScene@@QEAAXAEBV?$Point3D@N@HepGeom@@N@Z
	?Add@G4TrajectoryChargeFilter@@AEAAXAEBW4MyCharge@1@@Z
	?Add@G4TrajectoryChargeFilter@@QEAAXAEBVG4String@@@Z
	?Add@G4TrajectoryEncounteredVolumeFilter@@QEAAXAEBVG4String@@@Z
	?Add@G4TrajectoryOriginVolumeFilter@@QEAAXAEBVG4String@@@Z
	?Add@G4TrajectoryParticleFilter@@QEAAXAEBVG4String@@@Z
	?AddCompound@G4PseudoScene@@UEAAXAEBV?$G4THitsMap@N@@@Z
	?AddCompound@G4PseudoScene@@UEAAXAEBV?$G4THitsMap@VG4StatDouble@@@@@Z
	?AddCompound@G4PseudoScene@@UEAAXAEBVG4VDigi@@@Z
	?AddCompound@G4PseudoScene@@UEAAXAEBVG4VHit@@@Z
	?AddCompound@G4PseudoScene@@UEAAXAEBVG4VTrajectory@@@Z
	?AddContextMsgrs@G4ModelCommandUtils@@YAXPEAVG4VisTrajContext@@AEAV?$vector@PEAVG4UImessenger@@V?$allocator@PEAVG4UImessenger@@@std@@@std@@AEBVG4String@@@Z
	?AddInterval@?$G4AttributeFilterT@VG4VDigi@@@@QEAAXAEBVG4String@@@Z
	?AddInterval@?$G4AttributeFilterT@VG4VHit@@@@QEAAXAEBVG4String@@@Z
	?AddInterval@?$G4AttributeFilterT@VG4VTrajectory@@@@QEAAXAEBVG4String@@@Z
	?AddIntervalContext@G4TrajectoryDrawByAttribute@@QEAAXAEBVG4String@@PEAVG4VisTrajContext@@@Z
	?AddPrimitive@G4PseudoScene@@UEAAXAEBVG4Circle@@@Z
	?AddPrimitive@G4PseudoScene@@UEAAXAEBVG4Polyhedron@@@Z
	?AddPrimitive@G4PseudoScene@@UEAAXAEBVG4Polyline@@@Z
	?AddPrimitive@G4PseudoScene@@UEAAXAEBVG4Polymarker@@@Z
	?AddPrimitive@G4PseudoScene@@UEAAXAEBVG4Scale@@@Z
	?AddPrimitive@G4PseudoScene@@UEAAXAEBVG4Square@@@Z
	?AddPrimitive@G4PseudoScene@@UEAAXAEBVG4Text@@@Z
	?AddSolid@G4PseudoScene@@UEAAXAEBVG4Box@@@Z
	?AddSolid@G4PseudoScene@@UEAAXAEBVG4Cons@@@Z
	?AddSolid@G4PseudoScene@@UEAAXAEBVG4Ellipsoid@@@Z
	?AddSolid@G4PseudoScene@@UEAAXAEBVG4Orb@@@Z
	?AddSolid@G4PseudoScene@@UEAAXAEBVG4Para@@@Z
	?AddSolid@G4PseudoScene@@UEAAXAEBVG4Polycone@@@Z
	?AddSolid@G4PseudoScene@@UEAAXAEBVG4Polyhedra@@@Z
	?AddSolid@G4PseudoScene@@UEAAXAEBVG4Sphere@@@Z
	?AddSolid@G4PseudoScene@@UEAAXAEBVG4TessellatedSolid@@@Z
	?AddSolid@G4PseudoScene@@UEAAXAEBVG4Torus@@@Z
	?AddSolid@G4PseudoScene@@UEAAXAEBVG4Trap@@@Z
	?AddSolid@G4PseudoScene@@UEAAXAEBVG4Trd@@@Z
	?AddSolid@G4PseudoScene@@UEAAXAEBVG4Tubs@@@Z
	?AddSolid@G4PseudoScene@@UEAAXAEBVG4VSolid@@@Z
	?AddValue@?$G4AttributeFilterT@VG4VDigi@@@@QEAAXAEBVG4String@@@Z
	?AddValue@?$G4AttributeFilterT@VG4VHit@@@@QEAAXAEBVG4String@@@Z
	?AddValue@?$G4AttributeFilterT@VG4VTrajectory@@@@QEAAXAEBVG4String@@@Z
	?AddValueContext@G4TrajectoryDrawByAttribute@@QEAAXAEBVG4String@@PEAVG4VisTrajContext@@@Z
	?Apply@?$G4ModelCmdActive@V?$G4AttributeFilterT@VG4VDigi@@@@@@MEAAXAEB_N@Z
	?Apply@?$G4ModelCmdActive@V?$G4AttributeFilterT@VG4VHit@@@@@@MEAAXAEB_N@Z
	?Apply@?$G4ModelCmdActive@V?$G4AttributeFilterT@VG4VTrajectory@@@@@@MEAAXAEB_N@Z
	?Apply@?$G4ModelCmdActive@VG4TrajectoryChargeFilter@@@@MEAAXAEB_N@Z
	?Apply@?$G4ModelCmdActive@VG4TrajectoryEncounteredVolumeFilter@@@@MEAAXAEB_N@Z
	?Apply@?$G4ModelCmdActive@VG4TrajectoryOriginVolumeFilter@@@@MEAAXAEB_N@Z
	?Apply@?$G4ModelCmdActive@VG4TrajectoryParticleFilter@@@@MEAAXAEB_N@Z
	?Apply@?$G4ModelCmdAddInterval@V?$G4AttributeFilterT@VG4VDigi@@@@@@MEAAXAEBVG4String@@@Z
	?Apply@?$G4ModelCmdAddInterval@V?$G4AttributeFilterT@VG4VHit@@@@@@MEAAXAEBVG4String@@@Z
	?Apply@?$G4ModelCmdAddInterval@V?$G4AttributeFilterT@VG4VTrajectory@@@@@@MEAAXAEBVG4String@@@Z
	?Apply@?$G4ModelCmdAddIntervalContext@VG4TrajectoryDrawByAttribute@@@@MEAAXAEBVG4String@@@Z
	?Apply@?$G4ModelCmdAddString@VG4TrajectoryChargeFilter@@@@MEAAXAEBVG4String@@@Z
	?Apply@?$G4ModelCmdAddString@VG4TrajectoryEncounteredVolumeFilter@@@@MEAAXAEBVG4String@@@Z
	?Apply@?$G4ModelCmdAddString@VG4TrajectoryOriginVolumeFilter@@@@MEAAXAEBVG4String@@@Z
	?Apply@?$G4ModelCmdAddString@VG4TrajectoryParticleFilter@@@@MEAAXAEBVG4String@@@Z
	?Apply@?$G4ModelCmdAddValue@V?$G4AttributeFilterT@VG4VDigi@@@@@@MEAAXAEBVG4String@@@Z
	?Apply@?$G4ModelCmdAddValue@V?$G4AttributeFilterT@VG4VHit@@@@@@MEAAXAEBVG4String@@@Z
	?Apply@?$G4ModelCmdAddValue@V?$G4AttributeFilterT@VG4VTrajectory@@@@@@MEAAXAEBVG4String@@@Z
	?Apply@?$G4ModelCmdAddValueContext@VG4TrajectoryDrawByAttribute@@@@MEAAXAEBVG4String@@@Z
	?Apply@?$G4ModelCmdInvert@V?$G4AttributeFilterT@VG4VDigi@@@@@@MEAAXAEB_N@Z
	?Apply@?$G4ModelCmdInvert@V?$G4AttributeFilterT@VG4VHit@@@@@@MEAAXAEB_N@Z
	?Apply@?$G4ModelCmdInvert@V?$G4AttributeFilterT@VG4VTrajectory@@@@@@MEAAXAEB_N@Z
	?Apply@?$G4ModelCmdInvert@VG4TrajectoryChargeFilter@@@@MEAAXAEB_N@Z
	?Apply@?$G4ModelCmdInvert@VG4TrajectoryEncounteredVolumeFilter@@@@MEAAXAEB_N@Z
	?Apply@?$G4ModelCmdInvert@VG4TrajectoryOriginVolumeFilter@@@@MEAAXAEB_N@Z
	?Apply@?$G4ModelCmdInvert@VG4TrajectoryParticleFilter@@@@MEAAXAEB_N@Z
	?Apply@?$G4ModelCmdReset@V?$G4AttributeFilterT@VG4VDigi@@@@@@MEAAXXZ
	?Apply@?$G4ModelCmdReset@V?$G4AttributeFilterT@VG4VHit@@@@@@MEAAXXZ
	?Apply@?$G4ModelCmdReset@V?$G4AttributeFilterT@VG4VTrajectory@@@@@@MEAAXXZ
	?Apply@?$G4ModelCmdReset@VG4TrajectoryChargeFilter@@@@MEAAXXZ
	?Apply@?$G4ModelCmdReset@VG4TrajectoryEncounteredVolumeFilter@@@@MEAAXXZ
	?Apply@?$G4ModelCmdReset@VG4TrajectoryOriginVolumeFilter@@@@MEAAXXZ
	?Apply@?$G4ModelCmdReset@VG4TrajectoryParticleFilter@@@@MEAAXXZ
	?Apply@?$G4ModelCmdSetAuxPtsColour@VG4VisTrajContext@@@@MEAAXAEBVG4Colour@@@Z
	?Apply@?$G4ModelCmdSetAuxPtsFillStyle@VG4VisTrajContext@@@@MEAAXAEBVG4String@@@Z
	?Apply@?$G4ModelCmdSetAuxPtsSize@VG4VisTrajContext@@@@MEAAXAEBVG4String@@@Z
	?Apply@?$G4ModelCmdSetAuxPtsSizeType@VG4VisTrajContext@@@@MEAAXAEBVG4String@@@Z
	?Apply@?$G4ModelCmdSetAuxPtsType@VG4VisTrajContext@@@@MEAAXAEBVG4String@@@Z
	?Apply@?$G4ModelCmdSetAuxPtsVisible@VG4VisTrajContext@@@@MEAAXAEB_N@Z
	?Apply@?$G4ModelCmdSetDefaultColour@VG4TrajectoryDrawByEncounteredVolume@@@@MEAAXAEBVG4Colour@@@Z
	?Apply@?$G4ModelCmdSetDefaultColour@VG4TrajectoryDrawByOriginVolume@@@@MEAAXAEBVG4Colour@@@Z
	?Apply@?$G4ModelCmdSetDefaultColour@VG4TrajectoryDrawByParticleID@@@@MEAAXAEBVG4Colour@@@Z
	?Apply@?$G4ModelCmdSetDrawAuxPts@VG4VisTrajContext@@@@MEAAXAEB_N@Z
	?Apply@?$G4ModelCmdSetDrawLine@VG4VisTrajContext@@@@MEAAXAEB_N@Z
	?Apply@?$G4ModelCmdSetDrawStepPts@VG4VisTrajContext@@@@MEAAXAEB_N@Z
	?Apply@?$G4ModelCmdSetLineColour@VG4VisTrajContext@@@@MEAAXAEBVG4Colour@@@Z
	?Apply@?$G4ModelCmdSetLineVisible@VG4VisTrajContext@@@@MEAAXAEB_N@Z
	?Apply@?$G4ModelCmdSetLineWidth@VG4VisTrajContext@@@@MEAAXAEBN@Z
	?Apply@?$G4ModelCmdSetStepPtsColour@VG4VisTrajContext@@@@MEAAXAEBVG4Colour@@@Z
	?Apply@?$G4ModelCmdSetStepPtsFillStyle@VG4VisTrajContext@@@@MEAAXAEBVG4String@@@Z
	?Apply@?$G4ModelCmdSetStepPtsSize@VG4VisTrajContext@@@@MEAAXAEBVG4String@@@Z
	?Apply@?$G4ModelCmdSetStepPtsSizeType@VG4VisTrajContext@@@@MEAAXAEBVG4String@@@Z
	?Apply@?$G4ModelCmdSetStepPtsType@VG4VisTrajContext@@@@MEAAXAEBVG4String@@@Z
	?Apply@?$G4ModelCmdSetStepPtsVisible@VG4VisTrajContext@@@@MEAAXAEB_N@Z
	?Apply@?$G4ModelCmdSetString@V?$G4AttributeFilterT@VG4VDigi@@@@@@MEAAXAEBVG4String@@@Z
	?Apply@?$G4ModelCmdSetString@V?$G4AttributeFilterT@VG4VHit@@@@@@MEAAXAEBVG4String@@@Z
	?Apply@?$G4ModelCmdSetString@V?$G4AttributeFilterT@VG4VTrajectory@@@@@@MEAAXAEBVG4String@@@Z
	?Apply@?$G4ModelCmdSetString@VG4TrajectoryDrawByAttribute@@@@MEAAXAEBVG4String@@@Z
	?Apply@?$G4ModelCmdSetStringColour@VG4TrajectoryDrawByCharge@@@@MEAAXAEBVG4String@@AEBVG4Colour@@@Z
	?Apply@?$G4ModelCmdSetStringColour@VG4TrajectoryDrawByEncounteredVolume@@@@MEAAXAEBVG4String@@AEBVG4Colour@@@Z
	?Apply@?$G4ModelCmdSetStringColour@VG4TrajectoryDrawByOriginVolume@@@@MEAAXAEBVG4String@@AEBVG4Colour@@@Z
	?Apply@?$G4ModelCmdSetStringColour@VG4TrajectoryDrawByParticleID@@@@MEAAXAEBVG4String@@AEBVG4Colour@@@Z
	?Apply@?$G4ModelCmdSetTimeSliceInterval@VG4VisTrajContext@@@@MEAAXAEBN@Z
	?Apply@?$G4ModelCmdVerbose@V?$G4AttributeFilterT@VG4VDigi@@@@@@MEAAXAEB_N@Z
	?Apply@?$G4ModelCmdVerbose@V?$G4AttributeFilterT@VG4VHit@@@@@@MEAAXAEB_N@Z
	?Apply@?$G4ModelCmdVerbose@V?$G4AttributeFilterT@VG4VTrajectory@@@@@@MEAAXAEB_N@Z
	?Apply@?$G4ModelCmdVerbose@VG4TrajectoryChargeFilter@@@@MEAAXAEB_N@Z
	?Apply@?$G4ModelCmdVerbose@VG4TrajectoryDrawByAttribute@@@@MEAAXAEB_N@Z
	?Apply@?$G4ModelCmdVerbose@VG4TrajectoryDrawByCharge@@@@MEAAXAEB_N@Z
	?Apply@?$G4ModelCmdVerbose@VG4TrajectoryDrawByEncounteredVolume@@@@MEAAXAEB_N@Z
	?Apply@?$G4ModelCmdVerbose@VG4TrajectoryDrawByOriginVolume@@@@MEAAXAEB_N@Z
	?Apply@?$G4ModelCmdVerbose@VG4TrajectoryDrawByParticleID@@@@MEAAXAEB_N@Z
	?Apply@?$G4ModelCmdVerbose@VG4TrajectoryEncounteredVolumeFilter@@@@MEAAXAEB_N@Z
	?Apply@?$G4ModelCmdVerbose@VG4TrajectoryGenericDrawer@@@@MEAAXAEB_N@Z
	?Apply@?$G4ModelCmdVerbose@VG4TrajectoryOriginVolumeFilter@@@@MEAAXAEB_N@Z
	?Apply@?$G4ModelCmdVerbose@VG4TrajectoryParticleFilter@@@@MEAAXAEB_N@Z
	?BeginPrimitives2D@G4PseudoScene@@UEAAXAEBVTransform3D@HepGeom@@@Z
	?BeginPrimitives@G4PseudoScene@@UEAAXAEBVTransform3D@HepGeom@@@Z
	?CalculateExtent@G4PhysicalVolumeModel@@IEAAXXZ
	?Clear@?$G4AttributeFilterT@VG4VDigi@@@@UEAAXXZ
	?Clear@?$G4AttributeFilterT@VG4VHit@@@@UEAAXXZ
	?Clear@?$G4AttributeFilterT@VG4VTrajectory@@@@UEAAXXZ
	?Clear@G4TrajectoryChargeFilter@@UEAAXXZ
	?Clear@G4TrajectoryEncounteredVolumeFilter@@UEAAXXZ
	?Clear@G4TrajectoryOriginVolumeFilter@@UEAAXXZ
	?Clear@G4TrajectoryParticleFilter@@UEAAXXZ
	?ConvertToCharge@G4TrajectoryChargeFilter@@AEAA_NAEBVG4String@@AEAW4MyCharge@1@@Z
	?ConvertToCharge@G4TrajectoryDrawByCharge@@AEAA_NAEBVG4String@@AEAW4Charge@1@@Z
	?Create@?$G4CreatorFactoryT@VG4VAttValueFilter@@VG4TypeKey@@P6APEAV1@XZ@@QEBAPEAVG4VAttValueFilter@@AEBVG4TypeKey@@@Z
	?Create@G4DigiAttributeFilterFactory@@UEAA?AU?$pair@PEAV?$G4VFilter@VG4VDigi@@@@V?$vector@PEAVG4UImessenger@@V?$allocator@PEAVG4UImessenger@@@std@@@std@@@std@@AEBVG4String@@0@Z
	?Create@G4HitAttributeFilterFactory@@UEAA?AU?$pair@PEAV?$G4VFilter@VG4VHit@@@@V?$vector@PEAVG4UImessenger@@V?$allocator@PEAVG4UImessenger@@@std@@@std@@@std@@AEBVG4String@@0@Z
	?Create@G4TrajectoryAttributeFilterFactory@@UEAA?AU?$pair@PEAV?$G4VFilter@VG4VTrajectory@@@@V?$vector@PEAVG4UImessenger@@V?$allocator@PEAVG4UImessenger@@@std@@@std@@@std@@AEBVG4String@@0@Z
	?Create@G4TrajectoryChargeFilterFactory@@UEAA?AU?$pair@PEAV?$G4VFilter@VG4VTrajectory@@@@V?$vector@PEAVG4UImessenger@@V?$allocator@PEAVG4UImessenger@@@std@@@std@@@std@@AEBVG4String@@0@Z
	?Create@G4TrajectoryDrawByAttributeFactory@@UEAA?AU?$pair@PEAVG4VTrajectoryModel@@V?$vector@PEAVG4UImessenger@@V?$allocator@PEAVG4UImessenger@@@std@@@std@@@std@@AEBVG4String@@0@Z
	?Create@G4TrajectoryDrawByChargeFactory@@UEAA?AU?$pair@PEAVG4VTrajectoryModel@@V?$vector@PEAVG4UImessenger@@V?$allocator@PEAVG4UImessenger@@@std@@@std@@@std@@AEBVG4String@@0@Z
	?Create@G4TrajectoryDrawByEncounteredVolumeFactory@@UEAA?AU?$pair@PEAVG4VTrajectoryModel@@V?$vector@PEAVG4UImessenger@@V?$allocator@PEAVG4UImessenger@@@std@@@std@@@std@@AEBVG4String@@0@Z
	?Create@G4TrajectoryDrawByOriginVolumeFactory@@UEAA?AU?$pair@PEAVG4VTrajectoryModel@@V?$vector@PEAVG4UImessenger@@V?$allocator@PEAVG4UImessenger@@@std@@@std@@@std@@AEBVG4String@@0@Z
	?Create@G4TrajectoryDrawByParticleIDFactory@@UEAA?AU?$pair@PEAVG4VTrajectoryModel@@V?$vector@PEAVG4UImessenger@@V?$allocator@PEAVG4UImessenger@@@std@@@std@@@std@@AEBVG4String@@0@Z
	?Create@G4TrajectoryEncounteredVolumeFilterFactory@@UEAA?AU?$pair@PEAV?$G4VFilter@VG4VTrajectory@@@@V?$vector@PEAVG4UImessenger@@V?$allocator@PEAVG4UImessenger@@@std@@@std@@@std@@AEBVG4String@@0@Z
	?Create@G4TrajectoryGenericDrawerFactory@@UEAA?AU?$pair@PEAVG4VTrajectoryModel@@V?$vector@PEAVG4UImessenger@@V?$allocator@PEAVG4UImessenger@@@std@@@std@@@std@@AEBVG4String@@0@Z
	?Create@G4TrajectoryOriginVolumeFilterFactory@@UEAA?AU?$pair@PEAV?$G4VFilter@VG4VTrajectory@@@@V?$vector@PEAVG4UImessenger@@V?$allocator@PEAVG4UImessenger@@@std@@@std@@@std@@AEBVG4String@@0@Z
	?Create@G4TrajectoryParticleFilterFactory@@UEAA?AU?$pair@PEAV?$G4VFilter@VG4VTrajectory@@@@V?$vector@PEAVG4UImessenger@@V?$allocator@PEAVG4UImessenger@@@std@@@std@@@std@@AEBVG4String@@0@Z
	?CreateCurrentAttValues@G4PhysicalVolumeModel@@QEBAPEAV?$vector@VG4AttValue@@V?$allocator@VG4AttValue@@@std@@@std@@XZ
	?CreateCurrentAttValues@G4TrajectoriesModel@@QEBAPEAV?$vector@VG4AttValue@@V?$allocator@VG4AttValue@@@std@@@std@@XZ
	?DescribeAndDescend@G4PhysicalVolumeModel@@IEAAXPEAVG4VPhysicalVolume@@HPEAVG4LogicalVolume@@PEAVG4VSolid@@PEAVG4Material@@AEBVTransform3D@HepGeom@@AEAVG4VGraphicsScene@@@Z
	?DescribeSolid@G4LogicalVolumeModel@@MEAAXAEBVTransform3D@HepGeom@@PEAVG4VSolid@@PEBVG4VisAttributes@@AEAVG4VGraphicsScene@@@Z
	?DescribeSolid@G4PhysicalVolumeModel@@MEAAXAEBVTransform3D@HepGeom@@PEAVG4VSolid@@PEBVG4VisAttributes@@AEAVG4VGraphicsScene@@@Z
	?DescribeYourselfTo@G4ArrowModel@@UEAAXAEAVG4VGraphicsScene@@@Z
	?DescribeYourselfTo@G4AxesModel@@UEAAXAEAVG4VGraphicsScene@@@Z
	?DescribeYourselfTo@G4DigiModel@@UEAAXAEAVG4VGraphicsScene@@@Z
	?DescribeYourselfTo@G4GPSModel@@UEAAXAEAVG4VGraphicsScene@@@Z
	?DescribeYourselfTo@G4HitsModel@@UEAAXAEAVG4VGraphicsScene@@@Z
	?DescribeYourselfTo@G4LogicalVolumeModel@@UEAAXAEAVG4VGraphicsScene@@@Z
	?DescribeYourselfTo@G4NullModel@@UEAAXAEAVG4VGraphicsScene@@@Z
	?DescribeYourselfTo@G4PSHitsModel@@UEAAXAEAVG4VGraphicsScene@@@Z
	?DescribeYourselfTo@G4PhysicalVolumeModel@@UEAAXAEAVG4VGraphicsScene@@@Z
	?DescribeYourselfTo@G4ScaleModel@@UEAAXAEAVG4VGraphicsScene@@@Z
	?DescribeYourselfTo@G4TextModel@@UEAAXAEAVG4VGraphicsScene@@@Z
	?DescribeYourselfTo@G4TrajectoriesModel@@UEAAXAEAVG4VGraphicsScene@@@Z
	?DescribeYourselfTo@G4VFieldModel@@UEAAXAEAVG4VGraphicsScene@@@Z
	?Draw@G4TrajectoryDrawByAttribute@@UEBAXAEBVG4VTrajectory@@AEB_N@Z
	?Draw@G4TrajectoryDrawByCharge@@UEBAXAEBVG4VTrajectory@@AEB_N@Z
	?Draw@G4TrajectoryDrawByEncounteredVolume@@UEBAXAEBVG4VTrajectory@@AEB_N@Z
	?Draw@G4TrajectoryDrawByOriginVolume@@UEBAXAEBVG4VTrajectory@@AEB_N@Z
	?Draw@G4TrajectoryDrawByParticleID@@UEBAXAEBVG4VTrajectory@@AEB_N@Z
	?Draw@G4TrajectoryGenericDrawer@@UEBAXAEBVG4VTrajectory@@AEB_N@Z
	?DrawLineAndPoints@G4TrajectoryDrawerUtils@@YAXAEBVG4VTrajectory@@AEBVG4VisTrajContext@@@Z
	?EndPrimitives2D@G4PseudoScene@@UEAAXXZ
	?EndPrimitives@G4PseudoScene@@UEAAXXZ
	?Evaluate@?$G4AttributeFilterT@VG4VDigi@@@@UEBA_NAEBVG4VDigi@@@Z
	?Evaluate@?$G4AttributeFilterT@VG4VHit@@@@UEBA_NAEBVG4VHit@@@Z
	?Evaluate@?$G4AttributeFilterT@VG4VTrajectory@@@@UEBA_NAEBVG4VTrajectory@@@Z
	?Evaluate@G4TrajectoryChargeFilter@@UEBA_NAEBVG4VTrajectory@@@Z
	?Evaluate@G4TrajectoryEncounteredVolumeFilter@@UEBA_NAEBVG4VTrajectory@@@Z
	?Evaluate@G4TrajectoryOriginVolumeFilter@@UEBA_NAEBVG4VTrajectory@@@Z
	?Evaluate@G4TrajectoryParticleFilter@@UEBA_NAEBVG4VTrajectory@@@Z
	?FindTouchableProperties@G4TouchableUtils@@YA?AUTouchableProperties@G4PhysicalVolumeModel@@V?$vector@VPVNameCopyNo@G4ModelingParameters@@V?$allocator@VPVNameCopyNo@G4ModelingParameters@@@std@@@std@@@Z
	?G4TrajectoriesModelDebugG4AttValues@@YAXPEBVG4VTrajectory@@@Z
	?GetAttDefs@G4PhysicalVolumeModel@@QEBAPEBV?$map@VG4String@@VG4AttDef@@U?$less@VG4String@@@std@@V?$allocator@U?$pair@$$CBVG4String@@VG4AttDef@@@std@@@4@@std@@XZ
	?GetAttDefs@G4TrajectoriesModel@@QEBAPEBV?$map@VG4String@@VG4AttDef@@U?$less@VG4String@@@std@@V?$allocator@U?$pair@$$CBVG4String@@VG4AttDef@@@std@@@4@@std@@XZ
	?GetAttValueFilterFactory@G4AttFilterUtils@@YAPEAV?$G4CreatorFactoryT@VG4VAttValueFilter@@VG4TypeKey@@P6APEAV1@XZ@@XZ
	?GetBasicMap@?$G4ModelColourMap@VG4String@@@@QEBAAEBV?$map@VG4String@@VG4Colour@@U?$less@VG4String@@@std@@V?$allocator@U?$pair@$$CBVG4String@@VG4Colour@@@std@@@4@@std@@XZ
	?GetBoundingSphereExtent@G4BoundingSphereScene@@QEAA?AVG4VisExtent@@XZ
	?GetColour@?$G4ModelColourMap@VG4String@@@@QEBA_NAEBVG4String@@AEAVG4Colour@@@Z
	?GetColour@?$G4ModelColourMap@W4Charge@G4TrajectoryDrawByCharge@@@@QEBA_NAEBW4Charge@G4TrajectoryDrawByCharge@@AEAVG4Colour@@@Z
	?GetContext@G4VTrajectoryModel@@QEBAAEBVG4VisTrajContext@@XZ
	?GetCurrentDescription@G4GPSModel@@UEBA?AVG4String@@XZ
	?GetCurrentDescription@G4PhysicalVolumeModel@@UEBA?AVG4String@@XZ
	?GetCurrentDescription@G4VModel@@UEBA?AVG4String@@XZ
	?GetCurrentTag@G4GPSModel@@UEBA?AVG4String@@XZ
	?GetCurrentTag@G4PhysicalVolumeModel@@UEBA?AVG4String@@XZ
	?GetCurrentTag@G4VModel@@UEBA?AVG4String@@XZ
	?GetCurrentValue@?$G4VModelCommand@V?$G4AttributeFilterT@VG4VDigi@@@@@@UEAA?AVG4String@@PEAVG4UIcommand@@@Z
	?GetCurrentValue@?$G4VModelCommand@V?$G4AttributeFilterT@VG4VHit@@@@@@UEAA?AVG4String@@PEAVG4UIcommand@@@Z
	?GetCurrentValue@?$G4VModelCommand@V?$G4AttributeFilterT@VG4VTrajectory@@@@@@UEAA?AVG4String@@PEAVG4UIcommand@@@Z
	?GetCurrentValue@?$G4VModelCommand@VG4TrajectoryChargeFilter@@@@UEAA?AVG4String@@PEAVG4UIcommand@@@Z
	?GetCurrentValue@?$G4VModelCommand@VG4TrajectoryDrawByAttribute@@@@UEAA?AVG4String@@PEAVG4UIcommand@@@Z
	?GetCurrentValue@?$G4VModelCommand@VG4TrajectoryDrawByCharge@@@@UEAA?AVG4String@@PEAVG4UIcommand@@@Z
	?GetCurrentValue@?$G4VModelCommand@VG4TrajectoryDrawByEncounteredVolume@@@@UEAA?AVG4String@@PEAVG4UIcommand@@@Z
	?GetCurrentValue@?$G4VModelCommand@VG4TrajectoryDrawByOriginVolume@@@@UEAA?AVG4String@@PEAVG4UIcommand@@@Z
	?GetCurrentValue@?$G4VModelCommand@VG4TrajectoryDrawByParticleID@@@@UEAA?AVG4String@@PEAVG4UIcommand@@@Z
	?GetCurrentValue@?$G4VModelCommand@VG4TrajectoryEncounteredVolumeFilter@@@@UEAA?AVG4String@@PEAVG4UIcommand@@@Z
	?GetCurrentValue@?$G4VModelCommand@VG4TrajectoryGenericDrawer@@@@UEAA?AVG4String@@PEAVG4UIcommand@@@Z
	?GetCurrentValue@?$G4VModelCommand@VG4TrajectoryOriginVolumeFilter@@@@UEAA?AVG4String@@PEAVG4UIcommand@@@Z
	?GetCurrentValue@?$G4VModelCommand@VG4TrajectoryParticleFilter@@@@UEAA?AVG4String@@PEAVG4UIcommand@@@Z
	?GetCurrentValue@?$G4VModelCommand@VG4VisTrajContext@@@@UEAA?AVG4String@@PEAVG4UIcommand@@@Z
	?GetExtent@G4BoundingExtentScene@@UEBAAEBVG4VisExtent@@XZ
	?GetFieldAtLocation@G4ElectricFieldModel@@MEBAXPEBVG4Field@@AEBV?$Point3D@N@HepGeom@@NAEAV34@@Z
	?GetFieldAtLocation@G4MagneticFieldModel@@MEBAXPEBVG4Field@@AEBV?$Point3D@N@HepGeom@@NAEAV34@@Z
	?GetHistoryDepth@G4PhysicalVolumeModelTouchable@G4PhysicalVolumeModel@@UEBAHXZ
	?GetInfo@G4VMarker@@UEBAAEBVG4String@@XZ
	?GetName@PVPointerCopyNo@G4ModelingParameters@@QEBAAEBVG4String@@XZ
	?GetNewFilter@G4AttFilterUtils@@YAPEAVG4VAttValueFilter@@AEBVG4AttDef@@@Z
	?GetPVNameCopyNoPath@G4PhysicalVolumeModel@@SA?AV?$vector@VPVNameCopyNo@G4ModelingParameters@@V?$allocator@VPVNameCopyNo@G4ModelingParameters@@@std@@@std@@AEBV?$vector@VG4PhysicalVolumeNodeID@G4PhysicalVolumeModel@@V?$allocator@VG4PhysicalVolumeNodeID@G4PhysicalVolumeModel@@@std@@@3@@Z
	?GetPointsAndTimes@G4TrajectoryDrawerUtils@@YA?AW4TimesValidity@1@AEBVG4VTrajectory@@AEBVG4VisTrajContext@@AEAVG4Polyline@@AEAVG4Polymarker@@3AEAV?$vector@NV?$allocator@N@std@@@std@@44@Z
	?GetReplicaNumber@G4PhysicalVolumeModelTouchable@G4PhysicalVolumeModel@@UEBAHH@Z
	?GetRotation@G4PhysicalVolumeModelTouchable@G4PhysicalVolumeModel@@UEBAPEBVHepRotation@CLHEP@@H@Z
	?GetSolid@G4PhysicalVolumeModelTouchable@G4PhysicalVolumeModel@@UEBAPEAVG4VSolid@@H@Z
	?GetTransformedExtent@G4VModel@@QEBAAEBVG4VisExtent@@XZ
	?GetTranslation@G4PhysicalVolumeModelTouchable@G4PhysicalVolumeModel@@UEBAAEBVHep3Vector@CLHEP@@H@Z
	?GetValidElement@?$G4AttValueFilterT@HUG4ConversionFatalError@@@@UEBA_NAEBVG4AttValue@@AEAVG4String@@@Z
	?GetValidElement@?$G4AttValueFilterT@NUG4ConversionFatalError@@@@UEBA_NAEBVG4AttValue@@AEAVG4String@@@Z
	?GetValidElement@?$G4AttValueFilterT@V?$G4DimensionedType@NUG4ConversionFatalError@@@@UG4ConversionFatalError@@@@UEBA_NAEBVG4AttValue@@AEAVG4String@@@Z
	?GetValidElement@?$G4AttValueFilterT@V?$G4DimensionedType@VHep3Vector@CLHEP@@UG4ConversionFatalError@@@@UG4ConversionFatalError@@@@UEBA_NAEBVG4AttValue@@AEAVG4String@@@Z
	?GetValidElement@?$G4AttValueFilterT@VG4String@@UG4ConversionFatalError@@@@UEBA_NAEBVG4AttValue@@AEAVG4String@@@Z
	?GetValidElement@?$G4AttValueFilterT@VHep3Vector@CLHEP@@UG4ConversionFatalError@@@@UEBA_NAEBVG4AttValue@@AEAVG4String@@@Z
	?GetValidElement@?$G4AttValueFilterT@_NUG4ConversionFatalError@@@@UEBA_NAEBVG4AttValue@@AEAVG4String@@@Z
	?GetVerbose@?$G4SmartFilter@VG4VDigi@@@@QEBA_NXZ
	?GetVerbose@?$G4SmartFilter@VG4VHit@@@@QEBA_NXZ
	?GetVerbose@?$G4SmartFilter@VG4VTrajectory@@@@QEBA_NXZ
	?GetVerbose@G4VTrajectoryModel@@QEBA_NXZ
	?GetVolume@G4PhysicalVolumeModelTouchable@G4PhysicalVolumeModel@@UEBAPEAVG4VPhysicalVolume@@H@Z
	?LoadIntervalElement@?$G4AttValueFilterT@HUG4ConversionFatalError@@@@UEAAXAEBVG4String@@@Z
	?LoadIntervalElement@?$G4AttValueFilterT@NUG4ConversionFatalError@@@@UEAAXAEBVG4String@@@Z
	?LoadIntervalElement@?$G4AttValueFilterT@V?$G4DimensionedType@NUG4ConversionFatalError@@@@UG4ConversionFatalError@@@@UEAAXAEBVG4String@@@Z
	?LoadIntervalElement@?$G4AttValueFilterT@V?$G4DimensionedType@VHep3Vector@CLHEP@@UG4ConversionFatalError@@@@UG4ConversionFatalError@@@@UEAAXAEBVG4String@@@Z
	?LoadIntervalElement@?$G4AttValueFilterT@VG4String@@UG4ConversionFatalError@@@@UEAAXAEBVG4String@@@Z
	?LoadIntervalElement@?$G4AttValueFilterT@VHep3Vector@CLHEP@@UG4ConversionFatalError@@@@UEAAXAEBVG4String@@@Z
	?LoadIntervalElement@?$G4AttValueFilterT@_NUG4ConversionFatalError@@@@UEAAXAEBVG4String@@@Z
	?LoadSingleValueElement@?$G4AttValueFilterT@HUG4ConversionFatalError@@@@UEAAXAEBVG4String@@@Z
	?LoadSingleValueElement@?$G4AttValueFilterT@NUG4ConversionFatalError@@@@UEAAXAEBVG4String@@@Z
	?LoadSingleValueElement@?$G4AttValueFilterT@V?$G4DimensionedType@NUG4ConversionFatalError@@@@UG4ConversionFatalError@@@@UEAAXAEBVG4String@@@Z
	?LoadSingleValueElement@?$G4AttValueFilterT@V?$G4DimensionedType@VHep3Vector@CLHEP@@UG4ConversionFatalError@@@@UG4ConversionFatalError@@@@UEAAXAEBVG4String@@@Z
	?LoadSingleValueElement@?$G4AttValueFilterT@VG4String@@UG4ConversionFatalError@@@@UEAAXAEBVG4String@@@Z
	?LoadSingleValueElement@?$G4AttValueFilterT@VHep3Vector@CLHEP@@UG4ConversionFatalError@@@@UEAAXAEBVG4String@@@Z
	?LoadSingleValueElement@?$G4AttValueFilterT@_NUG4ConversionFatalError@@@@UEAAXAEBVG4String@@@Z
	?Match@Matcher@G4PhysicalVolumesSearchScene@@QEAA_NAEBVG4String@@@Z
	?Model@?$G4VModelCommand@V?$G4AttributeFilterT@VG4VDigi@@@@@@IEAAPEAV?$G4AttributeFilterT@VG4VDigi@@@@XZ
	?Model@?$G4VModelCommand@V?$G4AttributeFilterT@VG4VHit@@@@@@IEAAPEAV?$G4AttributeFilterT@VG4VHit@@@@XZ
	?Model@?$G4VModelCommand@V?$G4AttributeFilterT@VG4VTrajectory@@@@@@IEAAPEAV?$G4AttributeFilterT@VG4VTrajectory@@@@XZ
	?Model@?$G4VModelCommand@VG4TrajectoryChargeFilter@@@@IEAAPEAVG4TrajectoryChargeFilter@@XZ
	?Model@?$G4VModelCommand@VG4TrajectoryDrawByAttribute@@@@IEAAPEAVG4TrajectoryDrawByAttribute@@XZ
	?Model@?$G4VModelCommand@VG4TrajectoryDrawByCharge@@@@IEAAPEAVG4TrajectoryDrawByCharge@@XZ
	?Model@?$G4VModelCommand@VG4TrajectoryDrawByEncounteredVolume@@@@IEAAPEAVG4TrajectoryDrawByEncounteredVolume@@XZ
	?Model@?$G4VModelCommand@VG4TrajectoryDrawByOriginVolume@@@@IEAAPEAVG4TrajectoryDrawByOriginVolume@@XZ
	?Model@?$G4VModelCommand@VG4TrajectoryDrawByParticleID@@@@IEAAPEAVG4TrajectoryDrawByParticleID@@XZ
	?Model@?$G4VModelCommand@VG4TrajectoryEncounteredVolumeFilter@@@@IEAAPEAVG4TrajectoryEncounteredVolumeFilter@@XZ
	?Model@?$G4VModelCommand@VG4TrajectoryGenericDrawer@@@@IEAAPEAVG4TrajectoryGenericDrawer@@XZ
	?Model@?$G4VModelCommand@VG4TrajectoryOriginVolumeFilter@@@@IEAAPEAVG4TrajectoryOriginVolumeFilter@@XZ
	?Model@?$G4VModelCommand@VG4TrajectoryParticleFilter@@@@IEAAPEAVG4TrajectoryParticleFilter@@XZ
	?Model@?$G4VModelCommand@VG4VisTrajContext@@@@IEAAPEAVG4VisTrajContext@@XZ
	?Name@?$G4VFilter@VG4AttValue@@@@QEBA?AVG4String@@XZ
	?Name@?$G4VFilter@VG4VDigi@@@@QEBA?AVG4String@@XZ
	?Name@?$G4VFilter@VG4VHit@@@@QEBA?AVG4String@@XZ
	?Name@?$G4VFilter@VG4VTrajectory@@@@QEBA?AVG4String@@XZ
	?Name@G4VTrajectoryModel@@QEBA?AVG4String@@XZ
	?Placement@?$G4VModelCommand@VG4TrajectoryDrawByAttribute@@@@QEAA?AVG4String@@XZ
	?PostAddSolid@G4PseudoScene@@UEAAXXZ
	?PreAddSolid@G4PseudoScene@@UEAAXAEBVTransform3D@HepGeom@@AEBVG4VisAttributes@@@Z
	?Print@?$G4AttributeFilterT@VG4VDigi@@@@UEBAXAEAV?$basic_ostream@DU?$char_traits@D@std@@@std@@@Z
	?Print@?$G4AttributeFilterT@VG4VHit@@@@UEBAXAEAV?$basic_ostream@DU?$char_traits@D@std@@@std@@@Z
	?Print@?$G4AttributeFilterT@VG4VTrajectory@@@@UEBAXAEAV?$basic_ostream@DU?$char_traits@D@std@@@std@@@Z
	?Print@?$G4ModelColourMap@VG4String@@@@QEBAXAEAV?$basic_ostream@DU?$char_traits@D@std@@@std@@@Z
	?Print@?$G4ModelColourMap@W4Charge@G4TrajectoryDrawByCharge@@@@QEBAXAEAV?$basic_ostream@DU?$char_traits@D@std@@@std@@@Z
	?Print@G4TrajectoryChargeFilter@@UEBAXAEAV?$basic_ostream@DU?$char_traits@D@std@@@std@@@Z
	?Print@G4TrajectoryDrawByAttribute@@UEBAXAEAV?$basic_ostream@DU?$char_traits@D@std@@@std@@@Z
	?Print@G4TrajectoryDrawByCharge@@UEBAXAEAV?$basic_ostream@DU?$char_traits@D@std@@@std@@@Z
	?Print@G4TrajectoryDrawByEncounteredVolume@@UEBAXAEAV?$basic_ostream@DU?$char_traits@D@std@@@std@@@Z
	?Print@G4TrajectoryDrawByOriginVolume@@UEBAXAEAV?$basic_ostream@DU?$char_traits@D@std@@@std@@@Z
	?Print@G4TrajectoryDrawByParticleID@@UEBAXAEAV?$basic_ostream@DU?$char_traits@D@std@@@std@@@Z
	?Print@G4TrajectoryEncounteredVolumeFilter@@UEBAXAEAV?$basic_ostream@DU?$char_traits@D@std@@@std@@@Z
	?Print@G4TrajectoryGenericDrawer@@UEBAXAEAV?$basic_ostream@DU?$char_traits@D@std@@@std@@@Z
	?Print@G4TrajectoryOriginVolumeFilter@@UEBAXAEAV?$basic_ostream@DU?$char_traits@D@std@@@std@@@Z
	?Print@G4TrajectoryParticleFilter@@UEBAXAEAV?$basic_ostream@DU?$char_traits@D@std@@@std@@@Z
	?Print@G4VisTrajContext@@QEBAXAEAV?$basic_ostream@DU?$char_traits@D@std@@@std@@@Z
	?PrintAll@?$G4AttValueFilterT@HUG4ConversionFatalError@@@@UEBAXAEAV?$basic_ostream@DU?$char_traits@D@std@@@std@@@Z
	?PrintAll@?$G4AttValueFilterT@NUG4ConversionFatalError@@@@UEBAXAEAV?$basic_ostream@DU?$char_traits@D@std@@@std@@@Z
	?PrintAll@?$G4AttValueFilterT@V?$G4DimensionedType@NUG4ConversionFatalError@@@@UG4ConversionFatalError@@@@UEBAXAEAV?$basic_ostream@DU?$char_traits@D@std@@@std@@@Z
	?PrintAll@?$G4AttValueFilterT@V?$G4DimensionedType@VHep3Vector@CLHEP@@UG4ConversionFatalError@@@@UG4ConversionFatalError@@@@UEBAXAEAV?$basic_ostream@DU?$char_traits@D@std@@@std@@@Z
	?PrintAll@?$G4AttValueFilterT@VG4String@@UG4ConversionFatalError@@@@UEBAXAEAV?$basic_ostream@DU?$char_traits@D@std@@@std@@@Z
	?PrintAll@?$G4AttValueFilterT@VHep3Vector@CLHEP@@UG4ConversionFatalError@@@@UEBAXAEAV?$basic_ostream@DU?$char_traits@D@std@@@std@@@Z
	?PrintAll@?$G4AttValueFilterT@_NUG4ConversionFatalError@@@@UEBAXAEAV?$basic_ostream@DU?$char_traits@D@std@@@std@@@Z
	?PrintAll@?$G4SmartFilter@VG4VDigi@@@@UEBAXAEAV?$basic_ostream@DU?$char_traits@D@std@@@std@@@Z
	?PrintAll@?$G4SmartFilter@VG4VHit@@@@UEBAXAEAV?$basic_ostream@DU?$char_traits@D@std@@@std@@@Z
	?PrintAll@?$G4SmartFilter@VG4VTrajectory@@@@UEBAXAEAV?$basic_ostream@DU?$char_traits@D@std@@@std@@@Z
	?ProcessVolume@G4BoundingExtentScene@@EEAAXAEBVG4VSolid@@@Z
	?ProcessVolume@G4BoundingSphereScene@@EEAAXAEBVG4VSolid@@@Z
	?ProcessVolume@G4PhysicalVolumeMassScene@@EEAAXAEBVG4VSolid@@@Z
	?ProcessVolume@G4PhysicalVolumeSearchScene@@EEAAXAEBVG4VSolid@@@Z
	?ProcessVolume@G4PhysicalVolumesSearchScene@@EEAAXAEBVG4VSolid@@@Z
	?ProcessVolume@G4TouchablePropertiesScene@@EEAAXAEBVG4VSolid@@@Z
	?RawValue@?$G4DimensionedType@NUG4ConversionFatalError@@@@QEBANXZ
	?RawValue@?$G4DimensionedType@VHep3Vector@CLHEP@@UG4ConversionFatalError@@@@QEBA?AVHep3Vector@CLHEP@@XZ
	?Register@?$G4CreatorFactoryT@VG4VAttValueFilter@@VG4TypeKey@@P6APEAV1@XZ@@QEAA_NAEBVG4TypeKey@@P6APEAVG4VAttValueFilter@@XZ@Z
	?ReportError@G4ConversionFatalError@@QEBAXAEBVG4String@@0@Z
	?Reset@?$G4AttValueFilterT@HUG4ConversionFatalError@@@@UEAAXXZ
	?Reset@?$G4AttValueFilterT@NUG4ConversionFatalError@@@@UEAAXXZ
	?Reset@?$G4AttValueFilterT@V?$G4DimensionedType@NUG4ConversionFatalError@@@@UG4ConversionFatalError@@@@UEAAXXZ
	?Reset@?$G4AttValueFilterT@V?$G4DimensionedType@VHep3Vector@CLHEP@@UG4ConversionFatalError@@@@UG4ConversionFatalError@@@@UEAAXXZ
	?Reset@?$G4AttValueFilterT@VG4String@@UG4ConversionFatalError@@@@UEAAXXZ
	?Reset@?$G4AttValueFilterT@VHep3Vector@CLHEP@@UG4ConversionFatalError@@@@UEAAXXZ
	?Reset@?$G4AttValueFilterT@_NUG4ConversionFatalError@@@@UEAAXXZ
	?Reset@?$G4SmartFilter@VG4VDigi@@@@UEAAXXZ
	?Reset@?$G4SmartFilter@VG4VHit@@@@UEAAXXZ
	?Reset@?$G4SmartFilter@VG4VTrajectory@@@@UEAAXXZ
	?Reset@G4PhysicalVolumeMassScene@@QEAAXXZ
	?ResetBoundingExtent@G4BoundingExtentScene@@QEAAXXZ
	?ResetBoundingSphere@G4BoundingSphereScene@@QEAAXXZ
	?Set@?$G4AttributeFilterT@VG4VDigi@@@@QEAAXAEBVG4String@@@Z
	?Set@?$G4AttributeFilterT@VG4VHit@@@@QEAAXAEBVG4String@@@Z
	?Set@?$G4AttributeFilterT@VG4VTrajectory@@@@QEAAXAEBVG4String@@@Z
	?Set@?$G4ModelColourMap@VG4String@@@@QEAAXAEBVG4String@@0@Z
	?Set@?$G4ModelColourMap@VG4String@@@@QEAAXAEBVG4String@@AEBVG4Colour@@@Z
	?Set@?$G4ModelColourMap@W4Charge@G4TrajectoryDrawByCharge@@@@QEAAXAEBW4Charge@G4TrajectoryDrawByCharge@@AEBVG4Colour@@@Z
	?Set@?$G4ModelColourMap@W4Charge@G4TrajectoryDrawByCharge@@@@QEAAXAEBW4Charge@G4TrajectoryDrawByCharge@@AEBVG4String@@@Z
	?Set@G4TrajectoryDrawByAttribute@@QEAAXAEBVG4String@@@Z
	?Set@G4TrajectoryDrawByCharge@@QEAAXAEBVG4String@@0@Z
	?Set@G4TrajectoryDrawByCharge@@QEAAXAEBVG4String@@AEBVG4Colour@@@Z
	?Set@G4TrajectoryDrawByCharge@@QEAAXAEBW4Charge@1@AEBVG4Colour@@@Z
	?Set@G4TrajectoryDrawByCharge@@QEAAXAEBW4Charge@1@AEBVG4String@@@Z
	?Set@G4TrajectoryDrawByEncounteredVolume@@QEAAXAEBVG4String@@0@Z
	?Set@G4TrajectoryDrawByEncounteredVolume@@QEAAXAEBVG4String@@AEBVG4Colour@@@Z
	?Set@G4TrajectoryDrawByOriginVolume@@QEAAXAEBVG4String@@0@Z
	?Set@G4TrajectoryDrawByOriginVolume@@QEAAXAEBVG4String@@AEBVG4Colour@@@Z
	?Set@G4TrajectoryDrawByParticleID@@QEAAXAEBVG4String@@0@Z
	?Set@G4TrajectoryDrawByParticleID@@QEAAXAEBVG4String@@AEBVG4Colour@@@Z
	?SetActive@?$G4SmartFilter@VG4VDigi@@@@QEAAXAEB_N@Z
	?SetActive@?$G4SmartFilter@VG4VHit@@@@QEAAXAEB_N@Z
	?SetActive@?$G4SmartFilter@VG4VTrajectory@@@@QEAAXAEB_N@Z
	?SetCutawaySolid@G4ModelingParameters@@QEAAXPEAVG4DisplacedSolid@@@Z
	?SetDefault@G4TrajectoryDrawByEncounteredVolume@@QEAAXAEBVG4Colour@@@Z
	?SetDefault@G4TrajectoryDrawByEncounteredVolume@@QEAAXAEBVG4String@@@Z
	?SetDefault@G4TrajectoryDrawByOriginVolume@@QEAAXAEBVG4Colour@@@Z
	?SetDefault@G4TrajectoryDrawByOriginVolume@@QEAAXAEBVG4String@@@Z
	?SetDefault@G4TrajectoryDrawByParticleID@@QEAAXAEBVG4Colour@@@Z
	?SetDefault@G4TrajectoryDrawByParticleID@@QEAAXAEBVG4String@@@Z
	?SetGuidance@G4UIcommand@@QEAAXPEBD@Z
	?SetInfo@G4VMarker@@UEAAXAEBVG4String@@@Z
	?SetInnerRadius@G4Tubs@@QEAAXN@Z
	?SetInvert@?$G4SmartFilter@VG4VDigi@@@@QEAAXAEB_N@Z
	?SetInvert@?$G4SmartFilter@VG4VHit@@@@QEAAXAEB_N@Z
	?SetInvert@?$G4SmartFilter@VG4VTrajectory@@@@QEAAXAEB_N@Z
	?SetNewValue@?$G4ModelCmdApplyBool@V?$G4AttributeFilterT@VG4VDigi@@@@@@UEAAXPEAVG4UIcommand@@VG4String@@@Z
	?SetNewValue@?$G4ModelCmdApplyBool@V?$G4AttributeFilterT@VG4VHit@@@@@@UEAAXPEAVG4UIcommand@@VG4String@@@Z
	?SetNewValue@?$G4ModelCmdApplyBool@V?$G4AttributeFilterT@VG4VTrajectory@@@@@@UEAAXPEAVG4UIcommand@@VG4String@@@Z
	?SetNewValue@?$G4ModelCmdApplyBool@VG4TrajectoryChargeFilter@@@@UEAAXPEAVG4UIcommand@@VG4String@@@Z
	?SetNewValue@?$G4ModelCmdApplyBool@VG4TrajectoryDrawByAttribute@@@@UEAAXPEAVG4UIcommand@@VG4String@@@Z
	?SetNewValue@?$G4ModelCmdApplyBool@VG4TrajectoryDrawByCharge@@@@UEAAXPEAVG4UIcommand@@VG4String@@@Z
	?SetNewValue@?$G4ModelCmdApplyBool@VG4TrajectoryDrawByEncounteredVolume@@@@UEAAXPEAVG4UIcommand@@VG4String@@@Z
	?SetNewValue@?$G4ModelCmdApplyBool@VG4TrajectoryDrawByOriginVolume@@@@UEAAXPEAVG4UIcommand@@VG4String@@@Z
	?SetNewValue@?$G4ModelCmdApplyBool@VG4TrajectoryDrawByParticleID@@@@UEAAXPEAVG4UIcommand@@VG4String@@@Z
	?SetNewValue@?$G4ModelCmdApplyBool@VG4TrajectoryEncounteredVolumeFilter@@@@UEAAXPEAVG4UIcommand@@VG4String@@@Z
	?SetNewValue@?$G4ModelCmdApplyBool@VG4TrajectoryGenericDrawer@@@@UEAAXPEAVG4UIcommand@@VG4String@@@Z
	?SetNewValue@?$G4ModelCmdApplyBool@VG4TrajectoryOriginVolumeFilter@@@@UEAAXPEAVG4UIcommand@@VG4String@@@Z
	?SetNewValue@?$G4ModelCmdApplyBool@VG4TrajectoryParticleFilter@@@@UEAAXPEAVG4UIcommand@@VG4String@@@Z
	?SetNewValue@?$G4ModelCmdApplyBool@VG4VisTrajContext@@@@UEAAXPEAVG4UIcommand@@VG4String@@@Z
	?SetNewValue@?$G4ModelCmdApplyColour@VG4TrajectoryDrawByEncounteredVolume@@@@UEAAXPEAVG4UIcommand@@VG4String@@@Z
	?SetNewValue@?$G4ModelCmdApplyColour@VG4TrajectoryDrawByOriginVolume@@@@UEAAXPEAVG4UIcommand@@VG4String@@@Z
	?SetNewValue@?$G4ModelCmdApplyColour@VG4TrajectoryDrawByParticleID@@@@UEAAXPEAVG4UIcommand@@VG4String@@@Z
	?SetNewValue@?$G4ModelCmdApplyColour@VG4VisTrajContext@@@@UEAAXPEAVG4UIcommand@@VG4String@@@Z
	?SetNewValue@?$G4ModelCmdApplyDouble@VG4VisTrajContext@@@@UEAAXPEAVG4UIcommand@@VG4String@@@Z
	?SetNewValue@?$G4ModelCmdApplyDoubleAndUnit@VG4VisTrajContext@@@@UEAAXPEAVG4UIcommand@@VG4String@@@Z
	?SetNewValue@?$G4ModelCmdApplyNull@V?$G4AttributeFilterT@VG4VDigi@@@@@@UEAAXPEAVG4UIcommand@@VG4String@@@Z
	?SetNewValue@?$G4ModelCmdApplyNull@V?$G4AttributeFilterT@VG4VHit@@@@@@UEAAXPEAVG4UIcommand@@VG4String@@@Z
	?SetNewValue@?$G4ModelCmdApplyNull@V?$G4AttributeFilterT@VG4VTrajectory@@@@@@UEAAXPEAVG4UIcommand@@VG4String@@@Z
	?SetNewValue@?$G4ModelCmdApplyNull@VG4TrajectoryChargeFilter@@@@UEAAXPEAVG4UIcommand@@VG4String@@@Z
	?SetNewValue@?$G4ModelCmdApplyNull@VG4TrajectoryEncounteredVolumeFilter@@@@UEAAXPEAVG4UIcommand@@VG4String@@@Z
	?SetNewValue@?$G4ModelCmdApplyNull@VG4TrajectoryOriginVolumeFilter@@@@UEAAXPEAVG4UIcommand@@VG4String@@@Z
	?SetNewValue@?$G4ModelCmdApplyNull@VG4TrajectoryParticleFilter@@@@UEAAXPEAVG4UIcommand@@VG4String@@@Z
	?SetNewValue@?$G4ModelCmdApplyString@V?$G4AttributeFilterT@VG4VDigi@@@@@@UEAAXPEAVG4UIcommand@@VG4String@@@Z
	?SetNewValue@?$G4ModelCmdApplyString@V?$G4AttributeFilterT@VG4VHit@@@@@@UEAAXPEAVG4UIcommand@@VG4String@@@Z
	?SetNewValue@?$G4ModelCmdApplyString@V?$G4AttributeFilterT@VG4VTrajectory@@@@@@UEAAXPEAVG4UIcommand@@VG4String@@@Z
	?SetNewValue@?$G4ModelCmdApplyString@VG4TrajectoryChargeFilter@@@@UEAAXPEAVG4UIcommand@@VG4String@@@Z
	?SetNewValue@?$G4ModelCmdApplyString@VG4TrajectoryDrawByAttribute@@@@UEAAXPEAVG4UIcommand@@VG4String@@@Z
	?SetNewValue@?$G4ModelCmdApplyString@VG4TrajectoryEncounteredVolumeFilter@@@@UEAAXPEAVG4UIcommand@@VG4String@@@Z
	?SetNewValue@?$G4ModelCmdApplyString@VG4TrajectoryOriginVolumeFilter@@@@UEAAXPEAVG4UIcommand@@VG4String@@@Z
	?SetNewValue@?$G4ModelCmdApplyString@VG4TrajectoryParticleFilter@@@@UEAAXPEAVG4UIcommand@@VG4String@@@Z
	?SetNewValue@?$G4ModelCmdApplyString@VG4VisTrajContext@@@@UEAAXPEAVG4UIcommand@@VG4String@@@Z
	?SetNewValue@?$G4ModelCmdApplyStringColour@VG4TrajectoryDrawByCharge@@@@UEAAXPEAVG4UIcommand@@VG4String@@@Z
	?SetNewValue@?$G4ModelCmdApplyStringColour@VG4TrajectoryDrawByEncounteredVolume@@@@UEAAXPEAVG4UIcommand@@VG4String@@@Z
	?SetNewValue@?$G4ModelCmdApplyStringColour@VG4TrajectoryDrawByOriginVolume@@@@UEAAXPEAVG4UIcommand@@VG4String@@@Z
	?SetNewValue@?$G4ModelCmdApplyStringColour@VG4TrajectoryDrawByParticleID@@@@UEAAXPEAVG4UIcommand@@VG4String@@@Z
	?SetNoOfSides@G4ModelingParameters@@QEAAHH@Z
	?SetOuterRadius@G4Tubs@@QEAAXN@Z
	?SetParameter@G4UIcommand@@QEAAXQEAVG4UIparameter@@@Z
	?SetSectionSolid@G4ModelingParameters@@QEAAXPEAVG4DisplacedSolid@@@Z
	?SetVerbose@?$G4SmartFilter@VG4VDigi@@@@QEAAXAEB_N@Z
	?SetVerbose@?$G4SmartFilter@VG4VHit@@@@QEAAXAEB_N@Z
	?SetVerbose@?$G4SmartFilter@VG4VTrajectory@@@@QEAAXAEB_N@Z
	?SetVerbose@G4VTrajectoryModel@@QEAAXAEB_N@Z
	?SetVisibleDensity@G4ModelingParameters@@QEAAXN@Z
	?Unit@?$G4DimensionedType@NUG4ConversionFatalError@@@@QEBA?AVG4String@@XZ
	?Unit@?$G4DimensionedType@VHep3Vector@CLHEP@@UG4ConversionFatalError@@@@QEBA?AVG4String@@XZ
	?Validate@G4LogicalVolumeModel@@UEAA_N_N@Z
	?Validate@G4PhysicalVolumeModel@@UEAA_N_N@Z
	?Validate@G4VModel@@UEAA_N_N@Z
	?VisitGeometryAndGetVisReps@G4PhysicalVolumeModel@@IEAAXPEAVG4VPhysicalVolume@@HAEBVTransform3D@HepGeom@@AEAVG4VGraphicsScene@@@Z
	?_Add_backreference@?$_Builder@PEBDDV?$regex_traits@D@std@@@std@@QEAAXI@Z
	?_Add_bol@?$_Builder@PEBDDV?$regex_traits@D@std@@@std@@QEAAXXZ
	?_Add_char@?$_Builder@PEBDDV?$regex_traits@D@std@@@std@@QEAAXD@Z
	?_Add_char_to_array@?$_Builder@PEBDDV?$regex_traits@D@std@@@std@@AEAAXD@Z
	?_Add_char_to_bitmap@?$_Builder@PEBDDV?$regex_traits@D@std@@@std@@AEAAXD@Z
	?_Add_char_to_class@?$_Builder@PEBDDV?$regex_traits@D@std@@@std@@QEAAXD@Z
	?_Add_class@?$_Builder@PEBDDV?$regex_traits@D@std@@@std@@QEAAXXZ
	?_Add_coll@?$_Builder@PEBDDV?$regex_traits@D@std@@@std@@QEAAXPEBD0_J@Z
	?_Add_dot@?$_Builder@PEBDDV?$regex_traits@D@std@@@std@@QEAAXXZ
	?_Add_elts@?$_Builder@PEBDDV?$regex_traits@D@std@@@std@@AEAAXPEAV?$_Node_class@DV?$regex_traits@D@std@@@2@F_N@Z
	?_Add_eol@?$_Builder@PEBDDV?$regex_traits@D@std@@@std@@QEAAXXZ
	?_Add_equiv@?$_Builder@PEBDDV?$regex_traits@D@std@@@std@@QEAAXPEBD0_J@Z
	?_Add_named_class@?$_Builder@PEBDDV?$regex_traits@D@std@@@std@@QEAAXF_N@Z
	?_Add_range@?$_Builder@PEBDDV?$regex_traits@D@std@@@std@@QEAAXDD@Z
	?_Add_rep@?$_Builder@PEBDDV?$regex_traits@D@std@@@std@@QEAAXHH_N@Z
	?_Add_str_node@?$_Builder@PEBDDV?$regex_traits@D@std@@@std@@AEAAXXZ
	?_Add_wbound@?$_Builder@PEBDDV?$regex_traits@D@std@@@std@@QEAAXXZ
	?_Alternative@?$_Parser@PEBDDV?$regex_traits@D@std@@@std@@AEAA_NXZ
	?_AtomEscape@?$_Parser@PEBDDV?$regex_traits@D@std@@@std@@AEAAXXZ
	?_Become_small@?$basic_string@DU?$char_traits@D@std@@V?$allocator@D@2@@std@@AEAAXXZ
	?_Beg_expr@?$_Builder@PEBDDV?$regex_traits@D@std@@@std@@AEBA_NPEAV_Node_base@2@@Z
	?_Beg_expr@?$_Builder@PEBDDV?$regex_traits@D@std@@@std@@QEBA_NXZ
	?_Begin_assert_group@?$_Builder@PEBDDV?$regex_traits@D@std@@@std@@QEAAPEAV_Node_base@2@_N@Z
	?_Begin_capture_group@?$_Builder@PEBDDV?$regex_traits@D@std@@@std@@QEAAPEAV_Node_base@2@I@Z
	?_Begin_group@?$_Builder@PEBDDV?$regex_traits@D@std@@@std@@QEAAPEAV_Node_base@2@XZ
	?_Begin_if@?$_Builder@PEBDDV?$regex_traits@D@std@@@std@@QEAAPEAV_Node_base@2@PEAV32@@Z
	?_Better_match@?$_Matcher@PEBDDV?$regex_traits@D@std@@PEBD@std@@AEAA_NXZ
	?_Buy_raw@?$vector@VPVNameCopyNo@G4ModelingParameters@@V?$allocator@VPVNameCopyNo@G4ModelingParameters@@@std@@@std@@AEAAX_K@Z
	?_Calculate_loop_simplicity@std@@YAXPEAV_Node_base@1@0PEAV_Node_rep@1@@Z
	?_Change_array@?$vector@V?$Point3D@N@HepGeom@@V?$allocator@V?$Point3D@N@HepGeom@@@std@@@std@@AEAAXQEAV?$Point3D@N@HepGeom@@_K1@Z
	?_Char_to_elts@?$_Builder@PEBDDV?$regex_traits@D@std@@@std@@AEAAXPEBD0_JPEAPEAU?$_Sequence@D@2@@Z
	?_CharacterClass@?$_Parser@PEBDDV?$regex_traits@D@std@@@std@@AEAAXXZ
	?_CharacterClassEscape@?$_Parser@PEBDDV?$regex_traits@D@std@@@std@@AEAA_N_N@Z
	?_CharacterEscape@?$_Parser@PEBDDV?$regex_traits@D@std@@@std@@AEAA_NXZ
	?_ClassAtom@?$_Parser@PEBDDV?$regex_traits@D@std@@@std@@AEAA?AW4_Prs_ret@2@XZ
	?_ClassEscape@?$_Parser@PEBDDV?$regex_traits@D@std@@@std@@AEAA?AW4_Prs_ret@2@_N@Z
	?_ClassRanges@?$_Parser@PEBDDV?$regex_traits@D@std@@@std@@AEAAXXZ
	?_Clear_and_reserve_geometric@?$vector@VVisAttributesModifier@G4ModelingParameters@@V?$allocator@VVisAttributesModifier@G4ModelingParameters@@@std@@@std@@AEAAX_K@Z
	?_Compile@?$_Parser@PEBDDV?$regex_traits@D@std@@@std@@QEAAPEAV_Root_node@2@XZ
	?_DecimalDigits@?$_Parser@PEBDDV?$regex_traits@D@std@@@std@@AEAA_NXZ
	?_Destroy@?$vector@U?$pair@VG4String@@W4Config@?$G4AttributeFilterT@VG4VDigi@@@@@std@@V?$allocator@U?$pair@VG4String@@W4Config@?$G4AttributeFilterT@VG4VDigi@@@@@std@@@2@@std@@AEAAXPEAU?$pair@VG4String@@W4Config@?$G4AttributeFilterT@VG4VDigi@@@@@2@0@Z
	?_Destroy@?$vector@U?$pair@VG4String@@W4Config@?$G4AttributeFilterT@VG4VHit@@@@@std@@V?$allocator@U?$pair@VG4String@@W4Config@?$G4AttributeFilterT@VG4VHit@@@@@std@@@2@@std@@AEAAXPEAU?$pair@VG4String@@W4Config@?$G4AttributeFilterT@VG4VHit@@@@@2@0@Z
	?_Destroy@?$vector@U?$pair@VG4String@@W4Config@?$G4AttributeFilterT@VG4VTrajectory@@@@@std@@V?$allocator@U?$pair@VG4String@@W4Config@?$G4AttributeFilterT@VG4VTrajectory@@@@@std@@@2@@std@@AEAAXPEAU?$pair@VG4String@@W4Config@?$G4AttributeFilterT@VG4VTrajectory@@@@@2@0@Z
	?_Destroy@?$vector@UFindings@G4PhysicalVolumesSearchScene@@V?$allocator@UFindings@G4PhysicalVolumesSearchScene@@@std@@@std@@AEAAXPEAUFindings@G4PhysicalVolumesSearchScene@@0@Z
	?_Destroy@?$vector@Uyystype@G4UItokenNum@@V?$allocator@Uyystype@G4UItokenNum@@@std@@@std@@AEAAXPEAUyystype@G4UItokenNum@@0@Z
	?_Destroy@?$vector@V?$Point3D@N@HepGeom@@V?$allocator@V?$Point3D@N@HepGeom@@@std@@@std@@AEAAXPEAV?$Point3D@N@HepGeom@@0@Z
	?_Destroy@?$vector@VG4AttValue@@V?$allocator@VG4AttValue@@@std@@@std@@AEAAXPEAVG4AttValue@@0@Z
	?_Destroy@?$vector@VG4String@@V?$allocator@VG4String@@@std@@@std@@AEAAXPEAVG4String@@0@Z
	?_Destroy@?$vector@VPVNameCopyNo@G4ModelingParameters@@V?$allocator@VPVNameCopyNo@G4ModelingParameters@@@std@@@std@@AEAAXPEAVPVNameCopyNo@G4ModelingParameters@@0@Z
	?_Disjunction@?$_Parser@PEBDDV?$regex_traits@D@std@@@std@@AEAAXXZ
	?_Do_assert_group@?$_Parser@PEBDDV?$regex_traits@D@std@@@std@@AEAAX_N@Z
	?_Do_capture_group@?$_Parser@PEBDDV?$regex_traits@D@std@@@std@@AEAAXXZ
	?_Do_class@?$_Matcher@PEBDDV?$regex_traits@D@std@@PEBD@std@@AEAA_NPEAV_Node_base@2@@Z
	?_Do_digits@?$_Parser@PEBDDV?$regex_traits@D@std@@@std@@AEAAHHH@Z
	?_Do_ex_class@?$_Parser@PEBDDV?$regex_traits@D@std@@@std@@AEAAXW4_Meta_type@2@@Z
	?_Do_ffn@?$_Parser@PEBDDV?$regex_traits@D@std@@@std@@AEAA_ND@Z
	?_Do_ffnx@?$_Parser@PEBDDV?$regex_traits@D@std@@@std@@AEAA_ND@Z
	?_Do_if@?$_Matcher@PEBDDV?$regex_traits@D@std@@PEBD@std@@AEAA_NPEAV_Node_if@2@@Z
	?_Do_noncapture_group@?$_Parser@PEBDDV?$regex_traits@D@std@@@std@@AEAAXXZ
	?_Do_rep0@?$_Matcher@PEBDDV?$regex_traits@D@std@@PEBD@std@@AEAA_NPEAV_Node_rep@2@_N@Z
	?_Do_rep@?$_Matcher@PEBDDV?$regex_traits@D@std@@PEBD@std@@AEAA_NPEAV_Node_rep@2@_NH@Z
	?_Else_if@?$_Builder@PEBDDV?$regex_traits@D@std@@@std@@QEAAXPEAV_Node_base@2@0@Z
	?_End_assert_group@?$_Builder@PEBDDV?$regex_traits@D@std@@@std@@QEAAXPEAV_Node_base@2@@Z
	?_End_group@?$_Builder@PEBDDV?$regex_traits@D@std@@@std@@QEAAXPEAV_Node_base@2@@Z
	?_End_pattern@?$_Builder@PEBDDV?$regex_traits@D@std@@@std@@QEAAPEAV_Root_node@2@XZ
	?_Error@?$_Parser@PEBDDV?$regex_traits@D@std@@@std@@AEAAXW4error_type@regex_constants@2@@Z
	?_Expect@?$_Parser@PEBDDV?$regex_traits@D@std@@@std@@AEAAXW4_Meta_type@2@W4error_type@regex_constants@2@@Z
	?_Get_bmax@?$_Builder@PEBDDV?$regex_traits@D@std@@@std@@AEBAIXZ
	?_Get_ncap@?$_Matcher@PEBDDV?$regex_traits@D@std@@PEBD@std@@AEBAIXZ
	?_Get_tmax@?$_Builder@PEBDDV?$regex_traits@D@std@@@std@@AEBAIXZ
	?_Getal@?$_Tree@V?$_Tmap_traits@VG4String@@PEAV?$G4THitsMap@VG4StatDouble@@@@U?$less@VG4String@@@std@@V?$allocator@U?$pair@$$CBVG4String@@PEAV?$G4THitsMap@VG4StatDouble@@@@@std@@@4@$0A@@std@@@std@@IEAAAEAV?$allocator@U?$_Tree_node@U?$pair@$$CBVG4String@@PEAV?$G4THitsMap@VG4StatDouble@@@@@std@@PEAX@std@@@2@XZ
	?_Getal@?$vector@IV?$allocator@I@std@@@std@@AEAAAEAV?$allocator@I@2@XZ
	?_Getal@?$vector@U_Grp_t@?$_Tgt_state_t@PEBD@std@@V?$allocator@U_Grp_t@?$_Tgt_state_t@PEBD@std@@@3@@std@@AEAAAEAV?$allocator@U_Grp_t@?$_Tgt_state_t@PEBD@std@@@2@XZ
	?_Getal@?$vector@U_Loop_vals_t@std@@V?$allocator@U_Loop_vals_t@std@@@2@@std@@AEAAAEAV?$allocator@U_Loop_vals_t@std@@@2@XZ
	?_Getal@?$vector@Uyystype@G4UItokenNum@@V?$allocator@Uyystype@G4UItokenNum@@@std@@@std@@AEAAAEAV?$allocator@Uyystype@G4UItokenNum@@@2@XZ
	?_Getal@?$vector@V?$sub_match@PEBD@std@@V?$allocator@V?$sub_match@PEBD@std@@@2@@std@@AEAAAEAV?$allocator@V?$sub_match@PEBD@std@@@2@XZ
	?_Getmark@?$_Builder@PEBDDV?$regex_traits@D@std@@@std@@QEBAPEAV_Node_base@2@XZ
	?_Growmap@?$deque@NV?$allocator@N@std@@@std@@AEAAX_K@Z
	?_HexDigits@?$_Parser@PEBDDV?$regex_traits@D@std@@@std@@AEAAXH@Z
	?_IdentityEscape@?$_Parser@PEBDDV?$regex_traits@D@std@@@std@@AEAA_NXZ
	?_Init@?$basic_stringbuf@DU?$char_traits@D@std@@V?$allocator@D@2@@std@@IEAAXPEBD_KH@Z
	?_Insert_node@?$_Builder@PEBDDV?$regex_traits@D@std@@@std@@CAXPEAV_Node_base@2@0@Z
	?_Insert_node@?$_Tree_val@U?$_Tree_simple_types@U?$pair@$$CBU?$pair@VG4String@@W4Config@G4TrajectoryDrawByAttribute@@@std@@PEAVG4VisTrajContext@@@std@@@std@@@std@@QEAAPEAU?$_Tree_node@U?$pair@$$CBU?$pair@VG4String@@W4Config@G4TrajectoryDrawByAttribute@@@std@@PEAVG4VisTrajContext@@@std@@PEAX@2@U?$_Tree_id@PEAU?$_Tree_node@U?$pair@$$CBU?$pair@VG4String@@W4Config@G4TrajectoryDrawByAttribute@@@std@@PEAVG4VisTrajContext@@@std@@PEAX@std@@@2@QEAU32@@Z
	?_Insert_node@?$_Tree_val@U?$_Tree_simple_types@U?$pair@$$CBVG4String@@H@std@@@std@@@std@@QEAAPEAU?$_Tree_node@U?$pair@$$CBVG4String@@H@std@@PEAX@2@U?$_Tree_id@PEAU?$_Tree_node@U?$pair@$$CBVG4String@@H@std@@PEAX@std@@@2@QEAU32@@Z
	?_Insert_node@?$_Tree_val@U?$_Tree_simple_types@U?$pair@$$CBVG4String@@N@std@@@std@@@std@@QEAAPEAU?$_Tree_node@U?$pair@$$CBVG4String@@N@std@@PEAX@2@U?$_Tree_id@PEAU?$_Tree_node@U?$pair@$$CBVG4String@@N@std@@PEAX@std@@@2@QEAU32@@Z
	?_Insert_node@?$_Tree_val@U?$_Tree_simple_types@U?$pair@$$CBVG4String@@U?$pair@HH@std@@@std@@@std@@@std@@QEAAPEAU?$_Tree_node@U?$pair@$$CBVG4String@@U?$pair@HH@std@@@std@@PEAX@2@U?$_Tree_id@PEAU?$_Tree_node@U?$pair@$$CBVG4String@@U?$pair@HH@std@@@std@@PEAX@std@@@2@QEAU32@@Z
	?_Insert_node@?$_Tree_val@U?$_Tree_simple_types@U?$pair@$$CBVG4String@@U?$pair@NN@std@@@std@@@std@@@std@@QEAAPEAU?$_Tree_node@U?$pair@$$CBVG4String@@U?$pair@NN@std@@@std@@PEAX@2@U?$_Tree_id@PEAU?$_Tree_node@U?$pair@$$CBVG4String@@U?$pair@NN@std@@@std@@PEAX@std@@@2@QEAU32@@Z
	?_Insert_node@?$_Tree_val@U?$_Tree_simple_types@U?$pair@$$CBVG4String@@U?$pair@V?$G4DimensionedType@NUG4ConversionFatalError@@@@V1@@std@@@std@@@std@@@std@@QEAAPEAU?$_Tree_node@U?$pair@$$CBVG4String@@U?$pair@V?$G4DimensionedType@NUG4ConversionFatalError@@@@V1@@std@@@std@@PEAX@2@U?$_Tree_id@PEAU?$_Tree_node@U?$pair@$$CBVG4String@@U?$pair@V?$G4DimensionedType@NUG4ConversionFatalError@@@@V1@@std@@@std@@PEAX@std@@@2@QEAU32@@Z
	?_Insert_node@?$_Tree_val@U?$_Tree_simple_types@U?$pair@$$CBVG4String@@U?$pair@V?$G4DimensionedType@VHep3Vector@CLHEP@@UG4ConversionFatalError@@@@V1@@std@@@std@@@std@@@std@@QEAAPEAU?$_Tree_node@U?$pair@$$CBVG4String@@U?$pair@V?$G4DimensionedType@VHep3Vector@CLHEP@@UG4ConversionFatalError@@@@V1@@std@@@std@@PEAX@2@U?$_Tree_id@PEAU?$_Tree_node@U?$pair@$$CBVG4String@@U?$pair@V?$G4DimensionedType@VHep3Vector@CLHEP@@UG4ConversionFatalError@@@@V1@@std@@@std@@PEAX@std@@@2@QEAU32@@Z
	?_Insert_node@?$_Tree_val@U?$_Tree_simple_types@U?$pair@$$CBVG4String@@U?$pair@VG4String@@V1@@std@@@std@@@std@@@std@@QEAAPEAU?$_Tree_node@U?$pair@$$CBVG4String@@U?$pair@VG4String@@V1@@std@@@std@@PEAX@2@U?$_Tree_id@PEAU?$_Tree_node@U?$pair@$$CBVG4String@@U?$pair@VG4String@@V1@@std@@@std@@PEAX@std@@@2@QEAU32@@Z
	?_Insert_node@?$_Tree_val@U?$_Tree_simple_types@U?$pair@$$CBVG4String@@U?$pair@VHep3Vector@CLHEP@@V12@@std@@@std@@@std@@@std@@QEAAPEAU?$_Tree_node@U?$pair@$$CBVG4String@@U?$pair@VHep3Vector@CLHEP@@V12@@std@@@std@@PEAX@2@U?$_Tree_id@PEAU?$_Tree_node@U?$pair@$$CBVG4String@@U?$pair@VHep3Vector@CLHEP@@V12@@std@@@std@@PEAX@std@@@2@QEAU32@@Z
	?_Insert_node@?$_Tree_val@U?$_Tree_simple_types@U?$pair@$$CBVG4String@@U?$pair@_N_N@std@@@std@@@std@@@std@@QEAAPEAU?$_Tree_node@U?$pair@$$CBVG4String@@U?$pair@_N_N@std@@@std@@PEAX@2@U?$_Tree_id@PEAU?$_Tree_node@U?$pair@$$CBVG4String@@U?$pair@_N_N@std@@@std@@PEAX@std@@@2@QEAU32@@Z
	?_Insert_node@?$_Tree_val@U?$_Tree_simple_types@U?$pair@$$CBVG4String@@V1@@std@@@std@@@std@@QEAAPEAU?$_Tree_node@U?$pair@$$CBVG4String@@V1@@std@@PEAX@2@U?$_Tree_id@PEAU?$_Tree_node@U?$pair@$$CBVG4String@@V1@@std@@PEAX@std@@@2@QEAU32@@Z
	?_Insert_node@?$_Tree_val@U?$_Tree_simple_types@U?$pair@$$CBVG4String@@V?$G4DimensionedType@NUG4ConversionFatalError@@@@@std@@@std@@@std@@QEAAPEAU?$_Tree_node@U?$pair@$$CBVG4String@@V?$G4DimensionedType@NUG4ConversionFatalError@@@@@std@@PEAX@2@U?$_Tree_id@PEAU?$_Tree_node@U?$pair@$$CBVG4String@@V?$G4DimensionedType@NUG4ConversionFatalError@@@@@std@@PEAX@std@@@2@QEAU32@@Z
	?_Insert_node@?$_Tree_val@U?$_Tree_simple_types@U?$pair@$$CBVG4String@@V?$G4DimensionedType@VHep3Vector@CLHEP@@UG4ConversionFatalError@@@@@std@@@std@@@std@@QEAAPEAU?$_Tree_node@U?$pair@$$CBVG4String@@V?$G4DimensionedType@VHep3Vector@CLHEP@@UG4ConversionFatalError@@@@@std@@PEAX@2@U?$_Tree_id@PEAU?$_Tree_node@U?$pair@$$CBVG4String@@V?$G4DimensionedType@VHep3Vector@CLHEP@@UG4ConversionFatalError@@@@@std@@PEAX@std@@@2@QEAU32@@Z
	?_Insert_node@?$_Tree_val@U?$_Tree_simple_types@U?$pair@$$CBVG4String@@VG4AttDef@@@std@@@std@@@std@@QEAAPEAU?$_Tree_node@U?$pair@$$CBVG4String@@VG4AttDef@@@std@@PEAX@2@U?$_Tree_id@PEAU?$_Tree_node@U?$pair@$$CBVG4String@@VG4AttDef@@@std@@PEAX@std@@@2@QEAU32@@Z
	?_Insert_node@?$_Tree_val@U?$_Tree_simple_types@U?$pair@$$CBVG4String@@VG4Colour@@@std@@@std@@@std@@QEAAPEAU?$_Tree_node@U?$pair@$$CBVG4String@@VG4Colour@@@std@@PEAX@2@U?$_Tree_id@PEAU?$_Tree_node@U?$pair@$$CBVG4String@@VG4Colour@@@std@@PEAX@std@@@2@QEAU32@@Z
	?_Insert_node@?$_Tree_val@U?$_Tree_simple_types@U?$pair@$$CBVG4String@@VHep3Vector@CLHEP@@@std@@@std@@@std@@QEAAPEAU?$_Tree_node@U?$pair@$$CBVG4String@@VHep3Vector@CLHEP@@@std@@PEAX@2@U?$_Tree_id@PEAU?$_Tree_node@U?$pair@$$CBVG4String@@VHep3Vector@CLHEP@@@std@@PEAX@std@@@2@QEAU32@@Z
	?_Insert_node@?$_Tree_val@U?$_Tree_simple_types@U?$pair@$$CBVG4String@@_N@std@@@std@@@std@@QEAAPEAU?$_Tree_node@U?$pair@$$CBVG4String@@_N@std@@PEAX@2@U?$_Tree_id@PEAU?$_Tree_node@U?$pair@$$CBVG4String@@_N@std@@PEAX@std@@@2@QEAU32@@Z
	?_Insert_node@?$_Tree_val@U?$_Tree_simple_types@U?$pair@$$CBVG4TypeKey@@P6APEAVG4VAttValueFilter@@XZ@std@@@std@@@std@@QEAAPEAU?$_Tree_node@U?$pair@$$CBVG4TypeKey@@P6APEAVG4VAttValueFilter@@XZ@std@@PEAX@2@U?$_Tree_id@PEAU?$_Tree_node@U?$pair@$$CBVG4TypeKey@@P6APEAVG4VAttValueFilter@@XZ@std@@PEAX@std@@@2@QEAU32@@Z
	?_Insert_node@?$_Tree_val@U?$_Tree_simple_types@U?$pair@$$CBW4Charge@G4TrajectoryDrawByCharge@@VG4Colour@@@std@@@std@@@std@@QEAAPEAU?$_Tree_node@U?$pair@$$CBW4Charge@G4TrajectoryDrawByCharge@@VG4Colour@@@std@@PEAX@2@U?$_Tree_id@PEAU?$_Tree_node@U?$pair@$$CBW4Charge@G4TrajectoryDrawByCharge@@VG4Colour@@@std@@PEAX@std@@@2@QEAU32@@Z
	?_Insert_x@?$vector@_NV?$allocator@_N@std@@@std@@QEAA_KV?$_Vb_const_iterator@U?$_Wrap_alloc@V?$allocator@I@std@@@std@@@2@_K@Z
	?_IsIdentityEscape@?$_Parser@PEBDDV?$regex_traits@D@std@@@std@@AEBA_NXZ
	?_Is_esc@?$_Parser@PEBDDV?$regex_traits@D@std@@@std@@AEBA_NXZ
	?_Is_wbound@?$_Matcher@PEBDDV?$regex_traits@D@std@@PEBD@std@@AEBA_NXZ
	?_Link_node@?$_Builder@PEBDDV?$regex_traits@D@std@@@std@@AEAAPEAV_Node_base@2@PEAV32@@Z
	?_Maklocwcs@std@@YAPEA_WPEB_W@Z
	?_Mark_final@?$_Builder@PEBDDV?$regex_traits@D@std@@@std@@QEAAXXZ
	?_Match_pat@?$_Matcher@PEBDDV?$regex_traits@D@std@@PEBD@std@@AEAA_NPEAV_Node_base@2@@Z
	?_Negate@?$_Builder@PEBDDV?$regex_traits@D@std@@@std@@QEAAXXZ
	?_New_node@?$_Builder@PEBDDV?$regex_traits@D@std@@@std@@AEAAPEAV_Node_base@2@W4_Node_type@2@@Z
	?_Next@?$_Parser@PEBDDV?$regex_traits@D@std@@@std@@AEAAXXZ
	?_OctalDigits@?$_Parser@PEBDDV?$regex_traits@D@std@@@std@@AEAA_NXZ
	?_Quantifier@?$_Parser@PEBDDV?$regex_traits@D@std@@@std@@AEAAXXZ
	?_Resize@?$match_results@PEBDV?$allocator@V?$sub_match@PEBD@std@@@std@@@std@@QEAAXI@Z
	?_Setlong@?$_Builder@PEBDDV?$regex_traits@D@std@@@std@@QEAAXXZ
	?_Skip@?$_Matcher@PEBDDV?$regex_traits@D@std@@PEBD@std@@QEAAPEBDPEBD0PEAV_Node_base@2@@Z
	?_Throw_bad_array_new_length@std@@YAXXZ
	?_Throw_bad_cast@std@@YAXXZ
	?_Throw_tree_length_error@std@@YAXXZ
	?_Tidy@?$_Builder@PEBDDV?$regex_traits@D@std@@@std@@QEAAXXZ
	?_Tidy@?$basic_regex@DV?$regex_traits@D@std@@@std@@AEAAXXZ
	?_Tidy@?$basic_stringbuf@DU?$char_traits@D@std@@V?$allocator@D@2@@std@@IEAAXXZ
	?_Tidy@?$deque@NV?$allocator@N@std@@@std@@AEAAXXZ
	?_Tidy@?$vector@UFindings@G4PhysicalVolumesSearchScene@@V?$allocator@UFindings@G4PhysicalVolumesSearchScene@@@std@@@std@@AEAAXXZ
	?_Tidy@?$vector@V?$Point3D@N@HepGeom@@V?$allocator@V?$Point3D@N@HepGeom@@@std@@@std@@AEAAXXZ
	?_Tidy@?$vector@VG4AttValue@@V?$allocator@VG4AttValue@@@std@@@std@@AEAAXXZ
	?_Tidy@?$vector@VG4PhysicalVolumeNodeID@G4PhysicalVolumeModel@@V?$allocator@VG4PhysicalVolumeNodeID@G4PhysicalVolumeModel@@@std@@@std@@AEAAXXZ
	?_Tidy@?$vector@VPVNameCopyNo@G4ModelingParameters@@V?$allocator@VPVNameCopyNo@G4ModelingParameters@@@std@@@std@@AEAAXXZ
	?_Trans@?$_Parser@PEBDDV?$regex_traits@D@std@@@std@@AEAAXXZ
	?_Trim@?$vector@_NV?$allocator@_N@std@@@std@@QEAAX_K@Z
	?_Ufill@?$vector@Uyystype@G4UItokenNum@@V?$allocator@Uyystype@G4UItokenNum@@@std@@@std@@AEAAPEAUyystype@G4UItokenNum@@PEAU34@_KU_Value_init_tag@2@@Z
	?_Umove@?$vector@VG4PhysicalVolumeNodeID@G4PhysicalVolumeModel@@V?$allocator@VG4PhysicalVolumeNodeID@G4PhysicalVolumeModel@@@std@@@std@@AEAAPEAVG4PhysicalVolumeNodeID@G4PhysicalVolumeModel@@PEAV34@00@Z
	?_Wrapped_disjunction@?$_Parser@PEBDDV?$regex_traits@D@std@@@std@@AEAA_NXZ
	?_Xlen@?$basic_string@DU?$char_traits@D@std@@V?$allocator@D@2@@std@@CAXXZ
	?_Xlen@?$deque@NV?$allocator@N@std@@@std@@AEBAXXZ
	?_Xlen@?$vector@_NV?$allocator@_N@std@@@std@@QEBAXXZ
	?_Xlength@?$vector@DV?$allocator@D@std@@@std@@CAXXZ
	?_Xlength@?$vector@IV?$allocator@I@std@@@std@@CAXXZ
	?_Xlength@?$vector@NV?$allocator@N@std@@@std@@CAXXZ
	?_Xlength@?$vector@PEAVG4UImessenger@@V?$allocator@PEAVG4UImessenger@@@std@@@std@@CAXXZ
	?_Xlength@?$vector@PEAVG4UIparameter@@V?$allocator@PEAVG4UIparameter@@@std@@@std@@CAXXZ
	?_Xlength@?$vector@U?$pair@PEAVG4VSolid@@H@std@@V?$allocator@U?$pair@PEAVG4VSolid@@H@std@@@2@@std@@CAXXZ
	?_Xlength@?$vector@U?$pair@VG4String@@W4Config@?$G4AttributeFilterT@VG4VDigi@@@@@std@@V?$allocator@U?$pair@VG4String@@W4Config@?$G4AttributeFilterT@VG4VDigi@@@@@std@@@2@@std@@CAXXZ
	?_Xlength@?$vector@U?$pair@VG4String@@W4Config@?$G4AttributeFilterT@VG4VHit@@@@@std@@V?$allocator@U?$pair@VG4String@@W4Config@?$G4AttributeFilterT@VG4VHit@@@@@std@@@2@@std@@CAXXZ
	?_Xlength@?$vector@U?$pair@VG4String@@W4Config@?$G4AttributeFilterT@VG4VTrajectory@@@@@std@@V?$allocator@U?$pair@VG4String@@W4Config@?$G4AttributeFilterT@VG4VTrajectory@@@@@std@@@2@@std@@CAXXZ
	?_Xlength@?$vector@UFindings@G4PhysicalVolumesSearchScene@@V?$allocator@UFindings@G4PhysicalVolumesSearchScene@@@std@@@std@@CAXXZ
	?_Xlength@?$vector@U_Grp_t@?$_Tgt_state_t@PEBD@std@@V?$allocator@U_Grp_t@?$_Tgt_state_t@PEBD@std@@@3@@std@@CAXXZ
	?_Xlength@?$vector@U_Loop_vals_t@std@@V?$allocator@U_Loop_vals_t@std@@@2@@std@@CAXXZ
	?_Xlength@?$vector@Uyystype@G4UItokenNum@@V?$allocator@Uyystype@G4UItokenNum@@@std@@@std@@CAXXZ
	?_Xlength@?$vector@V?$Point3D@N@HepGeom@@V?$allocator@V?$Point3D@N@HepGeom@@@std@@@std@@CAXXZ
	?_Xlength@?$vector@V?$sub_match@PEBD@std@@V?$allocator@V?$sub_match@PEBD@std@@@2@@std@@CAXXZ
	?_Xlength@?$vector@VG4AttValue@@V?$allocator@VG4AttValue@@@std@@@std@@CAXXZ
	?_Xlength@?$vector@VG4PhysicalVolumeNodeID@G4PhysicalVolumeModel@@V?$allocator@VG4PhysicalVolumeNodeID@G4PhysicalVolumeModel@@@std@@@std@@CAXXZ
	?_Xlength@?$vector@VG4String@@V?$allocator@VG4String@@@std@@@std@@CAXXZ
	?_Xlength@?$vector@VHep3Vector@CLHEP@@V?$allocator@VHep3Vector@CLHEP@@@std@@@std@@CAXXZ
	?_Xlength@?$vector@VPVNameCopyNo@G4ModelingParameters@@V?$allocator@VPVNameCopyNo@G4ModelingParameters@@@std@@@std@@CAXXZ
	?_Xlength@?$vector@VVisAttributesModifier@G4ModelingParameters@@V?$allocator@VVisAttributesModifier@G4ModelingParameters@@@std@@@std@@CAXXZ
	?_Xlength@?$vector@W4MyCharge@G4TrajectoryChargeFilter@@V?$allocator@W4MyCharge@G4TrajectoryChargeFilter@@@std@@@std@@CAXXZ
	?_Xran@?$_String_val@U?$_Simple_types@D@std@@@std@@SAXXZ
	?__empty_global_delete@@YAXPEAX@Z
	?__empty_global_delete@@YAXPEAXW4align_val_t@std@@@Z
	?__empty_global_delete@@YAXPEAX_K@Z
	?__empty_global_delete@@YAXPEAX_KW4align_val_t@std@@@Z
	?allocate@?$allocator@D@std@@QEAAPEAD_K@Z
	?allocate@?$allocator@I@std@@QEAAPEAI_K@Z
	?allocate@?$allocator@N@std@@QEAAPEAN_K@Z
	?allocate@?$allocator@PEAVG4UImessenger@@@std@@QEAAPEAPEAVG4UImessenger@@_K@Z
	?allocate@?$allocator@U_Grp_t@?$_Tgt_state_t@PEBD@std@@@std@@QEAAPEAU_Grp_t@?$_Tgt_state_t@PEBD@2@_K@Z
	?allocate@?$allocator@V?$Point3D@N@HepGeom@@@std@@QEAAPEAV?$Point3D@N@HepGeom@@_K@Z
	?allocate@?$allocator@VG4PhysicalVolumeNodeID@G4PhysicalVolumeModel@@@std@@QEAAPEAVG4PhysicalVolumeNodeID@G4PhysicalVolumeModel@@_K@Z
	?allocate@?$allocator@VPVNameCopyNo@G4ModelingParameters@@@std@@QEAAPEAVPVNameCopyNo@G4ModelingParameters@@_K@Z
	?append@?$basic_string@DU?$char_traits@D@std@@V?$allocator@D@2@@std@@QEAAAEAV12@QEBD_K@Z
	?assign@?$basic_string@DU?$char_traits@D@std@@V?$allocator@D@2@@std@@QEAAAEAV12@QEBD_K@Z
	?compare@?$basic_string@DU?$char_traits@D@std@@V?$allocator@D@2@@std@@QEBAHAEBV12@@Z
	?deallocate@?$allocator@D@std@@QEAAXQEAD_K@Z
	?deallocate@?$allocator@I@std@@QEAAXQEAI_K@Z
	?deallocate@?$allocator@N@std@@QEAAXQEAN_K@Z
	?deallocate@?$allocator@PEAVG4UImessenger@@@std@@QEAAXQEAPEAVG4UImessenger@@_K@Z
	?deallocate@?$allocator@PEAVG4UIparameter@@@std@@QEAAXQEAPEAVG4UIparameter@@_K@Z
	?deallocate@?$allocator@U?$pair@PEAVG4VSolid@@H@std@@@std@@QEAAXQEAU?$pair@PEAVG4VSolid@@H@2@_K@Z
	?deallocate@?$allocator@U?$pair@VG4String@@W4Config@?$G4AttributeFilterT@VG4VDigi@@@@@std@@@std@@QEAAXQEAU?$pair@VG4String@@W4Config@?$G4AttributeFilterT@VG4VDigi@@@@@2@_K@Z
	?deallocate@?$allocator@U?$pair@VG4String@@W4Config@?$G4AttributeFilterT@VG4VHit@@@@@std@@@std@@QEAAXQEAU?$pair@VG4String@@W4Config@?$G4AttributeFilterT@VG4VHit@@@@@2@_K@Z
	?deallocate@?$allocator@U?$pair@VG4String@@W4Config@?$G4AttributeFilterT@VG4VTrajectory@@@@@std@@@std@@QEAAXQEAU?$pair@VG4String@@W4Config@?$G4AttributeFilterT@VG4VTrajectory@@@@@2@_K@Z
	?deallocate@?$allocator@UFindings@G4PhysicalVolumesSearchScene@@@std@@QEAAXQEAUFindings@G4PhysicalVolumesSearchScene@@_K@Z
	?deallocate@?$allocator@U_Grp_t@?$_Tgt_state_t@PEBD@std@@@std@@QEAAXQEAU_Grp_t@?$_Tgt_state_t@PEBD@2@_K@Z
	?deallocate@?$allocator@U_Loop_vals_t@std@@@std@@QEAAXQEAU_Loop_vals_t@2@_K@Z
	?deallocate@?$allocator@Uyystype@G4UItokenNum@@@std@@QEAAXQEAUyystype@G4UItokenNum@@_K@Z
	?deallocate@?$allocator@V?$Point3D@N@HepGeom@@@std@@QEAAXQEAV?$Point3D@N@HepGeom@@_K@Z
	?deallocate@?$allocator@V?$sub_match@PEBD@std@@@std@@QEAAXQEAV?$sub_match@PEBD@2@_K@Z
	?deallocate@?$allocator@VG4AttValue@@@std@@QEAAXQEAVG4AttValue@@_K@Z
	?deallocate@?$allocator@VG4PhysicalVolumeNodeID@G4PhysicalVolumeModel@@@std@@QEAAXQEAVG4PhysicalVolumeNodeID@G4PhysicalVolumeModel@@_K@Z
	?deallocate@?$allocator@VG4String@@@std@@QEAAXQEAVG4String@@_K@Z
	?deallocate@?$allocator@VHep3Vector@CLHEP@@@std@@QEAAXQEAVHep3Vector@CLHEP@@_K@Z
	?deallocate@?$allocator@VPVNameCopyNo@G4ModelingParameters@@@std@@QEAAXQEAVPVNameCopyNo@G4ModelingParameters@@_K@Z
	?deallocate@?$allocator@W4MyCharge@G4TrajectoryChargeFilter@@@std@@QEAAXQEAW4MyCharge@G4TrajectoryChargeFilter@@_K@Z
	?do_compare@?$collate@D@std@@MEBAHPEBD000@Z
	?do_hash@?$collate@D@std@@MEBAJPEBD0@Z
	?do_transform@?$collate@D@std@@MEBA?AV?$basic_string@DU?$char_traits@D@std@@V?$allocator@D@2@@2@PEBD0@Z
	?erase@?$vector@_NV?$allocator@_N@std@@@std@@QEAA?AV?$_Vb_iterator@U?$_Wrap_alloc@V?$allocator@I@std@@@std@@@2@V?$_Vb_const_iterator@U?$_Wrap_alloc@V?$allocator@I@std@@@std@@@2@0@Z
	?insert@?$basic_string@DU?$char_traits@D@std@@V?$allocator@D@2@@std@@QEAAAEAV12@_KQEBD0@Z
	?name@locale@std@@QEBA?AV?$basic_string@DU?$char_traits@D@std@@V?$allocator@D@2@@2@XZ
	?overflow@?$basic_stringbuf@DU?$char_traits@D@std@@V?$allocator@D@2@@std@@MEAAHH@Z
	?pbackfail@?$basic_stringbuf@DU?$char_traits@D@std@@V?$allocator@D@2@@std@@MEAAHH@Z
	?push_back@?$vector@VG4AttValue@@V?$allocator@VG4AttValue@@@std@@@std@@QEAAX$$QEAVG4AttValue@@@Z
	?reserve@?$basic_string@DU?$char_traits@D@std@@V?$allocator@D@2@@std@@QEAAX_K@Z
	?resize@?$vector@_NV?$allocator@_N@std@@@std@@QEAAX_K_N@Z
	?seekoff@?$basic_stringbuf@DU?$char_traits@D@std@@V?$allocator@D@2@@std@@MEAA?AV?$fpos@U_Mbstatet@@@2@_JHH@Z
	?seekpos@?$basic_stringbuf@DU?$char_traits@D@std@@V?$allocator@D@2@@std@@MEAA?AV?$fpos@U_Mbstatet@@@2@V32@H@Z
	?str@?$basic_ostringstream@DU?$char_traits@D@std@@V?$allocator@D@2@@std@@QEAAXAEBV?$basic_string@DU?$char_traits@D@std@@V?$allocator@D@2@@2@@Z
	?str@?$basic_ostringstream@DU?$char_traits@D@std@@V?$allocator@D@2@@std@@QEBA?AV?$basic_string@DU?$char_traits@D@std@@V?$allocator@D@2@@2@XZ
	?str@?$basic_stringbuf@DU?$char_traits@D@std@@V?$allocator@D@2@@std@@QEBA?AV?$basic_string@DU?$char_traits@D@std@@V?$allocator@D@2@@2@XZ
	?translate@?$_Regex_traits@D@std@@QEBADD@Z
	?underflow@?$basic_stringbuf@DU?$char_traits@D@std@@V?$allocator@D@2@@std@@MEAAHXZ
	?what@exception@std@@UEBAPEBDXZ
