EXPORTS 
	?$TSS0@?1??GetMomentumDirection@G4Track@@QEBAAEBVHep3Vector@CLHEP@@XZ@4HA 	 DATA
	??_R0?AV?$G4Allocator@V?$G4CountedObject@X@@@@@8 	 DATA
	??_R0?AV?$G4Allocator@VG4TouchableHistory@@@@@8 	 DATA
	??_R0?AV?$G4CountedObject@X@@@8 	 DATA
	??_R0?AV?$_Iosb@H@std@@@8 	 DATA
	??_R0?AV?$basic_ios@DU?$char_traits@D@std@@@std@@@8 	 DATA
	??_R0?AV?$basic_ostream@DU?$char_traits@D@std@@@std@@@8 	 DATA
	??_R0?AV?$basic_ostringstream@DU?$char_traits@D@std@@V?$allocator@D@2@@std@@@8 	 DATA
	??_R0?AV?$basic_streambuf@DU?$char_traits@D@std@@@std@@@8 	 DATA
	??_R0?AV?$basic_stringbuf@DU?$char_traits@D@std@@V?$allocator@D@2@@std@@@8 	 DATA
	??_R0?AVG4AllocatorBase@@@8 	 DATA
	??_R0?AVG4TouchableHistory@@@8 	 DATA
	??_R0?AVG4UImessenger@@@8 	 DATA
	??_R0?AVG4VFastSimulationModel@@@8 	 DATA
	??_R0?AVG4VGFlashSensitiveDetector@@@8 	 DATA
	??_R0?AVG4VSensitiveDetector@@@8 	 DATA
	??_R0?AVGFlashHomoShowerParameterisation@@@8 	 DATA
	??_R0?AVGFlashSamplingShowerParameterisation@@@8 	 DATA
	??_R0?AVGFlashSamplingShowerTuning@@@8 	 DATA
	??_R0?AVGFlashShowerModel@@@8 	 DATA
	??_R0?AVGFlashShowerModelMessenger@@@8 	 DATA
	??_R0?AVGVFlashHomoShowerTuning@@@8 	 DATA
	??_R0?AVGVFlashShowerParameterisation@@@8 	 DATA
	??_R0?AVbad_alloc@std@@@8 	 DATA
	??_R0?AVbad_array_new_length@std@@@8 	 DATA
	??_R0?AVexception@std@@@8 	 DATA
	??_R0?AVios_base@std@@@8 	 DATA
	?zerovector@?1??GetMomentumDirection@G4Track@@QEBAAEBVHep3Vector@CLHEP@@XZ@4V34@B 	 DATA
	??$?6DU?$char_traits@D@std@@V?$allocator@D@1@@std@@YAAEAV?$basic_ostream@DU?$char_traits@D@std@@@0@AEAV10@AEBV?$basic_string@DU?$char_traits@D@std@@V?$allocator@D@2@@0@@Z
	??$?6U?$char_traits@D@std@@@std@@YAAEAV?$basic_ostream@DU?$char_traits@D@std@@@0@AEAV10@D@Z
	??$?6U?$char_traits@D@std@@@std@@YAAEAV?$basic_ostream@DU?$char_traits@D@std@@@0@AEAV10@PEBD@Z
	??$_Allocate@$0BA@U_Default_allocate_traits@std@@$0A@@std@@YAPEAX_K@Z
	??$_Allocate_manually_vector_aligned@U_Default_allocate_traits@std@@@std@@YAPEAX_K@Z
	??$_Construct_in_place@PEADAEBQEAD@std@@YAXAEAPEADAEBQEAD@Z
	??$_Deallocate@$0BA@$0A@@std@@YAXPEAX_K@Z
	??$_Destroy_in_place@PEAD@std@@YAXAEAPEAD@Z
	??$_Destroy_range@V?$allocator@VG4String@@@std@@@std@@YAXPEAVG4String@@QEAV1@AEAV?$allocator@VG4String@@@0@@Z
	??$_Emplace_reallocate@VG4String@@@?$vector@VG4String@@V?$allocator@VG4String@@@std@@@std@@QEAAPEAVG4String@@QEAV2@$$QEAV2@@Z
	??$_Getvals@_W@?$time_get@DV?$istreambuf_iterator@DU?$char_traits@D@std@@@std@@@std@@IEAAX_WAEBV_Locinfo@1@@Z
	??$_Getvals@_W@?$time_get@_WV?$istreambuf_iterator@_WU?$char_traits@_W@std@@@std@@@std@@IEAAX_WAEBV_Locinfo@1@@Z
	??$_Insert_string@DU?$char_traits@D@std@@_K@std@@YAAEAV?$basic_ostream@DU?$char_traits@D@std@@@0@AEAV10@QEBD_K@Z
	??$_Maklocstr@D@std@@YAPEADPEBDPEADAEBU_Cvtvec@@@Z
	??$_Pocma@V?$allocator@D@std@@@std@@YAXAEAV?$allocator@D@0@0@Z
	??$_Uninitialized_move@PEAVG4String@@V?$allocator@VG4String@@@std@@@std@@YAPEAVG4String@@QEAV1@0PEAV1@AEAV?$allocator@VG4String@@@0@@Z
	??$endl@DU?$char_traits@D@std@@@std@@YAAEAV?$basic_ostream@DU?$char_traits@D@std@@@0@AEAV10@@Z
	??0?$G4Allocator@V?$G4CountedObject@X@@@@QEAA@XZ
	??0?$G4Allocator@VG4TouchableHistory@@@@QEAA@XZ
	??0?$G4CountedObject@VG4VTouchable@@@@QEAA@PEAVG4VTouchable@@@Z
	??0?$basic_string@DU?$char_traits@D@std@@V?$allocator@D@2@@std@@QEAA@AEBV01@@Z
	??0GFlashEnergySpot@@QEAA@AEBVHep3Vector@CLHEP@@N@Z
	??0GFlashEnergySpot@@QEAA@XZ
	??0GFlashHitMaker@@QEAA@XZ
	??0GFlashHomoShowerParameterisation@@QEAA@PEAVG4Material@@PEAVGVFlashHomoShowerTuning@@@Z
	??0GFlashParticleBounds@@QEAA@XZ
	??0GFlashSamplingShowerParameterisation@@QEAA@PEAVG4Material@@0NNPEAVGFlashSamplingShowerTuning@@@Z
	??0GFlashShowerModel@@QEAA@VG4String@@@Z
	??0GFlashShowerModel@@QEAA@VG4String@@PEAVG4Region@@@Z
	??0GFlashShowerModelMessenger@@QEAA@PEAVGFlashShowerModel@@@Z
	??0GVFlashShowerParameterisation@@QEAA@XZ
	??0MyGamma@@QEAA@XZ
	??0bad_alloc@std@@QEAA@AEBV01@@Z
	??0bad_array_new_length@std@@QEAA@AEBV01@@Z
	??0bad_array_new_length@std@@QEAA@XZ
	??0exception@std@@QEAA@AEBV01@@Z
	??1?$G4Allocator@V?$G4CountedObject@X@@@@UEAA@XZ
	??1?$G4Allocator@VG4TouchableHistory@@@@UEAA@XZ
	??1?$G4CountedObject@VG4VTouchable@@@@QEAA@XZ
	??1?$G4ReferenceCountedHandle@VG4VTouchable@@@@QEAA@XZ
	??1?$basic_ostringstream@DU?$char_traits@D@std@@V?$allocator@D@2@@std@@UEAA@XZ
	??1?$basic_string@DU?$char_traits@D@std@@V?$allocator@D@2@@std@@QEAA@XZ
	??1?$basic_stringbuf@DU?$char_traits@D@std@@V?$allocator@D@2@@std@@UEAA@XZ
	??1G4GFlashSpot@@QEAA@XZ
	??1G4String@@QEAA@XZ
	??1G4VFastSimulationModel@@UEAA@XZ
	??1GFlashEnergySpot@@QEAA@XZ
	??1GFlashHitMaker@@QEAA@XZ
	??1GFlashHomoShowerParameterisation@@UEAA@XZ
	??1GFlashParticleBounds@@QEAA@XZ
	??1GFlashSamplingShowerParameterisation@@UEAA@XZ
	??1GFlashSamplingShowerTuning@@UEAA@XZ
	??1GFlashShowerModel@@UEAA@XZ
	??1GFlashShowerModelMessenger@@UEAA@XZ
	??1GVFlashHomoShowerTuning@@UEAA@XZ
	??1GVFlashShowerParameterisation@@UEAA@XZ
	??1MyGamma@@QEAA@XZ
	??1_Sentry_base@?$basic_ostream@DU?$char_traits@D@std@@@std@@QEAA@XZ
	??1bad_array_new_length@std@@UEAA@XZ
	??1exception@std@@UEAA@XZ
	??1sentry@?$basic_ostream@DU?$char_traits@D@std@@@std@@QEAA@XZ
	??2?$G4CountedObject@VG4VTouchable@@@@SAPEAX_K@Z
	??2G4TouchableHistory@@SAPEAX_K@Z
	??3G4TouchableHistory@@SAXPEAX@Z
	??4?$G4ReferenceCountedHandle@VG4VTouchable@@@@QEAAAEAV0@AEBV0@@Z
	??_D?$basic_ostringstream@DU?$char_traits@D@std@@V?$allocator@D@2@@std@@QEAAXXZ
	??__Fzerovector@?1??GetMomentumDirection@G4Track@@QEBAAEBVHep3Vector@CLHEP@@XZ@YAXXZ
	?ApplySampling@GFlashSamplingShowerParameterisation@@QEAANNN@Z
	?AtRestDoIt@G4VFastSimulationModel@@UEAAXAEBVG4FastTrack@@AEAVG4FastStep@@@Z
	?AtRestModelTrigger@G4VFastSimulationModel@@UEAA_NAEBVG4FastTrack@@@Z
	?CheckContainment@GFlashShowerModel@@AEAA_NAEBVG4FastTrack@@@Z
	?CheckParticleDefAndContainment@GFlashShowerModel@@AEAA_NAEBVG4FastTrack@@@Z
	?ComputeLongitudinalParameters@GFlashHomoShowerParameterisation@@EEAAXN@Z
	?ComputeLongitudinalParameters@GFlashSamplingShowerParameterisation@@EEAAXN@Z
	?ComputeRadialParameters@GFlashHomoShowerParameterisation@@UEAAXNN@Z
	?ComputeRadialParameters@GFlashSamplingShowerParameterisation@@UEAAXNN@Z
	?ComputeTau@GFlashHomoShowerParameterisation@@UEAANN@Z
	?ComputeTau@GFlashSamplingShowerParameterisation@@UEAANN@Z
	?ComputeZAX0EFFetc@GFlashSamplingShowerParameterisation@@QEAAXXZ
	?DoIt@GFlashShowerModel@@UEAAXAEBVG4FastTrack@@AEAVG4FastStep@@@Z
	?ElectronDoIt@GFlashShowerModel@@AEAAXAEBVG4FastTrack@@AEAVG4FastStep@@@Z
	?GamCf@MyGamma@@AEAANNN@Z
	?GamSer@MyGamma@@AEAANNN@Z
	?Gamma@MyGamma@@QEAANN@Z
	?Gamma@MyGamma@@QEAANNN@Z
	?GenerateEnergyProfile@GFlashHomoShowerParameterisation@@EEAAXN@Z
	?GenerateEnergyProfile@GFlashSamplingShowerParameterisation@@EEAAXN@Z
	?GenerateExponential@GFlashHomoShowerParameterisation@@UEAANN@Z
	?GenerateExponential@GFlashSamplingShowerParameterisation@@UEAANN@Z
	?GenerateLongitudinalProfile@GFlashHomoShowerParameterisation@@UEAAXN@Z
	?GenerateLongitudinalProfile@GFlashSamplingShowerParameterisation@@UEAAXN@Z
	?GenerateNSpotProfile@GFlashHomoShowerParameterisation@@EEAAXN@Z
	?GenerateNSpotProfile@GFlashSamplingShowerParameterisation@@EEAAXN@Z
	?GeneratePhi@GVFlashShowerParameterisation@@QEAANXZ
	?GenerateRadius@GFlashHomoShowerParameterisation@@UEAANHNN@Z
	?GenerateRadius@GFlashSamplingShowerParameterisation@@UEAANHNN@Z
	?GetAllocatedSize@?$G4Allocator@V?$G4CountedObject@X@@@@UEBA_KXZ
	?GetAllocatedSize@?$G4Allocator@VG4TouchableHistory@@@@UEBA_KXZ
	?GetAveR90@GFlashHomoShowerParameterisation@@UEAANXZ
	?GetAveR90@GFlashSamplingShowerParameterisation@@UEAANXZ
	?GetAveR99@GFlashHomoShowerParameterisation@@UEAANXZ
	?GetAveR99@GFlashSamplingShowerParameterisation@@UEAANXZ
	?GetAveT90@GFlashHomoShowerParameterisation@@UEAANXZ
	?GetAveT90@GFlashSamplingShowerParameterisation@@UEAANXZ
	?GetAveT99@GFlashHomoShowerParameterisation@@UEAANXZ
	?GetAveT99@GFlashSamplingShowerParameterisation@@UEAANXZ
	?GetAveTmx@GFlashHomoShowerParameterisation@@UEAANXZ
	?GetAveTmx@GFlashSamplingShowerParameterisation@@UEAANXZ
	?GetCurrentValue@GFlashShowerModelMessenger@@UEAA?AVG4String@@PEAVG4UIcommand@@@Z
	?GetEc@GFlashHomoShowerParameterisation@@UEAANXZ
	?GetEc@GFlashSamplingShowerParameterisation@@UEAANXZ
	?GetEffA@GVFlashShowerParameterisation@@QEAANPEBVG4Material@@@Z
	?GetEffZ@GVFlashShowerParameterisation@@QEAANPEBVG4Material@@@Z
	?GetEneToKill@GFlashParticleBounds@@QEAANAEAVG4ParticleDefinition@@@Z
	?GetMaxEneToParametrise@GFlashParticleBounds@@QEAANAEAVG4ParticleDefinition@@@Z
	?GetMinEneToParametrise@GFlashParticleBounds@@QEAANAEAVG4ParticleDefinition@@@Z
	?GetNoPages@?$G4Allocator@V?$G4CountedObject@X@@@@UEBAHXZ
	?GetNoPages@?$G4Allocator@VG4TouchableHistory@@@@UEBAHXZ
	?GetNspot@GFlashHomoShowerParameterisation@@UEAANXZ
	?GetNspot@GFlashSamplingShowerParameterisation@@UEAANXZ
	?GetPageSize@?$G4Allocator@V?$G4CountedObject@X@@@@UEBA_KXZ
	?GetPageSize@?$G4Allocator@VG4TouchableHistory@@@@UEBA_KXZ
	?GetPoolType@?$G4Allocator@V?$G4CountedObject@X@@@@UEBAPEBDXZ
	?GetPoolType@?$G4Allocator@VG4TouchableHistory@@@@UEBAPEBDXZ
	?GetRm@GFlashHomoShowerParameterisation@@UEAANXZ
	?GetRm@GFlashSamplingShowerParameterisation@@UEAANXZ
	?GetX0@GFlashHomoShowerParameterisation@@UEAANXZ
	?GetX0@GFlashSamplingShowerParameterisation@@UEAANXZ
	?Hit@G4VGFlashSensitiveDetector@@QEAA_NPEAVG4GFlashSpot@@@Z
	?IncreasePageSize@?$G4Allocator@V?$G4CountedObject@X@@@@UEAAXI@Z
	?IncreasePageSize@?$G4Allocator@VG4TouchableHistory@@@@UEAAXI@Z
	?IntegrateEneLongitudinal@GFlashHomoShowerParameterisation@@UEAANN@Z
	?IntegrateEneLongitudinal@GFlashSamplingShowerParameterisation@@UEAANN@Z
	?IntegrateNspLongitudinal@GFlashHomoShowerParameterisation@@UEAANN@Z
	?IntegrateNspLongitudinal@GFlashSamplingShowerParameterisation@@UEAANN@Z
	?IsApplicable@GFlashShowerModel@@UEAA_NAEBVG4ParticleDefinition@@@Z
	?LnGamma@MyGamma@@CANN@Z
	?ModelTrigger@GFlashShowerModel@@UEAA_NAEBVG4FastTrack@@@Z
	?ParAveA1@GVFlashHomoShowerTuning@@UEAANXZ
	?ParAveA2@GVFlashHomoShowerTuning@@UEAANXZ
	?ParAveA3@GVFlashHomoShowerTuning@@UEAANXZ
	?ParAveT1@GVFlashHomoShowerTuning@@UEAANXZ
	?ParRC1@GVFlashHomoShowerTuning@@UEAANXZ
	?ParRC2@GVFlashHomoShowerTuning@@UEAANXZ
	?ParRC3@GVFlashHomoShowerTuning@@UEAANXZ
	?ParRC4@GVFlashHomoShowerTuning@@UEAANXZ
	?ParRT1@GVFlashHomoShowerTuning@@UEAANXZ
	?ParRT2@GVFlashHomoShowerTuning@@UEAANXZ
	?ParRT3@GVFlashHomoShowerTuning@@UEAANXZ
	?ParRT4@GVFlashHomoShowerTuning@@UEAANXZ
	?ParRT5@GVFlashHomoShowerTuning@@UEAANXZ
	?ParRT6@GVFlashHomoShowerTuning@@UEAANXZ
	?ParRho1@GVFlashHomoShowerTuning@@UEAANXZ
	?ParRho2@GVFlashHomoShowerTuning@@UEAANXZ
	?ParSigLogA1@GVFlashHomoShowerTuning@@UEAANXZ
	?ParSigLogA2@GVFlashHomoShowerTuning@@UEAANXZ
	?ParSigLogT1@GVFlashHomoShowerTuning@@UEAANXZ
	?ParSigLogT2@GVFlashHomoShowerTuning@@UEAANXZ
	?ParSpotA1@GVFlashHomoShowerTuning@@UEAANXZ
	?ParSpotA2@GVFlashHomoShowerTuning@@UEAANXZ
	?ParSpotN1@GVFlashHomoShowerTuning@@UEAANXZ
	?ParSpotN2@GVFlashHomoShowerTuning@@UEAANXZ
	?ParSpotT1@GVFlashHomoShowerTuning@@UEAANXZ
	?ParSpotT2@GVFlashHomoShowerTuning@@UEAANXZ
	?ParWC1@GVFlashHomoShowerTuning@@UEAANXZ
	?ParWC2@GVFlashHomoShowerTuning@@UEAANXZ
	?ParWC3@GVFlashHomoShowerTuning@@UEAANXZ
	?ParWC4@GVFlashHomoShowerTuning@@UEAANXZ
	?ParWC5@GVFlashHomoShowerTuning@@UEAANXZ
	?ParWC6@GVFlashHomoShowerTuning@@UEAANXZ
	?PrintMaterial@GVFlashShowerParameterisation@@QEAAXPEBVG4Material@@@Z
	?ResetStorage@?$G4Allocator@V?$G4CountedObject@X@@@@UEAAXXZ
	?ResetStorage@?$G4Allocator@VG4TouchableHistory@@@@UEAAXXZ
	?SetEneToKill@GFlashParticleBounds@@QEAAXAEAVG4ParticleDefinition@@N@Z
	?SetMaterial@GFlashHomoShowerParameterisation@@QEAAXPEAVG4Material@@@Z
	?SetMaterial@GFlashSamplingShowerParameterisation@@QEAAXPEAVG4Material@@0@Z
	?SetMaxEneToParametrise@GFlashParticleBounds@@QEAAXAEAVG4ParticleDefinition@@N@Z
	?SetMinEneToParametrise@GFlashParticleBounds@@QEAAXAEAVG4ParticleDefinition@@N@Z
	?SetNewValue@GFlashShowerModelMessenger@@UEAAXPEAVG4UIcommand@@VG4String@@@Z
	?_Change_array@?$vector@VG4String@@V?$allocator@VG4String@@@std@@@std@@AEAAXQEAVG4String@@_K1@Z
	?_Destroy@?$vector@VG4String@@V?$allocator@VG4String@@@std@@@std@@AEAAXPEAVG4String@@0@Z
	?_Maklocwcs@std@@YAPEA_WPEB_W@Z
	?_Throw_bad_array_new_length@std@@YAXXZ
	?_Xlen@?$basic_string@DU?$char_traits@D@std@@V?$allocator@D@2@@std@@CAXXZ
	?_Xlength@?$vector@VG4String@@V?$allocator@VG4String@@@std@@@std@@CAXXZ
	?__empty_global_delete@@YAXPEAX@Z
	?__empty_global_delete@@YAXPEAXW4align_val_t@std@@@Z
	?__empty_global_delete@@YAXPEAX_K@Z
	?__empty_global_delete@@YAXPEAX_KW4align_val_t@std@@@Z
	?allocate@?$allocator@D@std@@QEAAPEAD_K@Z
	?allocate@?$allocator@VG4String@@@std@@QEAAPEAVG4String@@_K@Z
	?assign@?$basic_string@DU?$char_traits@D@std@@V?$allocator@D@2@@std@@QEAAAEAV12@QEBD_K@Z
	?deallocate@?$allocator@D@std@@QEAAXQEAD_K@Z
	?deallocate@?$allocator@VG4String@@@std@@QEAAXQEAVG4String@@_K@Z
	?gam@GVFlashShowerParameterisation@@QEBANNN@Z
	?make@GFlashHitMaker@@QEAAXPEAVGFlashEnergySpot@@PEBVG4FastTrack@@@Z
	?orthogonal@Hep3Vector@CLHEP@@QEBA?AV12@XZ
	?overflow@?$basic_stringbuf@DU?$char_traits@D@std@@V?$allocator@D@2@@std@@MEAAHH@Z
	?pbackfail@?$basic_stringbuf@DU?$char_traits@D@std@@V?$allocator@D@2@@std@@MEAAHH@Z
	?seekoff@?$basic_stringbuf@DU?$char_traits@D@std@@V?$allocator@D@2@@std@@MEAA?AV?$fpos@U_Mbstatet@@@2@_JHH@Z
	?seekpos@?$basic_stringbuf@DU?$char_traits@D@std@@V?$allocator@D@2@@std@@MEAA?AV?$fpos@U_Mbstatet@@@2@V32@H@Z
	?underflow@?$basic_stringbuf@DU?$char_traits@D@std@@V?$allocator@D@2@@std@@MEAAHXZ
	?what@exception@std@@UEBAPEBDXZ
