EXPORTS 
	??_R0?AV?$BasicVector3D@N@HepGeom@@@8 	 DATA
	??_R0?AV?$Normal3D@N@HepGeom@@@8 	 DATA
	??_R0?AV?$Point3D@N@HepGeom@@@8 	 DATA
	??_R0?AV?$Vector3D@N@HepGeom@@@8 	 DATA
	??_R0?AV?$_Iosb@H@std@@@8 	 DATA
	??_R0?AV?$basic_filebuf@DU?$char_traits@D@std@@@std@@@8 	 DATA
	??_R0?AV?$basic_ios@DU?$char_traits@D@std@@@std@@@8 	 DATA
	??_R0?AV?$basic_ofstream@DU?$char_traits@D@std@@@std@@@8 	 DATA
	??_R0?AV?$basic_ostream@DU?$char_traits@D@std@@@std@@@8 	 DATA
	??_R0?AV?$basic_streambuf@DU?$char_traits@D@std@@@std@@@8 	 DATA
	??_R0?AVAbstractXMLWriter@cheprep@@@8 	 DATA
	??_R0?AVBHepRepWriter@cheprep@@@8 	 DATA
	??_R0?AVDefaultHepRep@cheprep@@@8 	 DATA
	??_R0?AVDefaultHepRepAction@cheprep@@@8 	 DATA
	??_R0?AVDefaultHepRepAttDef@cheprep@@@8 	 DATA
	??_R0?AVDefaultHepRepAttValue@cheprep@@@8 	 DATA
	??_R0?AVDefaultHepRepAttribute@cheprep@@@8 	 DATA
	??_R0?AVDefaultHepRepDefinition@cheprep@@@8 	 DATA
	??_R0?AVDefaultHepRepFactory@cheprep@@@8 	 DATA
	??_R0?AVDefaultHepRepInstance@cheprep@@@8 	 DATA
	??_R0?AVDefaultHepRepInstanceTree@cheprep@@@8 	 DATA
	??_R0?AVDefaultHepRepPoint@cheprep@@@8 	 DATA
	??_R0?AVDefaultHepRepTreeID@cheprep@@@8 	 DATA
	??_R0?AVDefaultHepRepType@cheprep@@@8 	 DATA
	??_R0?AVDefaultHepRepTypeTree@cheprep@@@8 	 DATA
	??_R0?AVDeflateOutputStreamBuffer@cheprep@@@8 	 DATA
	??_R0?AVG4AttDef@@@8 	 DATA
	??_R0?AVG4HepRep@@@8 	 DATA
	??_R0?AVG4HepRepFile@@@8 	 DATA
	??_R0?AVG4HepRepFileSceneHandler@@@8 	 DATA
	??_R0?AVG4HepRepFileViewer@@@8 	 DATA
	??_R0?AVG4HepRepMessenger@@@8 	 DATA
	??_R0?AVG4HepRepSceneHandler@@@8 	 DATA
	??_R0?AVG4HepRepViewer@@@8 	 DATA
	??_R0?AVG4PhysicalVolumeModel@@@8 	 DATA
	??_R0?AVG4TrajectoriesModel@@@8 	 DATA
	??_R0?AVG4TypeKey@@@8 	 DATA
	??_R0?AVG4UImessenger@@@8 	 DATA
	??_R0?AVG4VGraphicsScene@@@8 	 DATA
	??_R0?AVG4VGraphicsSystem@@@8 	 DATA
	??_R0?AVG4VModel@@@8 	 DATA
	??_R0?AVG4VSceneHandler@@@8 	 DATA
	??_R0?AVG4VViewer@@@8 	 DATA
	??_R0?AVGZIPOutputStream@cheprep@@@8 	 DATA
	??_R0?AVGZIPOutputStreamBuffer@cheprep@@@8 	 DATA
	??_R0?AVHepRep@HEPREP@@@8 	 DATA
	??_R0?AVHepRepAction@HEPREP@@@8 	 DATA
	??_R0?AVHepRepAttDef@HEPREP@@@8 	 DATA
	??_R0?AVHepRepAttValue@HEPREP@@@8 	 DATA
	??_R0?AVHepRepAttribute@HEPREP@@@8 	 DATA
	??_R0?AVHepRepDefinition@HEPREP@@@8 	 DATA
	??_R0?AVHepRepFactory@HEPREP@@@8 	 DATA
	??_R0?AVHepRepInstance@HEPREP@@@8 	 DATA
	??_R0?AVHepRepInstanceTree@HEPREP@@@8 	 DATA
	??_R0?AVHepRepPoint@HEPREP@@@8 	 DATA
	??_R0?AVHepRepTreeID@HEPREP@@@8 	 DATA
	??_R0?AVHepRepType@HEPREP@@@8 	 DATA
	??_R0?AVHepRepTypeTree@HEPREP@@@8 	 DATA
	??_R0?AVHepRepWriter@HEPREP@@@8 	 DATA
	??_R0?AVIndentPrintWriter@cheprep@@@8 	 DATA
	??_R0?AVXMLHepRepFactory@cheprep@@@8 	 DATA
	??_R0?AVXMLHepRepWriter@cheprep@@@8 	 DATA
	??_R0?AVXMLWriter@cheprep@@@8 	 DATA
	??_R0?AVZipEntry@cheprep@@@8 	 DATA
	??_R0?AVZipOutputStream@cheprep@@@8 	 DATA
	??_R0?AVZipOutputStreamBuffer@cheprep@@@8 	 DATA
	??_R0?AVbad_alloc@std@@@8 	 DATA
	??_R0?AVbad_array_new_length@std@@@8 	 DATA
	??_R0?AVbad_cast@std@@@8 	 DATA
	??_R0?AVexception@std@@@8 	 DATA
	??_R0?AVios_base@std@@@8 	 DATA
	?_OptionsStorage@?1??__local_stdio_printf_options@@9@4_KA 	 DATA
	?_Psave@?$_Facetptr@V?$codecvt@DDU_Mbstatet@@@std@@@std@@2PEBVfacet@locale@2@EB 	 DATA
	?_Stinit@?1??_Init@?$basic_filebuf@DU?$char_traits@D@std@@@std@@IEAAXPEAU_iobuf@@W4_Initfl@23@@Z@4U_Mbstatet@@A 	 DATA
	?attributes@BHepRepWriter@cheprep@@0V?$map@V?$basic_string@DU?$char_traits@D@std@@V?$allocator@D@2@@std@@EU?$less@V?$basic_string@DU?$char_traits@D@std@@V?$allocator@D@2@@std@@@2@V?$allocator@U?$pair@$$CBV?$basic_string@DU?$char_traits@D@std@@V?$allocator@D@2@@std@@E@std@@@2@@std@@A 	 DATA
	?crctable@DeflateOutputStreamBuffer@cheprep@@0PAKA 	 DATA
	?fSceneIdCount@G4HepRepFileSceneHandler@@1HA 	 DATA
	?fpInstance@G4HepRepMessenger@@0PEAV1@EA 	 DATA
	?labelStrings@DefaultHepRepAttValue@cheprep@@0PAV?$basic_string@DU?$char_traits@D@std@@V?$allocator@D@2@@std@@A 	 DATA
	?sceneIdCount@G4HepRepSceneHandler@@0HA 	 DATA
	?tags@BHepRepWriter@cheprep@@0V?$map@V?$basic_string@DU?$char_traits@D@std@@V?$allocator@D@2@@std@@EU?$less@V?$basic_string@DU?$char_traits@D@std@@V?$allocator@D@2@@std@@@2@V?$allocator@U?$pair@$$CBV?$basic_string@DU?$char_traits@D@std@@V?$allocator@D@2@@std@@E@std@@@2@@std@@A 	 DATA
	?values@BHepRepWriter@cheprep@@0V?$map@V?$basic_string@DU?$char_traits@D@std@@V?$allocator@D@2@@std@@EU?$less@V?$basic_string@DU?$char_traits@D@std@@V?$allocator@D@2@@std@@@2@V?$allocator@U?$pair@$$CBV?$basic_string@DU?$char_traits@D@std@@V?$allocator@D@2@@std@@E@std@@@2@@std@@A 	 DATA
	??$?0$$QEAH$$Z$$V@?$pair@$$CBHVG4String@@@std@@QEAA@Upiecewise_construct_t@1@V?$tuple@$$QEAH@1@V?$tuple@$$V@1@@Z
	??$?0$$QEAV?$basic_string@DU?$char_traits@D@std@@V?$allocator@D@2@@std@@$$Z$$V@?$pair@$$CBV?$basic_string@DU?$char_traits@D@std@@V?$allocator@D@2@@std@@E@std@@QEAA@Upiecewise_construct_t@1@V?$tuple@$$QEAV?$basic_string@DU?$char_traits@D@std@@V?$allocator@D@2@@std@@@1@V?$tuple@$$V@1@@Z
	??$?0$$QEAV?$basic_string@DU?$char_traits@D@std@@V?$allocator@D@2@@std@@$$Z$$V@?$pair@$$CBV?$basic_string@DU?$char_traits@D@std@@V?$allocator@D@2@@std@@N@std@@QEAA@Upiecewise_construct_t@1@V?$tuple@$$QEAV?$basic_string@DU?$char_traits@D@std@@V?$allocator@D@2@@std@@@1@V?$tuple@$$V@1@@Z
	??$?0$$QEAVG4String@@$$Z$$V@?$pair@$$CBVG4String@@PEAVHepRepType@HEPREP@@@std@@QEAA@Upiecewise_construct_t@1@V?$tuple@$$QEAVG4String@@@1@V?$tuple@$$V@1@@Z
	??$?0AEBH$$Z$$V@?$pair@$$CBHVG4String@@@std@@QEAA@Upiecewise_construct_t@1@V?$tuple@AEBH@1@V?$tuple@$$V@1@@Z
	??$?0AEBV?$basic_string@DU?$char_traits@D@std@@V?$allocator@D@2@@std@@$$Z$$V@?$pair@$$CBV?$basic_string@DU?$char_traits@D@std@@V?$allocator@D@2@@std@@E@std@@QEAA@Upiecewise_construct_t@1@V?$tuple@AEBV?$basic_string@DU?$char_traits@D@std@@V?$allocator@D@2@@std@@@1@V?$tuple@$$V@1@@Z
	??$?0AEBV?$basic_string@DU?$char_traits@D@std@@V?$allocator@D@2@@std@@$$Z$$V@?$pair@$$CBV?$basic_string@DU?$char_traits@D@std@@V?$allocator@D@2@@std@@H@std@@QEAA@Upiecewise_construct_t@1@V?$tuple@AEBV?$basic_string@DU?$char_traits@D@std@@V?$allocator@D@2@@std@@@1@V?$tuple@$$V@1@@Z
	??$?0AEBV?$basic_string@DU?$char_traits@D@std@@V?$allocator@D@2@@std@@$$Z$$V@?$pair@$$CBV?$basic_string@DU?$char_traits@D@std@@V?$allocator@D@2@@std@@I@std@@QEAA@Upiecewise_construct_t@1@V?$tuple@AEBV?$basic_string@DU?$char_traits@D@std@@V?$allocator@D@2@@std@@@1@V?$tuple@$$V@1@@Z
	??$?0AEBV?$basic_string@DU?$char_traits@D@std@@V?$allocator@D@2@@std@@$$Z$$V@?$pair@$$CBV?$basic_string@DU?$char_traits@D@std@@V?$allocator@D@2@@std@@N@std@@QEAA@Upiecewise_construct_t@1@V?$tuple@AEBV?$basic_string@DU?$char_traits@D@std@@V?$allocator@D@2@@std@@@1@V?$tuple@$$V@1@@Z
	??$?0AEBV?$basic_string@DU?$char_traits@D@std@@V?$allocator@D@2@@std@@$$Z$$V@?$pair@$$CBV?$basic_string@DU?$char_traits@D@std@@V?$allocator@D@2@@std@@PEAVHepRepAttDef@HEPREP@@@std@@QEAA@Upiecewise_construct_t@1@V?$tuple@AEBV?$basic_string@DU?$char_traits@D@std@@V?$allocator@D@2@@std@@@1@V?$tuple@$$V@1@@Z
	??$?0AEBV?$basic_string@DU?$char_traits@D@std@@V?$allocator@D@2@@std@@$$Z$$V@?$pair@$$CBV?$basic_string@DU?$char_traits@D@std@@V?$allocator@D@2@@std@@PEAVHepRepAttValue@HEPREP@@@std@@QEAA@Upiecewise_construct_t@1@V?$tuple@AEBV?$basic_string@DU?$char_traits@D@std@@V?$allocator@D@2@@std@@@1@V?$tuple@$$V@1@@Z
	??$?0AEBV?$basic_string@DU?$char_traits@D@std@@V?$allocator@D@2@@std@@$$Z$$V@?$pair@$$CBV?$basic_string@DU?$char_traits@D@std@@V?$allocator@D@2@@std@@V12@@std@@QEAA@Upiecewise_construct_t@1@V?$tuple@AEBV?$basic_string@DU?$char_traits@D@std@@V?$allocator@D@2@@std@@@1@V?$tuple@$$V@1@@Z
	??$?0AEBV?$basic_string@DU?$char_traits@D@std@@V?$allocator@D@2@@std@@$$Z$$V@?$pair@$$CBV?$basic_string@DU?$char_traits@D@std@@V?$allocator@D@2@@std@@V?$vector@NV?$allocator@N@std@@@2@@std@@QEAA@Upiecewise_construct_t@1@V?$tuple@AEBV?$basic_string@DU?$char_traits@D@std@@V?$allocator@D@2@@std@@@1@V?$tuple@$$V@1@@Z
	??$?0AEBV?$basic_string@DU?$char_traits@D@std@@V?$allocator@D@2@@std@@$$Z$$V@?$pair@$$CBV?$basic_string@DU?$char_traits@D@std@@V?$allocator@D@2@@std@@_J@std@@QEAA@Upiecewise_construct_t@1@V?$tuple@AEBV?$basic_string@DU?$char_traits@D@std@@V?$allocator@D@2@@std@@@1@V?$tuple@$$V@1@@Z
	??$?0AEBV?$basic_string@DU?$char_traits@D@std@@V?$allocator@D@2@@std@@$$Z$$V@?$pair@$$CBV?$basic_string@DU?$char_traits@D@std@@V?$allocator@D@2@@std@@_N@std@@QEAA@Upiecewise_construct_t@1@V?$tuple@AEBV?$basic_string@DU?$char_traits@D@std@@V?$allocator@D@2@@std@@@1@V?$tuple@$$V@1@@Z
	??$?0AEBVG4String@@$$Z$$V@?$pair@$$CBVG4String@@PEAVHepRepType@HEPREP@@@std@@QEAA@Upiecewise_construct_t@1@V?$tuple@AEBVG4String@@@1@V?$tuple@$$V@1@@Z
	??$?0V?$tuple@$$QEAH@std@@V?$tuple@$$V@1@$0A@$$Z$S@?$pair@$$CBHVG4String@@@std@@QEAA@AEAV?$tuple@$$QEAH@1@AEAV?$tuple@$$V@1@U?$integer_sequence@_K$0A@@1@U?$integer_sequence@_K$S@1@@Z
	??$?0V?$tuple@$$QEAV?$basic_string@DU?$char_traits@D@std@@V?$allocator@D@2@@std@@@std@@V?$tuple@$$V@1@$0A@$$Z$S@?$pair@$$CBV?$basic_string@DU?$char_traits@D@std@@V?$allocator@D@2@@std@@E@std@@QEAA@AEAV?$tuple@$$QEAV?$basic_string@DU?$char_traits@D@std@@V?$allocator@D@2@@std@@@1@AEAV?$tuple@$$V@1@U?$integer_sequence@_K$0A@@1@U?$integer_sequence@_K$S@1@@Z
	??$?0V?$tuple@$$QEAV?$basic_string@DU?$char_traits@D@std@@V?$allocator@D@2@@std@@@std@@V?$tuple@$$V@1@$0A@$$Z$S@?$pair@$$CBV?$basic_string@DU?$char_traits@D@std@@V?$allocator@D@2@@std@@N@std@@QEAA@AEAV?$tuple@$$QEAV?$basic_string@DU?$char_traits@D@std@@V?$allocator@D@2@@std@@@1@AEAV?$tuple@$$V@1@U?$integer_sequence@_K$0A@@1@U?$integer_sequence@_K$S@1@@Z
	??$?0V?$tuple@$$QEAVG4String@@@std@@V?$tuple@$$V@1@$0A@$$Z$S@?$pair@$$CBVG4String@@PEAVHepRepType@HEPREP@@@std@@QEAA@AEAV?$tuple@$$QEAVG4String@@@1@AEAV?$tuple@$$V@1@U?$integer_sequence@_K$0A@@1@U?$integer_sequence@_K$S@1@@Z
	??$?0V?$tuple@AEBH@std@@V?$tuple@$$V@1@$0A@$$Z$S@?$pair@$$CBHVG4String@@@std@@QEAA@AEAV?$tuple@AEBH@1@AEAV?$tuple@$$V@1@U?$integer_sequence@_K$0A@@1@U?$integer_sequence@_K$S@1@@Z
	??$?0V?$tuple@AEBV?$basic_string@DU?$char_traits@D@std@@V?$allocator@D@2@@std@@@std@@V?$tuple@$$V@1@$0A@$$Z$S@?$pair@$$CBV?$basic_string@DU?$char_traits@D@std@@V?$allocator@D@2@@std@@E@std@@QEAA@AEAV?$tuple@AEBV?$basic_string@DU?$char_traits@D@std@@V?$allocator@D@2@@std@@@1@AEAV?$tuple@$$V@1@U?$integer_sequence@_K$0A@@1@U?$integer_sequence@_K$S@1@@Z
	??$?0V?$tuple@AEBV?$basic_string@DU?$char_traits@D@std@@V?$allocator@D@2@@std@@@std@@V?$tuple@$$V@1@$0A@$$Z$S@?$pair@$$CBV?$basic_string@DU?$char_traits@D@std@@V?$allocator@D@2@@std@@H@std@@QEAA@AEAV?$tuple@AEBV?$basic_string@DU?$char_traits@D@std@@V?$allocator@D@2@@std@@@1@AEAV?$tuple@$$V@1@U?$integer_sequence@_K$0A@@1@U?$integer_sequence@_K$S@1@@Z
	??$?0V?$tuple@AEBV?$basic_string@DU?$char_traits@D@std@@V?$allocator@D@2@@std@@@std@@V?$tuple@$$V@1@$0A@$$Z$S@?$pair@$$CBV?$basic_string@DU?$char_traits@D@std@@V?$allocator@D@2@@std@@I@std@@QEAA@AEAV?$tuple@AEBV?$basic_string@DU?$char_traits@D@std@@V?$allocator@D@2@@std@@@1@AEAV?$tuple@$$V@1@U?$integer_sequence@_K$0A@@1@U?$integer_sequence@_K$S@1@@Z
	??$?0V?$tuple@AEBV?$basic_string@DU?$char_traits@D@std@@V?$allocator@D@2@@std@@@std@@V?$tuple@$$V@1@$0A@$$Z$S@?$pair@$$CBV?$basic_string@DU?$char_traits@D@std@@V?$allocator@D@2@@std@@N@std@@QEAA@AEAV?$tuple@AEBV?$basic_string@DU?$char_traits@D@std@@V?$allocator@D@2@@std@@@1@AEAV?$tuple@$$V@1@U?$integer_sequence@_K$0A@@1@U?$integer_sequence@_K$S@1@@Z
	??$?0V?$tuple@AEBV?$basic_string@DU?$char_traits@D@std@@V?$allocator@D@2@@std@@@std@@V?$tuple@$$V@1@$0A@$$Z$S@?$pair@$$CBV?$basic_string@DU?$char_traits@D@std@@V?$allocator@D@2@@std@@PEAVHepRepAttDef@HEPREP@@@std@@QEAA@AEAV?$tuple@AEBV?$basic_string@DU?$char_traits@D@std@@V?$allocator@D@2@@std@@@1@AEAV?$tuple@$$V@1@U?$integer_sequence@_K$0A@@1@U?$integer_sequence@_K$S@1@@Z
	??$?0V?$tuple@AEBV?$basic_string@DU?$char_traits@D@std@@V?$allocator@D@2@@std@@@std@@V?$tuple@$$V@1@$0A@$$Z$S@?$pair@$$CBV?$basic_string@DU?$char_traits@D@std@@V?$allocator@D@2@@std@@PEAVHepRepAttValue@HEPREP@@@std@@QEAA@AEAV?$tuple@AEBV?$basic_string@DU?$char_traits@D@std@@V?$allocator@D@2@@std@@@1@AEAV?$tuple@$$V@1@U?$integer_sequence@_K$0A@@1@U?$integer_sequence@_K$S@1@@Z
	??$?0V?$tuple@AEBV?$basic_string@DU?$char_traits@D@std@@V?$allocator@D@2@@std@@@std@@V?$tuple@$$V@1@$0A@$$Z$S@?$pair@$$CBV?$basic_string@DU?$char_traits@D@std@@V?$allocator@D@2@@std@@V12@@std@@QEAA@AEAV?$tuple@AEBV?$basic_string@DU?$char_traits@D@std@@V?$allocator@D@2@@std@@@1@AEAV?$tuple@$$V@1@U?$integer_sequence@_K$0A@@1@U?$integer_sequence@_K$S@1@@Z
	??$?0V?$tuple@AEBV?$basic_string@DU?$char_traits@D@std@@V?$allocator@D@2@@std@@@std@@V?$tuple@$$V@1@$0A@$$Z$S@?$pair@$$CBV?$basic_string@DU?$char_traits@D@std@@V?$allocator@D@2@@std@@V?$vector@NV?$allocator@N@std@@@2@@std@@QEAA@AEAV?$tuple@AEBV?$basic_string@DU?$char_traits@D@std@@V?$allocator@D@2@@std@@@1@AEAV?$tuple@$$V@1@U?$integer_sequence@_K$0A@@1@U?$integer_sequence@_K$S@1@@Z
	??$?0V?$tuple@AEBV?$basic_string@DU?$char_traits@D@std@@V?$allocator@D@2@@std@@@std@@V?$tuple@$$V@1@$0A@$$Z$S@?$pair@$$CBV?$basic_string@DU?$char_traits@D@std@@V?$allocator@D@2@@std@@_J@std@@QEAA@AEAV?$tuple@AEBV?$basic_string@DU?$char_traits@D@std@@V?$allocator@D@2@@std@@@1@AEAV?$tuple@$$V@1@U?$integer_sequence@_K$0A@@1@U?$integer_sequence@_K$S@1@@Z
	??$?0V?$tuple@AEBV?$basic_string@DU?$char_traits@D@std@@V?$allocator@D@2@@std@@@std@@V?$tuple@$$V@1@$0A@$$Z$S@?$pair@$$CBV?$basic_string@DU?$char_traits@D@std@@V?$allocator@D@2@@std@@_N@std@@QEAA@AEAV?$tuple@AEBV?$basic_string@DU?$char_traits@D@std@@V?$allocator@D@2@@std@@@1@AEAV?$tuple@$$V@1@U?$integer_sequence@_K$0A@@1@U?$integer_sequence@_K$S@1@@Z
	??$?0V?$tuple@AEBVG4String@@@std@@V?$tuple@$$V@1@$0A@$$Z$S@?$pair@$$CBVG4String@@PEAVHepRepType@HEPREP@@@std@@QEAA@AEAV?$tuple@AEBVG4String@@@1@AEAV?$tuple@$$V@1@U?$integer_sequence@_K$0A@@1@U?$integer_sequence@_K$S@1@@Z
	??$?6DU?$char_traits@D@std@@V?$allocator@D@1@@std@@YAAEAV?$basic_ostream@DU?$char_traits@D@std@@@0@AEAV10@AEBV?$basic_string@DU?$char_traits@D@std@@V?$allocator@D@2@@0@@Z
	??$?6U?$char_traits@D@std@@@std@@YAAEAV?$basic_ostream@DU?$char_traits@D@std@@@0@AEAV10@PEBD@Z
	??$?8DU?$char_traits@D@std@@V?$allocator@D@1@@std@@YA_NAEBV?$basic_string@DU?$char_traits@D@std@@V?$allocator@D@2@@0@0@Z
	??$?8DU?$char_traits@D@std@@V?$allocator@D@1@@std@@YA_NAEBV?$basic_string@DU?$char_traits@D@std@@V?$allocator@D@2@@0@QEBD@Z
	??$?9DU?$char_traits@D@std@@V?$allocator@D@1@@std@@YA_NAEBV?$basic_string@DU?$char_traits@D@std@@V?$allocator@D@2@@0@0@Z
	??$?9DU?$char_traits@D@std@@V?$allocator@D@1@@std@@YA_NAEBV?$basic_string@DU?$char_traits@D@std@@V?$allocator@D@2@@0@QEBD@Z
	??$?HDU?$char_traits@D@std@@V?$allocator@D@1@@std@@YA?AV?$basic_string@DU?$char_traits@D@std@@V?$allocator@D@2@@0@$$QEAV10@0@Z
	??$?HDU?$char_traits@D@std@@V?$allocator@D@1@@std@@YA?AV?$basic_string@DU?$char_traits@D@std@@V?$allocator@D@2@@0@$$QEAV10@AEBV10@@Z
	??$?HDU?$char_traits@D@std@@V?$allocator@D@1@@std@@YA?AV?$basic_string@DU?$char_traits@D@std@@V?$allocator@D@2@@0@$$QEAV10@QEBD@Z
	??$?HDU?$char_traits@D@std@@V?$allocator@D@1@@std@@YA?AV?$basic_string@DU?$char_traits@D@std@@V?$allocator@D@2@@0@AEBV10@0@Z
	??$?HDU?$char_traits@D@std@@V?$allocator@D@1@@std@@YA?AV?$basic_string@DU?$char_traits@D@std@@V?$allocator@D@2@@0@AEBV10@QEBD@Z
	??$?HDU?$char_traits@D@std@@V?$allocator@D@1@@std@@YA?AV?$basic_string@DU?$char_traits@D@std@@V?$allocator@D@2@@0@QEBD$$QEAV10@@Z
	??$?HDU?$char_traits@D@std@@V?$allocator@D@1@@std@@YA?AV?$basic_string@DU?$char_traits@D@std@@V?$allocator@D@2@@0@QEBDAEBV10@@Z
	??$?MDU?$char_traits@D@std@@V?$allocator@D@1@@std@@YA_NAEBV?$basic_string@DU?$char_traits@D@std@@V?$allocator@D@2@@0@0@Z
	??$_Allocate@$0BA@U_Default_allocate_traits@std@@$0A@@std@@YAPEAX_K@Z
	??$_Allocate_manually_vector_aligned@U_Default_allocate_traits@std@@@std@@YAPEAX_K@Z
	??$_Assign_range@PEAN@?$vector@NV?$allocator@N@std@@@std@@AEAAXPEAN0Uforward_iterator_tag@1@@Z
	??$_Assign_range@PEAV?$Plane3D@N@HepGeom@@@?$vector@V?$Plane3D@N@HepGeom@@V?$allocator@V?$Plane3D@N@HepGeom@@@std@@@std@@AEAAXPEAV?$Plane3D@N@HepGeom@@0Uforward_iterator_tag@1@@Z
	??$_Assign_range@PEAVPVNameCopyNo@G4ModelingParameters@@@?$vector@VPVNameCopyNo@G4ModelingParameters@@V?$allocator@VPVNameCopyNo@G4ModelingParameters@@@std@@@std@@AEAAXPEAVPVNameCopyNo@G4ModelingParameters@@0Uforward_iterator_tag@1@@Z
	??$_Assign_range@PEAVVisAttributesModifier@G4ModelingParameters@@@?$vector@VVisAttributesModifier@G4ModelingParameters@@V?$allocator@VVisAttributesModifier@G4ModelingParameters@@@std@@@std@@AEAAXPEAVVisAttributesModifier@G4ModelingParameters@@0Uforward_iterator_tag@1@@Z
	??$_Const_cast@$$CBVG4AttValue@@@std@@YAPEAVG4AttValue@@PEBV1@@Z
	??$_Construct_in_place@PEADAEBQEAD@std@@YAXAEAPEADAEBQEAD@Z
	??$_Construct_in_place@PEAU?$_Tree_node@PEAVHepRepAttDef@HEPREP@@PEAX@std@@AEAPEAU12@@std@@YAXAEAPEAU?$_Tree_node@PEAVHepRepAttDef@HEPREP@@PEAX@0@0@Z
	??$_Construct_in_place@PEAU?$_Tree_node@PEAVHepRepAttDef@HEPREP@@PEAX@std@@AEBQEAU12@@std@@YAXAEAPEAU?$_Tree_node@PEAVHepRepAttDef@HEPREP@@PEAX@0@AEBQEAU10@@Z
	??$_Construct_in_place@PEAU?$_Tree_node@PEAVHepRepAttValue@HEPREP@@PEAX@std@@AEAPEAU12@@std@@YAXAEAPEAU?$_Tree_node@PEAVHepRepAttValue@HEPREP@@PEAX@0@0@Z
	??$_Construct_in_place@PEAU?$_Tree_node@PEAVHepRepAttValue@HEPREP@@PEAX@std@@AEBQEAU12@@std@@YAXAEAPEAU?$_Tree_node@PEAVHepRepAttValue@HEPREP@@PEAX@0@AEBQEAU10@@Z
	??$_Construct_in_place@PEAU?$_Tree_node@U?$pair@$$CBHVG4String@@@std@@PEAX@std@@AEAPEAU12@@std@@YAXAEAPEAU?$_Tree_node@U?$pair@$$CBHVG4String@@@std@@PEAX@0@0@Z
	??$_Construct_in_place@PEAU?$_Tree_node@U?$pair@$$CBHVG4String@@@std@@PEAX@std@@AEBQEAU12@@std@@YAXAEAPEAU?$_Tree_node@U?$pair@$$CBHVG4String@@@std@@PEAX@0@AEBQEAU10@@Z
	??$_Construct_in_place@PEAU?$_Tree_node@U?$pair@$$CBV?$basic_string@DU?$char_traits@D@std@@V?$allocator@D@2@@std@@E@std@@PEAX@std@@AEAPEAU12@@std@@YAXAEAPEAU?$_Tree_node@U?$pair@$$CBV?$basic_string@DU?$char_traits@D@std@@V?$allocator@D@2@@std@@E@std@@PEAX@0@0@Z
	??$_Construct_in_place@PEAU?$_Tree_node@U?$pair@$$CBV?$basic_string@DU?$char_traits@D@std@@V?$allocator@D@2@@std@@E@std@@PEAX@std@@AEBQEAU12@@std@@YAXAEAPEAU?$_Tree_node@U?$pair@$$CBV?$basic_string@DU?$char_traits@D@std@@V?$allocator@D@2@@std@@E@std@@PEAX@0@AEBQEAU10@@Z
	??$_Construct_in_place@PEAU?$_Tree_node@U?$pair@$$CBV?$basic_string@DU?$char_traits@D@std@@V?$allocator@D@2@@std@@H@std@@PEAX@std@@AEAPEAU12@@std@@YAXAEAPEAU?$_Tree_node@U?$pair@$$CBV?$basic_string@DU?$char_traits@D@std@@V?$allocator@D@2@@std@@H@std@@PEAX@0@0@Z
	??$_Construct_in_place@PEAU?$_Tree_node@U?$pair@$$CBV?$basic_string@DU?$char_traits@D@std@@V?$allocator@D@2@@std@@H@std@@PEAX@std@@AEBQEAU12@@std@@YAXAEAPEAU?$_Tree_node@U?$pair@$$CBV?$basic_string@DU?$char_traits@D@std@@V?$allocator@D@2@@std@@H@std@@PEAX@0@AEBQEAU10@@Z
	??$_Construct_in_place@PEAU?$_Tree_node@U?$pair@$$CBV?$basic_string@DU?$char_traits@D@std@@V?$allocator@D@2@@std@@I@std@@PEAX@std@@AEAPEAU12@@std@@YAXAEAPEAU?$_Tree_node@U?$pair@$$CBV?$basic_string@DU?$char_traits@D@std@@V?$allocator@D@2@@std@@I@std@@PEAX@0@0@Z
	??$_Construct_in_place@PEAU?$_Tree_node@U?$pair@$$CBV?$basic_string@DU?$char_traits@D@std@@V?$allocator@D@2@@std@@I@std@@PEAX@std@@AEBQEAU12@@std@@YAXAEAPEAU?$_Tree_node@U?$pair@$$CBV?$basic_string@DU?$char_traits@D@std@@V?$allocator@D@2@@std@@I@std@@PEAX@0@AEBQEAU10@@Z
	??$_Construct_in_place@PEAU?$_Tree_node@U?$pair@$$CBV?$basic_string@DU?$char_traits@D@std@@V?$allocator@D@2@@std@@N@std@@PEAX@std@@AEAPEAU12@@std@@YAXAEAPEAU?$_Tree_node@U?$pair@$$CBV?$basic_string@DU?$char_traits@D@std@@V?$allocator@D@2@@std@@N@std@@PEAX@0@0@Z
	??$_Construct_in_place@PEAU?$_Tree_node@U?$pair@$$CBV?$basic_string@DU?$char_traits@D@std@@V?$allocator@D@2@@std@@N@std@@PEAX@std@@AEBQEAU12@@std@@YAXAEAPEAU?$_Tree_node@U?$pair@$$CBV?$basic_string@DU?$char_traits@D@std@@V?$allocator@D@2@@std@@N@std@@PEAX@0@AEBQEAU10@@Z
	??$_Construct_in_place@PEAU?$_Tree_node@U?$pair@$$CBV?$basic_string@DU?$char_traits@D@std@@V?$allocator@D@2@@std@@PEAVHepRepAttDef@HEPREP@@@std@@PEAX@std@@AEAPEAU12@@std@@YAXAEAPEAU?$_Tree_node@U?$pair@$$CBV?$basic_string@DU?$char_traits@D@std@@V?$allocator@D@2@@std@@PEAVHepRepAttDef@HEPREP@@@std@@PEAX@0@0@Z
	??$_Construct_in_place@PEAU?$_Tree_node@U?$pair@$$CBV?$basic_string@DU?$char_traits@D@std@@V?$allocator@D@2@@std@@PEAVHepRepAttDef@HEPREP@@@std@@PEAX@std@@AEBQEAU12@@std@@YAXAEAPEAU?$_Tree_node@U?$pair@$$CBV?$basic_string@DU?$char_traits@D@std@@V?$allocator@D@2@@std@@PEAVHepRepAttDef@HEPREP@@@std@@PEAX@0@AEBQEAU10@@Z
	??$_Construct_in_place@PEAU?$_Tree_node@U?$pair@$$CBV?$basic_string@DU?$char_traits@D@std@@V?$allocator@D@2@@std@@PEAVHepRepAttValue@HEPREP@@@std@@PEAX@std@@AEAPEAU12@@std@@YAXAEAPEAU?$_Tree_node@U?$pair@$$CBV?$basic_string@DU?$char_traits@D@std@@V?$allocator@D@2@@std@@PEAVHepRepAttValue@HEPREP@@@std@@PEAX@0@0@Z
	??$_Construct_in_place@PEAU?$_Tree_node@U?$pair@$$CBV?$basic_string@DU?$char_traits@D@std@@V?$allocator@D@2@@std@@PEAVHepRepAttValue@HEPREP@@@std@@PEAX@std@@AEBQEAU12@@std@@YAXAEAPEAU?$_Tree_node@U?$pair@$$CBV?$basic_string@DU?$char_traits@D@std@@V?$allocator@D@2@@std@@PEAVHepRepAttValue@HEPREP@@@std@@PEAX@0@AEBQEAU10@@Z
	??$_Construct_in_place@PEAU?$_Tree_node@U?$pair@$$CBV?$basic_string@DU?$char_traits@D@std@@V?$allocator@D@2@@std@@V12@@std@@PEAX@std@@AEAPEAU12@@std@@YAXAEAPEAU?$_Tree_node@U?$pair@$$CBV?$basic_string@DU?$char_traits@D@std@@V?$allocator@D@2@@std@@V12@@std@@PEAX@0@0@Z
	??$_Construct_in_place@PEAU?$_Tree_node@U?$pair@$$CBV?$basic_string@DU?$char_traits@D@std@@V?$allocator@D@2@@std@@V12@@std@@PEAX@std@@AEBQEAU12@@std@@YAXAEAPEAU?$_Tree_node@U?$pair@$$CBV?$basic_string@DU?$char_traits@D@std@@V?$allocator@D@2@@std@@V12@@std@@PEAX@0@AEBQEAU10@@Z
	??$_Construct_in_place@PEAU?$_Tree_node@U?$pair@$$CBV?$basic_string@DU?$char_traits@D@std@@V?$allocator@D@2@@std@@V?$vector@NV?$allocator@N@std@@@2@@std@@PEAX@std@@AEAPEAU12@@std@@YAXAEAPEAU?$_Tree_node@U?$pair@$$CBV?$basic_string@DU?$char_traits@D@std@@V?$allocator@D@2@@std@@V?$vector@NV?$allocator@N@std@@@2@@std@@PEAX@0@0@Z
	??$_Construct_in_place@PEAU?$_Tree_node@U?$pair@$$CBV?$basic_string@DU?$char_traits@D@std@@V?$allocator@D@2@@std@@V?$vector@NV?$allocator@N@std@@@2@@std@@PEAX@std@@AEBQEAU12@@std@@YAXAEAPEAU?$_Tree_node@U?$pair@$$CBV?$basic_string@DU?$char_traits@D@std@@V?$allocator@D@2@@std@@V?$vector@NV?$allocator@N@std@@@2@@std@@PEAX@0@AEBQEAU10@@Z
	??$_Construct_in_place@PEAU?$_Tree_node@U?$pair@$$CBV?$basic_string@DU?$char_traits@D@std@@V?$allocator@D@2@@std@@_J@std@@PEAX@std@@AEAPEAU12@@std@@YAXAEAPEAU?$_Tree_node@U?$pair@$$CBV?$basic_string@DU?$char_traits@D@std@@V?$allocator@D@2@@std@@_J@std@@PEAX@0@0@Z
	??$_Construct_in_place@PEAU?$_Tree_node@U?$pair@$$CBV?$basic_string@DU?$char_traits@D@std@@V?$allocator@D@2@@std@@_J@std@@PEAX@std@@AEBQEAU12@@std@@YAXAEAPEAU?$_Tree_node@U?$pair@$$CBV?$basic_string@DU?$char_traits@D@std@@V?$allocator@D@2@@std@@_J@std@@PEAX@0@AEBQEAU10@@Z
	??$_Construct_in_place@PEAU?$_Tree_node@U?$pair@$$CBV?$basic_string@DU?$char_traits@D@std@@V?$allocator@D@2@@std@@_N@std@@PEAX@std@@AEAPEAU12@@std@@YAXAEAPEAU?$_Tree_node@U?$pair@$$CBV?$basic_string@DU?$char_traits@D@std@@V?$allocator@D@2@@std@@_N@std@@PEAX@0@0@Z
	??$_Construct_in_place@PEAU?$_Tree_node@U?$pair@$$CBV?$basic_string@DU?$char_traits@D@std@@V?$allocator@D@2@@std@@_N@std@@PEAX@std@@AEBQEAU12@@std@@YAXAEAPEAU?$_Tree_node@U?$pair@$$CBV?$basic_string@DU?$char_traits@D@std@@V?$allocator@D@2@@std@@_N@std@@PEAX@0@AEBQEAU10@@Z
	??$_Construct_in_place@PEAU?$_Tree_node@U?$pair@$$CBVG4String@@PEAVHepRepType@HEPREP@@@std@@PEAX@std@@AEAPEAU12@@std@@YAXAEAPEAU?$_Tree_node@U?$pair@$$CBVG4String@@PEAVHepRepType@HEPREP@@@std@@PEAX@0@0@Z
	??$_Construct_in_place@PEAU?$_Tree_node@U?$pair@$$CBVG4String@@PEAVHepRepType@HEPREP@@@std@@PEAX@std@@AEBQEAU12@@std@@YAXAEAPEAU?$_Tree_node@U?$pair@$$CBVG4String@@PEAVHepRepType@HEPREP@@@std@@PEAX@0@AEBQEAU10@@Z
	??$_Construct_in_place@PEAU?$_Tree_node@U?$pair@$$CBVG4String@@VG4AttDef@@@std@@PEAX@std@@AEBQEAU12@@std@@YAXAEAPEAU?$_Tree_node@U?$pair@$$CBVG4String@@VG4AttDef@@@std@@PEAX@0@AEBQEAU10@@Z
	??$_Construct_in_place@U_Container_proxy@std@@PEAU_Container_base12@2@@std@@YAXAEAU_Container_proxy@0@$$QEAPEAU_Container_base12@0@@Z
	??$_Copy_memmove@PEANPEAN@std@@YAPEANPEAN00@Z
	??$_Copy_memmove@PEAPEAV?$basic_string@DU?$char_traits@D@std@@V?$allocator@D@2@@std@@PEAPEAV12@@std@@YAPEAPEAV?$basic_string@DU?$char_traits@D@std@@V?$allocator@D@2@@0@PEAPEAV10@00@Z
	??$_Copy_memmove@PEAPEAVHepRepInstance@HEPREP@@PEAPEAV12@@std@@YAPEAPEAVHepRepInstance@HEPREP@@PEAPEAV12@00@Z
	??$_Copy_memmove@PEAPEAVHepRepInstanceTree@HEPREP@@PEAPEAV12@@std@@YAPEAPEAVHepRepInstanceTree@HEPREP@@PEAPEAV12@00@Z
	??$_Copy_memmove@PEAPEAVHepRepPoint@HEPREP@@PEAPEAV12@@std@@YAPEAPEAVHepRepPoint@HEPREP@@PEAPEAV12@00@Z
	??$_Copy_memmove@PEAPEAVHepRepTreeID@HEPREP@@PEAPEAV12@@std@@YAPEAPEAVHepRepTreeID@HEPREP@@PEAPEAV12@00@Z
	??$_Copy_memmove@PEAPEAVHepRepType@HEPREP@@PEAPEAV12@@std@@YAPEAPEAVHepRepType@HEPREP@@PEAPEAV12@00@Z
	??$_Copy_memmove@PEAPEAVHepRepTypeTree@HEPREP@@PEAPEAV12@@std@@YAPEAPEAVHepRepTypeTree@HEPREP@@PEAPEAV12@00@Z
	??$_Copy_memmove@PEAPEAVZipEntry@cheprep@@PEAPEAV12@@std@@YAPEAPEAVZipEntry@cheprep@@PEAPEAV12@00@Z
	??$_Copy_memmove@PEAV?$Plane3D@N@HepGeom@@PEAV12@@std@@YAPEAV?$Plane3D@N@HepGeom@@PEAV12@00@Z
	??$_Copy_unchecked@PEAVPVNameCopyNo@G4ModelingParameters@@PEAV12@@std@@YAPEAVPVNameCopyNo@G4ModelingParameters@@PEAV12@00@Z
	??$_Copy_unchecked@PEAVVisAttributesModifier@G4ModelingParameters@@PEAV12@@std@@YAPEAVVisAttributesModifier@G4ModelingParameters@@PEAV12@00@Z
	??$_Deallocate@$0BA@$0A@@std@@YAXPEAX_K@Z
	??$_Deallocate_plain@V?$allocator@U_Container_proxy@std@@@std@@@std@@YAXAEAV?$allocator@U_Container_proxy@std@@@0@QEAU_Container_proxy@0@@Z
	??$_Delete_plain_internal@V?$allocator@U_Container_proxy@std@@@std@@@std@@YAXAEAV?$allocator@U_Container_proxy@std@@@0@QEAU_Container_proxy@0@@Z
	??$_Destroy_in_place@PEAD@std@@YAXAEAPEAD@Z
	??$_Destroy_in_place@PEAU?$_Tree_node@PEAVHepRepAttDef@HEPREP@@PEAX@std@@@std@@YAXAEAPEAU?$_Tree_node@PEAVHepRepAttDef@HEPREP@@PEAX@0@@Z
	??$_Destroy_in_place@PEAU?$_Tree_node@PEAVHepRepAttValue@HEPREP@@PEAX@std@@@std@@YAXAEAPEAU?$_Tree_node@PEAVHepRepAttValue@HEPREP@@PEAX@0@@Z
	??$_Destroy_in_place@PEAU?$_Tree_node@U?$pair@$$CBHVG4String@@@std@@PEAX@std@@@std@@YAXAEAPEAU?$_Tree_node@U?$pair@$$CBHVG4String@@@std@@PEAX@0@@Z
	??$_Destroy_in_place@PEAU?$_Tree_node@U?$pair@$$CBV?$basic_string@DU?$char_traits@D@std@@V?$allocator@D@2@@std@@E@std@@PEAX@std@@@std@@YAXAEAPEAU?$_Tree_node@U?$pair@$$CBV?$basic_string@DU?$char_traits@D@std@@V?$allocator@D@2@@std@@E@std@@PEAX@0@@Z
	??$_Destroy_in_place@PEAU?$_Tree_node@U?$pair@$$CBV?$basic_string@DU?$char_traits@D@std@@V?$allocator@D@2@@std@@H@std@@PEAX@std@@@std@@YAXAEAPEAU?$_Tree_node@U?$pair@$$CBV?$basic_string@DU?$char_traits@D@std@@V?$allocator@D@2@@std@@H@std@@PEAX@0@@Z
	??$_Destroy_in_place@PEAU?$_Tree_node@U?$pair@$$CBV?$basic_string@DU?$char_traits@D@std@@V?$allocator@D@2@@std@@I@std@@PEAX@std@@@std@@YAXAEAPEAU?$_Tree_node@U?$pair@$$CBV?$basic_string@DU?$char_traits@D@std@@V?$allocator@D@2@@std@@I@std@@PEAX@0@@Z
	??$_Destroy_in_place@PEAU?$_Tree_node@U?$pair@$$CBV?$basic_string@DU?$char_traits@D@std@@V?$allocator@D@2@@std@@N@std@@PEAX@std@@@std@@YAXAEAPEAU?$_Tree_node@U?$pair@$$CBV?$basic_string@DU?$char_traits@D@std@@V?$allocator@D@2@@std@@N@std@@PEAX@0@@Z
	??$_Destroy_in_place@PEAU?$_Tree_node@U?$pair@$$CBV?$basic_string@DU?$char_traits@D@std@@V?$allocator@D@2@@std@@PEAVHepRepAttDef@HEPREP@@@std@@PEAX@std@@@std@@YAXAEAPEAU?$_Tree_node@U?$pair@$$CBV?$basic_string@DU?$char_traits@D@std@@V?$allocator@D@2@@std@@PEAVHepRepAttDef@HEPREP@@@std@@PEAX@0@@Z
	??$_Destroy_in_place@PEAU?$_Tree_node@U?$pair@$$CBV?$basic_string@DU?$char_traits@D@std@@V?$allocator@D@2@@std@@PEAVHepRepAttValue@HEPREP@@@std@@PEAX@std@@@std@@YAXAEAPEAU?$_Tree_node@U?$pair@$$CBV?$basic_string@DU?$char_traits@D@std@@V?$allocator@D@2@@std@@PEAVHepRepAttValue@HEPREP@@@std@@PEAX@0@@Z
	??$_Destroy_in_place@PEAU?$_Tree_node@U?$pair@$$CBV?$basic_string@DU?$char_traits@D@std@@V?$allocator@D@2@@std@@V12@@std@@PEAX@std@@@std@@YAXAEAPEAU?$_Tree_node@U?$pair@$$CBV?$basic_string@DU?$char_traits@D@std@@V?$allocator@D@2@@std@@V12@@std@@PEAX@0@@Z
	??$_Destroy_in_place@PEAU?$_Tree_node@U?$pair@$$CBV?$basic_string@DU?$char_traits@D@std@@V?$allocator@D@2@@std@@V?$vector@NV?$allocator@N@std@@@2@@std@@PEAX@std@@@std@@YAXAEAPEAU?$_Tree_node@U?$pair@$$CBV?$basic_string@DU?$char_traits@D@std@@V?$allocator@D@2@@std@@V?$vector@NV?$allocator@N@std@@@2@@std@@PEAX@0@@Z
	??$_Destroy_in_place@PEAU?$_Tree_node@U?$pair@$$CBV?$basic_string@DU?$char_traits@D@std@@V?$allocator@D@2@@std@@_J@std@@PEAX@std@@@std@@YAXAEAPEAU?$_Tree_node@U?$pair@$$CBV?$basic_string@DU?$char_traits@D@std@@V?$allocator@D@2@@std@@_J@std@@PEAX@0@@Z
	??$_Destroy_in_place@PEAU?$_Tree_node@U?$pair@$$CBV?$basic_string@DU?$char_traits@D@std@@V?$allocator@D@2@@std@@_N@std@@PEAX@std@@@std@@YAXAEAPEAU?$_Tree_node@U?$pair@$$CBV?$basic_string@DU?$char_traits@D@std@@V?$allocator@D@2@@std@@_N@std@@PEAX@0@@Z
	??$_Destroy_in_place@PEAU?$_Tree_node@U?$pair@$$CBVG4String@@PEAVHepRepType@HEPREP@@@std@@PEAX@std@@@std@@YAXAEAPEAU?$_Tree_node@U?$pair@$$CBVG4String@@PEAVHepRepType@HEPREP@@@std@@PEAX@0@@Z
	??$_Destroy_in_place@PEAU?$_Tree_node@U?$pair@$$CBVG4String@@VG4AttDef@@@std@@PEAX@std@@@std@@YAXAEAPEAU?$_Tree_node@U?$pair@$$CBVG4String@@VG4AttDef@@@std@@PEAX@0@@Z
	??$_Destroy_in_place@PEAV?$basic_string@DU?$char_traits@D@std@@V?$allocator@D@2@@std@@@std@@YAXAEAPEAV?$basic_string@DU?$char_traits@D@std@@V?$allocator@D@2@@0@@Z
	??$_Destroy_range@PEAPEAV?$basic_string@DU?$char_traits@D@std@@V?$allocator@D@2@@std@@@std@@YAXPEAPEAV?$basic_string@DU?$char_traits@D@std@@V?$allocator@D@2@@0@QEAPEAV10@@Z
	??$_Destroy_range@V?$allocator@D@std@@@std@@YAXPEADQEADAEAV?$allocator@D@0@@Z
	??$_Destroy_range@V?$allocator@N@std@@@std@@YAXPEANQEANAEAV?$allocator@N@0@@Z
	??$_Destroy_range@V?$allocator@PEAVHepRepAction@HEPREP@@@std@@@std@@YAXPEAPEAVHepRepAction@HEPREP@@QEAPEAV12@AEAV?$allocator@PEAVHepRepAction@HEPREP@@@0@@Z
	??$_Destroy_range@V?$allocator@PEAVHepRepInstance@HEPREP@@@std@@@std@@YAXPEAPEAVHepRepInstance@HEPREP@@QEAPEAV12@AEAV?$allocator@PEAVHepRepInstance@HEPREP@@@0@@Z
	??$_Destroy_range@V?$allocator@PEAVHepRepInstanceTree@HEPREP@@@std@@@std@@YAXPEAPEAVHepRepInstanceTree@HEPREP@@QEAPEAV12@AEAV?$allocator@PEAVHepRepInstanceTree@HEPREP@@@0@@Z
	??$_Destroy_range@V?$allocator@PEAVHepRepPoint@HEPREP@@@std@@@std@@YAXPEAPEAVHepRepPoint@HEPREP@@QEAPEAV12@AEAV?$allocator@PEAVHepRepPoint@HEPREP@@@0@@Z
	??$_Destroy_range@V?$allocator@PEAVHepRepTreeID@HEPREP@@@std@@@std@@YAXPEAPEAVHepRepTreeID@HEPREP@@QEAPEAV12@AEAV?$allocator@PEAVHepRepTreeID@HEPREP@@@0@@Z
	??$_Destroy_range@V?$allocator@PEAVHepRepType@HEPREP@@@std@@@std@@YAXPEAPEAVHepRepType@HEPREP@@QEAPEAV12@AEAV?$allocator@PEAVHepRepType@HEPREP@@@0@@Z
	??$_Destroy_range@V?$allocator@PEAVHepRepTypeTree@HEPREP@@@std@@@std@@YAXPEAPEAVHepRepTypeTree@HEPREP@@QEAPEAV12@AEAV?$allocator@PEAVHepRepTypeTree@HEPREP@@@0@@Z
	??$_Destroy_range@V?$allocator@PEAVZipEntry@cheprep@@@std@@@std@@YAXPEAPEAVZipEntry@cheprep@@QEAPEAV12@AEAV?$allocator@PEAVZipEntry@cheprep@@@0@@Z
	??$_Destroy_range@V?$allocator@V?$Plane3D@N@HepGeom@@@std@@@std@@YAXPEAV?$Plane3D@N@HepGeom@@QEAV12@AEAV?$allocator@V?$Plane3D@N@HepGeom@@@0@@Z
	??$_Destroy_range@V?$allocator@V?$basic_string@DU?$char_traits@D@std@@V?$allocator@D@2@@std@@@std@@@std@@YAXPEAV?$basic_string@DU?$char_traits@D@std@@V?$allocator@D@2@@0@QEAV10@AEAV?$allocator@V?$basic_string@DU?$char_traits@D@std@@V?$allocator@D@2@@std@@@0@@Z
	??$_Destroy_range@V?$allocator@VG4AttValue@@@std@@@std@@YAXPEAVG4AttValue@@QEAV1@AEAV?$allocator@VG4AttValue@@@0@@Z
	??$_Destroy_range@V?$allocator@VG4String@@@std@@@std@@YAXPEAVG4String@@QEAV1@AEAV?$allocator@VG4String@@@0@@Z
	??$_Destroy_range@V?$allocator@VPVNameCopyNo@G4ModelingParameters@@@std@@@std@@YAXPEAVPVNameCopyNo@G4ModelingParameters@@QEAV12@AEAV?$allocator@VPVNameCopyNo@G4ModelingParameters@@@0@@Z
	??$_Destroy_range@V?$allocator@VVisAttributesModifier@G4ModelingParameters@@@std@@@std@@YAXPEAVVisAttributesModifier@G4ModelingParameters@@QEAV12@AEAV?$allocator@VVisAttributesModifier@G4ModelingParameters@@@0@@Z
	??$_Emplace_reallocate@AEBN@?$vector@NV?$allocator@N@std@@@std@@QEAAPEANQEANAEBN@Z
	??$_Emplace_reallocate@AEBQEAVHepRepInstance@HEPREP@@@?$vector@PEAVHepRepInstance@HEPREP@@V?$allocator@PEAVHepRepInstance@HEPREP@@@std@@@std@@QEAAPEAPEAVHepRepInstance@HEPREP@@QEAPEAV23@AEBQEAV23@@Z
	??$_Emplace_reallocate@AEBQEAVHepRepInstanceTree@HEPREP@@@?$vector@PEAVHepRepInstanceTree@HEPREP@@V?$allocator@PEAVHepRepInstanceTree@HEPREP@@@std@@@std@@QEAAPEAPEAVHepRepInstanceTree@HEPREP@@QEAPEAV23@AEBQEAV23@@Z
	??$_Emplace_reallocate@AEBQEAVHepRepPoint@HEPREP@@@?$vector@PEAVHepRepPoint@HEPREP@@V?$allocator@PEAVHepRepPoint@HEPREP@@@std@@@std@@QEAAPEAPEAVHepRepPoint@HEPREP@@QEAPEAV23@AEBQEAV23@@Z
	??$_Emplace_reallocate@AEBQEAVHepRepTreeID@HEPREP@@@?$vector@PEAVHepRepTreeID@HEPREP@@V?$allocator@PEAVHepRepTreeID@HEPREP@@@std@@@std@@QEAAPEAPEAVHepRepTreeID@HEPREP@@QEAPEAV23@AEBQEAV23@@Z
	??$_Emplace_reallocate@AEBQEAVHepRepType@HEPREP@@@?$vector@PEAVHepRepType@HEPREP@@V?$allocator@PEAVHepRepType@HEPREP@@@std@@@std@@QEAAPEAPEAVHepRepType@HEPREP@@QEAPEAV23@AEBQEAV23@@Z
	??$_Emplace_reallocate@AEBQEAVHepRepTypeTree@HEPREP@@@?$vector@PEAVHepRepTypeTree@HEPREP@@V?$allocator@PEAVHepRepTypeTree@HEPREP@@@std@@@std@@QEAAPEAPEAVHepRepTypeTree@HEPREP@@QEAPEAV23@AEBQEAV23@@Z
	??$_Emplace_reallocate@AEBQEAVZipEntry@cheprep@@@?$vector@PEAVZipEntry@cheprep@@V?$allocator@PEAVZipEntry@cheprep@@@std@@@std@@QEAAPEAPEAVZipEntry@cheprep@@QEAPEAV23@AEBQEAV23@@Z
	??$_Emplace_reallocate@AEBV?$basic_string@DU?$char_traits@D@std@@V?$allocator@D@2@@std@@@?$vector@V?$basic_string@DU?$char_traits@D@std@@V?$allocator@D@2@@std@@V?$allocator@V?$basic_string@DU?$char_traits@D@std@@V?$allocator@D@2@@std@@@2@@std@@QEAAPEAV?$basic_string@DU?$char_traits@D@std@@V?$allocator@D@2@@1@QEAV21@AEBV21@@Z
	??$_Emplace_reallocate@AEBVG4String@@@?$vector@VG4String@@V?$allocator@VG4String@@@std@@@std@@QEAAPEAVG4String@@QEAV2@AEBV2@@Z
	??$_Emplace_reallocate@VG4String@@@?$vector@VG4String@@V?$allocator@VG4String@@@std@@@std@@QEAAPEAVG4String@@QEAV2@$$QEAV2@@Z
	??$_Eqrange@V?$basic_string@DU?$char_traits@D@std@@V?$allocator@D@2@@std@@@?$_Tree@V?$_Tmap_traits@V?$basic_string@DU?$char_traits@D@std@@V?$allocator@D@2@@std@@PEAVHepRepAttValue@HEPREP@@U?$less@V?$basic_string@DU?$char_traits@D@std@@V?$allocator@D@2@@std@@@2@V?$allocator@U?$pair@$$CBV?$basic_string@DU?$char_traits@D@std@@V?$allocator@D@2@@std@@PEAVHepRepAttValue@HEPREP@@@std@@@2@$0A@@std@@@std@@IEBA?AU?$pair@PEAU?$_Tree_node@U?$pair@$$CBV?$basic_string@DU?$char_traits@D@std@@V?$allocator@D@2@@std@@PEAVHepRepAttValue@HEPREP@@@std@@PEAX@std@@PEAU12@@1@AEBV?$basic_string@DU?$char_traits@D@std@@V?$allocator@D@2@@1@@Z
	??$_Erase_tree@V?$allocator@U?$_Tree_node@PEAVHepRepAttDef@HEPREP@@PEAX@std@@@std@@@?$_Tree_val@U?$_Tree_simple_types@PEAVHepRepAttDef@HEPREP@@@std@@@std@@QEAAXAEAV?$allocator@U?$_Tree_node@PEAVHepRepAttDef@HEPREP@@PEAX@std@@@1@PEAU?$_Tree_node@PEAVHepRepAttDef@HEPREP@@PEAX@1@@Z
	??$_Erase_tree@V?$allocator@U?$_Tree_node@PEAVHepRepAttValue@HEPREP@@PEAX@std@@@std@@@?$_Tree_val@U?$_Tree_simple_types@PEAVHepRepAttValue@HEPREP@@@std@@@std@@QEAAXAEAV?$allocator@U?$_Tree_node@PEAVHepRepAttValue@HEPREP@@PEAX@std@@@1@PEAU?$_Tree_node@PEAVHepRepAttValue@HEPREP@@PEAX@1@@Z
	??$_Erase_tree@V?$allocator@U?$_Tree_node@U?$pair@$$CBHVG4String@@@std@@PEAX@std@@@std@@@?$_Tree_val@U?$_Tree_simple_types@U?$pair@$$CBHVG4String@@@std@@@std@@@std@@QEAAXAEAV?$allocator@U?$_Tree_node@U?$pair@$$CBHVG4String@@@std@@PEAX@std@@@1@PEAU?$_Tree_node@U?$pair@$$CBHVG4String@@@std@@PEAX@1@@Z
	??$_Erase_tree@V?$allocator@U?$_Tree_node@U?$pair@$$CBV?$basic_string@DU?$char_traits@D@std@@V?$allocator@D@2@@std@@E@std@@PEAX@std@@@std@@@?$_Tree_val@U?$_Tree_simple_types@U?$pair@$$CBV?$basic_string@DU?$char_traits@D@std@@V?$allocator@D@2@@std@@E@std@@@std@@@std@@QEAAXAEAV?$allocator@U?$_Tree_node@U?$pair@$$CBV?$basic_string@DU?$char_traits@D@std@@V?$allocator@D@2@@std@@E@std@@PEAX@std@@@1@PEAU?$_Tree_node@U?$pair@$$CBV?$basic_string@DU?$char_traits@D@std@@V?$allocator@D@2@@std@@E@std@@PEAX@1@@Z
	??$_Erase_tree@V?$allocator@U?$_Tree_node@U?$pair@$$CBV?$basic_string@DU?$char_traits@D@std@@V?$allocator@D@2@@std@@H@std@@PEAX@std@@@std@@@?$_Tree_val@U?$_Tree_simple_types@U?$pair@$$CBV?$basic_string@DU?$char_traits@D@std@@V?$allocator@D@2@@std@@H@std@@@std@@@std@@QEAAXAEAV?$allocator@U?$_Tree_node@U?$pair@$$CBV?$basic_string@DU?$char_traits@D@std@@V?$allocator@D@2@@std@@H@std@@PEAX@std@@@1@PEAU?$_Tree_node@U?$pair@$$CBV?$basic_string@DU?$char_traits@D@std@@V?$allocator@D@2@@std@@H@std@@PEAX@1@@Z
	??$_Erase_tree@V?$allocator@U?$_Tree_node@U?$pair@$$CBV?$basic_string@DU?$char_traits@D@std@@V?$allocator@D@2@@std@@I@std@@PEAX@std@@@std@@@?$_Tree_val@U?$_Tree_simple_types@U?$pair@$$CBV?$basic_string@DU?$char_traits@D@std@@V?$allocator@D@2@@std@@I@std@@@std@@@std@@QEAAXAEAV?$allocator@U?$_Tree_node@U?$pair@$$CBV?$basic_string@DU?$char_traits@D@std@@V?$allocator@D@2@@std@@I@std@@PEAX@std@@@1@PEAU?$_Tree_node@U?$pair@$$CBV?$basic_string@DU?$char_traits@D@std@@V?$allocator@D@2@@std@@I@std@@PEAX@1@@Z
	??$_Erase_tree@V?$allocator@U?$_Tree_node@U?$pair@$$CBV?$basic_string@DU?$char_traits@D@std@@V?$allocator@D@2@@std@@N@std@@PEAX@std@@@std@@@?$_Tree_val@U?$_Tree_simple_types@U?$pair@$$CBV?$basic_string@DU?$char_traits@D@std@@V?$allocator@D@2@@std@@N@std@@@std@@@std@@QEAAXAEAV?$allocator@U?$_Tree_node@U?$pair@$$CBV?$basic_string@DU?$char_traits@D@std@@V?$allocator@D@2@@std@@N@std@@PEAX@std@@@1@PEAU?$_Tree_node@U?$pair@$$CBV?$basic_string@DU?$char_traits@D@std@@V?$allocator@D@2@@std@@N@std@@PEAX@1@@Z
	??$_Erase_tree@V?$allocator@U?$_Tree_node@U?$pair@$$CBV?$basic_string@DU?$char_traits@D@std@@V?$allocator@D@2@@std@@PEAVHepRepAttDef@HEPREP@@@std@@PEAX@std@@@std@@@?$_Tree_val@U?$_Tree_simple_types@U?$pair@$$CBV?$basic_string@DU?$char_traits@D@std@@V?$allocator@D@2@@std@@PEAVHepRepAttDef@HEPREP@@@std@@@std@@@std@@QEAAXAEAV?$allocator@U?$_Tree_node@U?$pair@$$CBV?$basic_string@DU?$char_traits@D@std@@V?$allocator@D@2@@std@@PEAVHepRepAttDef@HEPREP@@@std@@PEAX@std@@@1@PEAU?$_Tree_node@U?$pair@$$CBV?$basic_string@DU?$char_traits@D@std@@V?$allocator@D@2@@std@@PEAVHepRepAttDef@HEPREP@@@std@@PEAX@1@@Z
	??$_Erase_tree@V?$allocator@U?$_Tree_node@U?$pair@$$CBV?$basic_string@DU?$char_traits@D@std@@V?$allocator@D@2@@std@@PEAVHepRepAttValue@HEPREP@@@std@@PEAX@std@@@std@@@?$_Tree_val@U?$_Tree_simple_types@U?$pair@$$CBV?$basic_string@DU?$char_traits@D@std@@V?$allocator@D@2@@std@@PEAVHepRepAttValue@HEPREP@@@std@@@std@@@std@@QEAAXAEAV?$allocator@U?$_Tree_node@U?$pair@$$CBV?$basic_string@DU?$char_traits@D@std@@V?$allocator@D@2@@std@@PEAVHepRepAttValue@HEPREP@@@std@@PEAX@std@@@1@PEAU?$_Tree_node@U?$pair@$$CBV?$basic_string@DU?$char_traits@D@std@@V?$allocator@D@2@@std@@PEAVHepRepAttValue@HEPREP@@@std@@PEAX@1@@Z
	??$_Erase_tree@V?$allocator@U?$_Tree_node@U?$pair@$$CBV?$basic_string@DU?$char_traits@D@std@@V?$allocator@D@2@@std@@V12@@std@@PEAX@std@@@std@@@?$_Tree_val@U?$_Tree_simple_types@U?$pair@$$CBV?$basic_string@DU?$char_traits@D@std@@V?$allocator@D@2@@std@@V12@@std@@@std@@@std@@QEAAXAEAV?$allocator@U?$_Tree_node@U?$pair@$$CBV?$basic_string@DU?$char_traits@D@std@@V?$allocator@D@2@@std@@V12@@std@@PEAX@std@@@1@PEAU?$_Tree_node@U?$pair@$$CBV?$basic_string@DU?$char_traits@D@std@@V?$allocator@D@2@@std@@V12@@std@@PEAX@1@@Z
	??$_Erase_tree@V?$allocator@U?$_Tree_node@U?$pair@$$CBV?$basic_string@DU?$char_traits@D@std@@V?$allocator@D@2@@std@@V?$vector@NV?$allocator@N@std@@@2@@std@@PEAX@std@@@std@@@?$_Tree_val@U?$_Tree_simple_types@U?$pair@$$CBV?$basic_string@DU?$char_traits@D@std@@V?$allocator@D@2@@std@@V?$vector@NV?$allocator@N@std@@@2@@std@@@std@@@std@@QEAAXAEAV?$allocator@U?$_Tree_node@U?$pair@$$CBV?$basic_string@DU?$char_traits@D@std@@V?$allocator@D@2@@std@@V?$vector@NV?$allocator@N@std@@@2@@std@@PEAX@std@@@1@PEAU?$_Tree_node@U?$pair@$$CBV?$basic_string@DU?$char_traits@D@std@@V?$allocator@D@2@@std@@V?$vector@NV?$allocator@N@std@@@2@@std@@PEAX@1@@Z
	??$_Erase_tree@V?$allocator@U?$_Tree_node@U?$pair@$$CBV?$basic_string@DU?$char_traits@D@std@@V?$allocator@D@2@@std@@_J@std@@PEAX@std@@@std@@@?$_Tree_val@U?$_Tree_simple_types@U?$pair@$$CBV?$basic_string@DU?$char_traits@D@std@@V?$allocator@D@2@@std@@_J@std@@@std@@@std@@QEAAXAEAV?$allocator@U?$_Tree_node@U?$pair@$$CBV?$basic_string@DU?$char_traits@D@std@@V?$allocator@D@2@@std@@_J@std@@PEAX@std@@@1@PEAU?$_Tree_node@U?$pair@$$CBV?$basic_string@DU?$char_traits@D@std@@V?$allocator@D@2@@std@@_J@std@@PEAX@1@@Z
	??$_Erase_tree@V?$allocator@U?$_Tree_node@U?$pair@$$CBV?$basic_string@DU?$char_traits@D@std@@V?$allocator@D@2@@std@@_N@std@@PEAX@std@@@std@@@?$_Tree_val@U?$_Tree_simple_types@U?$pair@$$CBV?$basic_string@DU?$char_traits@D@std@@V?$allocator@D@2@@std@@_N@std@@@std@@@std@@QEAAXAEAV?$allocator@U?$_Tree_node@U?$pair@$$CBV?$basic_string@DU?$char_traits@D@std@@V?$allocator@D@2@@std@@_N@std@@PEAX@std@@@1@PEAU?$_Tree_node@U?$pair@$$CBV?$basic_string@DU?$char_traits@D@std@@V?$allocator@D@2@@std@@_N@std@@PEAX@1@@Z
	??$_Erase_tree@V?$allocator@U?$_Tree_node@U?$pair@$$CBVG4String@@PEAVHepRepType@HEPREP@@@std@@PEAX@std@@@std@@@?$_Tree_val@U?$_Tree_simple_types@U?$pair@$$CBVG4String@@PEAVHepRepType@HEPREP@@@std@@@std@@@std@@QEAAXAEAV?$allocator@U?$_Tree_node@U?$pair@$$CBVG4String@@PEAVHepRepType@HEPREP@@@std@@PEAX@std@@@1@PEAU?$_Tree_node@U?$pair@$$CBVG4String@@PEAVHepRepType@HEPREP@@@std@@PEAX@1@@Z
	??$_Erase_tree@V?$allocator@U?$_Tree_node@U?$pair@$$CBVG4String@@VG4AttDef@@@std@@PEAX@std@@@std@@@?$_Tree_val@U?$_Tree_simple_types@U?$pair@$$CBVG4String@@VG4AttDef@@@std@@@std@@@std@@QEAAXAEAV?$allocator@U?$_Tree_node@U?$pair@$$CBVG4String@@VG4AttDef@@@std@@PEAX@std@@@1@PEAU?$_Tree_node@U?$pair@$$CBVG4String@@VG4AttDef@@@std@@PEAX@1@@Z
	??$_Find_lower_bound@V?$basic_string@DU?$char_traits@D@std@@V?$allocator@D@2@@std@@@?$_Tree@V?$_Tmap_traits@V?$basic_string@DU?$char_traits@D@std@@V?$allocator@D@2@@std@@EU?$less@V?$basic_string@DU?$char_traits@D@std@@V?$allocator@D@2@@std@@@2@V?$allocator@U?$pair@$$CBV?$basic_string@DU?$char_traits@D@std@@V?$allocator@D@2@@std@@E@std@@@2@$0A@@std@@@std@@IEBA?AU?$_Tree_find_result@PEAU?$_Tree_node@U?$pair@$$CBV?$basic_string@DU?$char_traits@D@std@@V?$allocator@D@2@@std@@E@std@@PEAX@std@@@1@AEBV?$basic_string@DU?$char_traits@D@std@@V?$allocator@D@2@@1@@Z
	??$_Find_lower_bound@V?$basic_string@DU?$char_traits@D@std@@V?$allocator@D@2@@std@@@?$_Tree@V?$_Tmap_traits@V?$basic_string@DU?$char_traits@D@std@@V?$allocator@D@2@@std@@IU?$less@V?$basic_string@DU?$char_traits@D@std@@V?$allocator@D@2@@std@@@2@V?$allocator@U?$pair@$$CBV?$basic_string@DU?$char_traits@D@std@@V?$allocator@D@2@@std@@I@std@@@2@$0A@@std@@@std@@IEBA?AU?$_Tree_find_result@PEAU?$_Tree_node@U?$pair@$$CBV?$basic_string@DU?$char_traits@D@std@@V?$allocator@D@2@@std@@I@std@@PEAX@std@@@1@AEBV?$basic_string@DU?$char_traits@D@std@@V?$allocator@D@2@@1@@Z
	??$_Find_lower_bound@V?$basic_string@DU?$char_traits@D@std@@V?$allocator@D@2@@std@@@?$_Tree@V?$_Tmap_traits@V?$basic_string@DU?$char_traits@D@std@@V?$allocator@D@2@@std@@NU?$less@V?$basic_string@DU?$char_traits@D@std@@V?$allocator@D@2@@std@@@2@V?$allocator@U?$pair@$$CBV?$basic_string@DU?$char_traits@D@std@@V?$allocator@D@2@@std@@N@std@@@2@$0A@@std@@@std@@IEBA?AU?$_Tree_find_result@PEAU?$_Tree_node@U?$pair@$$CBV?$basic_string@DU?$char_traits@D@std@@V?$allocator@D@2@@std@@N@std@@PEAX@std@@@1@AEBV?$basic_string@DU?$char_traits@D@std@@V?$allocator@D@2@@1@@Z
	??$_Find_lower_bound@V?$basic_string@DU?$char_traits@D@std@@V?$allocator@D@2@@std@@@?$_Tree@V?$_Tmap_traits@V?$basic_string@DU?$char_traits@D@std@@V?$allocator@D@2@@std@@PEAVHepRepAttDef@HEPREP@@U?$less@V?$basic_string@DU?$char_traits@D@std@@V?$allocator@D@2@@std@@@2@V?$allocator@U?$pair@$$CBV?$basic_string@DU?$char_traits@D@std@@V?$allocator@D@2@@std@@PEAVHepRepAttDef@HEPREP@@@std@@@2@$0A@@std@@@std@@IEBA?AU?$_Tree_find_result@PEAU?$_Tree_node@U?$pair@$$CBV?$basic_string@DU?$char_traits@D@std@@V?$allocator@D@2@@std@@PEAVHepRepAttDef@HEPREP@@@std@@PEAX@std@@@1@AEBV?$basic_string@DU?$char_traits@D@std@@V?$allocator@D@2@@1@@Z
	??$_Find_lower_bound@V?$basic_string@DU?$char_traits@D@std@@V?$allocator@D@2@@std@@@?$_Tree@V?$_Tmap_traits@V?$basic_string@DU?$char_traits@D@std@@V?$allocator@D@2@@std@@PEAVHepRepAttValue@HEPREP@@U?$less@V?$basic_string@DU?$char_traits@D@std@@V?$allocator@D@2@@std@@@2@V?$allocator@U?$pair@$$CBV?$basic_string@DU?$char_traits@D@std@@V?$allocator@D@2@@std@@PEAVHepRepAttValue@HEPREP@@@std@@@2@$0A@@std@@@std@@IEBA?AU?$_Tree_find_result@PEAU?$_Tree_node@U?$pair@$$CBV?$basic_string@DU?$char_traits@D@std@@V?$allocator@D@2@@std@@PEAVHepRepAttValue@HEPREP@@@std@@PEAX@std@@@1@AEBV?$basic_string@DU?$char_traits@D@std@@V?$allocator@D@2@@1@@Z
	??$_Find_lower_bound@VG4String@@@?$_Tree@V?$_Tmap_traits@VG4String@@PEAVHepRepType@HEPREP@@U?$less@VG4String@@@std@@V?$allocator@U?$pair@$$CBVG4String@@PEAVHepRepType@HEPREP@@@std@@@5@$0A@@std@@@std@@IEBA?AU?$_Tree_find_result@PEAU?$_Tree_node@U?$pair@$$CBVG4String@@PEAVHepRepType@HEPREP@@@std@@PEAX@std@@@1@AEBVG4String@@@Z
	??$_Freenode@V?$allocator@U?$_Tree_node@U?$pair@$$CBV?$basic_string@DU?$char_traits@D@std@@V?$allocator@D@2@@std@@PEAVHepRepAttValue@HEPREP@@@std@@PEAX@std@@@std@@@?$_Tree_node@U?$pair@$$CBV?$basic_string@DU?$char_traits@D@std@@V?$allocator@D@2@@std@@PEAVHepRepAttValue@HEPREP@@@std@@PEAX@std@@SAXAEAV?$allocator@U?$_Tree_node@U?$pair@$$CBV?$basic_string@DU?$char_traits@D@std@@V?$allocator@D@2@@std@@PEAVHepRepAttValue@HEPREP@@@std@@PEAX@std@@@1@PEAU01@@Z
	??$_Getvals@_W@?$time_get@DV?$istreambuf_iterator@DU?$char_traits@D@std@@@std@@@std@@IEAAX_WAEBV_Locinfo@1@@Z
	??$_Getvals@_W@?$time_get@_WV?$istreambuf_iterator@_WU?$char_traits@_W@std@@@std@@@std@@IEAAX_WAEBV_Locinfo@1@@Z
	??$_Idl_distance@PEAPEAV?$basic_string@DU?$char_traits@D@std@@V?$allocator@D@2@@std@@PEAPEAV12@@std@@YA_JAEBQEAPEAV?$basic_string@DU?$char_traits@D@std@@V?$allocator@D@2@@0@0@Z
	??$_Idl_distance@V?$_String_iterator@V?$_String_val@U?$_Simple_types@D@std@@@std@@@std@@PEAD@std@@YA_JAEBQEAD0@Z
	??$_Insert_string@DU?$char_traits@D@std@@_K@std@@YAAEAV?$basic_ostream@DU?$char_traits@D@std@@@0@AEAV10@QEBD_K@Z
	??$_Maklocstr@D@std@@YAPEADPEBDPEADAEBU_Cvtvec@@@Z
	??$_Pocca@V?$allocator@D@std@@@std@@YAXAEAV?$allocator@D@0@AEBV10@@Z
	??$_Pocca@V?$allocator@N@std@@@std@@YAXAEAV?$allocator@N@0@AEBV10@@Z
	??$_Pocca@V?$allocator@V?$Plane3D@N@HepGeom@@@std@@@std@@YAXAEAV?$allocator@V?$Plane3D@N@HepGeom@@@0@AEBV10@@Z
	??$_Pocca@V?$allocator@VPVNameCopyNo@G4ModelingParameters@@@std@@@std@@YAXAEAV?$allocator@VPVNameCopyNo@G4ModelingParameters@@@0@AEBV10@@Z
	??$_Pocca@V?$allocator@VVisAttributesModifier@G4ModelingParameters@@@std@@@std@@YAXAEAV?$allocator@VVisAttributesModifier@G4ModelingParameters@@@0@AEBV10@@Z
	??$_Pocma@V?$allocator@D@std@@@std@@YAXAEAV?$allocator@D@0@0@Z
	??$_Pocma@V?$allocator@N@std@@@std@@YAXAEAV?$allocator@N@0@0@Z
	??$_Reallocate_grow_by@V<lambda_319d5e083f45f90dcdce5dce53cbb275>@@D@?$basic_string@DU?$char_traits@D@std@@V?$allocator@D@2@@std@@AEAAAEAV01@_KV<lambda_319d5e083f45f90dcdce5dce53cbb275>@@D@Z
	??$_Reallocate_grow_by@V<lambda_65e615be2a453ca0576c979606f46740>@@PEBD_K@?$basic_string@DU?$char_traits@D@std@@V?$allocator@D@2@@std@@AEAAAEAV01@_KV<lambda_65e615be2a453ca0576c979606f46740>@@PEBD_K@Z
	??$_Reallocate_grow_by@V<lambda_f3a66ab6a0570788f31503db83886f49>@@_KPEBD_K@?$basic_string@DU?$char_traits@D@std@@V?$allocator@D@2@@std@@AEAAAEAV01@_KV<lambda_f3a66ab6a0570788f31503db83886f49>@@_KPEBD2@Z
	??$_Refancy@PEAD$0A@@std@@YAPEADPEAD@Z
	??$_Refancy@PEAN$0A@@std@@YAPEANPEAN@Z
	??$_Refancy@PEAV?$Plane3D@N@HepGeom@@$0A@@std@@YAPEAV?$Plane3D@N@HepGeom@@PEAV12@@Z
	??$_Refancy@PEBD$0A@@std@@YAPEBDPEBD@Z
	??$_Swap_adl@PEAU?$_Tree_node@PEAVHepRepAttDef@HEPREP@@PEAX@std@@@std@@YAXAEAPEAU?$_Tree_node@PEAVHepRepAttDef@HEPREP@@PEAX@0@0@Z
	??$_Swap_adl@PEAU?$_Tree_node@PEAVHepRepAttValue@HEPREP@@PEAX@std@@@std@@YAXAEAPEAU?$_Tree_node@PEAVHepRepAttValue@HEPREP@@PEAX@0@0@Z
	??$_Swap_adl@U?$less@PEAVHepRepAttDef@HEPREP@@@std@@@std@@YAXAEAU?$less@PEAVHepRepAttDef@HEPREP@@@0@0@Z
	??$_Swap_adl@U?$less@PEAVHepRepAttValue@HEPREP@@@std@@@std@@YAXAEAU?$less@PEAVHepRepAttValue@HEPREP@@@0@0@Z
	??$_Traits_compare@U?$char_traits@D@std@@@std@@YAHQEBD_K01@Z
	??$_Try_emplace@AEBV?$basic_string@DU?$char_traits@D@std@@V?$allocator@D@2@@std@@$$V@?$map@V?$basic_string@DU?$char_traits@D@std@@V?$allocator@D@2@@std@@HU?$less@V?$basic_string@DU?$char_traits@D@std@@V?$allocator@D@2@@std@@@2@V?$allocator@U?$pair@$$CBV?$basic_string@DU?$char_traits@D@std@@V?$allocator@D@2@@std@@H@std@@@2@@std@@AEAA?AU?$pair@PEAU?$_Tree_node@U?$pair@$$CBV?$basic_string@DU?$char_traits@D@std@@V?$allocator@D@2@@std@@H@std@@PEAX@std@@_N@1@AEBV?$basic_string@DU?$char_traits@D@std@@V?$allocator@D@2@@1@@Z
	??$_Try_emplace@AEBV?$basic_string@DU?$char_traits@D@std@@V?$allocator@D@2@@std@@$$V@?$map@V?$basic_string@DU?$char_traits@D@std@@V?$allocator@D@2@@std@@V12@U?$less@V?$basic_string@DU?$char_traits@D@std@@V?$allocator@D@2@@std@@@2@V?$allocator@U?$pair@$$CBV?$basic_string@DU?$char_traits@D@std@@V?$allocator@D@2@@std@@V12@@std@@@2@@std@@AEAA?AU?$pair@PEAU?$_Tree_node@U?$pair@$$CBV?$basic_string@DU?$char_traits@D@std@@V?$allocator@D@2@@std@@V12@@std@@PEAX@std@@_N@1@AEBV?$basic_string@DU?$char_traits@D@std@@V?$allocator@D@2@@1@@Z
	??$_Try_emplace@AEBV?$basic_string@DU?$char_traits@D@std@@V?$allocator@D@2@@std@@$$V@?$map@V?$basic_string@DU?$char_traits@D@std@@V?$allocator@D@2@@std@@V?$vector@NV?$allocator@N@std@@@2@U?$less@V?$basic_string@DU?$char_traits@D@std@@V?$allocator@D@2@@std@@@2@V?$allocator@U?$pair@$$CBV?$basic_string@DU?$char_traits@D@std@@V?$allocator@D@2@@std@@V?$vector@NV?$allocator@N@std@@@2@@std@@@2@@std@@AEAA?AU?$pair@PEAU?$_Tree_node@U?$pair@$$CBV?$basic_string@DU?$char_traits@D@std@@V?$allocator@D@2@@std@@V?$vector@NV?$allocator@N@std@@@2@@std@@PEAX@std@@_N@1@AEBV?$basic_string@DU?$char_traits@D@std@@V?$allocator@D@2@@1@@Z
	??$_Try_emplace@AEBV?$basic_string@DU?$char_traits@D@std@@V?$allocator@D@2@@std@@$$V@?$map@V?$basic_string@DU?$char_traits@D@std@@V?$allocator@D@2@@std@@_JU?$less@V?$basic_string@DU?$char_traits@D@std@@V?$allocator@D@2@@std@@@2@V?$allocator@U?$pair@$$CBV?$basic_string@DU?$char_traits@D@std@@V?$allocator@D@2@@std@@_J@std@@@2@@std@@AEAA?AU?$pair@PEAU?$_Tree_node@U?$pair@$$CBV?$basic_string@DU?$char_traits@D@std@@V?$allocator@D@2@@std@@_J@std@@PEAX@std@@_N@1@AEBV?$basic_string@DU?$char_traits@D@std@@V?$allocator@D@2@@1@@Z
	??$_Try_emplace@AEBV?$basic_string@DU?$char_traits@D@std@@V?$allocator@D@2@@std@@$$V@?$map@V?$basic_string@DU?$char_traits@D@std@@V?$allocator@D@2@@std@@_NU?$less@V?$basic_string@DU?$char_traits@D@std@@V?$allocator@D@2@@std@@@2@V?$allocator@U?$pair@$$CBV?$basic_string@DU?$char_traits@D@std@@V?$allocator@D@2@@std@@_N@std@@@2@@std@@AEAA?AU?$pair@PEAU?$_Tree_node@U?$pair@$$CBV?$basic_string@DU?$char_traits@D@std@@V?$allocator@D@2@@std@@_N@std@@PEAX@std@@_N@1@AEBV?$basic_string@DU?$char_traits@D@std@@V?$allocator@D@2@@1@@Z
	??$_Ucopy@PEAVVisAttributesModifier@G4ModelingParameters@@@?$vector@VVisAttributesModifier@G4ModelingParameters@@V?$allocator@VVisAttributesModifier@G4ModelingParameters@@@std@@@std@@AEAAPEAVVisAttributesModifier@G4ModelingParameters@@PEAV23@00@Z
	??$_Uninitialized_copy@PEANV?$allocator@N@std@@@std@@YAPEANQEAN0PEANAEAV?$allocator@N@0@@Z
	??$_Uninitialized_copy@PEAPEAVHepRepInstance@HEPREP@@V?$allocator@PEAVHepRepInstance@HEPREP@@@std@@@std@@YAPEAPEAVHepRepInstance@HEPREP@@QEAPEAV12@0PEAPEAV12@AEAV?$allocator@PEAVHepRepInstance@HEPREP@@@0@@Z
	??$_Uninitialized_copy@PEAPEAVHepRepInstanceTree@HEPREP@@V?$allocator@PEAVHepRepInstanceTree@HEPREP@@@std@@@std@@YAPEAPEAVHepRepInstanceTree@HEPREP@@QEAPEAV12@0PEAPEAV12@AEAV?$allocator@PEAVHepRepInstanceTree@HEPREP@@@0@@Z
	??$_Uninitialized_copy@PEAPEAVHepRepPoint@HEPREP@@V?$allocator@PEAVHepRepPoint@HEPREP@@@std@@@std@@YAPEAPEAVHepRepPoint@HEPREP@@QEAPEAV12@0PEAPEAV12@AEAV?$allocator@PEAVHepRepPoint@HEPREP@@@0@@Z
	??$_Uninitialized_copy@PEAPEAVHepRepTreeID@HEPREP@@V?$allocator@PEAVHepRepTreeID@HEPREP@@@std@@@std@@YAPEAPEAVHepRepTreeID@HEPREP@@QEAPEAV12@0PEAPEAV12@AEAV?$allocator@PEAVHepRepTreeID@HEPREP@@@0@@Z
	??$_Uninitialized_copy@PEAPEAVHepRepType@HEPREP@@V?$allocator@PEAVHepRepType@HEPREP@@@std@@@std@@YAPEAPEAVHepRepType@HEPREP@@QEAPEAV12@0PEAPEAV12@AEAV?$allocator@PEAVHepRepType@HEPREP@@@0@@Z
	??$_Uninitialized_copy@PEAPEAVHepRepTypeTree@HEPREP@@V?$allocator@PEAVHepRepTypeTree@HEPREP@@@std@@@std@@YAPEAPEAVHepRepTypeTree@HEPREP@@QEAPEAV12@0PEAPEAV12@AEAV?$allocator@PEAVHepRepTypeTree@HEPREP@@@0@@Z
	??$_Uninitialized_copy@PEAV?$Plane3D@N@HepGeom@@V?$allocator@V?$Plane3D@N@HepGeom@@@std@@@std@@YAPEAV?$Plane3D@N@HepGeom@@QEAV12@0PEAV12@AEAV?$allocator@V?$Plane3D@N@HepGeom@@@0@@Z
	??$_Uninitialized_copy@PEAV?$basic_string@DU?$char_traits@D@std@@V?$allocator@D@2@@std@@V?$allocator@V?$basic_string@DU?$char_traits@D@std@@V?$allocator@D@2@@std@@@2@@std@@YAPEAV?$basic_string@DU?$char_traits@D@std@@V?$allocator@D@2@@0@QEAV10@0PEAV10@AEAV?$allocator@V?$basic_string@DU?$char_traits@D@std@@V?$allocator@D@2@@std@@@0@@Z
	??$_Uninitialized_copy@PEAVPVNameCopyNo@G4ModelingParameters@@V?$allocator@VPVNameCopyNo@G4ModelingParameters@@@std@@@std@@YAPEAVPVNameCopyNo@G4ModelingParameters@@QEAV12@0PEAV12@AEAV?$allocator@VPVNameCopyNo@G4ModelingParameters@@@0@@Z
	??$_Uninitialized_copy@PEAVVisAttributesModifier@G4ModelingParameters@@V?$allocator@VVisAttributesModifier@G4ModelingParameters@@@std@@@std@@YAPEAVVisAttributesModifier@G4ModelingParameters@@QEAV12@0PEAV12@AEAV?$allocator@VVisAttributesModifier@G4ModelingParameters@@@0@@Z
	??$_Uninitialized_move@PEANV?$allocator@N@std@@@std@@YAPEANQEAN0PEANAEAV?$allocator@N@0@@Z
	??$_Uninitialized_move@PEAPEAVHepRepInstance@HEPREP@@V?$allocator@PEAVHepRepInstance@HEPREP@@@std@@@std@@YAPEAPEAVHepRepInstance@HEPREP@@QEAPEAV12@0PEAPEAV12@AEAV?$allocator@PEAVHepRepInstance@HEPREP@@@0@@Z
	??$_Uninitialized_move@PEAPEAVHepRepInstanceTree@HEPREP@@V?$allocator@PEAVHepRepInstanceTree@HEPREP@@@std@@@std@@YAPEAPEAVHepRepInstanceTree@HEPREP@@QEAPEAV12@0PEAPEAV12@AEAV?$allocator@PEAVHepRepInstanceTree@HEPREP@@@0@@Z
	??$_Uninitialized_move@PEAPEAVHepRepPoint@HEPREP@@V?$allocator@PEAVHepRepPoint@HEPREP@@@std@@@std@@YAPEAPEAVHepRepPoint@HEPREP@@QEAPEAV12@0PEAPEAV12@AEAV?$allocator@PEAVHepRepPoint@HEPREP@@@0@@Z
	??$_Uninitialized_move@PEAPEAVHepRepTreeID@HEPREP@@V?$allocator@PEAVHepRepTreeID@HEPREP@@@std@@@std@@YAPEAPEAVHepRepTreeID@HEPREP@@QEAPEAV12@0PEAPEAV12@AEAV?$allocator@PEAVHepRepTreeID@HEPREP@@@0@@Z
	??$_Uninitialized_move@PEAPEAVHepRepType@HEPREP@@V?$allocator@PEAVHepRepType@HEPREP@@@std@@@std@@YAPEAPEAVHepRepType@HEPREP@@QEAPEAV12@0PEAPEAV12@AEAV?$allocator@PEAVHepRepType@HEPREP@@@0@@Z
	??$_Uninitialized_move@PEAPEAVHepRepTypeTree@HEPREP@@V?$allocator@PEAVHepRepTypeTree@HEPREP@@@std@@@std@@YAPEAPEAVHepRepTypeTree@HEPREP@@QEAPEAV12@0PEAPEAV12@AEAV?$allocator@PEAVHepRepTypeTree@HEPREP@@@0@@Z
	??$_Uninitialized_move@PEAPEAVZipEntry@cheprep@@V?$allocator@PEAVZipEntry@cheprep@@@std@@@std@@YAPEAPEAVZipEntry@cheprep@@QEAPEAV12@0PEAPEAV12@AEAV?$allocator@PEAVZipEntry@cheprep@@@0@@Z
	??$_Uninitialized_move@PEAV?$basic_string@DU?$char_traits@D@std@@V?$allocator@D@2@@std@@V?$allocator@V?$basic_string@DU?$char_traits@D@std@@V?$allocator@D@2@@std@@@2@@std@@YAPEAV?$basic_string@DU?$char_traits@D@std@@V?$allocator@D@2@@0@QEAV10@0PEAV10@AEAV?$allocator@V?$basic_string@DU?$char_traits@D@std@@V?$allocator@D@2@@std@@@0@@Z
	??$_Uninitialized_move@PEAVG4String@@V?$allocator@VG4String@@@std@@@std@@YAPEAVG4String@@QEAV1@0PEAV1@AEAV?$allocator@VG4String@@@0@@Z
	??$_Uninitialized_value_construct_n@V?$allocator@D@std@@@std@@YAPEADPEAD_KAEAV?$allocator@D@0@@Z
	??$_Uninitialized_value_construct_n_unchecked1@PEAPEAV?$basic_string@DU?$char_traits@D@std@@V?$allocator@D@2@@std@@_K@std@@YAPEAPEAV?$basic_string@DU?$char_traits@D@std@@V?$allocator@D@2@@0@PEAPEAV10@_K@Z
	??$_Zero_range@PEAD@std@@YAPEADQEAD0@Z
	??$_Zero_range@PEAPEAV?$basic_string@DU?$char_traits@D@std@@V?$allocator@D@2@@std@@@std@@YAPEAPEAV?$basic_string@DU?$char_traits@D@std@@V?$allocator@D@2@@0@QEAPEAV10@0@Z
	??$endl@DU?$char_traits@D@std@@@std@@YAAEAV?$basic_ostream@DU?$char_traits@D@std@@@0@AEAV10@@Z
	??$exchange@PEAU?$_Tree_node@PEAVHepRepAttDef@HEPREP@@PEAX@std@@$$T@std@@YAPEAU?$_Tree_node@PEAVHepRepAttDef@HEPREP@@PEAX@0@AEAPEAU10@$$QEA$$T@Z
	??$exchange@PEAU?$_Tree_node@PEAVHepRepAttDef@HEPREP@@PEAX@std@@AEAPEAU12@@std@@YAPEAU?$_Tree_node@PEAVHepRepAttDef@HEPREP@@PEAX@0@AEAPEAU10@0@Z
	??$exchange@PEAU?$_Tree_node@PEAVHepRepAttValue@HEPREP@@PEAX@std@@$$T@std@@YAPEAU?$_Tree_node@PEAVHepRepAttValue@HEPREP@@PEAX@0@AEAPEAU10@$$QEA$$T@Z
	??$exchange@PEAU?$_Tree_node@PEAVHepRepAttValue@HEPREP@@PEAX@std@@AEAPEAU12@@std@@YAPEAU?$_Tree_node@PEAVHepRepAttValue@HEPREP@@PEAX@0@AEAPEAU10@0@Z
	??$exchange@PEAU?$_Tree_node@U?$pair@$$CBHVG4String@@@std@@PEAX@std@@$$T@std@@YAPEAU?$_Tree_node@U?$pair@$$CBHVG4String@@@std@@PEAX@0@AEAPEAU10@$$QEA$$T@Z
	??$exchange@PEAU?$_Tree_node@U?$pair@$$CBHVG4String@@@std@@PEAX@std@@AEAPEAU12@@std@@YAPEAU?$_Tree_node@U?$pair@$$CBHVG4String@@@std@@PEAX@0@AEAPEAU10@0@Z
	??$exchange@PEAU?$_Tree_node@U?$pair@$$CBV?$basic_string@DU?$char_traits@D@std@@V?$allocator@D@2@@std@@E@std@@PEAX@std@@$$T@std@@YAPEAU?$_Tree_node@U?$pair@$$CBV?$basic_string@DU?$char_traits@D@std@@V?$allocator@D@2@@std@@E@std@@PEAX@0@AEAPEAU10@$$QEA$$T@Z
	??$exchange@PEAU?$_Tree_node@U?$pair@$$CBV?$basic_string@DU?$char_traits@D@std@@V?$allocator@D@2@@std@@E@std@@PEAX@std@@AEAPEAU12@@std@@YAPEAU?$_Tree_node@U?$pair@$$CBV?$basic_string@DU?$char_traits@D@std@@V?$allocator@D@2@@std@@E@std@@PEAX@0@AEAPEAU10@0@Z
	??$exchange@PEAU?$_Tree_node@U?$pair@$$CBV?$basic_string@DU?$char_traits@D@std@@V?$allocator@D@2@@std@@H@std@@PEAX@std@@$$T@std@@YAPEAU?$_Tree_node@U?$pair@$$CBV?$basic_string@DU?$char_traits@D@std@@V?$allocator@D@2@@std@@H@std@@PEAX@0@AEAPEAU10@$$QEA$$T@Z
	??$exchange@PEAU?$_Tree_node@U?$pair@$$CBV?$basic_string@DU?$char_traits@D@std@@V?$allocator@D@2@@std@@H@std@@PEAX@std@@AEAPEAU12@@std@@YAPEAU?$_Tree_node@U?$pair@$$CBV?$basic_string@DU?$char_traits@D@std@@V?$allocator@D@2@@std@@H@std@@PEAX@0@AEAPEAU10@0@Z
	??$exchange@PEAU?$_Tree_node@U?$pair@$$CBV?$basic_string@DU?$char_traits@D@std@@V?$allocator@D@2@@std@@I@std@@PEAX@std@@$$T@std@@YAPEAU?$_Tree_node@U?$pair@$$CBV?$basic_string@DU?$char_traits@D@std@@V?$allocator@D@2@@std@@I@std@@PEAX@0@AEAPEAU10@$$QEA$$T@Z
	??$exchange@PEAU?$_Tree_node@U?$pair@$$CBV?$basic_string@DU?$char_traits@D@std@@V?$allocator@D@2@@std@@I@std@@PEAX@std@@AEAPEAU12@@std@@YAPEAU?$_Tree_node@U?$pair@$$CBV?$basic_string@DU?$char_traits@D@std@@V?$allocator@D@2@@std@@I@std@@PEAX@0@AEAPEAU10@0@Z
	??$exchange@PEAU?$_Tree_node@U?$pair@$$CBV?$basic_string@DU?$char_traits@D@std@@V?$allocator@D@2@@std@@N@std@@PEAX@std@@$$T@std@@YAPEAU?$_Tree_node@U?$pair@$$CBV?$basic_string@DU?$char_traits@D@std@@V?$allocator@D@2@@std@@N@std@@PEAX@0@AEAPEAU10@$$QEA$$T@Z
	??$exchange@PEAU?$_Tree_node@U?$pair@$$CBV?$basic_string@DU?$char_traits@D@std@@V?$allocator@D@2@@std@@N@std@@PEAX@std@@AEAPEAU12@@std@@YAPEAU?$_Tree_node@U?$pair@$$CBV?$basic_string@DU?$char_traits@D@std@@V?$allocator@D@2@@std@@N@std@@PEAX@0@AEAPEAU10@0@Z
	??$exchange@PEAU?$_Tree_node@U?$pair@$$CBV?$basic_string@DU?$char_traits@D@std@@V?$allocator@D@2@@std@@PEAVHepRepAttDef@HEPREP@@@std@@PEAX@std@@$$T@std@@YAPEAU?$_Tree_node@U?$pair@$$CBV?$basic_string@DU?$char_traits@D@std@@V?$allocator@D@2@@std@@PEAVHepRepAttDef@HEPREP@@@std@@PEAX@0@AEAPEAU10@$$QEA$$T@Z
	??$exchange@PEAU?$_Tree_node@U?$pair@$$CBV?$basic_string@DU?$char_traits@D@std@@V?$allocator@D@2@@std@@PEAVHepRepAttDef@HEPREP@@@std@@PEAX@std@@AEAPEAU12@@std@@YAPEAU?$_Tree_node@U?$pair@$$CBV?$basic_string@DU?$char_traits@D@std@@V?$allocator@D@2@@std@@PEAVHepRepAttDef@HEPREP@@@std@@PEAX@0@AEAPEAU10@0@Z
	??$exchange@PEAU?$_Tree_node@U?$pair@$$CBV?$basic_string@DU?$char_traits@D@std@@V?$allocator@D@2@@std@@PEAVHepRepAttValue@HEPREP@@@std@@PEAX@std@@$$T@std@@YAPEAU?$_Tree_node@U?$pair@$$CBV?$basic_string@DU?$char_traits@D@std@@V?$allocator@D@2@@std@@PEAVHepRepAttValue@HEPREP@@@std@@PEAX@0@AEAPEAU10@$$QEA$$T@Z
	??$exchange@PEAU?$_Tree_node@U?$pair@$$CBV?$basic_string@DU?$char_traits@D@std@@V?$allocator@D@2@@std@@PEAVHepRepAttValue@HEPREP@@@std@@PEAX@std@@AEAPEAU12@@std@@YAPEAU?$_Tree_node@U?$pair@$$CBV?$basic_string@DU?$char_traits@D@std@@V?$allocator@D@2@@std@@PEAVHepRepAttValue@HEPREP@@@std@@PEAX@0@AEAPEAU10@0@Z
	??$exchange@PEAU?$_Tree_node@U?$pair@$$CBV?$basic_string@DU?$char_traits@D@std@@V?$allocator@D@2@@std@@V12@@std@@PEAX@std@@$$T@std@@YAPEAU?$_Tree_node@U?$pair@$$CBV?$basic_string@DU?$char_traits@D@std@@V?$allocator@D@2@@std@@V12@@std@@PEAX@0@AEAPEAU10@$$QEA$$T@Z
	??$exchange@PEAU?$_Tree_node@U?$pair@$$CBV?$basic_string@DU?$char_traits@D@std@@V?$allocator@D@2@@std@@V12@@std@@PEAX@std@@AEAPEAU12@@std@@YAPEAU?$_Tree_node@U?$pair@$$CBV?$basic_string@DU?$char_traits@D@std@@V?$allocator@D@2@@std@@V12@@std@@PEAX@0@AEAPEAU10@0@Z
	??$exchange@PEAU?$_Tree_node@U?$pair@$$CBV?$basic_string@DU?$char_traits@D@std@@V?$allocator@D@2@@std@@V?$vector@NV?$allocator@N@std@@@2@@std@@PEAX@std@@$$T@std@@YAPEAU?$_Tree_node@U?$pair@$$CBV?$basic_string@DU?$char_traits@D@std@@V?$allocator@D@2@@std@@V?$vector@NV?$allocator@N@std@@@2@@std@@PEAX@0@AEAPEAU10@$$QEA$$T@Z
	??$exchange@PEAU?$_Tree_node@U?$pair@$$CBV?$basic_string@DU?$char_traits@D@std@@V?$allocator@D@2@@std@@V?$vector@NV?$allocator@N@std@@@2@@std@@PEAX@std@@AEAPEAU12@@std@@YAPEAU?$_Tree_node@U?$pair@$$CBV?$basic_string@DU?$char_traits@D@std@@V?$allocator@D@2@@std@@V?$vector@NV?$allocator@N@std@@@2@@std@@PEAX@0@AEAPEAU10@0@Z
	??$exchange@PEAU?$_Tree_node@U?$pair@$$CBV?$basic_string@DU?$char_traits@D@std@@V?$allocator@D@2@@std@@_J@std@@PEAX@std@@$$T@std@@YAPEAU?$_Tree_node@U?$pair@$$CBV?$basic_string@DU?$char_traits@D@std@@V?$allocator@D@2@@std@@_J@std@@PEAX@0@AEAPEAU10@$$QEA$$T@Z
	??$exchange@PEAU?$_Tree_node@U?$pair@$$CBV?$basic_string@DU?$char_traits@D@std@@V?$allocator@D@2@@std@@_J@std@@PEAX@std@@AEAPEAU12@@std@@YAPEAU?$_Tree_node@U?$pair@$$CBV?$basic_string@DU?$char_traits@D@std@@V?$allocator@D@2@@std@@_J@std@@PEAX@0@AEAPEAU10@0@Z
	??$exchange@PEAU?$_Tree_node@U?$pair@$$CBV?$basic_string@DU?$char_traits@D@std@@V?$allocator@D@2@@std@@_N@std@@PEAX@std@@$$T@std@@YAPEAU?$_Tree_node@U?$pair@$$CBV?$basic_string@DU?$char_traits@D@std@@V?$allocator@D@2@@std@@_N@std@@PEAX@0@AEAPEAU10@$$QEA$$T@Z
	??$exchange@PEAU?$_Tree_node@U?$pair@$$CBV?$basic_string@DU?$char_traits@D@std@@V?$allocator@D@2@@std@@_N@std@@PEAX@std@@AEAPEAU12@@std@@YAPEAU?$_Tree_node@U?$pair@$$CBV?$basic_string@DU?$char_traits@D@std@@V?$allocator@D@2@@std@@_N@std@@PEAX@0@AEAPEAU10@0@Z
	??$exchange@PEAU?$_Tree_node@U?$pair@$$CBVG4String@@PEAVHepRepType@HEPREP@@@std@@PEAX@std@@$$T@std@@YAPEAU?$_Tree_node@U?$pair@$$CBVG4String@@PEAVHepRepType@HEPREP@@@std@@PEAX@0@AEAPEAU10@$$QEA$$T@Z
	??$exchange@PEAU?$_Tree_node@U?$pair@$$CBVG4String@@PEAVHepRepType@HEPREP@@@std@@PEAX@std@@AEAPEAU12@@std@@YAPEAU?$_Tree_node@U?$pair@$$CBVG4String@@PEAVHepRepType@HEPREP@@@std@@PEAX@0@AEAPEAU10@0@Z
	??$exchange@PEAU?$_Tree_node@U?$pair@$$CBVG4String@@VG4AttDef@@@std@@PEAX@std@@AEAPEAU12@@std@@YAPEAU?$_Tree_node@U?$pair@$$CBVG4String@@VG4AttDef@@@std@@PEAX@0@AEAPEAU10@0@Z
	??$exchange@PEAU_Container_proxy@std@@$$T@std@@YAPEAU_Container_proxy@0@AEAPEAU10@$$QEA$$T@Z
	??$exchange@PEAV_Facet_base@std@@PEAV12@@std@@YAPEAV_Facet_base@0@AEAPEAV10@$$QEAPEAV10@@Z
	??$swap@DX@std@@YAXAEAD0@Z
	??$swap@PEAU?$_Tree_node@PEAVHepRepAttDef@HEPREP@@PEAX@std@@X@std@@YAXAEAPEAU?$_Tree_node@PEAVHepRepAttDef@HEPREP@@PEAX@0@0@Z
	??$swap@PEAU?$_Tree_node@PEAVHepRepAttValue@HEPREP@@PEAX@std@@X@std@@YAXAEAPEAU?$_Tree_node@PEAVHepRepAttValue@HEPREP@@PEAX@0@0@Z
	??$swap@U?$less@PEAVHepRepAttDef@HEPREP@@@std@@X@std@@YAXAEAU?$less@PEAVHepRepAttDef@HEPREP@@@0@0@Z
	??$swap@U?$less@PEAVHepRepAttValue@HEPREP@@@std@@X@std@@YAXAEAU?$less@PEAVHepRepAttValue@HEPREP@@@0@0@Z
	??$swap@_KX@std@@YAXAEA_K0@Z
	??$transform@V?$_String_iterator@V?$_String_val@U?$_Simple_types@D@std@@@std@@@std@@V12@P6AHH@Z@std@@YA?AV?$_String_iterator@V?$_String_val@U?$_Simple_types@D@std@@@std@@@0@V10@0V10@P6AHH@Z@Z
	??$uninitialized_copy@PEAPEAV?$basic_string@DU?$char_traits@D@std@@V?$allocator@D@2@@std@@PEAPEAV12@@std@@YAPEAPEAV?$basic_string@DU?$char_traits@D@std@@V?$allocator@D@2@@0@QEAPEAV10@0PEAPEAV10@@Z
	??$use_facet@V?$codecvt@DDU_Mbstatet@@@std@@@std@@YAAEBV?$codecvt@DDU_Mbstatet@@@0@AEBVlocale@0@@Z
	??0?$basic_ofstream@DU?$char_traits@D@std@@@std@@QEAA@PEBDHH@Z
	??0?$basic_string@DU?$char_traits@D@std@@V?$allocator@D@2@@std@@QEAA@AEBV01@@Z
	??0?$basic_string@DU?$char_traits@D@std@@V?$allocator@D@2@@std@@QEAA@QEBD@Z
	??0?$basic_string@DU?$char_traits@D@std@@V?$allocator@D@2@@std@@QEAA@XZ
	??0?$vector@NV?$allocator@N@std@@@std@@QEAA@AEBV01@@Z
	??0BHepRepWriter@cheprep@@QEAA@AEAV?$basic_ostream@DU?$char_traits@D@std@@@std@@@Z
	??0DefaultHepRep@cheprep@@QEAA@XZ
	??0DefaultHepRepAction@cheprep@@QEAA@V?$basic_string@DU?$char_traits@D@std@@V?$allocator@D@2@@std@@0@Z
	??0DefaultHepRepAttDef@cheprep@@QEAA@V?$basic_string@DU?$char_traits@D@std@@V?$allocator@D@2@@std@@000@Z
	??0DefaultHepRepAttValue@cheprep@@QEAA@V?$basic_string@DU?$char_traits@D@std@@V?$allocator@D@2@@std@@0H@Z
	??0DefaultHepRepAttValue@cheprep@@QEAA@V?$basic_string@DU?$char_traits@D@std@@V?$allocator@D@2@@std@@HH@Z
	??0DefaultHepRepAttValue@cheprep@@QEAA@V?$basic_string@DU?$char_traits@D@std@@V?$allocator@D@2@@std@@NH@Z
	??0DefaultHepRepAttValue@cheprep@@QEAA@V?$basic_string@DU?$char_traits@D@std@@V?$allocator@D@2@@std@@V?$vector@NV?$allocator@N@std@@@3@H@Z
	??0DefaultHepRepAttValue@cheprep@@QEAA@V?$basic_string@DU?$char_traits@D@std@@V?$allocator@D@2@@std@@_JH@Z
	??0DefaultHepRepAttValue@cheprep@@QEAA@V?$basic_string@DU?$char_traits@D@std@@V?$allocator@D@2@@std@@_NH@Z
	??0DefaultHepRepAttribute@cheprep@@QEAA@XZ
	??0DefaultHepRepDefinition@cheprep@@QEAA@XZ
	??0DefaultHepRepFactory@cheprep@@QEAA@XZ
	??0DefaultHepRepInstance@cheprep@@QEAA@PEAVHepRepInstance@HEPREP@@PEAVHepRepType@3@@Z
	??0DefaultHepRepInstance@cheprep@@QEAA@PEAVHepRepInstanceTree@HEPREP@@PEAVHepRepType@3@@Z
	??0DefaultHepRepInstanceTree@cheprep@@QEAA@V?$basic_string@DU?$char_traits@D@std@@V?$allocator@D@2@@std@@0PEAVHepRepTreeID@HEPREP@@@Z
	??0DefaultHepRepPoint@cheprep@@QEAA@PEAVHepRepInstance@HEPREP@@NNN@Z
	??0DefaultHepRepTreeID@cheprep@@QEAA@V?$basic_string@DU?$char_traits@D@std@@V?$allocator@D@2@@std@@00@Z
	??0DefaultHepRepType@cheprep@@QEAA@PEAVHepRepType@HEPREP@@V?$basic_string@DU?$char_traits@D@std@@V?$allocator@D@2@@std@@@Z
	??0DefaultHepRepType@cheprep@@QEAA@PEAVHepRepTypeTree@HEPREP@@V?$basic_string@DU?$char_traits@D@std@@V?$allocator@D@2@@std@@@Z
	??0DefaultHepRepTypeTree@cheprep@@QEAA@PEAVHepRepTreeID@HEPREP@@@Z
	??0DeflateOutputStreamBuffer@cheprep@@QEAA@PEAV?$basic_streambuf@DU?$char_traits@D@std@@@std@@@Z
	??0G4HepRep@@QEAA@XZ
	??0G4HepRepFile@@QEAA@XZ
	??0G4HepRepFileSceneHandler@@QEAA@AEAVG4VGraphicsSystem@@AEBVG4String@@@Z
	??0G4HepRepFileViewer@@QEAA@AEAVG4VSceneHandler@@AEBVG4String@@@Z
	??0G4HepRepFileXMLWriter@@QEAA@XZ
	??0G4HepRepMessenger@@AEAA@XZ
	??0G4HepRepSceneHandler@@QEAA@AEAVG4VGraphicsSystem@@AEBVG4String@@@Z
	??0G4HepRepViewer@@QEAA@AEAVG4VSceneHandler@@AEBVG4String@@@Z
	??0G4String@@QEAA@D@Z
	??0G4ViewParameters@@QEAA@AEBV0@@Z
	??0GZIPOutputStream@cheprep@@QEAA@AEAV?$basic_ostream@DU?$char_traits@D@std@@@std@@@Z
	??0GZIPOutputStreamBuffer@cheprep@@QEAA@PEAV?$basic_streambuf@DU?$char_traits@D@std@@@std@@@Z
	??0IndentPrintWriter@cheprep@@QEAA@PEAV?$basic_ostream@DU?$char_traits@D@std@@@std@@H@Z
	??0XMLHepRepFactory@cheprep@@QEAA@XZ
	??0XMLHepRepWriter@cheprep@@QEAA@PEAV?$basic_ostream@DU?$char_traits@D@std@@@std@@_N1@Z
	??0XMLWriter@cheprep@@QEAA@PEAV?$basic_ostream@DU?$char_traits@D@std@@@std@@V?$basic_string@DU?$char_traits@D@std@@V?$allocator@D@2@@3@1@Z
	??0ZipOutputStream@cheprep@@QEAA@AEAV?$basic_ostream@DU?$char_traits@D@std@@@std@@@Z
	??0ZipOutputStreamBuffer@cheprep@@QEAA@PEAV?$basic_streambuf@DU?$char_traits@D@std@@@std@@@Z
	??0bad_alloc@std@@QEAA@AEBV01@@Z
	??0bad_array_new_length@std@@QEAA@AEBV01@@Z
	??0bad_array_new_length@std@@QEAA@XZ
	??0bad_cast@std@@QEAA@AEBV01@@Z
	??0bad_cast@std@@QEAA@XZ
	??0exception@std@@QEAA@AEBV01@@Z
	??1?$BasicVector3D@N@HepGeom@@UEAA@XZ
	??1?$_Alloc_construct_ptr@V?$allocator@U?$_Tree_node@PEAVHepRepAttDef@HEPREP@@PEAX@std@@@std@@@std@@QEAA@XZ
	??1?$_Alloc_construct_ptr@V?$allocator@U?$_Tree_node@PEAVHepRepAttValue@HEPREP@@PEAX@std@@@std@@@std@@QEAA@XZ
	??1?$_Alloc_construct_ptr@V?$allocator@U?$_Tree_node@U?$pair@$$CBHVG4String@@@std@@PEAX@std@@@std@@@std@@QEAA@XZ
	??1?$_Alloc_construct_ptr@V?$allocator@U?$_Tree_node@U?$pair@$$CBV?$basic_string@DU?$char_traits@D@std@@V?$allocator@D@2@@std@@E@std@@PEAX@std@@@std@@@std@@QEAA@XZ
	??1?$_Alloc_construct_ptr@V?$allocator@U?$_Tree_node@U?$pair@$$CBV?$basic_string@DU?$char_traits@D@std@@V?$allocator@D@2@@std@@H@std@@PEAX@std@@@std@@@std@@QEAA@XZ
	??1?$_Alloc_construct_ptr@V?$allocator@U?$_Tree_node@U?$pair@$$CBV?$basic_string@DU?$char_traits@D@std@@V?$allocator@D@2@@std@@I@std@@PEAX@std@@@std@@@std@@QEAA@XZ
	??1?$_Alloc_construct_ptr@V?$allocator@U?$_Tree_node@U?$pair@$$CBV?$basic_string@DU?$char_traits@D@std@@V?$allocator@D@2@@std@@N@std@@PEAX@std@@@std@@@std@@QEAA@XZ
	??1?$_Alloc_construct_ptr@V?$allocator@U?$_Tree_node@U?$pair@$$CBV?$basic_string@DU?$char_traits@D@std@@V?$allocator@D@2@@std@@PEAVHepRepAttDef@HEPREP@@@std@@PEAX@std@@@std@@@std@@QEAA@XZ
	??1?$_Alloc_construct_ptr@V?$allocator@U?$_Tree_node@U?$pair@$$CBV?$basic_string@DU?$char_traits@D@std@@V?$allocator@D@2@@std@@PEAVHepRepAttValue@HEPREP@@@std@@PEAX@std@@@std@@@std@@QEAA@XZ
	??1?$_Alloc_construct_ptr@V?$allocator@U?$_Tree_node@U?$pair@$$CBV?$basic_string@DU?$char_traits@D@std@@V?$allocator@D@2@@std@@V12@@std@@PEAX@std@@@std@@@std@@QEAA@XZ
	??1?$_Alloc_construct_ptr@V?$allocator@U?$_Tree_node@U?$pair@$$CBV?$basic_string@DU?$char_traits@D@std@@V?$allocator@D@2@@std@@V?$vector@NV?$allocator@N@std@@@2@@std@@PEAX@std@@@std@@@std@@QEAA@XZ
	??1?$_Alloc_construct_ptr@V?$allocator@U?$_Tree_node@U?$pair@$$CBV?$basic_string@DU?$char_traits@D@std@@V?$allocator@D@2@@std@@_J@std@@PEAX@std@@@std@@@std@@QEAA@XZ
	??1?$_Alloc_construct_ptr@V?$allocator@U?$_Tree_node@U?$pair@$$CBV?$basic_string@DU?$char_traits@D@std@@V?$allocator@D@2@@std@@_N@std@@PEAX@std@@@std@@@std@@QEAA@XZ
	??1?$_Alloc_construct_ptr@V?$allocator@U?$_Tree_node@U?$pair@$$CBVG4String@@PEAVHepRepType@HEPREP@@@std@@PEAX@std@@@std@@@std@@QEAA@XZ
	??1?$_Tidy_guard@V?$vector@V?$basic_string@DU?$char_traits@D@std@@V?$allocator@D@2@@std@@V?$allocator@V?$basic_string@DU?$char_traits@D@std@@V?$allocator@D@2@@std@@@2@@std@@@std@@QEAA@XZ
	??1?$_Tidy_guard@V?$vector@VPVNameCopyNo@G4ModelingParameters@@V?$allocator@VPVNameCopyNo@G4ModelingParameters@@@std@@@std@@@std@@QEAA@XZ
	??1?$_Tidy_guard@V?$vector@VVisAttributesModifier@G4ModelingParameters@@V?$allocator@VVisAttributesModifier@G4ModelingParameters@@@std@@@std@@@std@@QEAA@XZ
	??1?$_Tree_temp_node_alloc@V?$allocator@U?$_Tree_node@U?$pair@$$CBV?$basic_string@DU?$char_traits@D@std@@V?$allocator@D@2@@std@@E@std@@PEAX@std@@@std@@@std@@QEAA@XZ
	??1?$_Tree_temp_node_alloc@V?$allocator@U?$_Tree_node@U?$pair@$$CBV?$basic_string@DU?$char_traits@D@std@@V?$allocator@D@2@@std@@H@std@@PEAX@std@@@std@@@std@@QEAA@XZ
	??1?$_Tree_temp_node_alloc@V?$allocator@U?$_Tree_node@U?$pair@$$CBV?$basic_string@DU?$char_traits@D@std@@V?$allocator@D@2@@std@@I@std@@PEAX@std@@@std@@@std@@QEAA@XZ
	??1?$_Tree_temp_node_alloc@V?$allocator@U?$_Tree_node@U?$pair@$$CBV?$basic_string@DU?$char_traits@D@std@@V?$allocator@D@2@@std@@N@std@@PEAX@std@@@std@@@std@@QEAA@XZ
	??1?$_Tree_temp_node_alloc@V?$allocator@U?$_Tree_node@U?$pair@$$CBV?$basic_string@DU?$char_traits@D@std@@V?$allocator@D@2@@std@@PEAVHepRepAttDef@HEPREP@@@std@@PEAX@std@@@std@@@std@@QEAA@XZ
	??1?$_Tree_temp_node_alloc@V?$allocator@U?$_Tree_node@U?$pair@$$CBV?$basic_string@DU?$char_traits@D@std@@V?$allocator@D@2@@std@@PEAVHepRepAttValue@HEPREP@@@std@@PEAX@std@@@std@@@std@@QEAA@XZ
	??1?$_Tree_temp_node_alloc@V?$allocator@U?$_Tree_node@U?$pair@$$CBV?$basic_string@DU?$char_traits@D@std@@V?$allocator@D@2@@std@@V12@@std@@PEAX@std@@@std@@@std@@QEAA@XZ
	??1?$_Tree_temp_node_alloc@V?$allocator@U?$_Tree_node@U?$pair@$$CBV?$basic_string@DU?$char_traits@D@std@@V?$allocator@D@2@@std@@V?$vector@NV?$allocator@N@std@@@2@@std@@PEAX@std@@@std@@@std@@QEAA@XZ
	??1?$_Tree_temp_node_alloc@V?$allocator@U?$_Tree_node@U?$pair@$$CBV?$basic_string@DU?$char_traits@D@std@@V?$allocator@D@2@@std@@_J@std@@PEAX@std@@@std@@@std@@QEAA@XZ
	??1?$_Tree_temp_node_alloc@V?$allocator@U?$_Tree_node@U?$pair@$$CBV?$basic_string@DU?$char_traits@D@std@@V?$allocator@D@2@@std@@_N@std@@PEAX@std@@@std@@@std@@QEAA@XZ
	??1?$_Tree_temp_node_alloc@V?$allocator@U?$_Tree_node@U?$pair@$$CBVG4String@@PEAVHepRepType@HEPREP@@@std@@PEAX@std@@@std@@@std@@QEAA@XZ
	??1?$_Uninitialized_backout_al@V?$allocator@V?$basic_string@DU?$char_traits@D@std@@V?$allocator@D@2@@std@@@std@@@std@@QEAA@XZ
	??1?$_Uninitialized_backout_al@V?$allocator@VPVNameCopyNo@G4ModelingParameters@@@std@@@std@@QEAA@XZ
	??1?$_Uninitialized_backout_al@V?$allocator@VVisAttributesModifier@G4ModelingParameters@@@std@@@std@@QEAA@XZ
	??1?$basic_filebuf@DU?$char_traits@D@std@@@std@@UEAA@XZ
	??1?$basic_ofstream@DU?$char_traits@D@std@@@std@@UEAA@XZ
	??1?$basic_string@DU?$char_traits@D@std@@V?$allocator@D@2@@std@@QEAA@XZ
	??1?$deque@V?$basic_string@DU?$char_traits@D@std@@V?$allocator@D@2@@std@@V?$allocator@V?$basic_string@DU?$char_traits@D@std@@V?$allocator@D@2@@std@@@2@@std@@QEAA@XZ
	??1?$map@HVG4String@@U?$less@H@std@@V?$allocator@U?$pair@$$CBHVG4String@@@std@@@3@@std@@QEAA@XZ
	??1?$map@V?$basic_string@DU?$char_traits@D@std@@V?$allocator@D@2@@std@@HU?$less@V?$basic_string@DU?$char_traits@D@std@@V?$allocator@D@2@@std@@@2@V?$allocator@U?$pair@$$CBV?$basic_string@DU?$char_traits@D@std@@V?$allocator@D@2@@std@@H@std@@@2@@std@@QEAA@XZ
	??1?$map@V?$basic_string@DU?$char_traits@D@std@@V?$allocator@D@2@@std@@IU?$less@V?$basic_string@DU?$char_traits@D@std@@V?$allocator@D@2@@std@@@2@V?$allocator@U?$pair@$$CBV?$basic_string@DU?$char_traits@D@std@@V?$allocator@D@2@@std@@I@std@@@2@@std@@QEAA@XZ
	??1?$map@V?$basic_string@DU?$char_traits@D@std@@V?$allocator@D@2@@std@@NU?$less@V?$basic_string@DU?$char_traits@D@std@@V?$allocator@D@2@@std@@@2@V?$allocator@U?$pair@$$CBV?$basic_string@DU?$char_traits@D@std@@V?$allocator@D@2@@std@@N@std@@@2@@std@@QEAA@XZ
	??1?$map@V?$basic_string@DU?$char_traits@D@std@@V?$allocator@D@2@@std@@V12@U?$less@V?$basic_string@DU?$char_traits@D@std@@V?$allocator@D@2@@std@@@2@V?$allocator@U?$pair@$$CBV?$basic_string@DU?$char_traits@D@std@@V?$allocator@D@2@@std@@V12@@std@@@2@@std@@QEAA@XZ
	??1?$map@V?$basic_string@DU?$char_traits@D@std@@V?$allocator@D@2@@std@@V?$vector@NV?$allocator@N@std@@@2@U?$less@V?$basic_string@DU?$char_traits@D@std@@V?$allocator@D@2@@std@@@2@V?$allocator@U?$pair@$$CBV?$basic_string@DU?$char_traits@D@std@@V?$allocator@D@2@@std@@V?$vector@NV?$allocator@N@std@@@2@@std@@@2@@std@@QEAA@XZ
	??1?$map@V?$basic_string@DU?$char_traits@D@std@@V?$allocator@D@2@@std@@_JU?$less@V?$basic_string@DU?$char_traits@D@std@@V?$allocator@D@2@@std@@@2@V?$allocator@U?$pair@$$CBV?$basic_string@DU?$char_traits@D@std@@V?$allocator@D@2@@std@@_J@std@@@2@@std@@QEAA@XZ
	??1?$map@V?$basic_string@DU?$char_traits@D@std@@V?$allocator@D@2@@std@@_NU?$less@V?$basic_string@DU?$char_traits@D@std@@V?$allocator@D@2@@std@@@2@V?$allocator@U?$pair@$$CBV?$basic_string@DU?$char_traits@D@std@@V?$allocator@D@2@@std@@_N@std@@@2@@std@@QEAA@XZ
	??1?$map@VG4String@@PEAVHepRepType@HEPREP@@U?$less@VG4String@@@std@@V?$allocator@U?$pair@$$CBVG4String@@PEAVHepRepType@HEPREP@@@std@@@5@@std@@QEAA@XZ
	??1?$pair@$$CBHVG4String@@@std@@QEAA@XZ
	??1?$pair@$$CBV?$basic_string@DU?$char_traits@D@std@@V?$allocator@D@2@@std@@V12@@std@@QEAA@XZ
	??1?$pair@$$CBV?$basic_string@DU?$char_traits@D@std@@V?$allocator@D@2@@std@@V?$vector@NV?$allocator@N@std@@@2@@std@@QEAA@XZ
	??1?$set@PEAVHepRepAttDef@HEPREP@@U?$less@PEAVHepRepAttDef@HEPREP@@@std@@V?$allocator@PEAVHepRepAttDef@HEPREP@@@4@@std@@QEAA@XZ
	??1?$set@PEAVHepRepAttValue@HEPREP@@U?$less@PEAVHepRepAttValue@HEPREP@@@std@@V?$allocator@PEAVHepRepAttValue@HEPREP@@@4@@std@@QEAA@XZ
	??1?$stack@V?$basic_string@DU?$char_traits@D@std@@V?$allocator@D@2@@std@@V?$deque@V?$basic_string@DU?$char_traits@D@std@@V?$allocator@D@2@@std@@V?$allocator@V?$basic_string@DU?$char_traits@D@std@@V?$allocator@D@2@@std@@@2@@2@@std@@QEAA@XZ
	??1?$unique_ptr@V_Facet_base@std@@U?$default_delete@V_Facet_base@std@@@2@@std@@QEAA@XZ
	??1?$vector@DV?$allocator@D@std@@@std@@QEAA@XZ
	??1?$vector@NV?$allocator@N@std@@@std@@QEAA@XZ
	??1?$vector@PEAVHepRepAction@HEPREP@@V?$allocator@PEAVHepRepAction@HEPREP@@@std@@@std@@QEAA@XZ
	??1?$vector@PEAVHepRepInstance@HEPREP@@V?$allocator@PEAVHepRepInstance@HEPREP@@@std@@@std@@QEAA@XZ
	??1?$vector@PEAVHepRepInstanceTree@HEPREP@@V?$allocator@PEAVHepRepInstanceTree@HEPREP@@@std@@@std@@QEAA@XZ
	??1?$vector@PEAVHepRepPoint@HEPREP@@V?$allocator@PEAVHepRepPoint@HEPREP@@@std@@@std@@QEAA@XZ
	??1?$vector@PEAVHepRepTreeID@HEPREP@@V?$allocator@PEAVHepRepTreeID@HEPREP@@@std@@@std@@QEAA@XZ
	??1?$vector@PEAVHepRepType@HEPREP@@V?$allocator@PEAVHepRepType@HEPREP@@@std@@@std@@QEAA@XZ
	??1?$vector@PEAVHepRepTypeTree@HEPREP@@V?$allocator@PEAVHepRepTypeTree@HEPREP@@@std@@@std@@QEAA@XZ
	??1?$vector@V?$Plane3D@N@HepGeom@@V?$allocator@V?$Plane3D@N@HepGeom@@@std@@@std@@QEAA@XZ
	??1?$vector@V?$basic_string@DU?$char_traits@D@std@@V?$allocator@D@2@@std@@V?$allocator@V?$basic_string@DU?$char_traits@D@std@@V?$allocator@D@2@@std@@@2@@std@@QEAA@XZ
	??1?$vector@VG4String@@V?$allocator@VG4String@@@std@@@std@@QEAA@XZ
	??1AbstractXMLWriter@cheprep@@UEAA@XZ
	??1BHepRepWriter@cheprep@@UEAA@XZ
	??1DefaultHepRep@cheprep@@UEAA@XZ
	??1DefaultHepRepAction@cheprep@@UEAA@XZ
	??1DefaultHepRepAttDef@cheprep@@UEAA@XZ
	??1DefaultHepRepAttValue@cheprep@@UEAA@XZ
	??1DefaultHepRepAttribute@cheprep@@UEAA@XZ
	??1DefaultHepRepDefinition@cheprep@@UEAA@XZ
	??1DefaultHepRepFactory@cheprep@@UEAA@XZ
	??1DefaultHepRepInstance@cheprep@@UEAA@XZ
	??1DefaultHepRepInstanceTree@cheprep@@UEAA@XZ
	??1DefaultHepRepPoint@cheprep@@UEAA@XZ
	??1DefaultHepRepTreeID@cheprep@@UEAA@XZ
	??1DefaultHepRepType@cheprep@@UEAA@XZ
	??1DefaultHepRepTypeTree@cheprep@@UEAA@XZ
	??1DeflateOutputStreamBuffer@cheprep@@UEAA@XZ
	??1G4AttDef@@UEAA@XZ
	??1G4HepRep@@UEAA@XZ
	??1G4HepRepFile@@UEAA@XZ
	??1G4HepRepFileSceneHandler@@UEAA@XZ
	??1G4HepRepFileViewer@@UEAA@XZ
	??1G4HepRepMessenger@@UEAA@XZ
	??1G4HepRepSceneHandler@@UEAA@XZ
	??1G4HepRepViewer@@UEAA@XZ
	??1G4String@@QEAA@XZ
	??1G4TypeKey@@UEAA@XZ
	??1GZIPOutputStream@cheprep@@UEAA@XZ
	??1GZIPOutputStreamBuffer@cheprep@@UEAA@XZ
	??1HepRep@HEPREP@@UEAA@XZ
	??1HepRepAction@HEPREP@@UEAA@XZ
	??1HepRepAttDef@HEPREP@@UEAA@XZ
	??1HepRepAttValue@HEPREP@@UEAA@XZ
	??1HepRepAttribute@HEPREP@@UEAA@XZ
	??1HepRepDefinition@HEPREP@@UEAA@XZ
	??1HepRepFactory@HEPREP@@UEAA@XZ
	??1HepRepInstance@HEPREP@@UEAA@XZ
	??1HepRepInstanceTree@HEPREP@@UEAA@XZ
	??1HepRepPoint@HEPREP@@UEAA@XZ
	??1HepRepTreeID@HEPREP@@UEAA@XZ
	??1HepRepType@HEPREP@@UEAA@XZ
	??1HepRepTypeTree@HEPREP@@UEAA@XZ
	??1HepRepWriter@HEPREP@@UEAA@XZ
	??1IndentPrintWriter@cheprep@@UEAA@XZ
	??1XMLHepRepFactory@cheprep@@UEAA@XZ
	??1XMLHepRepWriter@cheprep@@UEAA@XZ
	??1XMLWriter@cheprep@@UEAA@XZ
	??1ZipEntry@cheprep@@UEAA@XZ
	??1ZipOutputStream@cheprep@@UEAA@XZ
	??1ZipOutputStreamBuffer@cheprep@@UEAA@XZ
	??1_Sentry_base@?$basic_ostream@DU?$char_traits@D@std@@@std@@QEAA@XZ
	??1bad_array_new_length@std@@UEAA@XZ
	??1bad_cast@std@@UEAA@XZ
	??1exception@std@@UEAA@XZ
	??1locale@std@@QEAA@XZ
	??1sentry@?$basic_ostream@DU?$char_traits@D@std@@@std@@QEAA@XZ
	??4?$basic_string@DU?$char_traits@D@std@@V?$allocator@D@2@@std@@QEAAAEAV01@$$QEAV01@@Z
	??4G4ViewParameters@@QEAAAEAV0@AEBV0@@Z
	??6IndentPrintWriter@cheprep@@QEAAAEAV01@AEBV?$basic_string@DU?$char_traits@D@std@@V?$allocator@D@2@@std@@@Z
	??6IndentPrintWriter@cheprep@@QEAAAEAV01@P6AAEAV?$basic_ostream@DU?$char_traits@D@std@@@std@@AEAV23@@Z@Z
	??A?$map@V?$basic_string@DU?$char_traits@D@std@@V?$allocator@D@2@@std@@EU?$less@V?$basic_string@DU?$char_traits@D@std@@V?$allocator@D@2@@std@@@2@V?$allocator@U?$pair@$$CBV?$basic_string@DU?$char_traits@D@std@@V?$allocator@D@2@@std@@E@std@@@2@@std@@QEAAAEAE$$QEAV?$basic_string@DU?$char_traits@D@std@@V?$allocator@D@2@@1@@Z
	??A?$map@V?$basic_string@DU?$char_traits@D@std@@V?$allocator@D@2@@std@@EU?$less@V?$basic_string@DU?$char_traits@D@std@@V?$allocator@D@2@@std@@@2@V?$allocator@U?$pair@$$CBV?$basic_string@DU?$char_traits@D@std@@V?$allocator@D@2@@std@@E@std@@@2@@std@@QEAAAEAEAEBV?$basic_string@DU?$char_traits@D@std@@V?$allocator@D@2@@1@@Z
	??A?$map@V?$basic_string@DU?$char_traits@D@std@@V?$allocator@D@2@@std@@IU?$less@V?$basic_string@DU?$char_traits@D@std@@V?$allocator@D@2@@std@@@2@V?$allocator@U?$pair@$$CBV?$basic_string@DU?$char_traits@D@std@@V?$allocator@D@2@@std@@I@std@@@2@@std@@QEAAAEAIAEBV?$basic_string@DU?$char_traits@D@std@@V?$allocator@D@2@@1@@Z
	??A?$map@V?$basic_string@DU?$char_traits@D@std@@V?$allocator@D@2@@std@@NU?$less@V?$basic_string@DU?$char_traits@D@std@@V?$allocator@D@2@@std@@@2@V?$allocator@U?$pair@$$CBV?$basic_string@DU?$char_traits@D@std@@V?$allocator@D@2@@std@@N@std@@@2@@std@@QEAAAEAN$$QEAV?$basic_string@DU?$char_traits@D@std@@V?$allocator@D@2@@1@@Z
	??A?$map@V?$basic_string@DU?$char_traits@D@std@@V?$allocator@D@2@@std@@PEAVHepRepAttDef@HEPREP@@U?$less@V?$basic_string@DU?$char_traits@D@std@@V?$allocator@D@2@@std@@@2@V?$allocator@U?$pair@$$CBV?$basic_string@DU?$char_traits@D@std@@V?$allocator@D@2@@std@@PEAVHepRepAttDef@HEPREP@@@std@@@2@@std@@QEAAAEAPEAVHepRepAttDef@HEPREP@@AEBV?$basic_string@DU?$char_traits@D@std@@V?$allocator@D@2@@1@@Z
	??A?$map@V?$basic_string@DU?$char_traits@D@std@@V?$allocator@D@2@@std@@PEAVHepRepAttValue@HEPREP@@U?$less@V?$basic_string@DU?$char_traits@D@std@@V?$allocator@D@2@@std@@@2@V?$allocator@U?$pair@$$CBV?$basic_string@DU?$char_traits@D@std@@V?$allocator@D@2@@std@@PEAVHepRepAttValue@HEPREP@@@std@@@2@@std@@QEAAAEAPEAVHepRepAttValue@HEPREP@@AEBV?$basic_string@DU?$char_traits@D@std@@V?$allocator@D@2@@1@@Z
	??A?$map@VG4String@@PEAVHepRepType@HEPREP@@U?$less@VG4String@@@std@@V?$allocator@U?$pair@$$CBVG4String@@PEAVHepRepType@HEPREP@@@std@@@5@@std@@QEAAAEAPEAVHepRepType@HEPREP@@$$QEAVG4String@@@Z
	??A?$map@VG4String@@PEAVHepRepType@HEPREP@@U?$less@VG4String@@@std@@V?$allocator@U?$pair@$$CBVG4String@@PEAVHepRepType@HEPREP@@@std@@@5@@std@@QEAAAEAPEAVHepRepType@HEPREP@@AEBVG4String@@@Z
	??R?$less@V?$basic_string@DU?$char_traits@D@std@@V?$allocator@D@2@@std@@@std@@QEBA_NAEBV?$basic_string@DU?$char_traits@D@std@@V?$allocator@D@2@@1@0@Z
	??R?$less@VG4String@@@std@@QEBA_NAEBVG4String@@0@Z
	??_D?$basic_ofstream@DU?$char_traits@D@std@@@std@@QEAAXXZ
	?AddCompound@G4HepRepFileSceneHandler@@UEAAXAEBV?$G4THitsMap@N@@@Z
	?AddCompound@G4HepRepFileSceneHandler@@UEAAXAEBV?$G4THitsMap@VG4StatDouble@@@@@Z
	?AddCompound@G4HepRepFileSceneHandler@@UEAAXAEBVG4VDigi@@@Z
	?AddCompound@G4HepRepFileSceneHandler@@UEAAXAEBVG4VHit@@@Z
	?AddCompound@G4HepRepFileSceneHandler@@UEAAXAEBVG4VTrajectory@@@Z
	?AddCompound@G4HepRepSceneHandler@@UEAAXAEBV?$G4THitsMap@N@@@Z
	?AddCompound@G4HepRepSceneHandler@@UEAAXAEBV?$G4THitsMap@VG4StatDouble@@@@@Z
	?AddCompound@G4HepRepSceneHandler@@UEAAXAEBVG4VDigi@@@Z
	?AddCompound@G4HepRepSceneHandler@@UEAAXAEBVG4VHit@@@Z
	?AddCompound@G4HepRepSceneHandler@@UEAAXAEBVG4VTrajectory@@@Z
	?AddHepRepInstance@G4HepRepFileSceneHandler@@AEAAXPEBDVG4Visible@@@Z
	?AddPrimitive@G4HepRepFileSceneHandler@@UEAAXAEBVG4Circle@@@Z
	?AddPrimitive@G4HepRepFileSceneHandler@@UEAAXAEBVG4Polyhedron@@@Z
	?AddPrimitive@G4HepRepFileSceneHandler@@UEAAXAEBVG4Polyline@@@Z
	?AddPrimitive@G4HepRepFileSceneHandler@@UEAAXAEBVG4Polymarker@@@Z
	?AddPrimitive@G4HepRepFileSceneHandler@@UEAAXAEBVG4Scale@@@Z
	?AddPrimitive@G4HepRepFileSceneHandler@@UEAAXAEBVG4Square@@@Z
	?AddPrimitive@G4HepRepFileSceneHandler@@UEAAXAEBVG4Text@@@Z
	?AddPrimitive@G4HepRepSceneHandler@@UEAAXAEBVG4Circle@@@Z
	?AddPrimitive@G4HepRepSceneHandler@@UEAAXAEBVG4Polyhedron@@@Z
	?AddPrimitive@G4HepRepSceneHandler@@UEAAXAEBVG4Polyline@@@Z
	?AddPrimitive@G4HepRepSceneHandler@@UEAAXAEBVG4Polymarker@@@Z
	?AddPrimitive@G4HepRepSceneHandler@@UEAAXAEBVG4Scale@@@Z
	?AddPrimitive@G4HepRepSceneHandler@@UEAAXAEBVG4Square@@@Z
	?AddPrimitive@G4HepRepSceneHandler@@UEAAXAEBVG4Text@@@Z
	?AddSolid@G4HepRepFileSceneHandler@@UEAAXAEBVG4Box@@@Z
	?AddSolid@G4HepRepFileSceneHandler@@UEAAXAEBVG4Cons@@@Z
	?AddSolid@G4HepRepFileSceneHandler@@UEAAXAEBVG4Ellipsoid@@@Z
	?AddSolid@G4HepRepFileSceneHandler@@UEAAXAEBVG4Orb@@@Z
	?AddSolid@G4HepRepFileSceneHandler@@UEAAXAEBVG4Para@@@Z
	?AddSolid@G4HepRepFileSceneHandler@@UEAAXAEBVG4Polycone@@@Z
	?AddSolid@G4HepRepFileSceneHandler@@UEAAXAEBVG4Polyhedra@@@Z
	?AddSolid@G4HepRepFileSceneHandler@@UEAAXAEBVG4Sphere@@@Z
	?AddSolid@G4HepRepFileSceneHandler@@UEAAXAEBVG4TessellatedSolid@@@Z
	?AddSolid@G4HepRepFileSceneHandler@@UEAAXAEBVG4Torus@@@Z
	?AddSolid@G4HepRepFileSceneHandler@@UEAAXAEBVG4Trap@@@Z
	?AddSolid@G4HepRepFileSceneHandler@@UEAAXAEBVG4Trd@@@Z
	?AddSolid@G4HepRepFileSceneHandler@@UEAAXAEBVG4Tubs@@@Z
	?AddSolid@G4HepRepFileSceneHandler@@UEAAXAEBVG4VSolid@@@Z
	?AddSolid@G4HepRepSceneHandler@@UEAAXAEBVG4Box@@@Z
	?AddSolid@G4HepRepSceneHandler@@UEAAXAEBVG4Cons@@@Z
	?AddSolid@G4HepRepSceneHandler@@UEAAXAEBVG4Ellipsoid@@@Z
	?AddSolid@G4HepRepSceneHandler@@UEAAXAEBVG4Orb@@@Z
	?AddSolid@G4HepRepSceneHandler@@UEAAXAEBVG4Para@@@Z
	?AddSolid@G4HepRepSceneHandler@@UEAAXAEBVG4Polycone@@@Z
	?AddSolid@G4HepRepSceneHandler@@UEAAXAEBVG4Polyhedra@@@Z
	?AddSolid@G4HepRepSceneHandler@@UEAAXAEBVG4Sphere@@@Z
	?AddSolid@G4HepRepSceneHandler@@UEAAXAEBVG4TessellatedSolid@@@Z
	?AddSolid@G4HepRepSceneHandler@@UEAAXAEBVG4Torus@@@Z
	?AddSolid@G4HepRepSceneHandler@@UEAAXAEBVG4Trap@@@Z
	?AddSolid@G4HepRepSceneHandler@@UEAAXAEBVG4Trd@@@Z
	?AddSolid@G4HepRepSceneHandler@@UEAAXAEBVG4Tubs@@@Z
	?AddSolid@G4HepRepSceneHandler@@UEAAXAEBVG4VSolid@@@Z
	?BeginModeling@G4HepRepFileSceneHandler@@UEAAXXZ
	?BeginModeling@G4HepRepSceneHandler@@UEAAXXZ
	?BeginPrimitives2D@G4HepRepFileSceneHandler@@UEAAXAEBVTransform3D@HepGeom@@@Z
	?BeginPrimitives@G4HepRepSceneHandler@@UEAAXAEBVTransform3D@HepGeom@@@Z
	?CheckFileOpen@G4HepRepFileSceneHandler@@AEAAXXZ
	?ClearTransientStore@G4HepRepFileSceneHandler@@UEAAXXZ
	?ClearView@G4HepRepFileViewer@@UEAAXXZ
	?ClearView@G4HepRepViewer@@UEAAXXZ
	?CreateSceneHandler@G4HepRep@@UEAAPEAVG4VSceneHandler@@AEBVG4String@@@Z
	?CreateSceneHandler@G4HepRepFile@@UEAAPEAVG4VSceneHandler@@AEBVG4String@@@Z
	?CreateViewer@G4HepRep@@UEAAPEAVG4VViewer@@AEAVG4VSceneHandler@@AEBVG4String@@@Z
	?CreateViewer@G4HepRepFile@@UEAAPEAVG4VViewer@@AEAVG4VSceneHandler@@AEBVG4String@@@Z
	?DrawView@G4HepRepFileViewer@@UEAAXXZ
	?DrawView@G4HepRepViewer@@UEAAXXZ
	?EndModeling@G4HepRepFileSceneHandler@@UEAAXXZ
	?EndModeling@G4HepRepSceneHandler@@UEAAXXZ
	?EndPrimitives2D@G4HepRepFileSceneHandler@@UEAAXXZ
	?EndPrimitives@G4HepRepSceneHandler@@UEAAXXZ
	?FinishView@G4HepRepViewer@@UEAAXXZ
	?GetCurrentValue@G4HepRepMessenger@@UEAA?AVG4String@@PEAVG4UIcommand@@@Z
	?GetHepRepXMLWriter@G4HepRepFile@@QEAAPEAVG4HepRepFileXMLWriter@@XZ
	?GetHepRepXMLWriter@G4HepRepFileSceneHandler@@QEAAPEAVG4HepRepFileXMLWriter@@XZ
	?GetInstance@G4HepRepMessenger@@SAPEAV1@XZ
	?GetPrivateVisAttributesModifiers@G4VViewer@@UEBAPEBV?$vector@VVisAttributesModifier@G4ModelingParameters@@V?$allocator@VVisAttributesModifier@G4ModelingParameters@@@std@@@std@@XZ
	?InitHit@G4HepRepFileSceneHandler@@QEAAXXZ
	?InitTrajectory@G4HepRepFileSceneHandler@@QEAAXXZ
	?Initialise@G4VViewer@@UEAAXXZ
	?PostAddSolid@G4HepRepSceneHandler@@UEAAXXZ
	?PreAddSolid@G4HepRepSceneHandler@@UEAAXAEBVTransform3D@HepGeom@@AEBVG4VisAttributes@@@Z
	?ResetView@G4VViewer@@UEAAXXZ
	?SetGuidance@G4UIcommand@@QEAAXPEBD@Z
	?SetNewValue@G4HepRepMessenger@@UEAAXPEAVG4UIcommand@@VG4String@@@Z
	?SetView@G4HepRepFileViewer@@UEAAXXZ
	?SetView@G4HepRepViewer@@UEAAXXZ
	?ShowView@G4HepRepFileViewer@@UEAAXXZ
	?ShowView@G4HepRepViewer@@UEAAXXZ
	?_Become_small@?$basic_string@DU?$char_traits@D@std@@V?$allocator@D@2@@std@@AEAAXXZ
	?_Buy_raw@?$vector@V?$Plane3D@N@HepGeom@@V?$allocator@V?$Plane3D@N@HepGeom@@@std@@@std@@AEAAX_K@Z
	?_Buy_raw@?$vector@VPVNameCopyNo@G4ModelingParameters@@V?$allocator@VPVNameCopyNo@G4ModelingParameters@@@std@@@std@@AEAAX_K@Z
	?_Buy_raw@?$vector@VVisAttributesModifier@G4ModelingParameters@@V?$allocator@VVisAttributesModifier@G4ModelingParameters@@@std@@@std@@AEAAX_K@Z
	?_Change_array@?$vector@VG4String@@V?$allocator@VG4String@@@std@@@std@@AEAAXQEAVG4String@@_K1@Z
	?_Clear_and_reserve_geometric@?$vector@VVisAttributesModifier@G4ModelingParameters@@V?$allocator@VVisAttributesModifier@G4ModelingParameters@@@std@@@std@@AEAAX_K@Z
	?_Destroy@?$vector@V?$basic_string@DU?$char_traits@D@std@@V?$allocator@D@2@@std@@V?$allocator@V?$basic_string@DU?$char_traits@D@std@@V?$allocator@D@2@@std@@@2@@std@@AEAAXPEAV?$basic_string@DU?$char_traits@D@std@@V?$allocator@D@2@@2@0@Z
	?_Destroy@?$vector@VG4String@@V?$allocator@VG4String@@@std@@@std@@AEAAXPEAVG4String@@0@Z
	?_Endwrite@?$basic_filebuf@DU?$char_traits@D@std@@@std@@IEAA_NXZ
	?_Extract@?$_Tree_val@U?$_Tree_simple_types@U?$pair@$$CBV?$basic_string@DU?$char_traits@D@std@@V?$allocator@D@2@@std@@PEAVHepRepAttValue@HEPREP@@@std@@@std@@@std@@QEAAPEAU?$_Tree_node@U?$pair@$$CBV?$basic_string@DU?$char_traits@D@std@@V?$allocator@D@2@@std@@PEAVHepRepAttValue@HEPREP@@@std@@PEAX@2@V?$_Tree_unchecked_const_iterator@V?$_Tree_val@U?$_Tree_simple_types@U?$pair@$$CBV?$basic_string@DU?$char_traits@D@std@@V?$allocator@D@2@@std@@PEAVHepRepAttValue@HEPREP@@@std@@@std@@@std@@U_Iterator_base0@2@@2@@Z
	?_Growmap@?$deque@V?$basic_string@DU?$char_traits@D@std@@V?$allocator@D@2@@std@@V?$allocator@V?$basic_string@DU?$char_traits@D@std@@V?$allocator@D@2@@std@@@2@@std@@AEAAX_K@Z
	?_Insert_node@?$_Tree_val@U?$_Tree_simple_types@PEAVHepRepAttDef@HEPREP@@@std@@@std@@QEAAPEAU?$_Tree_node@PEAVHepRepAttDef@HEPREP@@PEAX@2@U?$_Tree_id@PEAU?$_Tree_node@PEAVHepRepAttDef@HEPREP@@PEAX@std@@@2@QEAU32@@Z
	?_Insert_node@?$_Tree_val@U?$_Tree_simple_types@PEAVHepRepAttValue@HEPREP@@@std@@@std@@QEAAPEAU?$_Tree_node@PEAVHepRepAttValue@HEPREP@@PEAX@2@U?$_Tree_id@PEAU?$_Tree_node@PEAVHepRepAttValue@HEPREP@@PEAX@std@@@2@QEAU32@@Z
	?_Insert_node@?$_Tree_val@U?$_Tree_simple_types@U?$pair@$$CBHVG4String@@@std@@@std@@@std@@QEAAPEAU?$_Tree_node@U?$pair@$$CBHVG4String@@@std@@PEAX@2@U?$_Tree_id@PEAU?$_Tree_node@U?$pair@$$CBHVG4String@@@std@@PEAX@std@@@2@QEAU32@@Z
	?_Insert_node@?$_Tree_val@U?$_Tree_simple_types@U?$pair@$$CBV?$basic_string@DU?$char_traits@D@std@@V?$allocator@D@2@@std@@E@std@@@std@@@std@@QEAAPEAU?$_Tree_node@U?$pair@$$CBV?$basic_string@DU?$char_traits@D@std@@V?$allocator@D@2@@std@@E@std@@PEAX@2@U?$_Tree_id@PEAU?$_Tree_node@U?$pair@$$CBV?$basic_string@DU?$char_traits@D@std@@V?$allocator@D@2@@std@@E@std@@PEAX@std@@@2@QEAU32@@Z
	?_Insert_node@?$_Tree_val@U?$_Tree_simple_types@U?$pair@$$CBV?$basic_string@DU?$char_traits@D@std@@V?$allocator@D@2@@std@@H@std@@@std@@@std@@QEAAPEAU?$_Tree_node@U?$pair@$$CBV?$basic_string@DU?$char_traits@D@std@@V?$allocator@D@2@@std@@H@std@@PEAX@2@U?$_Tree_id@PEAU?$_Tree_node@U?$pair@$$CBV?$basic_string@DU?$char_traits@D@std@@V?$allocator@D@2@@std@@H@std@@PEAX@std@@@2@QEAU32@@Z
	?_Insert_node@?$_Tree_val@U?$_Tree_simple_types@U?$pair@$$CBV?$basic_string@DU?$char_traits@D@std@@V?$allocator@D@2@@std@@I@std@@@std@@@std@@QEAAPEAU?$_Tree_node@U?$pair@$$CBV?$basic_string@DU?$char_traits@D@std@@V?$allocator@D@2@@std@@I@std@@PEAX@2@U?$_Tree_id@PEAU?$_Tree_node@U?$pair@$$CBV?$basic_string@DU?$char_traits@D@std@@V?$allocator@D@2@@std@@I@std@@PEAX@std@@@2@QEAU32@@Z
	?_Insert_node@?$_Tree_val@U?$_Tree_simple_types@U?$pair@$$CBV?$basic_string@DU?$char_traits@D@std@@V?$allocator@D@2@@std@@N@std@@@std@@@std@@QEAAPEAU?$_Tree_node@U?$pair@$$CBV?$basic_string@DU?$char_traits@D@std@@V?$allocator@D@2@@std@@N@std@@PEAX@2@U?$_Tree_id@PEAU?$_Tree_node@U?$pair@$$CBV?$basic_string@DU?$char_traits@D@std@@V?$allocator@D@2@@std@@N@std@@PEAX@std@@@2@QEAU32@@Z
	?_Insert_node@?$_Tree_val@U?$_Tree_simple_types@U?$pair@$$CBV?$basic_string@DU?$char_traits@D@std@@V?$allocator@D@2@@std@@PEAVHepRepAttDef@HEPREP@@@std@@@std@@@std@@QEAAPEAU?$_Tree_node@U?$pair@$$CBV?$basic_string@DU?$char_traits@D@std@@V?$allocator@D@2@@std@@PEAVHepRepAttDef@HEPREP@@@std@@PEAX@2@U?$_Tree_id@PEAU?$_Tree_node@U?$pair@$$CBV?$basic_string@DU?$char_traits@D@std@@V?$allocator@D@2@@std@@PEAVHepRepAttDef@HEPREP@@@std@@PEAX@std@@@2@QEAU32@@Z
	?_Insert_node@?$_Tree_val@U?$_Tree_simple_types@U?$pair@$$CBV?$basic_string@DU?$char_traits@D@std@@V?$allocator@D@2@@std@@PEAVHepRepAttValue@HEPREP@@@std@@@std@@@std@@QEAAPEAU?$_Tree_node@U?$pair@$$CBV?$basic_string@DU?$char_traits@D@std@@V?$allocator@D@2@@std@@PEAVHepRepAttValue@HEPREP@@@std@@PEAX@2@U?$_Tree_id@PEAU?$_Tree_node@U?$pair@$$CBV?$basic_string@DU?$char_traits@D@std@@V?$allocator@D@2@@std@@PEAVHepRepAttValue@HEPREP@@@std@@PEAX@std@@@2@QEAU32@@Z
	?_Insert_node@?$_Tree_val@U?$_Tree_simple_types@U?$pair@$$CBV?$basic_string@DU?$char_traits@D@std@@V?$allocator@D@2@@std@@V12@@std@@@std@@@std@@QEAAPEAU?$_Tree_node@U?$pair@$$CBV?$basic_string@DU?$char_traits@D@std@@V?$allocator@D@2@@std@@V12@@std@@PEAX@2@U?$_Tree_id@PEAU?$_Tree_node@U?$pair@$$CBV?$basic_string@DU?$char_traits@D@std@@V?$allocator@D@2@@std@@V12@@std@@PEAX@std@@@2@QEAU32@@Z
	?_Insert_node@?$_Tree_val@U?$_Tree_simple_types@U?$pair@$$CBV?$basic_string@DU?$char_traits@D@std@@V?$allocator@D@2@@std@@V?$vector@NV?$allocator@N@std@@@2@@std@@@std@@@std@@QEAAPEAU?$_Tree_node@U?$pair@$$CBV?$basic_string@DU?$char_traits@D@std@@V?$allocator@D@2@@std@@V?$vector@NV?$allocator@N@std@@@2@@std@@PEAX@2@U?$_Tree_id@PEAU?$_Tree_node@U?$pair@$$CBV?$basic_string@DU?$char_traits@D@std@@V?$allocator@D@2@@std@@V?$vector@NV?$allocator@N@std@@@2@@std@@PEAX@std@@@2@QEAU32@@Z
	?_Insert_node@?$_Tree_val@U?$_Tree_simple_types@U?$pair@$$CBV?$basic_string@DU?$char_traits@D@std@@V?$allocator@D@2@@std@@_J@std@@@std@@@std@@QEAAPEAU?$_Tree_node@U?$pair@$$CBV?$basic_string@DU?$char_traits@D@std@@V?$allocator@D@2@@std@@_J@std@@PEAX@2@U?$_Tree_id@PEAU?$_Tree_node@U?$pair@$$CBV?$basic_string@DU?$char_traits@D@std@@V?$allocator@D@2@@std@@_J@std@@PEAX@std@@@2@QEAU32@@Z
	?_Insert_node@?$_Tree_val@U?$_Tree_simple_types@U?$pair@$$CBV?$basic_string@DU?$char_traits@D@std@@V?$allocator@D@2@@std@@_N@std@@@std@@@std@@QEAAPEAU?$_Tree_node@U?$pair@$$CBV?$basic_string@DU?$char_traits@D@std@@V?$allocator@D@2@@std@@_N@std@@PEAX@2@U?$_Tree_id@PEAU?$_Tree_node@U?$pair@$$CBV?$basic_string@DU?$char_traits@D@std@@V?$allocator@D@2@@std@@_N@std@@PEAX@std@@@2@QEAU32@@Z
	?_Insert_node@?$_Tree_val@U?$_Tree_simple_types@U?$pair@$$CBVG4String@@PEAVHepRepType@HEPREP@@@std@@@std@@@std@@QEAAPEAU?$_Tree_node@U?$pair@$$CBVG4String@@PEAVHepRepType@HEPREP@@@std@@PEAX@2@U?$_Tree_id@PEAU?$_Tree_node@U?$pair@$$CBVG4String@@PEAVHepRepType@HEPREP@@@std@@PEAX@std@@@2@QEAU32@@Z
	?_Lock@?$basic_filebuf@DU?$char_traits@D@std@@@std@@UEAAXXZ
	?_Lrotate@?$_Tree_val@U?$_Tree_simple_types@U?$pair@$$CBV?$basic_string@DU?$char_traits@D@std@@V?$allocator@D@2@@std@@PEAVHepRepAttValue@HEPREP@@@std@@@std@@@std@@QEAAXPEAU?$_Tree_node@U?$pair@$$CBV?$basic_string@DU?$char_traits@D@std@@V?$allocator@D@2@@std@@PEAVHepRepAttValue@HEPREP@@@std@@PEAX@2@@Z
	?_Maklocwcs@std@@YAPEA_WPEB_W@Z
	?_Reset_back@?$basic_filebuf@DU?$char_traits@D@std@@@std@@AEAAXXZ
	?_Rrotate@?$_Tree_val@U?$_Tree_simple_types@U?$pair@$$CBV?$basic_string@DU?$char_traits@D@std@@V?$allocator@D@2@@std@@PEAVHepRepAttValue@HEPREP@@@std@@@std@@@std@@QEAAXPEAU?$_Tree_node@U?$pair@$$CBV?$basic_string@DU?$char_traits@D@std@@V?$allocator@D@2@@std@@PEAVHepRepAttValue@HEPREP@@@std@@PEAX@2@@Z
	?_Throw_bad_array_new_length@std@@YAXXZ
	?_Throw_bad_cast@std@@YAXXZ
	?_Throw_tree_length_error@std@@YAXXZ
	?_Tidy@?$vector@V?$basic_string@DU?$char_traits@D@std@@V?$allocator@D@2@@std@@V?$allocator@V?$basic_string@DU?$char_traits@D@std@@V?$allocator@D@2@@std@@@2@@std@@AEAAXXZ
	?_Tidy@?$vector@VG4AttValue@@V?$allocator@VG4AttValue@@@std@@@std@@AEAAXXZ
	?_Tidy@?$vector@VPVNameCopyNo@G4ModelingParameters@@V?$allocator@VPVNameCopyNo@G4ModelingParameters@@@std@@@std@@AEAAXXZ
	?_Tidy@?$vector@VVisAttributesModifier@G4ModelingParameters@@V?$allocator@VVisAttributesModifier@G4ModelingParameters@@@std@@@std@@AEAAXXZ
	?_Unlock@?$basic_filebuf@DU?$char_traits@D@std@@@std@@UEAAXXZ
	?_Xlen@?$basic_string@DU?$char_traits@D@std@@V?$allocator@D@2@@std@@CAXXZ
	?_Xlen@?$deque@V?$basic_string@DU?$char_traits@D@std@@V?$allocator@D@2@@std@@V?$allocator@V?$basic_string@DU?$char_traits@D@std@@V?$allocator@D@2@@std@@@2@@std@@AEBAXXZ
	?_Xlength@?$vector@NV?$allocator@N@std@@@std@@CAXXZ
	?_Xlength@?$vector@PEAVHepRepInstance@HEPREP@@V?$allocator@PEAVHepRepInstance@HEPREP@@@std@@@std@@CAXXZ
	?_Xlength@?$vector@PEAVHepRepInstanceTree@HEPREP@@V?$allocator@PEAVHepRepInstanceTree@HEPREP@@@std@@@std@@CAXXZ
	?_Xlength@?$vector@PEAVHepRepPoint@HEPREP@@V?$allocator@PEAVHepRepPoint@HEPREP@@@std@@@std@@CAXXZ
	?_Xlength@?$vector@PEAVHepRepTreeID@HEPREP@@V?$allocator@PEAVHepRepTreeID@HEPREP@@@std@@@std@@CAXXZ
	?_Xlength@?$vector@PEAVHepRepType@HEPREP@@V?$allocator@PEAVHepRepType@HEPREP@@@std@@@std@@CAXXZ
	?_Xlength@?$vector@PEAVHepRepTypeTree@HEPREP@@V?$allocator@PEAVHepRepTypeTree@HEPREP@@@std@@@std@@CAXXZ
	?_Xlength@?$vector@PEAVZipEntry@cheprep@@V?$allocator@PEAVZipEntry@cheprep@@@std@@@std@@CAXXZ
	?_Xlength@?$vector@V?$Plane3D@N@HepGeom@@V?$allocator@V?$Plane3D@N@HepGeom@@@std@@@std@@CAXXZ
	?_Xlength@?$vector@V?$basic_string@DU?$char_traits@D@std@@V?$allocator@D@2@@std@@V?$allocator@V?$basic_string@DU?$char_traits@D@std@@V?$allocator@D@2@@std@@@2@@std@@CAXXZ
	?_Xlength@?$vector@VG4String@@V?$allocator@VG4String@@@std@@@std@@CAXXZ
	?_Xlength@?$vector@VPVNameCopyNo@G4ModelingParameters@@V?$allocator@VPVNameCopyNo@G4ModelingParameters@@@std@@@std@@CAXXZ
	?_Xlength@?$vector@VVisAttributesModifier@G4ModelingParameters@@V?$allocator@VVisAttributesModifier@G4ModelingParameters@@@std@@@std@@CAXXZ
	?_Xran@?$_String_val@U?$_Simple_types@D@std@@@std@@SAXXZ
	?addAttDef@DefaultHepRepDefinition@cheprep@@$4PPPPPPPM@A@EAAXPEAVHepRepAttDef@HEPREP@@@Z
	?addAttDef@DefaultHepRepDefinition@cheprep@@$4PPPPPPPM@A@EAAXV?$basic_string@DU?$char_traits@D@std@@V?$allocator@D@2@@std@@000@Z
	?addAttDef@DefaultHepRepDefinition@cheprep@@$4PPPPPPPM@IA@EAAXPEAVHepRepAttDef@HEPREP@@@Z
	?addAttDef@DefaultHepRepDefinition@cheprep@@$4PPPPPPPM@IA@EAAXV?$basic_string@DU?$char_traits@D@std@@V?$allocator@D@2@@std@@000@Z
	?addAttDef@DefaultHepRepDefinition@cheprep@@UEAAXPEAVHepRepAttDef@HEPREP@@@Z
	?addAttDef@DefaultHepRepDefinition@cheprep@@UEAAXV?$basic_string@DU?$char_traits@D@std@@V?$allocator@D@2@@std@@000@Z
	?addAttDef@G4HepRepFileXMLWriter@@QEAAXPEBD000@Z
	?addAttDefs@G4HepRepSceneHandler@@AEAAXPEAVHepRepDefinition@HEPREP@@PEBV?$map@VG4String@@VG4AttDef@@U?$less@VG4String@@@std@@V?$allocator@U?$pair@$$CBVG4String@@VG4AttDef@@@std@@@4@@std@@@Z
	?addAttVals@G4HepRepSceneHandler@@AEAAXPEAVHepRepAttribute@HEPREP@@PEBV?$map@VG4String@@VG4AttDef@@U?$less@VG4String@@@std@@V?$allocator@U?$pair@$$CBVG4String@@VG4AttDef@@@std@@@4@@std@@PEAV?$vector@VG4AttValue@@V?$allocator@VG4AttValue@@@std@@@5@@Z
	?addAttValue@DefaultHepRepAttribute@cheprep@@$4PPPPPPPM@A@EAAXPEAVHepRepAttValue@HEPREP@@@Z
	?addAttValue@DefaultHepRepAttribute@cheprep@@$4PPPPPPPM@A@EAAXV?$basic_string@DU?$char_traits@D@std@@V?$allocator@D@2@@std@@0H@Z
	?addAttValue@DefaultHepRepAttribute@cheprep@@$4PPPPPPPM@A@EAAXV?$basic_string@DU?$char_traits@D@std@@V?$allocator@D@2@@std@@HH@Z
	?addAttValue@DefaultHepRepAttribute@cheprep@@$4PPPPPPPM@A@EAAXV?$basic_string@DU?$char_traits@D@std@@V?$allocator@D@2@@std@@NH@Z
	?addAttValue@DefaultHepRepAttribute@cheprep@@$4PPPPPPPM@A@EAAXV?$basic_string@DU?$char_traits@D@std@@V?$allocator@D@2@@std@@NNNNH@Z
	?addAttValue@DefaultHepRepAttribute@cheprep@@$4PPPPPPPM@A@EAAXV?$basic_string@DU?$char_traits@D@std@@V?$allocator@D@2@@std@@PEADH@Z
	?addAttValue@DefaultHepRepAttribute@cheprep@@$4PPPPPPPM@A@EAAXV?$basic_string@DU?$char_traits@D@std@@V?$allocator@D@2@@std@@V?$vector@NV?$allocator@N@std@@@4@H@Z
	?addAttValue@DefaultHepRepAttribute@cheprep@@$4PPPPPPPM@A@EAAXV?$basic_string@DU?$char_traits@D@std@@V?$allocator@D@2@@std@@_JH@Z
	?addAttValue@DefaultHepRepAttribute@cheprep@@$4PPPPPPPM@A@EAAXV?$basic_string@DU?$char_traits@D@std@@V?$allocator@D@2@@std@@_NH@Z
	?addAttValue@DefaultHepRepAttribute@cheprep@@$4PPPPPPPM@BA@EAAXPEAVHepRepAttValue@HEPREP@@@Z
	?addAttValue@DefaultHepRepAttribute@cheprep@@$4PPPPPPPM@BA@EAAXV?$basic_string@DU?$char_traits@D@std@@V?$allocator@D@2@@std@@0H@Z
	?addAttValue@DefaultHepRepAttribute@cheprep@@$4PPPPPPPM@BA@EAAXV?$basic_string@DU?$char_traits@D@std@@V?$allocator@D@2@@std@@HH@Z
	?addAttValue@DefaultHepRepAttribute@cheprep@@$4PPPPPPPM@BA@EAAXV?$basic_string@DU?$char_traits@D@std@@V?$allocator@D@2@@std@@NH@Z
	?addAttValue@DefaultHepRepAttribute@cheprep@@$4PPPPPPPM@BA@EAAXV?$basic_string@DU?$char_traits@D@std@@V?$allocator@D@2@@std@@NNNNH@Z
	?addAttValue@DefaultHepRepAttribute@cheprep@@$4PPPPPPPM@BA@EAAXV?$basic_string@DU?$char_traits@D@std@@V?$allocator@D@2@@std@@PEADH@Z
	?addAttValue@DefaultHepRepAttribute@cheprep@@$4PPPPPPPM@BA@EAAXV?$basic_string@DU?$char_traits@D@std@@V?$allocator@D@2@@std@@V?$vector@NV?$allocator@N@std@@@4@H@Z
	?addAttValue@DefaultHepRepAttribute@cheprep@@$4PPPPPPPM@BA@EAAXV?$basic_string@DU?$char_traits@D@std@@V?$allocator@D@2@@std@@_JH@Z
	?addAttValue@DefaultHepRepAttribute@cheprep@@$4PPPPPPPM@BA@EAAXV?$basic_string@DU?$char_traits@D@std@@V?$allocator@D@2@@std@@_NH@Z
	?addAttValue@DefaultHepRepAttribute@cheprep@@$4PPPPPPPM@CA@EAAXPEAVHepRepAttValue@HEPREP@@@Z
	?addAttValue@DefaultHepRepAttribute@cheprep@@$4PPPPPPPM@CA@EAAXV?$basic_string@DU?$char_traits@D@std@@V?$allocator@D@2@@std@@0H@Z
	?addAttValue@DefaultHepRepAttribute@cheprep@@$4PPPPPPPM@CA@EAAXV?$basic_string@DU?$char_traits@D@std@@V?$allocator@D@2@@std@@HH@Z
	?addAttValue@DefaultHepRepAttribute@cheprep@@$4PPPPPPPM@CA@EAAXV?$basic_string@DU?$char_traits@D@std@@V?$allocator@D@2@@std@@NH@Z
	?addAttValue@DefaultHepRepAttribute@cheprep@@$4PPPPPPPM@CA@EAAXV?$basic_string@DU?$char_traits@D@std@@V?$allocator@D@2@@std@@NNNNH@Z
	?addAttValue@DefaultHepRepAttribute@cheprep@@$4PPPPPPPM@CA@EAAXV?$basic_string@DU?$char_traits@D@std@@V?$allocator@D@2@@std@@PEADH@Z
	?addAttValue@DefaultHepRepAttribute@cheprep@@$4PPPPPPPM@CA@EAAXV?$basic_string@DU?$char_traits@D@std@@V?$allocator@D@2@@std@@V?$vector@NV?$allocator@N@std@@@4@H@Z
	?addAttValue@DefaultHepRepAttribute@cheprep@@$4PPPPPPPM@CA@EAAXV?$basic_string@DU?$char_traits@D@std@@V?$allocator@D@2@@std@@_JH@Z
	?addAttValue@DefaultHepRepAttribute@cheprep@@$4PPPPPPPM@CA@EAAXV?$basic_string@DU?$char_traits@D@std@@V?$allocator@D@2@@std@@_NH@Z
	?addAttValue@DefaultHepRepAttribute@cheprep@@$4PPPPPPPM@EA@EAAXPEAVHepRepAttValue@HEPREP@@@Z
	?addAttValue@DefaultHepRepAttribute@cheprep@@$4PPPPPPPM@EA@EAAXV?$basic_string@DU?$char_traits@D@std@@V?$allocator@D@2@@std@@0H@Z
	?addAttValue@DefaultHepRepAttribute@cheprep@@$4PPPPPPPM@EA@EAAXV?$basic_string@DU?$char_traits@D@std@@V?$allocator@D@2@@std@@HH@Z
	?addAttValue@DefaultHepRepAttribute@cheprep@@$4PPPPPPPM@EA@EAAXV?$basic_string@DU?$char_traits@D@std@@V?$allocator@D@2@@std@@NH@Z
	?addAttValue@DefaultHepRepAttribute@cheprep@@$4PPPPPPPM@EA@EAAXV?$basic_string@DU?$char_traits@D@std@@V?$allocator@D@2@@std@@NNNNH@Z
	?addAttValue@DefaultHepRepAttribute@cheprep@@$4PPPPPPPM@EA@EAAXV?$basic_string@DU?$char_traits@D@std@@V?$allocator@D@2@@std@@PEADH@Z
	?addAttValue@DefaultHepRepAttribute@cheprep@@$4PPPPPPPM@EA@EAAXV?$basic_string@DU?$char_traits@D@std@@V?$allocator@D@2@@std@@V?$vector@NV?$allocator@N@std@@@4@H@Z
	?addAttValue@DefaultHepRepAttribute@cheprep@@$4PPPPPPPM@EA@EAAXV?$basic_string@DU?$char_traits@D@std@@V?$allocator@D@2@@std@@_JH@Z
	?addAttValue@DefaultHepRepAttribute@cheprep@@$4PPPPPPPM@EA@EAAXV?$basic_string@DU?$char_traits@D@std@@V?$allocator@D@2@@std@@_NH@Z
	?addAttValue@DefaultHepRepAttribute@cheprep@@$4PPPPPPPM@JA@EAAXPEAVHepRepAttValue@HEPREP@@@Z
	?addAttValue@DefaultHepRepAttribute@cheprep@@$4PPPPPPPM@JA@EAAXV?$basic_string@DU?$char_traits@D@std@@V?$allocator@D@2@@std@@0H@Z
	?addAttValue@DefaultHepRepAttribute@cheprep@@$4PPPPPPPM@JA@EAAXV?$basic_string@DU?$char_traits@D@std@@V?$allocator@D@2@@std@@HH@Z
	?addAttValue@DefaultHepRepAttribute@cheprep@@$4PPPPPPPM@JA@EAAXV?$basic_string@DU?$char_traits@D@std@@V?$allocator@D@2@@std@@NH@Z
	?addAttValue@DefaultHepRepAttribute@cheprep@@$4PPPPPPPM@JA@EAAXV?$basic_string@DU?$char_traits@D@std@@V?$allocator@D@2@@std@@NNNNH@Z
	?addAttValue@DefaultHepRepAttribute@cheprep@@$4PPPPPPPM@JA@EAAXV?$basic_string@DU?$char_traits@D@std@@V?$allocator@D@2@@std@@PEADH@Z
	?addAttValue@DefaultHepRepAttribute@cheprep@@$4PPPPPPPM@JA@EAAXV?$basic_string@DU?$char_traits@D@std@@V?$allocator@D@2@@std@@V?$vector@NV?$allocator@N@std@@@4@H@Z
	?addAttValue@DefaultHepRepAttribute@cheprep@@$4PPPPPPPM@JA@EAAXV?$basic_string@DU?$char_traits@D@std@@V?$allocator@D@2@@std@@_JH@Z
	?addAttValue@DefaultHepRepAttribute@cheprep@@$4PPPPPPPM@JA@EAAXV?$basic_string@DU?$char_traits@D@std@@V?$allocator@D@2@@std@@_NH@Z
	?addAttValue@DefaultHepRepAttribute@cheprep@@UEAAXPEAVHepRepAttValue@HEPREP@@@Z
	?addAttValue@DefaultHepRepAttribute@cheprep@@UEAAXV?$basic_string@DU?$char_traits@D@std@@V?$allocator@D@2@@std@@0H@Z
	?addAttValue@DefaultHepRepAttribute@cheprep@@UEAAXV?$basic_string@DU?$char_traits@D@std@@V?$allocator@D@2@@std@@HH@Z
	?addAttValue@DefaultHepRepAttribute@cheprep@@UEAAXV?$basic_string@DU?$char_traits@D@std@@V?$allocator@D@2@@std@@NH@Z
	?addAttValue@DefaultHepRepAttribute@cheprep@@UEAAXV?$basic_string@DU?$char_traits@D@std@@V?$allocator@D@2@@std@@NNNNH@Z
	?addAttValue@DefaultHepRepAttribute@cheprep@@UEAAXV?$basic_string@DU?$char_traits@D@std@@V?$allocator@D@2@@std@@PEADH@Z
	?addAttValue@DefaultHepRepAttribute@cheprep@@UEAAXV?$basic_string@DU?$char_traits@D@std@@V?$allocator@D@2@@std@@V?$vector@NV?$allocator@N@std@@@4@H@Z
	?addAttValue@DefaultHepRepAttribute@cheprep@@UEAAXV?$basic_string@DU?$char_traits@D@std@@V?$allocator@D@2@@std@@_JH@Z
	?addAttValue@DefaultHepRepAttribute@cheprep@@UEAAXV?$basic_string@DU?$char_traits@D@std@@V?$allocator@D@2@@std@@_NH@Z
	?addAttValue@G4HepRepFileXMLWriter@@QEAAXPEBD0@Z
	?addAttValue@G4HepRepFileXMLWriter@@QEAAXPEBDH@Z
	?addAttValue@G4HepRepFileXMLWriter@@QEAAXPEBDN@Z
	?addAttValue@G4HepRepFileXMLWriter@@QEAAXPEBDNNN@Z
	?addAttValue@G4HepRepFileXMLWriter@@QEAAXPEBD_N@Z
	?addAttributes@G4HepRepSceneHandler@@AEAAXPEAVHepRepInstance@HEPREP@@PEAVHepRepType@3@@Z
	?addInstance@DefaultHepRepInstance@cheprep@@$4PPPPPPPM@A@EAAXPEAVHepRepInstance@HEPREP@@@Z
	?addInstance@DefaultHepRepInstance@cheprep@@UEAAXPEAVHepRepInstance@HEPREP@@@Z
	?addInstance@DefaultHepRepInstanceTree@cheprep@@$4PPPPPPPM@A@EAAXPEAVHepRepInstance@HEPREP@@@Z
	?addInstance@DefaultHepRepInstanceTree@cheprep@@UEAAXPEAVHepRepInstance@HEPREP@@@Z
	?addInstance@G4HepRepFileXMLWriter@@QEAAXXZ
	?addInstanceTree@DefaultHepRep@cheprep@@$4PPPPPPPM@A@EAAXPEAVHepRepInstanceTree@HEPREP@@@Z
	?addInstanceTree@DefaultHepRep@cheprep@@UEAAXPEAVHepRepInstanceTree@HEPREP@@@Z
	?addInstanceTree@DefaultHepRepInstanceTree@cheprep@@$4PPPPPPPM@A@EAAXPEAVHepRepTreeID@HEPREP@@@Z
	?addInstanceTree@DefaultHepRepInstanceTree@cheprep@@UEAAXPEAVHepRepTreeID@HEPREP@@@Z
	?addLayer@DefaultHepRep@cheprep@@$4PPPPPPPM@A@EAAXV?$basic_string@DU?$char_traits@D@std@@V?$allocator@D@2@@std@@@Z
	?addLayer@DefaultHepRep@cheprep@@UEAAXV?$basic_string@DU?$char_traits@D@std@@V?$allocator@D@2@@std@@@Z
	?addPoint@DefaultHepRepInstance@cheprep@@$4PPPPPPPM@A@EAAXPEAVHepRepPoint@HEPREP@@@Z
	?addPoint@DefaultHepRepInstance@cheprep@@UEAAXPEAVHepRepPoint@HEPREP@@@Z
	?addPoint@G4HepRepFileXMLWriter@@QEAAXNNN@Z
	?addPointAttributes@G4HepRepMessenger@@UEAA_NXZ
	?addPrimitive@G4HepRepFileXMLWriter@@QEAAXXZ
	?addProperty@XMLHepRepWriter@cheprep@@$4PPPPPPPM@A@EAA_NV?$basic_string@DU?$char_traits@D@std@@V?$allocator@D@2@@std@@0@Z
	?addProperty@XMLHepRepWriter@cheprep@@UEAA_NV?$basic_string@DU?$char_traits@D@std@@V?$allocator@D@2@@std@@0@Z
	?addTopLevelAttributes@G4HepRepSceneHandler@@AEAAXPEAVHepRepType@HEPREP@@@Z
	?addType@DefaultHepRepType@cheprep@@$4PPPPPPPM@A@EAAXPEAVHepRepType@HEPREP@@@Z
	?addType@DefaultHepRepType@cheprep@@UEAAXPEAVHepRepType@HEPREP@@@Z
	?addType@DefaultHepRepTypeTree@cheprep@@$4PPPPPPPM@A@EAAXPEAVHepRepType@HEPREP@@@Z
	?addType@DefaultHepRepTypeTree@cheprep@@UEAAXPEAVHepRepType@HEPREP@@@Z
	?addType@G4HepRepFileXMLWriter@@QEAAXPEBDH@Z
	?addTypeTree@DefaultHepRep@cheprep@@$4PPPPPPPM@A@EAAXPEAVHepRepTypeTree@HEPREP@@@Z
	?addTypeTree@DefaultHepRep@cheprep@@UEAAXPEAVHepRepTypeTree@HEPREP@@@Z
	?allocate@?$allocator@D@std@@QEAAPEAD_K@Z
	?allocate@?$allocator@N@std@@QEAAPEAN_K@Z
	?allocate@?$allocator@PEAVHepRepInstance@HEPREP@@@std@@QEAAPEAPEAVHepRepInstance@HEPREP@@_K@Z
	?allocate@?$allocator@PEAVHepRepInstanceTree@HEPREP@@@std@@QEAAPEAPEAVHepRepInstanceTree@HEPREP@@_K@Z
	?allocate@?$allocator@PEAVHepRepPoint@HEPREP@@@std@@QEAAPEAPEAVHepRepPoint@HEPREP@@_K@Z
	?allocate@?$allocator@PEAVHepRepTreeID@HEPREP@@@std@@QEAAPEAPEAVHepRepTreeID@HEPREP@@_K@Z
	?allocate@?$allocator@PEAVHepRepType@HEPREP@@@std@@QEAAPEAPEAVHepRepType@HEPREP@@_K@Z
	?allocate@?$allocator@PEAVHepRepTypeTree@HEPREP@@@std@@QEAAPEAPEAVHepRepTypeTree@HEPREP@@_K@Z
	?allocate@?$allocator@U?$_Tree_node@U?$pair@$$CBV?$basic_string@DU?$char_traits@D@std@@V?$allocator@D@2@@std@@E@std@@PEAX@std@@@std@@QEAAPEAU?$_Tree_node@U?$pair@$$CBV?$basic_string@DU?$char_traits@D@std@@V?$allocator@D@2@@std@@E@std@@PEAX@2@_K@Z
	?allocate@?$allocator@V?$basic_string@DU?$char_traits@D@std@@V?$allocator@D@2@@std@@@std@@QEAAPEAV?$basic_string@DU?$char_traits@D@std@@V?$allocator@D@2@@2@_K@Z
	?allocate@?$allocator@VG4String@@@std@@QEAAPEAVG4String@@_K@Z
	?append@?$basic_string@DU?$char_traits@D@std@@V?$allocator@D@2@@std@@QEAAAEAV12@QEBD_K@Z
	?appendGeometry@G4HepRepMessenger@@UEAA_NXZ
	?assign@?$basic_string@DU?$char_traits@D@std@@V?$allocator@D@2@@std@@QEAAAEAV12@QEBD_K@Z
	?checkForException@DefaultHepRep@cheprep@@$4PPPPPPPM@A@EAA?AV?$basic_string@DU?$char_traits@D@std@@V?$allocator@D@2@@std@@XZ
	?checkForException@DefaultHepRep@cheprep@@UEAA?AV?$basic_string@DU?$char_traits@D@std@@V?$allocator@D@2@@std@@XZ
	?checkNameValid@XMLWriter@cheprep@@QEAAXV?$basic_string@DU?$char_traits@D@std@@V?$allocator@D@2@@std@@@Z
	?clear@?$_Tree@V?$_Tmap_traits@V?$basic_string@DU?$char_traits@D@std@@V?$allocator@D@2@@std@@NU?$less@V?$basic_string@DU?$char_traits@D@std@@V?$allocator@D@2@@std@@@2@V?$allocator@U?$pair@$$CBV?$basic_string@DU?$char_traits@D@std@@V?$allocator@D@2@@std@@N@std@@@2@$0A@@std@@@std@@QEAAXXZ
	?close@?$basic_filebuf@DU?$char_traits@D@std@@@std@@QEAAPEAV12@XZ
	?close@BHepRepWriter@cheprep@@UEAAXXZ
	?close@G4HepRepFileXMLWriter@@QEAAXXZ
	?close@G4HepRepSceneHandler@@AEAAXXZ
	?close@GZIPOutputStream@cheprep@@QEAAXXZ
	?close@GZIPOutputStreamBuffer@cheprep@@QEAAXXZ
	?close@IndentPrintWriter@cheprep@@QEAAXXZ
	?close@XMLHepRepWriter@cheprep@@$4PPPPPPPM@A@EAA_NXZ
	?close@XMLHepRepWriter@cheprep@@UEAA_NXZ
	?close@XMLWriter@cheprep@@UEAAXXZ
	?close@ZipOutputStream@cheprep@@QEAAXXZ
	?close@ZipOutputStreamBuffer@cheprep@@QEAAXXZ
	?closeDoc@BHepRepWriter@cheprep@@UEAAX_N@Z
	?closeDoc@XMLWriter@cheprep@@UEAAX_N@Z
	?closeEntry@ZipOutputStream@cheprep@@QEAAXXZ
	?closeEntry@ZipOutputStreamBuffer@cheprep@@QEAAXXZ
	?closeFile@G4HepRepSceneHandler@@QEAAXXZ
	?closeHepRep@G4HepRepSceneHandler@@QEAA_N_N@Z
	?closeTag@BHepRepWriter@cheprep@@UEAAXXZ
	?closeTag@XMLWriter@cheprep@@UEAAXXZ
	?copy@DefaultHepRep@cheprep@@$4PPPPPPPM@A@EAAPEAVHepRep@HEPREP@@PEAVHepRepSelectFilter@4@@Z
	?copy@DefaultHepRep@cheprep@@UEAAPEAVHepRep@HEPREP@@PEAVHepRepSelectFilter@4@@Z
	?copy@DefaultHepRepAction@cheprep@@$4PPPPPPPM@A@EAAPEAVHepRepAction@HEPREP@@XZ
	?copy@DefaultHepRepAction@cheprep@@UEAAPEAVHepRepAction@HEPREP@@XZ
	?copy@DefaultHepRepAttDef@cheprep@@$4PPPPPPPM@A@EAAPEAVHepRepAttDef@HEPREP@@XZ
	?copy@DefaultHepRepAttDef@cheprep@@UEAAPEAVHepRepAttDef@HEPREP@@XZ
	?copy@DefaultHepRepAttValue@cheprep@@$4PPPPPPPM@A@EAAPEAVHepRepAttValue@HEPREP@@XZ
	?copy@DefaultHepRepAttValue@cheprep@@UEAAPEAVHepRepAttValue@HEPREP@@XZ
	?copy@DefaultHepRepInstance@cheprep@@$4PPPPPPPM@A@EAAPEAVHepRepInstance@HEPREP@@PEAVHepRepTypeTree@4@PEAV34@PEAVHepRepSelectFilter@4@@Z
	?copy@DefaultHepRepInstance@cheprep@@$4PPPPPPPM@A@EAAPEAVHepRepInstance@HEPREP@@PEAVHepRepTypeTree@4@PEAVHepRepInstanceTree@4@PEAVHepRepSelectFilter@4@@Z
	?copy@DefaultHepRepInstance@cheprep@@UEAAPEAVHepRepInstance@HEPREP@@PEAVHepRepTypeTree@4@PEAV34@PEAVHepRepSelectFilter@4@@Z
	?copy@DefaultHepRepInstance@cheprep@@UEAAPEAVHepRepInstance@HEPREP@@PEAVHepRepTypeTree@4@PEAVHepRepInstanceTree@4@PEAVHepRepSelectFilter@4@@Z
	?copy@DefaultHepRepInstanceTree@cheprep@@$4PPPPPPPM@A@EAAPEAVHepRepInstanceTree@HEPREP@@PEAVHepRepTypeTree@4@PEAVHepRepSelectFilter@4@@Z
	?copy@DefaultHepRepInstanceTree@cheprep@@UEAAPEAVHepRepInstanceTree@HEPREP@@PEAVHepRepTypeTree@4@PEAVHepRepSelectFilter@4@@Z
	?copy@DefaultHepRepPoint@cheprep@@$4PPPPPPPM@A@EAAPEAVHepRepPoint@HEPREP@@PEAVHepRepInstance@4@@Z
	?copy@DefaultHepRepPoint@cheprep@@UEAAPEAVHepRepPoint@HEPREP@@PEAVHepRepInstance@4@@Z
	?copy@DefaultHepRepType@cheprep@@$4PPPPPPPM@A@EAAPEAVHepRepType@HEPREP@@PEAV34@@Z
	?copy@DefaultHepRepType@cheprep@@UEAAPEAVHepRepType@HEPREP@@PEAV34@@Z
	?copy@DefaultHepRepTypeTree@cheprep@@$4PPPPPPPM@A@EAAPEAVHepRepTypeTree@HEPREP@@XZ
	?copy@DefaultHepRepTypeTree@cheprep@@UEAAPEAVHepRepTypeTree@HEPREP@@XZ
	?createHepRep@DefaultHepRepFactory@cheprep@@$4PPPPPPPM@A@EAAPEAVHepRep@HEPREP@@XZ
	?createHepRep@DefaultHepRepFactory@cheprep@@UEAAPEAVHepRep@HEPREP@@XZ
	?createHepRepAction@DefaultHepRepFactory@cheprep@@$4PPPPPPPM@A@EAAPEAVHepRepAction@HEPREP@@V?$basic_string@DU?$char_traits@D@std@@V?$allocator@D@2@@std@@0@Z
	?createHepRepAction@DefaultHepRepFactory@cheprep@@UEAAPEAVHepRepAction@HEPREP@@V?$basic_string@DU?$char_traits@D@std@@V?$allocator@D@2@@std@@0@Z
	?createHepRepInstance@DefaultHepRepFactory@cheprep@@$4PPPPPPPM@A@EAAPEAVHepRepInstance@HEPREP@@PEAV34@PEAVHepRepType@4@@Z
	?createHepRepInstance@DefaultHepRepFactory@cheprep@@$4PPPPPPPM@A@EAAPEAVHepRepInstance@HEPREP@@PEAVHepRepInstanceTree@4@PEAVHepRepType@4@@Z
	?createHepRepInstance@DefaultHepRepFactory@cheprep@@UEAAPEAVHepRepInstance@HEPREP@@PEAV34@PEAVHepRepType@4@@Z
	?createHepRepInstance@DefaultHepRepFactory@cheprep@@UEAAPEAVHepRepInstance@HEPREP@@PEAVHepRepInstanceTree@4@PEAVHepRepType@4@@Z
	?createHepRepInstanceTree@DefaultHepRepFactory@cheprep@@$4PPPPPPPM@A@EAAPEAVHepRepInstanceTree@HEPREP@@V?$basic_string@DU?$char_traits@D@std@@V?$allocator@D@2@@std@@0PEAVHepRepTreeID@4@@Z
	?createHepRepInstanceTree@DefaultHepRepFactory@cheprep@@UEAAPEAVHepRepInstanceTree@HEPREP@@V?$basic_string@DU?$char_traits@D@std@@V?$allocator@D@2@@std@@0PEAVHepRepTreeID@4@@Z
	?createHepRepPoint@DefaultHepRepFactory@cheprep@@$4PPPPPPPM@A@EAAPEAVHepRepPoint@HEPREP@@PEAVHepRepInstance@4@NNN@Z
	?createHepRepPoint@DefaultHepRepFactory@cheprep@@UEAAPEAVHepRepPoint@HEPREP@@PEAVHepRepInstance@4@NNN@Z
	?createHepRepReader@DefaultHepRepFactory@cheprep@@$4PPPPPPPM@A@EAAPEAVHepRepReader@HEPREP@@PEAV?$basic_istream@DU?$char_traits@D@std@@@std@@@Z
	?createHepRepReader@DefaultHepRepFactory@cheprep@@$4PPPPPPPM@A@EAAPEAVHepRepReader@HEPREP@@V?$basic_string@DU?$char_traits@D@std@@V?$allocator@D@2@@std@@@Z
	?createHepRepReader@DefaultHepRepFactory@cheprep@@UEAAPEAVHepRepReader@HEPREP@@PEAV?$basic_istream@DU?$char_traits@D@std@@@std@@@Z
	?createHepRepReader@DefaultHepRepFactory@cheprep@@UEAAPEAVHepRepReader@HEPREP@@V?$basic_string@DU?$char_traits@D@std@@V?$allocator@D@2@@std@@@Z
	?createHepRepReader@XMLHepRepFactory@cheprep@@$4PPPPPPPM@A@EAAPEAVHepRepReader@HEPREP@@PEAV?$basic_istream@DU?$char_traits@D@std@@@std@@@Z
	?createHepRepReader@XMLHepRepFactory@cheprep@@$4PPPPPPPM@A@EAAPEAVHepRepReader@HEPREP@@V?$basic_string@DU?$char_traits@D@std@@V?$allocator@D@2@@std@@@Z
	?createHepRepReader@XMLHepRepFactory@cheprep@@UEAAPEAVHepRepReader@HEPREP@@PEAV?$basic_istream@DU?$char_traits@D@std@@@std@@@Z
	?createHepRepReader@XMLHepRepFactory@cheprep@@UEAAPEAVHepRepReader@HEPREP@@V?$basic_string@DU?$char_traits@D@std@@V?$allocator@D@2@@std@@@Z
	?createHepRepTreeID@DefaultHepRepFactory@cheprep@@$4PPPPPPPM@A@EAAPEAVHepRepTreeID@HEPREP@@V?$basic_string@DU?$char_traits@D@std@@V?$allocator@D@2@@std@@00@Z
	?createHepRepTreeID@DefaultHepRepFactory@cheprep@@UEAAPEAVHepRepTreeID@HEPREP@@V?$basic_string@DU?$char_traits@D@std@@V?$allocator@D@2@@std@@00@Z
	?createHepRepType@DefaultHepRepFactory@cheprep@@$4PPPPPPPM@A@EAAPEAVHepRepType@HEPREP@@PEAV34@V?$basic_string@DU?$char_traits@D@std@@V?$allocator@D@2@@std@@@Z
	?createHepRepType@DefaultHepRepFactory@cheprep@@$4PPPPPPPM@A@EAAPEAVHepRepType@HEPREP@@PEAVHepRepTypeTree@4@V?$basic_string@DU?$char_traits@D@std@@V?$allocator@D@2@@std@@@Z
	?createHepRepType@DefaultHepRepFactory@cheprep@@UEAAPEAVHepRepType@HEPREP@@PEAV34@V?$basic_string@DU?$char_traits@D@std@@V?$allocator@D@2@@std@@@Z
	?createHepRepType@DefaultHepRepFactory@cheprep@@UEAAPEAVHepRepType@HEPREP@@PEAVHepRepTypeTree@4@V?$basic_string@DU?$char_traits@D@std@@V?$allocator@D@2@@std@@@Z
	?createHepRepTypeTree@DefaultHepRepFactory@cheprep@@$4PPPPPPPM@A@EAAPEAVHepRepTypeTree@HEPREP@@PEAVHepRepTreeID@4@@Z
	?createHepRepTypeTree@DefaultHepRepFactory@cheprep@@UEAAPEAVHepRepTypeTree@HEPREP@@PEAVHepRepTreeID@4@@Z
	?createHepRepWriter@DefaultHepRepFactory@cheprep@@$4PPPPPPPM@A@EAAPEAVHepRepWriter@HEPREP@@PEAV?$basic_ostream@DU?$char_traits@D@std@@@std@@_N1@Z
	?createHepRepWriter@DefaultHepRepFactory@cheprep@@UEAAPEAVHepRepWriter@HEPREP@@PEAV?$basic_ostream@DU?$char_traits@D@std@@@std@@_N1@Z
	?createHepRepWriter@XMLHepRepFactory@cheprep@@$4PPPPPPPM@A@EAAPEAVHepRepWriter@HEPREP@@PEAV?$basic_ostream@DU?$char_traits@D@std@@@std@@_N1@Z
	?createHepRepWriter@XMLHepRepFactory@cheprep@@UEAAPEAVHepRepWriter@HEPREP@@PEAV?$basic_ostream@DU?$char_traits@D@std@@@std@@_N1@Z
	?deallocate@?$allocator@N@std@@QEAAXQEAN_K@Z
	?deallocate@?$allocator@PEAVHepRepInstance@HEPREP@@@std@@QEAAXQEAPEAVHepRepInstance@HEPREP@@_K@Z
	?deallocate@?$allocator@PEAVHepRepInstanceTree@HEPREP@@@std@@QEAAXQEAPEAVHepRepInstanceTree@HEPREP@@_K@Z
	?deallocate@?$allocator@PEAVHepRepPoint@HEPREP@@@std@@QEAAXQEAPEAVHepRepPoint@HEPREP@@_K@Z
	?deallocate@?$allocator@PEAVHepRepTreeID@HEPREP@@@std@@QEAAXQEAPEAVHepRepTreeID@HEPREP@@_K@Z
	?deallocate@?$allocator@PEAVHepRepType@HEPREP@@@std@@QEAAXQEAPEAVHepRepType@HEPREP@@_K@Z
	?deallocate@?$allocator@PEAVHepRepTypeTree@HEPREP@@@std@@QEAAXQEAPEAVHepRepTypeTree@HEPREP@@_K@Z
	?deallocate@?$allocator@PEAVZipEntry@cheprep@@@std@@QEAAXQEAPEAVZipEntry@cheprep@@_K@Z
	?deallocate@?$allocator@V?$basic_string@DU?$char_traits@D@std@@V?$allocator@D@2@@std@@@std@@QEAAXQEAV?$basic_string@DU?$char_traits@D@std@@V?$allocator@D@2@@2@_K@Z
	?deallocate@?$allocator@VG4String@@@std@@QEAAXQEAVG4String@@_K@Z
	?doIndent@IndentPrintWriter@cheprep@@AEAAXXZ
	?dontWrite@G4HepRepSceneHandler@@AEAA_NXZ
	?endInstance@G4HepRepFileXMLWriter@@AEAAXXZ
	?endPoint@G4HepRepFileXMLWriter@@AEAAXXZ
	?endPrimitive@G4HepRepFileXMLWriter@@AEAAXXZ
	?endType@G4HepRepFileXMLWriter@@AEAAXXZ
	?endTypes@G4HepRepFileXMLWriter@@QEAAXXZ
	?erase@?$_Tree@V?$_Tmap_traits@V?$basic_string@DU?$char_traits@D@std@@V?$allocator@D@2@@std@@PEAVHepRepAttValue@HEPREP@@U?$less@V?$basic_string@DU?$char_traits@D@std@@V?$allocator@D@2@@std@@@2@V?$allocator@U?$pair@$$CBV?$basic_string@DU?$char_traits@D@std@@V?$allocator@D@2@@std@@PEAVHepRepAttValue@HEPREP@@@std@@@2@$0A@@std@@@std@@QEAA_KAEBV?$basic_string@DU?$char_traits@D@std@@V?$allocator@D@2@@2@@Z
	?find@?$_Tree@V?$_Tmap_traits@VG4String@@VG4AttDef@@U?$less@VG4String@@@std@@V?$allocator@U?$pair@$$CBVG4String@@VG4AttDef@@@std@@@4@$0A@@std@@@std@@QEAA?AV?$_Tree_iterator@V?$_Tree_val@U?$_Tree_simple_types@U?$pair@$$CBVG4String@@VG4AttDef@@@std@@@std@@@std@@@2@AEBVG4String@@@Z
	?finish@DeflateOutputStreamBuffer@cheprep@@QEAAXXZ
	?flushOut@DeflateOutputStreamBuffer@cheprep@@IEAA_NXZ
	?getAsString@DefaultHepRepAttValue@cheprep@@$4PPPPPPPM@A@EAA?AV?$basic_string@DU?$char_traits@D@std@@V?$allocator@D@2@@std@@XZ
	?getAsString@DefaultHepRepAttValue@cheprep@@SA?AV?$basic_string@DU?$char_traits@D@std@@V?$allocator@D@2@@std@@H@Z
	?getAsString@DefaultHepRepAttValue@cheprep@@SA?AV?$basic_string@DU?$char_traits@D@std@@V?$allocator@D@2@@std@@N@Z
	?getAsString@DefaultHepRepAttValue@cheprep@@SA?AV?$basic_string@DU?$char_traits@D@std@@V?$allocator@D@2@@std@@V?$vector@NV?$allocator@N@std@@@4@@Z
	?getAsString@DefaultHepRepAttValue@cheprep@@SA?AV?$basic_string@DU?$char_traits@D@std@@V?$allocator@D@2@@std@@_J@Z
	?getAsString@DefaultHepRepAttValue@cheprep@@SA?AV?$basic_string@DU?$char_traits@D@std@@V?$allocator@D@2@@std@@_N@Z
	?getAsString@DefaultHepRepAttValue@cheprep@@UEAA?AV?$basic_string@DU?$char_traits@D@std@@V?$allocator@D@2@@std@@XZ
	?getAttDef@DefaultHepRepType@cheprep@@$4PPPPPPPM@A@EAAPEAVHepRepAttDef@HEPREP@@V?$basic_string@DU?$char_traits@D@std@@V?$allocator@D@2@@std@@@Z
	?getAttDef@DefaultHepRepType@cheprep@@UEAAPEAVHepRepAttDef@HEPREP@@V?$basic_string@DU?$char_traits@D@std@@V?$allocator@D@2@@std@@@Z
	?getAttDefFromNode@DefaultHepRepDefinition@cheprep@@$4PPPPPPPM@A@EAAPEAVHepRepAttDef@HEPREP@@V?$basic_string@DU?$char_traits@D@std@@V?$allocator@D@2@@std@@@Z
	?getAttDefFromNode@DefaultHepRepDefinition@cheprep@@$4PPPPPPPM@IA@EAAPEAVHepRepAttDef@HEPREP@@V?$basic_string@DU?$char_traits@D@std@@V?$allocator@D@2@@std@@@Z
	?getAttDefFromNode@DefaultHepRepDefinition@cheprep@@UEAAPEAVHepRepAttDef@HEPREP@@V?$basic_string@DU?$char_traits@D@std@@V?$allocator@D@2@@std@@@Z
	?getAttDefsFromNode@DefaultHepRepDefinition@cheprep@@$4PPPPPPPM@A@EAA?AV?$set@PEAVHepRepAttDef@HEPREP@@U?$less@PEAVHepRepAttDef@HEPREP@@@std@@V?$allocator@PEAVHepRepAttDef@HEPREP@@@4@@std@@XZ
	?getAttDefsFromNode@DefaultHepRepDefinition@cheprep@@$4PPPPPPPM@IA@EAA?AV?$set@PEAVHepRepAttDef@HEPREP@@U?$less@PEAVHepRepAttDef@HEPREP@@@std@@V?$allocator@PEAVHepRepAttDef@HEPREP@@@4@@std@@XZ
	?getAttDefsFromNode@DefaultHepRepDefinition@cheprep@@UEAA?AV?$set@PEAVHepRepAttDef@HEPREP@@U?$less@PEAVHepRepAttDef@HEPREP@@@std@@V?$allocator@PEAVHepRepAttDef@HEPREP@@@4@@std@@XZ
	?getAttValue@DefaultHepRepInstance@cheprep@@$4PPPPPPPM@A@EAAPEAVHepRepAttValue@HEPREP@@V?$basic_string@DU?$char_traits@D@std@@V?$allocator@D@2@@std@@@Z
	?getAttValue@DefaultHepRepInstance@cheprep@@UEAAPEAVHepRepAttValue@HEPREP@@V?$basic_string@DU?$char_traits@D@std@@V?$allocator@D@2@@std@@@Z
	?getAttValue@DefaultHepRepPoint@cheprep@@$4PPPPPPPM@A@EAAPEAVHepRepAttValue@HEPREP@@V?$basic_string@DU?$char_traits@D@std@@V?$allocator@D@2@@std@@@Z
	?getAttValue@DefaultHepRepPoint@cheprep@@UEAAPEAVHepRepAttValue@HEPREP@@V?$basic_string@DU?$char_traits@D@std@@V?$allocator@D@2@@std@@@Z
	?getAttValue@DefaultHepRepType@cheprep@@$4PPPPPPPM@A@EAAPEAVHepRepAttValue@HEPREP@@V?$basic_string@DU?$char_traits@D@std@@V?$allocator@D@2@@std@@@Z
	?getAttValue@DefaultHepRepType@cheprep@@UEAAPEAVHepRepAttValue@HEPREP@@V?$basic_string@DU?$char_traits@D@std@@V?$allocator@D@2@@std@@@Z
	?getAttValueFromNode@DefaultHepRepAttribute@cheprep@@$4PPPPPPPM@A@EAAPEAVHepRepAttValue@HEPREP@@V?$basic_string@DU?$char_traits@D@std@@V?$allocator@D@2@@std@@@Z
	?getAttValueFromNode@DefaultHepRepAttribute@cheprep@@$4PPPPPPPM@BA@EAAPEAVHepRepAttValue@HEPREP@@V?$basic_string@DU?$char_traits@D@std@@V?$allocator@D@2@@std@@@Z
	?getAttValueFromNode@DefaultHepRepAttribute@cheprep@@$4PPPPPPPM@CA@EAAPEAVHepRepAttValue@HEPREP@@V?$basic_string@DU?$char_traits@D@std@@V?$allocator@D@2@@std@@@Z
	?getAttValueFromNode@DefaultHepRepAttribute@cheprep@@$4PPPPPPPM@EA@EAAPEAVHepRepAttValue@HEPREP@@V?$basic_string@DU?$char_traits@D@std@@V?$allocator@D@2@@std@@@Z
	?getAttValueFromNode@DefaultHepRepAttribute@cheprep@@$4PPPPPPPM@JA@EAAPEAVHepRepAttValue@HEPREP@@V?$basic_string@DU?$char_traits@D@std@@V?$allocator@D@2@@std@@@Z
	?getAttValueFromNode@DefaultHepRepAttribute@cheprep@@UEAAPEAVHepRepAttValue@HEPREP@@V?$basic_string@DU?$char_traits@D@std@@V?$allocator@D@2@@std@@@Z
	?getAttValuesFromNode@DefaultHepRepAttribute@cheprep@@$4PPPPPPPM@A@EAA?AV?$set@PEAVHepRepAttValue@HEPREP@@U?$less@PEAVHepRepAttValue@HEPREP@@@std@@V?$allocator@PEAVHepRepAttValue@HEPREP@@@4@@std@@XZ
	?getAttValuesFromNode@DefaultHepRepAttribute@cheprep@@$4PPPPPPPM@BA@EAA?AV?$set@PEAVHepRepAttValue@HEPREP@@U?$less@PEAVHepRepAttValue@HEPREP@@@std@@V?$allocator@PEAVHepRepAttValue@HEPREP@@@4@@std@@XZ
	?getAttValuesFromNode@DefaultHepRepAttribute@cheprep@@$4PPPPPPPM@CA@EAA?AV?$set@PEAVHepRepAttValue@HEPREP@@U?$less@PEAVHepRepAttValue@HEPREP@@@std@@V?$allocator@PEAVHepRepAttValue@HEPREP@@@4@@std@@XZ
	?getAttValuesFromNode@DefaultHepRepAttribute@cheprep@@$4PPPPPPPM@EA@EAA?AV?$set@PEAVHepRepAttValue@HEPREP@@U?$less@PEAVHepRepAttValue@HEPREP@@@std@@V?$allocator@PEAVHepRepAttValue@HEPREP@@@4@@std@@XZ
	?getAttValuesFromNode@DefaultHepRepAttribute@cheprep@@$4PPPPPPPM@JA@EAA?AV?$set@PEAVHepRepAttValue@HEPREP@@U?$less@PEAVHepRepAttValue@HEPREP@@@std@@V?$allocator@PEAVHepRepAttValue@HEPREP@@@4@@std@@XZ
	?getAttValuesFromNode@DefaultHepRepAttribute@cheprep@@UEAA?AV?$set@PEAVHepRepAttValue@HEPREP@@U?$less@PEAVHepRepAttValue@HEPREP@@@std@@V?$allocator@PEAVHepRepAttValue@HEPREP@@@4@@std@@XZ
	?getBoolean@DefaultHepRepAttValue@cheprep@@$4PPPPPPPM@A@EAA_NXZ
	?getBoolean@DefaultHepRepAttValue@cheprep@@UEAA_NXZ
	?getCalHitFaceType@G4HepRepSceneHandler@@AEAAPEAVHepRepType@HEPREP@@XZ
	?getCalHitType@G4HepRepSceneHandler@@AEAAPEAVHepRepType@HEPREP@@XZ
	?getCategory@DefaultHepRepAttDef@cheprep@@$4PPPPPPPM@A@EAA?AV?$basic_string@DU?$char_traits@D@std@@V?$allocator@D@2@@std@@XZ
	?getCategory@DefaultHepRepAttDef@cheprep@@UEAA?AV?$basic_string@DU?$char_traits@D@std@@V?$allocator@D@2@@std@@XZ
	?getCenter@G4HepRepMessenger@@UEAA?AVHep3Vector@CLHEP@@XZ
	?getColor@DefaultHepRepAttValue@cheprep@@$4PPPPPPPM@A@EAA?AV?$vector@NV?$allocator@N@std@@@std@@XZ
	?getColor@DefaultHepRepAttValue@cheprep@@UEAA?AV?$vector@NV?$allocator@N@std@@@std@@XZ
	?getColorFor@G4HepRepSceneHandler@@AEAA?AVG4Colour@@AEBVG4VSolid@@@Z
	?getColorFor@G4HepRepSceneHandler@@AEAA?AVG4Colour@@AEBVG4Visible@@@Z
	?getCullInvisibles@G4HepRepMessenger@@UEAA_NXZ
	?getDescription@DefaultHepRepAttDef@cheprep@@$4PPPPPPPM@A@EAA?AV?$basic_string@DU?$char_traits@D@std@@V?$allocator@D@2@@std@@XZ
	?getDescription@DefaultHepRepAttDef@cheprep@@UEAA?AV?$basic_string@DU?$char_traits@D@std@@V?$allocator@D@2@@std@@XZ
	?getDescription@DefaultHepRepType@cheprep@@$4PPPPPPPM@A@EAA?AV?$basic_string@DU?$char_traits@D@std@@V?$allocator@D@2@@std@@XZ
	?getDescription@DefaultHepRepType@cheprep@@UEAA?AV?$basic_string@DU?$char_traits@D@std@@V?$allocator@D@2@@std@@XZ
	?getDouble@DefaultHepRepAttValue@cheprep@@$4PPPPPPPM@A@EAANXZ
	?getDouble@DefaultHepRepAttValue@cheprep@@UEAANXZ
	?getEta@DefaultHepRepPoint@cheprep@@$4PPPPPPPM@A@EAANNNN@Z
	?getEta@DefaultHepRepPoint@cheprep@@$4PPPPPPPM@A@EAANXZ
	?getEta@DefaultHepRepPoint@cheprep@@UEAANNNN@Z
	?getEta@DefaultHepRepPoint@cheprep@@UEAANXZ
	?getEventInstance@G4HepRepSceneHandler@@AEAAPEAVHepRepInstance@HEPREP@@XZ
	?getEventInstanceTree@G4HepRepSceneHandler@@AEAAPEAVHepRepInstanceTree@HEPREP@@XZ
	?getEventNumberSuffix@G4HepRepMessenger@@UEAA?AVG4String@@XZ
	?getEventType@G4HepRepSceneHandler@@AEAAPEAVHepRepType@HEPREP@@XZ
	?getEventTypeTree@G4HepRepSceneHandler@@AEAAPEAVHepRepTypeTree@HEPREP@@XZ
	?getExpression@DefaultHepRepAction@cheprep@@$4PPPPPPPM@A@EAA?AV?$basic_string@DU?$char_traits@D@std@@V?$allocator@D@2@@std@@XZ
	?getExpression@DefaultHepRepAction@cheprep@@UEAA?AV?$basic_string@DU?$char_traits@D@std@@V?$allocator@D@2@@std@@XZ
	?getExtra@DefaultHepRepAttDef@cheprep@@$4PPPPPPPM@A@EAA?AV?$basic_string@DU?$char_traits@D@std@@V?$allocator@D@2@@std@@XZ
	?getExtra@DefaultHepRepAttDef@cheprep@@UEAA?AV?$basic_string@DU?$char_traits@D@std@@V?$allocator@D@2@@std@@XZ
	?getFileDir@G4HepRepMessenger@@UEAA?AVG4String@@XZ
	?getFileName@G4HepRepMessenger@@UEAA?AVG4String@@XZ
	?getFullName@DefaultHepRepType@cheprep@@$4PPPPPPPM@A@EAA?AV?$basic_string@DU?$char_traits@D@std@@V?$allocator@D@2@@std@@XZ
	?getFullName@DefaultHepRepType@cheprep@@UEAA?AV?$basic_string@DU?$char_traits@D@std@@V?$allocator@D@2@@std@@XZ
	?getFullTypeName@G4HepRepSceneHandler@@AEAA?AVG4String@@V2@H@Z
	?getGeometryInstance@G4HepRepSceneHandler@@AEAAPEAVHepRepInstance@HEPREP@@PEAVG4LogicalVolume@@PEAVG4Material@@H@Z
	?getGeometryInstance@G4HepRepSceneHandler@@AEAAPEAVHepRepInstance@HEPREP@@VG4String@@H@Z
	?getGeometryInstanceTree@G4HepRepSceneHandler@@AEAAPEAVHepRepInstanceTree@HEPREP@@XZ
	?getGeometryOrEventInstance@G4HepRepSceneHandler@@AEAAPEAVHepRepInstance@HEPREP@@PEAVHepRepType@3@@Z
	?getGeometryRootInstance@G4HepRepSceneHandler@@AEAAPEAVHepRepInstance@HEPREP@@XZ
	?getGeometryRootType@G4HepRepSceneHandler@@AEAAPEAVHepRepType@HEPREP@@XZ
	?getGeometryType@G4HepRepSceneHandler@@AEAAPEAVHepRepType@HEPREP@@VG4String@@H@Z
	?getGeometryTypeTree@G4HepRepSceneHandler@@AEAAPEAVHepRepTypeTree@HEPREP@@XZ
	?getHepRep@G4HepRepSceneHandler@@AEAAPEAVHepRep@HEPREP@@XZ
	?getHepRepGeometry@G4HepRepSceneHandler@@AEAAPEAVHepRep@HEPREP@@XZ
	?getHitType@G4HepRepSceneHandler@@AEAAPEAVHepRepType@HEPREP@@XZ
	?getIndent@IndentPrintWriter@cheprep@@QEBAHXZ
	?getIndentString@IndentPrintWriter@cheprep@@QEBA?AV?$basic_string@DU?$char_traits@D@std@@V?$allocator@D@2@@std@@XZ
	?getInfoURL@DefaultHepRepType@cheprep@@$4PPPPPPPM@A@EAA?AV?$basic_string@DU?$char_traits@D@std@@V?$allocator@D@2@@std@@XZ
	?getInfoURL@DefaultHepRepType@cheprep@@UEAA?AV?$basic_string@DU?$char_traits@D@std@@V?$allocator@D@2@@std@@XZ
	?getInstance@DefaultHepRepPoint@cheprep@@$4PPPPPPPM@A@EAAPEAVHepRepInstance@HEPREP@@XZ
	?getInstance@DefaultHepRepPoint@cheprep@@UEAAPEAVHepRepInstance@HEPREP@@XZ
	?getInstanceTreeList@DefaultHepRep@cheprep@@$4PPPPPPPM@A@EAA?AV?$vector@PEAVHepRepInstanceTree@HEPREP@@V?$allocator@PEAVHepRepInstanceTree@HEPREP@@@std@@@std@@XZ
	?getInstanceTreeList@DefaultHepRep@cheprep@@UEAA?AV?$vector@PEAVHepRepInstanceTree@HEPREP@@V?$allocator@PEAVHepRepInstanceTree@HEPREP@@@std@@@std@@XZ
	?getInstanceTreeList@DefaultHepRepInstanceTree@cheprep@@$4PPPPPPPM@A@EAA?AV?$vector@PEAVHepRepTreeID@HEPREP@@V?$allocator@PEAVHepRepTreeID@HEPREP@@@std@@@std@@XZ
	?getInstanceTreeList@DefaultHepRepInstanceTree@cheprep@@UEAA?AV?$vector@PEAVHepRepTreeID@HEPREP@@V?$allocator@PEAVHepRepTreeID@HEPREP@@@std@@@std@@XZ
	?getInstanceTreeTop@DefaultHepRep@cheprep@@$4PPPPPPPM@A@EAAPEAVHepRepInstanceTree@HEPREP@@V?$basic_string@DU?$char_traits@D@std@@V?$allocator@D@2@@std@@0@Z
	?getInstanceTreeTop@DefaultHepRep@cheprep@@UEAAPEAVHepRepInstanceTree@HEPREP@@V?$basic_string@DU?$char_traits@D@std@@V?$allocator@D@2@@std@@0@Z
	?getInstances@DefaultHepRep@cheprep@@$4PPPPPPPM@A@EAAPEAVHepRepInstanceTree@HEPREP@@V?$basic_string@DU?$char_traits@D@std@@V?$allocator@D@2@@std@@0V?$vector@V?$basic_string@DU?$char_traits@D@std@@V?$allocator@D@2@@std@@V?$allocator@V?$basic_string@DU?$char_traits@D@std@@V?$allocator@D@2@@std@@@2@@6@@Z
	?getInstances@DefaultHepRep@cheprep@@UEAAPEAVHepRepInstanceTree@HEPREP@@V?$basic_string@DU?$char_traits@D@std@@V?$allocator@D@2@@std@@0V?$vector@V?$basic_string@DU?$char_traits@D@std@@V?$allocator@D@2@@std@@V?$allocator@V?$basic_string@DU?$char_traits@D@std@@V?$allocator@D@2@@std@@@2@@6@@Z
	?getInstances@DefaultHepRepInstance@cheprep@@$4PPPPPPPM@A@EAA?AV?$vector@PEAVHepRepInstance@HEPREP@@V?$allocator@PEAVHepRepInstance@HEPREP@@@std@@@std@@XZ
	?getInstances@DefaultHepRepInstance@cheprep@@UEAA?AV?$vector@PEAVHepRepInstance@HEPREP@@V?$allocator@PEAVHepRepInstance@HEPREP@@@std@@@std@@XZ
	?getInstances@DefaultHepRepInstanceTree@cheprep@@$4PPPPPPPM@A@EAA?AV?$vector@PEAVHepRepInstance@HEPREP@@V?$allocator@PEAVHepRepInstance@HEPREP@@@std@@@std@@XZ
	?getInstances@DefaultHepRepInstanceTree@cheprep@@UEAA?AV?$vector@PEAVHepRepInstance@HEPREP@@V?$allocator@PEAVHepRepInstance@HEPREP@@@std@@@std@@XZ
	?getInstancesAfterAction@DefaultHepRep@cheprep@@$4PPPPPPPM@A@EAAPEAVHepRepInstanceTree@HEPREP@@V?$basic_string@DU?$char_traits@D@std@@V?$allocator@D@2@@std@@0V?$vector@V?$basic_string@DU?$char_traits@D@std@@V?$allocator@D@2@@std@@V?$allocator@V?$basic_string@DU?$char_traits@D@std@@V?$allocator@D@2@@std@@@2@@6@V?$vector@PEAVHepRepAction@HEPREP@@V?$allocator@PEAVHepRepAction@HEPREP@@@std@@@6@_N331@Z
	?getInstancesAfterAction@DefaultHepRep@cheprep@@UEAAPEAVHepRepInstanceTree@HEPREP@@V?$basic_string@DU?$char_traits@D@std@@V?$allocator@D@2@@std@@0V?$vector@V?$basic_string@DU?$char_traits@D@std@@V?$allocator@D@2@@std@@V?$allocator@V?$basic_string@DU?$char_traits@D@std@@V?$allocator@D@2@@std@@@2@@6@V?$vector@PEAVHepRepAction@HEPREP@@V?$allocator@PEAVHepRepAction@HEPREP@@@std@@@6@_N331@Z
	?getInteger@DefaultHepRepAttValue@cheprep@@$4PPPPPPPM@A@EAAHXZ
	?getInteger@DefaultHepRepAttValue@cheprep@@UEAAHXZ
	?getLayerOrder@DefaultHepRep@cheprep@@$4PPPPPPPM@A@EAA?AV?$vector@V?$basic_string@DU?$char_traits@D@std@@V?$allocator@D@2@@std@@V?$allocator@V?$basic_string@DU?$char_traits@D@std@@V?$allocator@D@2@@std@@@2@@std@@XZ
	?getLayerOrder@DefaultHepRep@cheprep@@UEAA?AV?$vector@V?$basic_string@DU?$char_traits@D@std@@V?$allocator@D@2@@std@@V?$allocator@V?$basic_string@DU?$char_traits@D@std@@V?$allocator@D@2@@std@@@2@@std@@XZ
	?getLong@DefaultHepRepAttValue@cheprep@@$4PPPPPPPM@A@EAA_JXZ
	?getLong@DefaultHepRepAttValue@cheprep@@UEAA_JXZ
	?getLowerCaseName@DefaultHepRepAttDef@cheprep@@$4PPPPPPPM@A@EAA?AV?$basic_string@DU?$char_traits@D@std@@V?$allocator@D@2@@std@@XZ
	?getLowerCaseName@DefaultHepRepAttDef@cheprep@@UEAA?AV?$basic_string@DU?$char_traits@D@std@@V?$allocator@D@2@@std@@XZ
	?getLowerCaseName@DefaultHepRepAttValue@cheprep@@$4PPPPPPPM@A@EAA?AV?$basic_string@DU?$char_traits@D@std@@V?$allocator@D@2@@std@@XZ
	?getLowerCaseName@DefaultHepRepAttValue@cheprep@@UEAA?AV?$basic_string@DU?$char_traits@D@std@@V?$allocator@D@2@@std@@XZ
	?getLowerCaseString@DefaultHepRepAttValue@cheprep@@$4PPPPPPPM@A@EAA?AV?$basic_string@DU?$char_traits@D@std@@V?$allocator@D@2@@std@@XZ
	?getLowerCaseString@DefaultHepRepAttValue@cheprep@@UEAA?AV?$basic_string@DU?$char_traits@D@std@@V?$allocator@D@2@@std@@XZ
	?getName@DefaultHepRepAction@cheprep@@$4PPPPPPPM@A@EAA?AV?$basic_string@DU?$char_traits@D@std@@V?$allocator@D@2@@std@@XZ
	?getName@DefaultHepRepAction@cheprep@@UEAA?AV?$basic_string@DU?$char_traits@D@std@@V?$allocator@D@2@@std@@XZ
	?getName@DefaultHepRepAttDef@cheprep@@$4PPPPPPPM@A@EAA?AV?$basic_string@DU?$char_traits@D@std@@V?$allocator@D@2@@std@@XZ
	?getName@DefaultHepRepAttDef@cheprep@@UEAA?AV?$basic_string@DU?$char_traits@D@std@@V?$allocator@D@2@@std@@XZ
	?getName@DefaultHepRepAttValue@cheprep@@$4PPPPPPPM@A@EAA?AV?$basic_string@DU?$char_traits@D@std@@V?$allocator@D@2@@std@@XZ
	?getName@DefaultHepRepAttValue@cheprep@@UEAA?AV?$basic_string@DU?$char_traits@D@std@@V?$allocator@D@2@@std@@XZ
	?getName@DefaultHepRepTreeID@cheprep@@$4PPPPPPPM@A@EAA?AV?$basic_string@DU?$char_traits@D@std@@V?$allocator@D@2@@std@@XZ
	?getName@DefaultHepRepTreeID@cheprep@@$4PPPPPPPM@BI@EAA?AV?$basic_string@DU?$char_traits@D@std@@V?$allocator@D@2@@std@@XZ
	?getName@DefaultHepRepTreeID@cheprep@@$4PPPPPPPM@DI@EAA?AV?$basic_string@DU?$char_traits@D@std@@V?$allocator@D@2@@std@@XZ
	?getName@DefaultHepRepTreeID@cheprep@@UEAA?AV?$basic_string@DU?$char_traits@D@std@@V?$allocator@D@2@@std@@XZ
	?getName@DefaultHepRepType@cheprep@@$4PPPPPPPM@A@EAA?AV?$basic_string@DU?$char_traits@D@std@@V?$allocator@D@2@@std@@XZ
	?getName@DefaultHepRepType@cheprep@@UEAA?AV?$basic_string@DU?$char_traits@D@std@@V?$allocator@D@2@@std@@XZ
	?getOverwrite@G4HepRepMessenger@@UEAA_NXZ
	?getParentTypeName@G4HepRepSceneHandler@@AEAA?AVG4String@@H@Z
	?getPhi@DefaultHepRepPoint@cheprep@@$4PPPPPPPM@A@EAANNNN@Z
	?getPhi@DefaultHepRepPoint@cheprep@@$4PPPPPPPM@A@EAANXZ
	?getPhi@DefaultHepRepPoint@cheprep@@UEAANNNN@Z
	?getPhi@DefaultHepRepPoint@cheprep@@UEAANXZ
	?getPoints@DefaultHepRepInstance@cheprep@@$4PPPPPPPM@A@EAA?AV?$vector@PEAVHepRepPoint@HEPREP@@V?$allocator@PEAVHepRepPoint@HEPREP@@@std@@@std@@XZ
	?getPoints@DefaultHepRepInstance@cheprep@@UEAA?AV?$vector@PEAVHepRepPoint@HEPREP@@V?$allocator@PEAVHepRepPoint@HEPREP@@@std@@@std@@XZ
	?getQualifier@DefaultHepRepTreeID@cheprep@@$4PPPPPPPM@A@EAA?AV?$basic_string@DU?$char_traits@D@std@@V?$allocator@D@2@@std@@XZ
	?getQualifier@DefaultHepRepTreeID@cheprep@@$4PPPPPPPM@BI@EAA?AV?$basic_string@DU?$char_traits@D@std@@V?$allocator@D@2@@std@@XZ
	?getQualifier@DefaultHepRepTreeID@cheprep@@$4PPPPPPPM@DI@EAA?AV?$basic_string@DU?$char_traits@D@std@@V?$allocator@D@2@@std@@XZ
	?getQualifier@DefaultHepRepTreeID@cheprep@@UEAA?AV?$basic_string@DU?$char_traits@D@std@@V?$allocator@D@2@@std@@XZ
	?getR@DefaultHepRepPoint@cheprep@@$4PPPPPPPM@A@EAANNNN@Z
	?getR@DefaultHepRepPoint@cheprep@@$4PPPPPPPM@A@EAANXZ
	?getR@DefaultHepRepPoint@cheprep@@UEAANNNN@Z
	?getR@DefaultHepRepPoint@cheprep@@UEAANXZ
	?getRho@DefaultHepRepPoint@cheprep@@$4PPPPPPPM@A@EAANNNN@Z
	?getRho@DefaultHepRepPoint@cheprep@@$4PPPPPPPM@A@EAANXZ
	?getRho@DefaultHepRepPoint@cheprep@@UEAANNNN@Z
	?getRho@DefaultHepRepPoint@cheprep@@UEAANXZ
	?getScale@G4HepRepMessenger@@UEAANXZ
	?getString@DefaultHepRepAttValue@cheprep@@$4PPPPPPPM@A@EAA?AV?$basic_string@DU?$char_traits@D@std@@V?$allocator@D@2@@std@@XZ
	?getString@DefaultHepRepAttValue@cheprep@@UEAA?AV?$basic_string@DU?$char_traits@D@std@@V?$allocator@D@2@@std@@XZ
	?getSuperInstance@DefaultHepRepInstance@cheprep@@$4PPPPPPPM@A@EAAPEAVHepRepInstance@HEPREP@@XZ
	?getSuperInstance@DefaultHepRepInstance@cheprep@@UEAAPEAVHepRepInstance@HEPREP@@XZ
	?getSuperType@DefaultHepRepType@cheprep@@$4PPPPPPPM@A@EAAPEAVHepRepType@HEPREP@@XZ
	?getSuperType@DefaultHepRepType@cheprep@@UEAAPEAVHepRepType@HEPREP@@XZ
	?getTheta@DefaultHepRepPoint@cheprep@@$4PPPPPPPM@A@EAANNNN@Z
	?getTheta@DefaultHepRepPoint@cheprep@@$4PPPPPPPM@A@EAANXZ
	?getTheta@DefaultHepRepPoint@cheprep@@UEAANNNN@Z
	?getTheta@DefaultHepRepPoint@cheprep@@UEAANXZ
	?getTrajectoryType@G4HepRepSceneHandler@@AEAAPEAVHepRepType@HEPREP@@XZ
	?getType@DefaultHepRepAttValue@cheprep@@$4PPPPPPPM@A@EAAHXZ
	?getType@DefaultHepRepAttValue@cheprep@@UEAAHXZ
	?getType@DefaultHepRepInstance@cheprep@@$4PPPPPPPM@A@EAAPEAVHepRepType@HEPREP@@XZ
	?getType@DefaultHepRepInstance@cheprep@@UEAAPEAVHepRepType@HEPREP@@XZ
	?getType@DefaultHepRepTypeTree@cheprep@@$4PPPPPPPM@A@EAAPEAVHepRepType@HEPREP@@V?$basic_string@DU?$char_traits@D@std@@V?$allocator@D@2@@std@@@Z
	?getType@DefaultHepRepTypeTree@cheprep@@UEAAPEAVHepRepType@HEPREP@@V?$basic_string@DU?$char_traits@D@std@@V?$allocator@D@2@@std@@@Z
	?getTypeList@DefaultHepRepType@cheprep@@$4PPPPPPPM@A@EAA?AV?$vector@PEAVHepRepType@HEPREP@@V?$allocator@PEAVHepRepType@HEPREP@@@std@@@std@@XZ
	?getTypeList@DefaultHepRepType@cheprep@@UEAA?AV?$vector@PEAVHepRepType@HEPREP@@V?$allocator@PEAVHepRepType@HEPREP@@@std@@@std@@XZ
	?getTypeList@DefaultHepRepTypeTree@cheprep@@$4PPPPPPPM@A@EAA?AV?$vector@PEAVHepRepType@HEPREP@@V?$allocator@PEAVHepRepType@HEPREP@@@std@@@std@@XZ
	?getTypeList@DefaultHepRepTypeTree@cheprep@@UEAA?AV?$vector@PEAVHepRepType@HEPREP@@V?$allocator@PEAVHepRepType@HEPREP@@@std@@@std@@XZ
	?getTypeName@DefaultHepRepAttValue@cheprep@@$4PPPPPPPM@A@EAA?AV?$basic_string@DU?$char_traits@D@std@@V?$allocator@D@2@@std@@XZ
	?getTypeName@DefaultHepRepAttValue@cheprep@@UEAA?AV?$basic_string@DU?$char_traits@D@std@@V?$allocator@D@2@@std@@XZ
	?getTypeTree@DefaultHepRep@cheprep@@$4PPPPPPPM@A@EAAPEAVHepRepTypeTree@HEPREP@@V?$basic_string@DU?$char_traits@D@std@@V?$allocator@D@2@@std@@0@Z
	?getTypeTree@DefaultHepRep@cheprep@@UEAAPEAVHepRepTypeTree@HEPREP@@V?$basic_string@DU?$char_traits@D@std@@V?$allocator@D@2@@std@@0@Z
	?getTypeTree@DefaultHepRepInstanceTree@cheprep@@$4PPPPPPPM@A@EAAPEAVHepRepTreeID@HEPREP@@XZ
	?getTypeTree@DefaultHepRepInstanceTree@cheprep@@UEAAPEAVHepRepTreeID@HEPREP@@XZ
	?getTypeTreeList@DefaultHepRep@cheprep@@$4PPPPPPPM@A@EAA?AV?$vector@PEAVHepRepTypeTree@HEPREP@@V?$allocator@PEAVHepRepTypeTree@HEPREP@@@std@@@std@@XZ
	?getTypeTreeList@DefaultHepRep@cheprep@@UEAA?AV?$vector@PEAVHepRepTypeTree@HEPREP@@V?$allocator@PEAVHepRepTypeTree@HEPREP@@@std@@@std@@XZ
	?getVersion@DefaultHepRepTreeID@cheprep@@$4PPPPPPPM@A@EAA?AV?$basic_string@DU?$char_traits@D@std@@V?$allocator@D@2@@std@@XZ
	?getVersion@DefaultHepRepTreeID@cheprep@@$4PPPPPPPM@BI@EAA?AV?$basic_string@DU?$char_traits@D@std@@V?$allocator@D@2@@std@@XZ
	?getVersion@DefaultHepRepTreeID@cheprep@@$4PPPPPPPM@DI@EAA?AV?$basic_string@DU?$char_traits@D@std@@V?$allocator@D@2@@std@@XZ
	?getVersion@DefaultHepRepTreeID@cheprep@@UEAA?AV?$basic_string@DU?$char_traits@D@std@@V?$allocator@D@2@@std@@XZ
	?getX@DefaultHepRepPoint@cheprep@@$4PPPPPPPM@A@EAANNNN@Z
	?getX@DefaultHepRepPoint@cheprep@@$4PPPPPPPM@A@EAANXZ
	?getX@DefaultHepRepPoint@cheprep@@UEAANNNN@Z
	?getX@DefaultHepRepPoint@cheprep@@UEAANXZ
	?getXYZ@DefaultHepRepPoint@cheprep@@$4PPPPPPPM@A@EAAPEAV?$vector@NV?$allocator@N@std@@@std@@PEAV34@@Z
	?getXYZ@DefaultHepRepPoint@cheprep@@UEAAPEAV?$vector@NV?$allocator@N@std@@@std@@PEAV34@@Z
	?getY@DefaultHepRepPoint@cheprep@@$4PPPPPPPM@A@EAANNNN@Z
	?getY@DefaultHepRepPoint@cheprep@@$4PPPPPPPM@A@EAANXZ
	?getY@DefaultHepRepPoint@cheprep@@UEAANNNN@Z
	?getY@DefaultHepRepPoint@cheprep@@UEAANXZ
	?getZ@DefaultHepRepPoint@cheprep@@$4PPPPPPPM@A@EAANNNN@Z
	?getZ@DefaultHepRepPoint@cheprep@@$4PPPPPPPM@A@EAANXZ
	?getZ@DefaultHepRepPoint@cheprep@@UEAANNNN@Z
	?getZ@DefaultHepRepPoint@cheprep@@UEAANXZ
	?imbue@?$basic_filebuf@DU?$char_traits@D@std@@@std@@MEAAXAEBVlocale@2@@Z
	?indent@G4HepRepFileXMLWriter@@AEAAXXZ
	?indent@IndentPrintWriter@cheprep@@QEAAXXZ
	?init@DefaultHepRepAttValue@cheprep@@AEAAXXZ
	?init@DeflateOutputStreamBuffer@cheprep@@QEAAX_N@Z
	?init@G4HepRepFileXMLWriter@@AEAAXXZ
	?insert@?$basic_string@DU?$char_traits@D@std@@V?$allocator@D@2@@std@@QEAAAEAV12@_KQEBD0@Z
	?isEventData@G4HepRepSceneHandler@@AEAA_NXZ
	?normalize@XMLWriter@cheprep@@QEAA?AV?$basic_string@DU?$char_traits@D@std@@V?$allocator@D@2@@std@@V34@@Z
	?normalizeText@XMLWriter@cheprep@@QEAA?AV?$basic_string@DU?$char_traits@D@std@@V?$allocator@D@2@@std@@V34@@Z
	?open@G4HepRepFileXMLWriter@@QEAAXPEBD@Z
	?open@G4HepRepSceneHandler@@AEAAXVG4String@@@Z
	?openDoc@BHepRepWriter@cheprep@@UEAAXV?$basic_string@DU?$char_traits@D@std@@V?$allocator@D@2@@std@@0_N@Z
	?openDoc@XMLWriter@cheprep@@UEAAXV?$basic_string@DU?$char_traits@D@std@@V?$allocator@D@2@@std@@0_N@Z
	?openFile@G4HepRepSceneHandler@@QEAAXVG4String@@@Z
	?openHepRep@G4HepRepSceneHandler@@QEAAXXZ
	?openTag@BHepRepWriter@cheprep@@UEAAXV?$basic_string@DU?$char_traits@D@std@@V?$allocator@D@2@@std@@0@Z
	?openTag@BHepRepWriter@cheprep@@UEAAXV?$basic_string@DU?$char_traits@D@std@@V?$allocator@D@2@@std@@@Z
	?openTag@XMLWriter@cheprep@@UEAAXV?$basic_string@DU?$char_traits@D@std@@V?$allocator@D@2@@std@@0@Z
	?openTag@XMLWriter@cheprep@@UEAAXV?$basic_string@DU?$char_traits@D@std@@V?$allocator@D@2@@std@@@Z
	?outdent@IndentPrintWriter@cheprep@@QEAAXXZ
	?overflow@?$basic_filebuf@DU?$char_traits@D@std@@@std@@MEAAHH@Z
	?overflow@DeflateOutputStreamBuffer@cheprep@@MEAAHH@Z
	?overflow@GZIPOutputStreamBuffer@cheprep@@UEAAHH@Z
	?overflow@ZipOutputStreamBuffer@cheprep@@UEAAHH@Z
	?overlay@DefaultHepRepInstance@cheprep@@$4PPPPPPPM@A@EAAXPEAVHepRepInstance@HEPREP@@@Z
	?overlay@DefaultHepRepInstance@cheprep@@UEAAXPEAVHepRepInstance@HEPREP@@@Z
	?overlay@DefaultHepRepInstanceTree@cheprep@@$4PPPPPPPM@A@EAAXPEAVHepRepInstanceTree@HEPREP@@@Z
	?overlay@DefaultHepRepInstanceTree@cheprep@@UEAAXPEAVHepRepInstanceTree@HEPREP@@@Z
	?overlayInstanceTree@DefaultHepRep@cheprep@@$4PPPPPPPM@A@EAAXPEAVHepRepInstanceTree@HEPREP@@@Z
	?overlayInstanceTree@DefaultHepRep@cheprep@@UEAAXPEAVHepRepInstanceTree@HEPREP@@@Z
	?pbackfail@?$basic_filebuf@DU?$char_traits@D@std@@@std@@MEAAHH@Z
	?pop_back@?$deque@V?$basic_string@DU?$char_traits@D@std@@V?$allocator@D@2@@std@@V?$allocator@V?$basic_string@DU?$char_traits@D@std@@V?$allocator@D@2@@std@@@2@@std@@QEAAXXZ
	?print@IndentPrintWriter@cheprep@@QEAAXAEBV?$basic_string@DU?$char_traits@D@std@@V?$allocator@D@2@@std@@@Z
	?print@XMLWriter@cheprep@@QEAAXV?$basic_string@DU?$char_traits@D@std@@V?$allocator@D@2@@std@@@Z
	?printAttributes@XMLWriter@cheprep@@QEAAXH@Z
	?printComment@XMLWriter@cheprep@@QEAAXV?$basic_string@DU?$char_traits@D@std@@V?$allocator@D@2@@std@@@Z
	?printPlain@XMLWriter@cheprep@@QEAAXV?$basic_string@DU?$char_traits@D@std@@V?$allocator@D@2@@std@@@Z
	?printTag@BHepRepWriter@cheprep@@UEAAXV?$basic_string@DU?$char_traits@D@std@@V?$allocator@D@2@@std@@0@Z
	?printTag@BHepRepWriter@cheprep@@UEAAXV?$basic_string@DU?$char_traits@D@std@@V?$allocator@D@2@@std@@@Z
	?printTag@XMLWriter@cheprep@@UEAAXV?$basic_string@DU?$char_traits@D@std@@V?$allocator@D@2@@std@@0@Z
	?printTag@XMLWriter@cheprep@@UEAAXV?$basic_string@DU?$char_traits@D@std@@V?$allocator@D@2@@std@@@Z
	?println@IndentPrintWriter@cheprep@@QEAAXAEBV?$basic_string@DU?$char_traits@D@std@@V?$allocator@D@2@@std@@@Z
	?println@IndentPrintWriter@cheprep@@QEAAXXZ
	?println@XMLWriter@cheprep@@QEAAXV?$basic_string@DU?$char_traits@D@std@@V?$allocator@D@2@@std@@@Z
	?putNextEntry@ZipOutputStream@cheprep@@QEAAXAEBV?$basic_string@DU?$char_traits@D@std@@V?$allocator@D@2@@std@@_N@Z
	?putNextEntry@ZipOutputStreamBuffer@cheprep@@QEAAXAEBV?$basic_string@DU?$char_traits@D@std@@V?$allocator@D@2@@std@@_N@Z
	?putS@DeflateOutputStreamBuffer@cheprep@@IEAAXV?$basic_string@DU?$char_traits@D@std@@V?$allocator@D@2@@std@@@Z
	?putUI@DeflateOutputStreamBuffer@cheprep@@IEAAXI@Z
	?referToDTD@XMLWriter@cheprep@@QEAAXV?$basic_string@DU?$char_traits@D@std@@V?$allocator@D@2@@std@@00@Z
	?referToDTD@XMLWriter@cheprep@@QEAAXV?$basic_string@DU?$char_traits@D@std@@V?$allocator@D@2@@std@@0@Z
	?removeAttValue@DefaultHepRepAttribute@cheprep@@$4PPPPPPPM@A@EAAPEAVHepRepAttValue@HEPREP@@V?$basic_string@DU?$char_traits@D@std@@V?$allocator@D@2@@std@@@Z
	?removeAttValue@DefaultHepRepAttribute@cheprep@@$4PPPPPPPM@BA@EAAPEAVHepRepAttValue@HEPREP@@V?$basic_string@DU?$char_traits@D@std@@V?$allocator@D@2@@std@@@Z
	?removeAttValue@DefaultHepRepAttribute@cheprep@@$4PPPPPPPM@CA@EAAPEAVHepRepAttValue@HEPREP@@V?$basic_string@DU?$char_traits@D@std@@V?$allocator@D@2@@std@@@Z
	?removeAttValue@DefaultHepRepAttribute@cheprep@@$4PPPPPPPM@EA@EAAPEAVHepRepAttValue@HEPREP@@V?$basic_string@DU?$char_traits@D@std@@V?$allocator@D@2@@std@@@Z
	?removeAttValue@DefaultHepRepAttribute@cheprep@@$4PPPPPPPM@JA@EAAPEAVHepRepAttValue@HEPREP@@V?$basic_string@DU?$char_traits@D@std@@V?$allocator@D@2@@std@@@Z
	?removeAttValue@DefaultHepRepAttribute@cheprep@@UEAAPEAVHepRepAttValue@HEPREP@@V?$basic_string@DU?$char_traits@D@std@@V?$allocator@D@2@@std@@@Z
	?removeInstance@DefaultHepRepInstance@cheprep@@$4PPPPPPPM@A@EAAXPEAVHepRepInstance@HEPREP@@@Z
	?removeInstance@DefaultHepRepInstance@cheprep@@UEAAXPEAVHepRepInstance@HEPREP@@@Z
	?removeInstance@DefaultHepRepInstanceTree@cheprep@@$4PPPPPPPM@A@EAAXPEAVHepRepInstance@HEPREP@@@Z
	?removeInstance@DefaultHepRepInstanceTree@cheprep@@UEAAXPEAVHepRepInstance@HEPREP@@@Z
	?removeInstanceTree@DefaultHepRep@cheprep@@$4PPPPPPPM@A@EAAXPEAVHepRepInstanceTree@HEPREP@@@Z
	?removeInstanceTree@DefaultHepRep@cheprep@@UEAAXPEAVHepRepInstanceTree@HEPREP@@@Z
	?removeSceneHandler@G4HepRep@@QEAAXXZ
	?removeTypeTree@DefaultHepRep@cheprep@@$4PPPPPPPM@A@EAAXPEAVHepRepTypeTree@HEPREP@@@Z
	?removeTypeTree@DefaultHepRep@cheprep@@UEAAXPEAVHepRepTypeTree@HEPREP@@@Z
	?removeViewer@G4HepRep@@QEAAXXZ
	?renderCylAsPolygons@G4HepRepMessenger@@UEAA_NXZ
	?reserve@?$basic_string@DU?$char_traits@D@std@@V?$allocator@D@2@@std@@QEAAX_K@Z
	?reset@G4HepRepViewer@@QEAAXXZ
	?seekoff@?$basic_filebuf@DU?$char_traits@D@std@@@std@@MEAA?AV?$fpos@U_Mbstatet@@@2@_JHH@Z
	?seekpos@?$basic_filebuf@DU?$char_traits@D@std@@@std@@MEAA?AV?$fpos@U_Mbstatet@@@2@V32@H@Z
	?setAttribute@BHepRepWriter@cheprep@@UEAAXV?$basic_string@DU?$char_traits@D@std@@V?$allocator@D@2@@std@@00@Z
	?setAttribute@BHepRepWriter@cheprep@@UEAAXV?$basic_string@DU?$char_traits@D@std@@V?$allocator@D@2@@std@@0@Z
	?setAttribute@BHepRepWriter@cheprep@@UEAAXV?$basic_string@DU?$char_traits@D@std@@V?$allocator@D@2@@std@@0N@Z
	?setAttribute@BHepRepWriter@cheprep@@UEAAXV?$basic_string@DU?$char_traits@D@std@@V?$allocator@D@2@@std@@H@Z
	?setAttribute@BHepRepWriter@cheprep@@UEAAXV?$basic_string@DU?$char_traits@D@std@@V?$allocator@D@2@@std@@N@Z
	?setAttribute@BHepRepWriter@cheprep@@UEAAXV?$basic_string@DU?$char_traits@D@std@@V?$allocator@D@2@@std@@PEAD@Z
	?setAttribute@BHepRepWriter@cheprep@@UEAAXV?$basic_string@DU?$char_traits@D@std@@V?$allocator@D@2@@std@@V?$vector@NV?$allocator@N@std@@@4@@Z
	?setAttribute@BHepRepWriter@cheprep@@UEAAXV?$basic_string@DU?$char_traits@D@std@@V?$allocator@D@2@@std@@_J@Z
	?setAttribute@BHepRepWriter@cheprep@@UEAAXV?$basic_string@DU?$char_traits@D@std@@V?$allocator@D@2@@std@@_N@Z
	?setAttribute@G4HepRepSceneHandler@@AEAAXPEAVHepRepAttribute@HEPREP@@VG4String@@1@Z
	?setAttribute@G4HepRepSceneHandler@@AEAAXPEAVHepRepAttribute@HEPREP@@VG4String@@H@Z
	?setAttribute@G4HepRepSceneHandler@@AEAAXPEAVHepRepAttribute@HEPREP@@VG4String@@N@Z
	?setAttribute@G4HepRepSceneHandler@@AEAAXPEAVHepRepAttribute@HEPREP@@VG4String@@NNNN@Z
	?setAttribute@G4HepRepSceneHandler@@AEAAXPEAVHepRepAttribute@HEPREP@@VG4String@@_N@Z
	?setAttribute@XMLWriter@cheprep@@UEAAXV?$basic_string@DU?$char_traits@D@std@@V?$allocator@D@2@@std@@00@Z
	?setAttribute@XMLWriter@cheprep@@UEAAXV?$basic_string@DU?$char_traits@D@std@@V?$allocator@D@2@@std@@0@Z
	?setAttribute@XMLWriter@cheprep@@UEAAXV?$basic_string@DU?$char_traits@D@std@@V?$allocator@D@2@@std@@0N@Z
	?setAttribute@XMLWriter@cheprep@@UEAAXV?$basic_string@DU?$char_traits@D@std@@V?$allocator@D@2@@std@@H@Z
	?setAttribute@XMLWriter@cheprep@@UEAAXV?$basic_string@DU?$char_traits@D@std@@V?$allocator@D@2@@std@@N@Z
	?setAttribute@XMLWriter@cheprep@@UEAAXV?$basic_string@DU?$char_traits@D@std@@V?$allocator@D@2@@std@@PEAD@Z
	?setAttribute@XMLWriter@cheprep@@UEAAXV?$basic_string@DU?$char_traits@D@std@@V?$allocator@D@2@@std@@V?$vector@NV?$allocator@N@std@@@4@@Z
	?setAttribute@XMLWriter@cheprep@@UEAAXV?$basic_string@DU?$char_traits@D@std@@V?$allocator@D@2@@std@@_J@Z
	?setAttribute@XMLWriter@cheprep@@UEAAXV?$basic_string@DU?$char_traits@D@std@@V?$allocator@D@2@@std@@_N@Z
	?setColor@G4HepRepSceneHandler@@AEAAXPEAVHepRepAttribute@HEPREP@@AEBVG4Colour@@AEBVG4String@@@Z
	?setComment@GZIPOutputStream@cheprep@@QEAAXAEBV?$basic_string@DU?$char_traits@D@std@@V?$allocator@D@2@@std@@@Z
	?setComment@GZIPOutputStreamBuffer@cheprep@@QEAAXAEBV?$basic_string@DU?$char_traits@D@std@@V?$allocator@D@2@@std@@@Z
	?setComment@ZipOutputStream@cheprep@@QEAAXAEBV?$basic_string@DU?$char_traits@D@std@@V?$allocator@D@2@@std@@@Z
	?setComment@ZipOutputStreamBuffer@cheprep@@QEAAXAEBV?$basic_string@DU?$char_traits@D@std@@V?$allocator@D@2@@std@@@Z
	?setDescription@DefaultHepRepType@cheprep@@$4PPPPPPPM@A@EAAXV?$basic_string@DU?$char_traits@D@std@@V?$allocator@D@2@@std@@@Z
	?setDescription@DefaultHepRepType@cheprep@@UEAAXV?$basic_string@DU?$char_traits@D@std@@V?$allocator@D@2@@std@@@Z
	?setFilename@GZIPOutputStream@cheprep@@QEAAXAEBV?$basic_string@DU?$char_traits@D@std@@V?$allocator@D@2@@std@@@Z
	?setFilename@GZIPOutputStreamBuffer@cheprep@@QEAAXAEBV?$basic_string@DU?$char_traits@D@std@@V?$allocator@D@2@@std@@@Z
	?setIndent@IndentPrintWriter@cheprep@@QEAAXH@Z
	?setIndentString@IndentPrintWriter@cheprep@@QEAAXAEBV?$basic_string@DU?$char_traits@D@std@@V?$allocator@D@2@@std@@@Z
	?setInfoURL@DefaultHepRepType@cheprep@@$4PPPPPPPM@A@EAAXV?$basic_string@DU?$char_traits@D@std@@V?$allocator@D@2@@std@@@Z
	?setInfoURL@DefaultHepRepType@cheprep@@UEAAXV?$basic_string@DU?$char_traits@D@std@@V?$allocator@D@2@@std@@@Z
	?setLine@G4HepRepSceneHandler@@AEAAXPEAVHepRepAttribute@HEPREP@@AEBVG4VSolid@@@Z
	?setLine@G4HepRepSceneHandler@@AEAAXPEAVHepRepAttribute@HEPREP@@AEBVG4Visible@@@Z
	?setMarker@G4HepRepSceneHandler@@AEAAXPEAVHepRepAttribute@HEPREP@@AEBVG4VMarker@@@Z
	?setQualifier@DefaultHepRepTreeID@cheprep@@$4PPPPPPPM@A@EAAXV?$basic_string@DU?$char_traits@D@std@@V?$allocator@D@2@@std@@@Z
	?setQualifier@DefaultHepRepTreeID@cheprep@@$4PPPPPPPM@BI@EAAXV?$basic_string@DU?$char_traits@D@std@@V?$allocator@D@2@@std@@@Z
	?setQualifier@DefaultHepRepTreeID@cheprep@@$4PPPPPPPM@DI@EAAXV?$basic_string@DU?$char_traits@D@std@@V?$allocator@D@2@@std@@@Z
	?setQualifier@DefaultHepRepTreeID@cheprep@@UEAAXV?$basic_string@DU?$char_traits@D@std@@V?$allocator@D@2@@std@@@Z
	?setVisibility@G4HepRepSceneHandler@@AEAAXPEAVHepRepAttribute@HEPREP@@AEBVG4VSolid@@@Z
	?setVisibility@G4HepRepSceneHandler@@AEAAXPEAVHepRepAttribute@HEPREP@@AEBVG4Visible@@@Z
	?setbuf@?$basic_filebuf@DU?$char_traits@D@std@@@std@@MEAAPEAV?$basic_streambuf@DU?$char_traits@D@std@@@2@PEAD_J@Z
	?showLabel@DefaultHepRepAttValue@cheprep@@$4PPPPPPPM@A@EAAHXZ
	?showLabel@DefaultHepRepAttValue@cheprep@@UEAAHXZ
	?sync@?$basic_filebuf@DU?$char_traits@D@std@@@std@@MEAAHXZ
	?toShowLabel@DefaultHepRepAttValue@cheprep@@QEAA?AV?$basic_string@DU?$char_traits@D@std@@V?$allocator@D@2@@std@@XZ
	?toShowLabel@DefaultHepRepAttValue@cheprep@@SA?AV?$basic_string@DU?$char_traits@D@std@@V?$allocator@D@2@@std@@H@Z
	?uflow@?$basic_filebuf@DU?$char_traits@D@std@@@std@@MEAAHXZ
	?underflow@?$basic_filebuf@DU?$char_traits@D@std@@@std@@MEAAHXZ
	?useSolids@G4HepRepMessenger@@UEAA_NXZ
	?what@exception@std@@UEBAPEBDXZ
	?write@XMLHepRepWriter@cheprep@@$4PPPPPPPM@A@EAA_NPEAVHepRep@HEPREP@@V?$basic_string@DU?$char_traits@D@std@@V?$allocator@D@2@@std@@@Z
	?write@XMLHepRepWriter@cheprep@@$4PPPPPPPM@A@EAA_NPEAVHepRepAction@HEPREP@@@Z
	?write@XMLHepRepWriter@cheprep@@$4PPPPPPPM@A@EAA_NPEAVHepRepAttDef@HEPREP@@@Z
	?write@XMLHepRepWriter@cheprep@@$4PPPPPPPM@A@EAA_NPEAVHepRepAttValue@HEPREP@@@Z
	?write@XMLHepRepWriter@cheprep@@$4PPPPPPPM@A@EAA_NPEAVHepRepAttribute@HEPREP@@@Z
	?write@XMLHepRepWriter@cheprep@@$4PPPPPPPM@A@EAA_NPEAVHepRepDefinition@HEPREP@@@Z
	?write@XMLHepRepWriter@cheprep@@$4PPPPPPPM@A@EAA_NPEAVHepRepInstance@HEPREP@@@Z
	?write@XMLHepRepWriter@cheprep@@$4PPPPPPPM@A@EAA_NPEAVHepRepInstanceTree@HEPREP@@@Z
	?write@XMLHepRepWriter@cheprep@@$4PPPPPPPM@A@EAA_NPEAVHepRepPoint@HEPREP@@@Z
	?write@XMLHepRepWriter@cheprep@@$4PPPPPPPM@A@EAA_NPEAVHepRepTreeID@HEPREP@@@Z
	?write@XMLHepRepWriter@cheprep@@$4PPPPPPPM@A@EAA_NPEAVHepRepType@HEPREP@@@Z
	?write@XMLHepRepWriter@cheprep@@$4PPPPPPPM@A@EAA_NPEAVHepRepTypeTree@HEPREP@@@Z
	?write@XMLHepRepWriter@cheprep@@$4PPPPPPPM@A@EAA_NV?$vector@V?$basic_string@DU?$char_traits@D@std@@V?$allocator@D@2@@std@@V?$allocator@V?$basic_string@DU?$char_traits@D@std@@V?$allocator@D@2@@std@@@2@@std@@@Z
	?write@XMLHepRepWriter@cheprep@@UEAA_NPEAVHepRep@HEPREP@@V?$basic_string@DU?$char_traits@D@std@@V?$allocator@D@2@@std@@@Z
	?write@XMLHepRepWriter@cheprep@@UEAA_NPEAVHepRepAction@HEPREP@@@Z
	?write@XMLHepRepWriter@cheprep@@UEAA_NPEAVHepRepAttDef@HEPREP@@@Z
	?write@XMLHepRepWriter@cheprep@@UEAA_NPEAVHepRepAttValue@HEPREP@@@Z
	?write@XMLHepRepWriter@cheprep@@UEAA_NPEAVHepRepAttribute@HEPREP@@@Z
	?write@XMLHepRepWriter@cheprep@@UEAA_NPEAVHepRepDefinition@HEPREP@@@Z
	?write@XMLHepRepWriter@cheprep@@UEAA_NPEAVHepRepInstance@HEPREP@@@Z
	?write@XMLHepRepWriter@cheprep@@UEAA_NPEAVHepRepInstanceTree@HEPREP@@@Z
	?write@XMLHepRepWriter@cheprep@@UEAA_NPEAVHepRepPoint@HEPREP@@@Z
	?write@XMLHepRepWriter@cheprep@@UEAA_NPEAVHepRepTreeID@HEPREP@@@Z
	?write@XMLHepRepWriter@cheprep@@UEAA_NPEAVHepRepType@HEPREP@@@Z
	?write@XMLHepRepWriter@cheprep@@UEAA_NPEAVHepRepTypeTree@HEPREP@@@Z
	?write@XMLHepRepWriter@cheprep@@UEAA_NV?$vector@V?$basic_string@DU?$char_traits@D@std@@V?$allocator@D@2@@std@@V?$allocator@V?$basic_string@DU?$char_traits@D@std@@V?$allocator@D@2@@std@@@2@@std@@@Z
	?writeByte@BHepRepWriter@cheprep@@AEAAXE@Z
	?writeHeader@GZIPOutputStreamBuffer@cheprep@@AEAAXXZ
	?writeInt@BHepRepWriter@cheprep@@AEAAXH@Z
	?writeInvisibles@G4HepRepMessenger@@UEAA_NXZ
	?writeLayers@G4HepRepSceneHandler@@AEAAXPEAVHepRep@HEPREP@@@Z
	?writeLong@BHepRepWriter@cheprep@@AEAAX_J@Z
	?writeMultiByteInt@BHepRepWriter@cheprep@@AEAAXI@Z
	?writePoints@BHepRepWriter@cheprep@@AEAAXXZ
	?writeReal@BHepRepWriter@cheprep@@AEAAXN@Z
	?writeString@BHepRepWriter@cheprep@@AEAAXV?$basic_string@DU?$char_traits@D@std@@V?$allocator@D@2@@std@@@Z
	?writeStringDefine@BHepRepWriter@cheprep@@AEAAXV?$basic_string@DU?$char_traits@D@std@@V?$allocator@D@2@@std@@@Z
	?writeTag@BHepRepWriter@cheprep@@AEAAXV?$basic_string@DU?$char_traits@D@std@@V?$allocator@D@2@@std@@_N@Z
	?writeTrailer@GZIPOutputStreamBuffer@cheprep@@AEAAXXZ
	?xsgetn@?$basic_filebuf@DU?$char_traits@D@std@@@std@@MEAA_JPEAD_J@Z
	?xsputn@?$basic_filebuf@DU?$char_traits@D@std@@@std@@MEAA_JPEBD_J@Z
	__local_stdio_printf_options
	sprintf
