EXPORTS 
	?$TSS0@?1???$engineIDulong@VDualRand@CLHEP@@@CLHEP@@YAKXZ@4HA 	 DATA
	?$TSS0@?1???$engineIDulong@VHepJamesRandom@CLHEP@@@CLHEP@@YAKXZ@4HA 	 DATA
	?$TSS0@?1???$engineIDulong@VMTwistEngine@CLHEP@@@CLHEP@@YAKXZ@4HA 	 DATA
	?$TSS0@?1???$engineIDulong@VMixMaxRng@CLHEP@@@CLHEP@@YAKXZ@4HA 	 DATA
	?$TSS0@?1???$engineIDulong@VNonRandomEngine@CLHEP@@@CLHEP@@YAKXZ@4HA 	 DATA
	?$TSS0@?1???$engineIDulong@VRanecuEngine@CLHEP@@@CLHEP@@YAKXZ@4HA 	 DATA
	?$TSS0@?1???$engineIDulong@VRanlux64Engine@CLHEP@@@CLHEP@@YAKXZ@4HA 	 DATA
	?$TSS0@?1???$engineIDulong@VRanluxEngine@CLHEP@@@CLHEP@@YAKXZ@4HA 	 DATA
	?$TSS0@?1???$engineIDulong@VRanshiEngine@CLHEP@@@CLHEP@@YAKXZ@4HA 	 DATA
	?$TSS0@?1??exponent_bit_32@HepRandomEngine@CLHEP@@KANXZ@4HA 	 DATA
	?$TSS0@?1??mantissa_bit_12@HepRandomEngine@CLHEP@@KANXZ@4HA 	 DATA
	?$TSS0@?1??mantissa_bit_24@HepRandomEngine@CLHEP@@KANXZ@4HA 	 DATA
	?$TSS0@?1??nearlyTwoToMinus_54@HepRandomEngine@CLHEP@@KANXZ@4HA 	 DATA
	?$TSS0@?1??twoToMinus_32@HepRandomEngine@CLHEP@@KANXZ@4HA 	 DATA
	?$TSS0@?1??twoToMinus_48@HepRandomEngine@CLHEP@@KANXZ@4HA 	 DATA
	?$TSS0@?1??twoToMinus_49@HepRandomEngine@CLHEP@@KANXZ@4HA 	 DATA
	?$TSS0@?1??twoToMinus_53@HepRandomEngine@CLHEP@@KANXZ@4HA 	 DATA
	??_R0?AUdo_nothing_deleter@CLHEP@@@8 	 DATA
	??_R0?AV?$BasicVector3D@M@HepGeom@@@8 	 DATA
	??_R0?AV?$BasicVector3D@N@HepGeom@@@8 	 DATA
	??_R0?AV?$Normal3D@M@HepGeom@@@8 	 DATA
	??_R0?AV?$Normal3D@N@HepGeom@@@8 	 DATA
	??_R0?AV?$Point3D@M@HepGeom@@@8 	 DATA
	??_R0?AV?$Point3D@N@HepGeom@@@8 	 DATA
	??_R0?AV?$Vector3D@M@HepGeom@@@8 	 DATA
	??_R0?AV?$Vector3D@N@HepGeom@@@8 	 DATA
	??_R0?AV?$_Iosb@H@std@@@8 	 DATA
	??_R0?AV?$_Ref_count@VHepRandomEngine@CLHEP@@@std@@@8 	 DATA
	??_R0?AV?$_Ref_count_resource@PEAVHepRandom@CLHEP@@Udo_nothing_deleter@2@@std@@@8 	 DATA
	??_R0?AV?$_Ref_count_resource@PEAVHepRandomEngine@CLHEP@@Udo_nothing_deleter@2@@std@@@8 	 DATA
	??_R0?AV?$_Ref_count_resource@PEAVMixMaxRng@CLHEP@@Udo_nothing_deleter@2@@std@@@8 	 DATA
	??_R0?AV?$basic_filebuf@DU?$char_traits@D@std@@@std@@@8 	 DATA
	??_R0?AV?$basic_ifstream@DU?$char_traits@D@std@@@std@@@8 	 DATA
	??_R0?AV?$basic_ios@DU?$char_traits@D@std@@@std@@@8 	 DATA
	??_R0?AV?$basic_istream@DU?$char_traits@D@std@@@std@@@8 	 DATA
	??_R0?AV?$basic_istringstream@DU?$char_traits@D@std@@V?$allocator@D@2@@std@@@8 	 DATA
	??_R0?AV?$basic_ofstream@DU?$char_traits@D@std@@@std@@@8 	 DATA
	??_R0?AV?$basic_ostream@DU?$char_traits@D@std@@@std@@@8 	 DATA
	??_R0?AV?$basic_ostringstream@DU?$char_traits@D@std@@V?$allocator@D@2@@std@@@8 	 DATA
	??_R0?AV?$basic_streambuf@DU?$char_traits@D@std@@@std@@@8 	 DATA
	??_R0?AV?$basic_stringbuf@DU?$char_traits@D@std@@V?$allocator@D@2@@std@@@8 	 DATA
	??_R0?AVDoubConvException@CLHEP@@@8 	 DATA
	??_R0?AVDualRand@CLHEP@@@8 	 DATA
	??_R0?AVHepJamesRandom@CLHEP@@@8 	 DATA
	??_R0?AVHepRandom@CLHEP@@@8 	 DATA
	??_R0?AVHepRandomEngine@CLHEP@@@8 	 DATA
	??_R0?AVMTwistEngine@CLHEP@@@8 	 DATA
	??_R0?AVMixMaxRng@CLHEP@@@8 	 DATA
	??_R0?AVNonRandomEngine@CLHEP@@@8 	 DATA
	??_R0?AVRandBinomial@CLHEP@@@8 	 DATA
	??_R0?AVRandBit@CLHEP@@@8 	 DATA
	??_R0?AVRandBreitWigner@CLHEP@@@8 	 DATA
	??_R0?AVRandChiSquare@CLHEP@@@8 	 DATA
	??_R0?AVRandExponential@CLHEP@@@8 	 DATA
	??_R0?AVRandFlat@CLHEP@@@8 	 DATA
	??_R0?AVRandGamma@CLHEP@@@8 	 DATA
	??_R0?AVRandGauss@CLHEP@@@8 	 DATA
	??_R0?AVRandGaussQ@CLHEP@@@8 	 DATA
	??_R0?AVRandGeneral@CLHEP@@@8 	 DATA
	??_R0?AVRandLandau@CLHEP@@@8 	 DATA
	??_R0?AVRandPoisson@CLHEP@@@8 	 DATA
	??_R0?AVRandPoissonQ@CLHEP@@@8 	 DATA
	??_R0?AVRandStudentT@CLHEP@@@8 	 DATA
	??_R0?AVRanecuEngine@CLHEP@@@8 	 DATA
	??_R0?AVRanlux64Engine@CLHEP@@@8 	 DATA
	??_R0?AVRanluxEngine@CLHEP@@@8 	 DATA
	??_R0?AVRanshiEngine@CLHEP@@@8 	 DATA
	??_R0?AV_Ref_count_base@std@@@8 	 DATA
	??_R0?AVbad_alloc@std@@@8 	 DATA
	??_R0?AVbad_array_new_length@std@@@8 	 DATA
	??_R0?AVbad_cast@std@@@8 	 DATA
	??_R0?AVexception@std@@@8 	 DATA
	??_R0?AVios_base@std@@@8 	 DATA
	??_R0?AVruntime_error@std@@@8 	 DATA
	?HepXHat@CLHEP@@3VHep3Vector@1@B 	 DATA
	?HepYHat@CLHEP@@3VHep3Vector@1@B 	 DATA
	?HepZHat@CLHEP@@3VHep3Vector@1@B 	 DATA
	?IDENTITY@HepLorentzRotation@CLHEP@@2V12@B 	 DATA
	?IDENTITY@HepRotation@CLHEP@@2V12@B 	 DATA
	?Identity@Transform3D@HepGeom@@2V12@B 	 DATA
	?_OptionsStorage@?1??__local_stdio_printf_options@@9@4_KA 	 DATA
	?_OptionsStorage@?1??__local_stdio_scanf_options@@9@4_KA 	 DATA
	?_Psave@?$_Facetptr@V?$codecvt@DDU_Mbstatet@@@std@@@std@@2PEBVfacet@locale@2@EB 	 DATA
	?_Psave@?$_Facetptr@V?$ctype@D@std@@@std@@2PEBVfacet@locale@2@EB 	 DATA
	?_Stinit@?1??_Init@?$basic_filebuf@DU?$char_traits@D@std@@@std@@IEAAXPEAU_iobuf@@W4_Initfl@23@@Z@4U_Mbstatet@@A 	 DATA
	?byte_order@DoubConv@CLHEP@@0PAHA 	 DATA
	?byte_order_known@DoubConv@CLHEP@@0_NA 	 DATA
	?dummy@?1???RHep3Vector@CLHEP@@QEAAAEANH@Z@4NA 	 DATA
	?exponent_bit_32@?1??0HepRandomEngine@CLHEP@@KANXZ@4NB 	 DATA
	?id@?1???$engineIDulong@VDualRand@CLHEP@@@CLHEP@@YAKXZ@4KB 	 DATA
	?id@?1???$engineIDulong@VHepJamesRandom@CLHEP@@@CLHEP@@YAKXZ@4KB 	 DATA
	?id@?1???$engineIDulong@VMTwistEngine@CLHEP@@@CLHEP@@YAKXZ@4KB 	 DATA
	?id@?1???$engineIDulong@VMixMaxRng@CLHEP@@@CLHEP@@YAKXZ@4KB 	 DATA
	?id@?1???$engineIDulong@VNonRandomEngine@CLHEP@@@CLHEP@@YAKXZ@4KB 	 DATA
	?id@?1???$engineIDulong@VRanecuEngine@CLHEP@@@CLHEP@@YAKXZ@4KB 	 DATA
	?id@?1???$engineIDulong@VRanlux64Engine@CLHEP@@@CLHEP@@YAKXZ@4KB 	 DATA
	?id@?1???$engineIDulong@VRanluxEngine@CLHEP@@@CLHEP@@YAKXZ@4KB 	 DATA
	?id@?1???$engineIDulong@VRanshiEngine@CLHEP@@@CLHEP@@YAKXZ@4KB 	 DATA
	?mantissa_bit_12@?1??0HepRandomEngine@CLHEP@@KANXZ@4NB 	 DATA
	?mantissa_bit_24@?1??0HepRandomEngine@CLHEP@@KANXZ@4NB 	 DATA
	?metric@HepLorentzVector@CLHEP@@0NA 	 DATA
	?nearlyTwoToMinus_54@?1??0HepRandomEngine@CLHEP@@KANXZ@4NB 	 DATA
	?nextGauss_st@RandGauss@CLHEP@@0NA 	 DATA
	?oldm_st@RandPoisson@CLHEP@@0NA 	 DATA
	?set_st@RandGauss@CLHEP@@0_NA 	 DATA
	?staticFirstUnusedBit@RandFlat@CLHEP@@0KA 	 DATA
	?staticRandomInt@RandFlat@CLHEP@@0KA 	 DATA
	?status_st@RandPoisson@CLHEP@@0PANA 	 DATA
	?tolerance@Hep2Vector@CLHEP@@0NA 	 DATA
	?tolerance@Hep3Vector@CLHEP@@1NA 	 DATA
	?tolerance@Hep4RotationInterface@CLHEP@@2NA 	 DATA
	?tolerance@HepAxisAngle@CLHEP@@1NA 	 DATA
	?tolerance@HepEulerAngles@CLHEP@@1NA 	 DATA
	?tolerance@HepLorentzVector@CLHEP@@0NA 	 DATA
	?twoToMinus_32@?1??0HepRandomEngine@CLHEP@@KANXZ@4NB 	 DATA
	?twoToMinus_48@?1??0HepRandomEngine@CLHEP@@KANXZ@4NB 	 DATA
	?twoToMinus_49@?1??0HepRandomEngine@CLHEP@@KANXZ@4NB 	 DATA
	?twoToMinus_53@?1??0HepRandomEngine@CLHEP@@KANXZ@4NB 	 DATA
	??$?0VHepRandomEngine@CLHEP@@Udo_nothing_deleter@1@$0A@@?$shared_ptr@VHepRandomEngine@CLHEP@@@std@@QEAA@PEAVHepRandomEngine@CLHEP@@Udo_nothing_deleter@3@@Z
	??$?5DU?$char_traits@D@std@@@std@@YAAEAV?$basic_istream@DU?$char_traits@D@std@@@0@AEAV10@AEAD@Z
	??$?5DU?$char_traits@D@std@@@std@@YAAEAV?$basic_istream@DU?$char_traits@D@std@@@0@AEAV10@PEAD@Z
	??$?5DU?$char_traits@D@std@@V?$allocator@D@1@@std@@YAAEAV?$basic_istream@DU?$char_traits@D@std@@@0@$$QEAV10@AEAV?$basic_string@DU?$char_traits@D@std@@V?$allocator@D@2@@0@@Z
	??$?5DU?$char_traits@D@std@@V?$allocator@D@1@@std@@YAAEAV?$basic_istream@DU?$char_traits@D@std@@@0@AEAV10@AEAV?$basic_string@DU?$char_traits@D@std@@V?$allocator@D@2@@0@@Z
	??$?6DU?$char_traits@D@std@@D@std@@YAAEAV?$basic_ostream@DU?$char_traits@D@std@@@0@AEAV10@AEBU?$_Fillobj@D@0@@Z
	??$?6DU?$char_traits@D@std@@H@std@@YAAEAV?$basic_ostream@DU?$char_traits@D@std@@@0@AEAV10@AEBU?$_Smanip@H@0@@Z
	??$?6DU?$char_traits@D@std@@V?$allocator@D@1@@std@@YAAEAV?$basic_ostream@DU?$char_traits@D@std@@@0@AEAV10@AEBV?$basic_string@DU?$char_traits@D@std@@V?$allocator@D@2@@0@@Z
	??$?6DU?$char_traits@D@std@@_J@std@@YAAEAV?$basic_ostream@DU?$char_traits@D@std@@@0@AEAV10@AEBU?$_Smanip@_J@0@@Z
	??$?6U?$char_traits@D@std@@@std@@YAAEAV?$basic_ostream@DU?$char_traits@D@std@@@0@AEAV10@D@Z
	??$?6U?$char_traits@D@std@@@std@@YAAEAV?$basic_ostream@DU?$char_traits@D@std@@@0@AEAV10@PEBD@Z
	??$?8DU?$char_traits@D@std@@V?$allocator@D@1@@std@@YA_NAEBV?$basic_string@DU?$char_traits@D@std@@V?$allocator@D@2@@0@0@Z
	??$?8DU?$char_traits@D@std@@V?$allocator@D@1@@std@@YA_NAEBV?$basic_string@DU?$char_traits@D@std@@V?$allocator@D@2@@0@QEBD@Z
	??$?9DU?$char_traits@D@std@@V?$allocator@D@1@@std@@YA_NAEBV?$basic_string@DU?$char_traits@D@std@@V?$allocator@D@2@@0@0@Z
	??$?9DU?$char_traits@D@std@@V?$allocator@D@1@@std@@YA_NAEBV?$basic_string@DU?$char_traits@D@std@@V?$allocator@D@2@@0@QEBD@Z
	??$_Allocate@$0BA@U_Default_allocate_traits@std@@$0A@@std@@YAPEAX_K@Z
	??$_Allocate_manually_vector_aligned@U_Default_allocate_traits@std@@@std@@YAPEAX_K@Z
	??$_Atomic_address_as@JU?$_Atomic_padded@H@std@@@std@@YAPECJAEAU?$_Atomic_padded@H@0@@Z
	??$_Construct_in_place@PEADAEBQEAD@std@@YAXAEAPEADAEBQEAD@Z
	??$_Copy_memmove@PEAKPEAK@std@@YAPEAKPEAK00@Z
	??$_Copy_memmove@PEANPEAN@std@@YAPEANPEAN00@Z
	??$_Deallocate@$0BA@$0A@@std@@YAXPEAX_K@Z
	??$_Destroy_in_place@PEAD@std@@YAXAEAPEAD@Z
	??$_Destroy_range@V?$allocator@K@std@@@std@@YAXPEAKQEAKAEAV?$allocator@K@0@@Z
	??$_Destroy_range@V?$allocator@N@std@@@std@@YAXPEANQEANAEAV?$allocator@N@0@@Z
	??$_Emplace_reallocate@AEBK@?$vector@KV?$allocator@K@std@@@std@@QEAAPEAKQEAKAEBK@Z
	??$_Emplace_reallocate@AEBN@?$vector@NV?$allocator@N@std@@@std@@QEAAPEANQEANAEBN@Z
	??$_Emplace_reallocate@K@?$vector@KV?$allocator@K@std@@@std@@QEAAPEAKQEAK$$QEAK@Z
	??$_Emplace_reallocate@N@?$vector@NV?$allocator@N@std@@@std@@QEAAPEANQEAN$$QEAN@Z
	??$_Getvals@_W@?$time_get@DV?$istreambuf_iterator@DU?$char_traits@D@std@@@std@@@std@@IEAAX_WAEBV_Locinfo@1@@Z
	??$_Getvals@_W@?$time_get@_WV?$istreambuf_iterator@_WU?$char_traits@_W@std@@@std@@@std@@IEAAX_WAEBV_Locinfo@1@@Z
	??$_Insert_string@DU?$char_traits@D@std@@_K@std@@YAAEAV?$basic_ostream@DU?$char_traits@D@std@@@0@AEAV10@QEBD_K@Z
	??$_Istream_extract_into_buffer@DU?$char_traits@D@std@@@std@@YAAEAV?$basic_istream@DU?$char_traits@D@std@@@0@AEAV10@_KPEAD@Z
	??$_Maklocstr@D@std@@YAPEADPEBDPEADAEBU_Cvtvec@@@Z
	??$_Pocma@V?$allocator@K@std@@@std@@YAXAEAV?$allocator@K@0@0@Z
	??$_Reallocate_grow_by@V<lambda_319d5e083f45f90dcdce5dce53cbb275>@@D@?$basic_string@DU?$char_traits@D@std@@V?$allocator@D@2@@std@@AEAAAEAV01@_KV<lambda_319d5e083f45f90dcdce5dce53cbb275>@@D@Z
	??$_Resize_reallocate@U_Value_init_tag@std@@@?$vector@NV?$allocator@N@std@@@std@@AEAAX_KAEBU_Value_init_tag@1@@Z
	??$_Uninitialized_move@PEAKV?$allocator@K@std@@@std@@YAPEAKQEAK0PEAKAEAV?$allocator@K@0@@Z
	??$_Uninitialized_move@PEANV?$allocator@N@std@@@std@@YAPEANQEAN0PEANAEAV?$allocator@N@0@@Z
	??$_Uninitialized_value_construct_n@V?$allocator@K@std@@@std@@YAPEAKPEAK_KAEAV?$allocator@K@0@@Z
	??$_Uninitialized_value_construct_n@V?$allocator@N@std@@@std@@YAPEANPEAN_KAEAV?$allocator@N@0@@Z
	??$_Zero_range@PEAK@std@@YAPEAKQEAK0@Z
	??$_Zero_range@PEAN@std@@YAPEANQEAN0@Z
	??$endl@DU?$char_traits@D@std@@@std@@YAAEAV?$basic_ostream@DU?$char_traits@D@std@@@0@AEAV10@@Z
	??$engineIDulong@VDualRand@CLHEP@@@CLHEP@@YAKXZ
	??$engineIDulong@VHepJamesRandom@CLHEP@@@CLHEP@@YAKXZ
	??$engineIDulong@VMTwistEngine@CLHEP@@@CLHEP@@YAKXZ
	??$engineIDulong@VMixMaxRng@CLHEP@@@CLHEP@@YAKXZ
	??$engineIDulong@VNonRandomEngine@CLHEP@@@CLHEP@@YAKXZ
	??$engineIDulong@VRanecuEngine@CLHEP@@@CLHEP@@YAKXZ
	??$engineIDulong@VRanlux64Engine@CLHEP@@@CLHEP@@YAKXZ
	??$engineIDulong@VRanluxEngine@CLHEP@@@CLHEP@@YAKXZ
	??$engineIDulong@VRanshiEngine@CLHEP@@@CLHEP@@YAKXZ
	??$exchange@PEAV_Facet_base@std@@PEAV12@@std@@YAPEAV_Facet_base@0@AEAPEAV10@$$QEAPEAV10@@Z
	??$possibleKeywordInput@V?$basic_ifstream@DU?$char_traits@D@std@@@std@@J@CLHEP@@YA_NAEAV?$basic_ifstream@DU?$char_traits@D@std@@@std@@AEBV?$basic_string@DU?$char_traits@D@std@@V?$allocator@D@2@@2@AEAJ@Z
	??$possibleKeywordInput@V?$basic_ifstream@DU?$char_traits@D@std@@@std@@N@CLHEP@@YA_NAEAV?$basic_ifstream@DU?$char_traits@D@std@@@std@@AEBV?$basic_string@DU?$char_traits@D@std@@V?$allocator@D@2@@2@AEAN@Z
	??$possibleKeywordInput@V?$basic_istream@DU?$char_traits@D@std@@@std@@H@CLHEP@@YA_NAEAV?$basic_istream@DU?$char_traits@D@std@@@std@@AEBV?$basic_string@DU?$char_traits@D@std@@V?$allocator@D@2@@2@AEAH@Z
	??$possibleKeywordInput@V?$basic_istream@DU?$char_traits@D@std@@@std@@J@CLHEP@@YA_NAEAV?$basic_istream@DU?$char_traits@D@std@@@std@@AEBV?$basic_string@DU?$char_traits@D@std@@V?$allocator@D@2@@2@AEAJ@Z
	??$possibleKeywordInput@V?$basic_istream@DU?$char_traits@D@std@@@std@@K@CLHEP@@YA_NAEAV?$basic_istream@DU?$char_traits@D@std@@@std@@AEBV?$basic_string@DU?$char_traits@D@std@@V?$allocator@D@2@@2@AEAK@Z
	??$possibleKeywordInput@V?$basic_istream@DU?$char_traits@D@std@@@std@@N@CLHEP@@YA_NAEAV?$basic_istream@DU?$char_traits@D@std@@@std@@AEBV?$basic_string@DU?$char_traits@D@std@@V?$allocator@D@2@@2@AEAN@Z
	??$possibleKeywordInput@V?$basic_istream@DU?$char_traits@D@std@@@std@@V?$basic_string@DU?$char_traits@D@std@@V?$allocator@D@2@@2@@CLHEP@@YA_NAEAV?$basic_istream@DU?$char_traits@D@std@@@std@@AEBV?$basic_string@DU?$char_traits@D@std@@V?$allocator@D@2@@2@AEAV32@@Z
	??$possibleKeywordInput@V?$basic_istream@DU?$char_traits@D@std@@@std@@_N@CLHEP@@YA_NAEAV?$basic_istream@DU?$char_traits@D@std@@@std@@AEBV?$basic_string@DU?$char_traits@D@std@@V?$allocator@D@2@@2@AEA_N@Z
	??$reset@VHepRandomEngine@CLHEP@@Udo_nothing_deleter@2@@?$shared_ptr@VHepRandomEngine@CLHEP@@@std@@QEAAXPEAVHepRandomEngine@CLHEP@@Udo_nothing_deleter@3@@Z
	??$setfill@D@std@@YA?AU?$_Fillobj@D@0@D@Z
	??$swap@PEAVHepRandomEngine@CLHEP@@X@std@@YAXAEAPEAVHepRandomEngine@CLHEP@@0@Z
	??$swap@PEAV_Ref_count_base@std@@X@std@@YAXAEAPEAV_Ref_count_base@0@0@Z
	??$use_facet@V?$codecvt@DDU_Mbstatet@@@std@@@std@@YAAEBV?$codecvt@DDU_Mbstatet@@@0@AEBVlocale@0@@Z
	??$use_facet@V?$ctype@D@std@@@std@@YAAEBV?$ctype@D@0@AEBVlocale@0@@Z
	??$ws@DU?$char_traits@D@std@@@std@@YAAEAV?$basic_istream@DU?$char_traits@D@std@@@0@AEAV10@@Z
	??0?$basic_string@DU?$char_traits@D@std@@V?$allocator@D@2@@std@@QEAA@AEBV01@@Z
	??0?$basic_string@DU?$char_traits@D@std@@V?$allocator@D@2@@std@@QEAA@QEBD@Z
	??0?$basic_stringbuf@DU?$char_traits@D@std@@V?$allocator@D@2@@std@@QEAA@AEBV?$basic_string@DU?$char_traits@D@std@@V?$allocator@D@2@@1@H@Z
	??0DoubConvException@CLHEP@@QEAA@AEBV01@@Z
	??0DoubConvException@CLHEP@@QEAA@AEBV?$basic_string@DU?$char_traits@D@std@@V?$allocator@D@2@@std@@@Z
	??0DualRand@CLHEP@@QEAA@AEAV?$basic_istream@DU?$char_traits@D@std@@@std@@@Z
	??0DualRand@CLHEP@@QEAA@HH@Z
	??0DualRand@CLHEP@@QEAA@J@Z
	??0DualRand@CLHEP@@QEAA@XZ
	??0Evaluator@HepTool@@QEAA@XZ
	??0HepJamesRandom@CLHEP@@QEAA@AEAV?$basic_istream@DU?$char_traits@D@std@@@std@@@Z
	??0HepJamesRandom@CLHEP@@QEAA@HH@Z
	??0HepJamesRandom@CLHEP@@QEAA@J@Z
	??0HepJamesRandom@CLHEP@@QEAA@XZ
	??0HepLorentzRotation@CLHEP@@QEAA@AEBVHepLorentzVector@1@000@Z
	??0HepRandom@CLHEP@@QEAA@AEAVHepRandomEngine@1@@Z
	??0HepRandom@CLHEP@@QEAA@J@Z
	??0HepRandom@CLHEP@@QEAA@PEAVHepRandomEngine@1@@Z
	??0HepRandom@CLHEP@@QEAA@XZ
	??0HepRandomEngine@CLHEP@@QEAA@XZ
	??0HepRotation@CLHEP@@QEAA@AEBVHep3Vector@1@00@Z
	??0HepRotation@CLHEP@@QEAA@AEBVHep3Vector@1@N@Z
	??0HepRotation@CLHEP@@QEAA@AEBVHepAxisAngle@1@@Z
	??0HepRotation@CLHEP@@QEAA@AEBVHepEulerAngles@1@@Z
	??0HepRotation@CLHEP@@QEAA@NNN@Z
	??0HepRotationX@CLHEP@@QEAA@N@Z
	??0HepRotationY@CLHEP@@QEAA@N@Z
	??0HepRotationZ@CLHEP@@QEAA@N@Z
	??0IntegerCong@DualRand@CLHEP@@QEAA@IH@Z
	??0IntegerCong@DualRand@CLHEP@@QEAA@XZ
	??0MTwistEngine@CLHEP@@QEAA@AEAV?$basic_istream@DU?$char_traits@D@std@@@std@@@Z
	??0MTwistEngine@CLHEP@@QEAA@HH@Z
	??0MTwistEngine@CLHEP@@QEAA@J@Z
	??0MTwistEngine@CLHEP@@QEAA@XZ
	??0MixMaxRng@CLHEP@@QEAA@AEAV?$basic_istream@DU?$char_traits@D@std@@@std@@@Z
	??0MixMaxRng@CLHEP@@QEAA@AEBV01@@Z
	??0MixMaxRng@CLHEP@@QEAA@J@Z
	??0MixMaxRng@CLHEP@@QEAA@XZ
	??0NonRandomEngine@CLHEP@@QEAA@XZ
	??0RandGeneral@CLHEP@@QEAA@AEAVHepRandomEngine@1@PEBNHH@Z
	??0RandGeneral@CLHEP@@QEAA@PEAVHepRandomEngine@1@PEBNHH@Z
	??0RandGeneral@CLHEP@@QEAA@PEBNHH@Z
	??0RanecuEngine@CLHEP@@QEAA@AEAV?$basic_istream@DU?$char_traits@D@std@@@std@@@Z
	??0RanecuEngine@CLHEP@@QEAA@H@Z
	??0RanecuEngine@CLHEP@@QEAA@XZ
	??0Ranlux64Engine@CLHEP@@QEAA@AEAV?$basic_istream@DU?$char_traits@D@std@@@std@@@Z
	??0Ranlux64Engine@CLHEP@@QEAA@HHH@Z
	??0Ranlux64Engine@CLHEP@@QEAA@JH@Z
	??0Ranlux64Engine@CLHEP@@QEAA@XZ
	??0RanluxEngine@CLHEP@@QEAA@AEAV?$basic_istream@DU?$char_traits@D@std@@@std@@@Z
	??0RanluxEngine@CLHEP@@QEAA@HHH@Z
	??0RanluxEngine@CLHEP@@QEAA@JH@Z
	??0RanluxEngine@CLHEP@@QEAA@XZ
	??0RanshiEngine@CLHEP@@QEAA@AEAV?$basic_istream@DU?$char_traits@D@std@@@std@@@Z
	??0RanshiEngine@CLHEP@@QEAA@HH@Z
	??0RanshiEngine@CLHEP@@QEAA@J@Z
	??0RanshiEngine@CLHEP@@QEAA@XZ
	??0Reflect3D@HepGeom@@QEAA@NNNN@Z
	??0Rotate3D@HepGeom@@QEAA@NAEBV?$Point3D@N@1@0@Z
	??0Tausworthe@DualRand@CLHEP@@QEAA@I@Z
	??0Tausworthe@DualRand@CLHEP@@QEAA@XZ
	??0Transform3D@HepGeom@@QEAA@AEBV?$Point3D@N@1@00000@Z
	??0bad_alloc@std@@QEAA@AEBV01@@Z
	??0bad_array_new_length@std@@QEAA@AEBV01@@Z
	??0bad_array_new_length@std@@QEAA@XZ
	??0bad_cast@std@@QEAA@AEBV01@@Z
	??0bad_cast@std@@QEAA@XZ
	??0exception@std@@QEAA@AEBV01@@Z
	??0runtime_error@std@@QEAA@AEBV01@@Z
	??0runtime_error@std@@QEAA@PEBD@Z
	??0string@@QEAA@PEBD@Z
	??1?$BasicVector3D@M@HepGeom@@UEAA@XZ
	??1?$BasicVector3D@N@HepGeom@@UEAA@XZ
	??1?$_Temporary_owner@VHepRandomEngine@CLHEP@@@std@@QEAA@XZ
	??1?$basic_filebuf@DU?$char_traits@D@std@@@std@@UEAA@XZ
	??1?$basic_ifstream@DU?$char_traits@D@std@@@std@@UEAA@XZ
	??1?$basic_istringstream@DU?$char_traits@D@std@@V?$allocator@D@2@@std@@UEAA@XZ
	??1?$basic_ofstream@DU?$char_traits@D@std@@@std@@UEAA@XZ
	??1?$basic_ostringstream@DU?$char_traits@D@std@@V?$allocator@D@2@@std@@UEAA@XZ
	??1?$basic_string@DU?$char_traits@D@std@@V?$allocator@D@2@@std@@QEAA@XZ
	??1?$basic_stringbuf@DU?$char_traits@D@std@@V?$allocator@D@2@@std@@UEAA@XZ
	??1?$hash_map@Ustring@@UItem@@@@QEAA@XZ
	??1?$shared_ptr@VHepRandom@CLHEP@@@std@@QEAA@XZ
	??1?$shared_ptr@VHepRandomEngine@CLHEP@@@std@@QEAA@XZ
	??1?$stack@H@@QEAA@XZ
	??1?$stack@N@@QEAA@XZ
	??1?$stack@PEAD@@QEAA@XZ
	??1?$unique_ptr@V_Facet_base@std@@U?$default_delete@V_Facet_base@std@@@2@@std@@QEAA@XZ
	??1?$vector@KV?$allocator@K@std@@@std@@QEAA@XZ
	??1?$vector@NV?$allocator@N@std@@@std@@QEAA@XZ
	??1DoubConvException@CLHEP@@UEAA@XZ
	??1DualRand@CLHEP@@UEAA@XZ
	??1Evaluator@HepTool@@QEAA@XZ
	??1HepJamesRandom@CLHEP@@UEAA@XZ
	??1HepRandom@CLHEP@@UEAA@XZ
	??1HepRandomEngine@CLHEP@@UEAA@XZ
	??1Item@@QEAA@XZ
	??1MTwistEngine@CLHEP@@UEAA@XZ
	??1MixMaxRng@CLHEP@@UEAA@XZ
	??1NonRandomEngine@CLHEP@@UEAA@XZ
	??1RandBinomial@CLHEP@@UEAA@XZ
	??1RandBit@CLHEP@@UEAA@XZ
	??1RandBreitWigner@CLHEP@@UEAA@XZ
	??1RandChiSquare@CLHEP@@UEAA@XZ
	??1RandExponential@CLHEP@@UEAA@XZ
	??1RandFlat@CLHEP@@UEAA@XZ
	??1RandGamma@CLHEP@@UEAA@XZ
	??1RandGauss@CLHEP@@UEAA@XZ
	??1RandGaussQ@CLHEP@@UEAA@XZ
	??1RandGeneral@CLHEP@@UEAA@XZ
	??1RandLandau@CLHEP@@UEAA@XZ
	??1RandPoisson@CLHEP@@UEAA@XZ
	??1RandPoissonQ@CLHEP@@UEAA@XZ
	??1RandStudentT@CLHEP@@UEAA@XZ
	??1RanecuEngine@CLHEP@@UEAA@XZ
	??1Ranlux64Engine@CLHEP@@UEAA@XZ
	??1RanluxEngine@CLHEP@@UEAA@XZ
	??1RanshiEngine@CLHEP@@UEAA@XZ
	??1_Ref_count_base@std@@UEAA@XZ
	??1_Sentry_base@?$basic_istream@DU?$char_traits@D@std@@@std@@QEAA@XZ
	??1_Sentry_base@?$basic_ostream@DU?$char_traits@D@std@@@std@@QEAA@XZ
	??1bad_array_new_length@std@@UEAA@XZ
	??1bad_cast@std@@UEAA@XZ
	??1exception@std@@UEAA@XZ
	??1locale@std@@QEAA@XZ
	??1runtime_error@std@@UEAA@XZ
	??1sentry@?$basic_istream@DU?$char_traits@D@std@@@std@@QEAA@XZ
	??1sentry@?$basic_ostream@DU?$char_traits@D@std@@@std@@QEAA@XZ
	??1string@@QEAA@XZ
	??4MixMaxRng@CLHEP@@QEAAAEAV01@AEBV01@@Z
	??5CLHEP@@YAAEAV?$basic_istream@DU?$char_traits@D@std@@@std@@AEAV12@AEAVHep2Vector@0@@Z
	??5CLHEP@@YAAEAV?$basic_istream@DU?$char_traits@D@std@@@std@@AEAV12@AEAVHep3Vector@0@@Z
	??5CLHEP@@YAAEAV?$basic_istream@DU?$char_traits@D@std@@@std@@AEAV12@AEAVHepAxisAngle@0@@Z
	??5CLHEP@@YAAEAV?$basic_istream@DU?$char_traits@D@std@@@std@@AEAV12@AEAVHepEulerAngles@0@@Z
	??5CLHEP@@YAAEAV?$basic_istream@DU?$char_traits@D@std@@@std@@AEAV12@AEAVHepLorentzVector@0@@Z
	??5CLHEP@@YAAEAV?$basic_istream@DU?$char_traits@D@std@@@std@@AEAV12@AEAVHepRandom@0@@Z
	??5CLHEP@@YAAEAV?$basic_istream@DU?$char_traits@D@std@@@std@@AEAV12@AEAVHepRandomEngine@0@@Z
	??5HepGeom@@YAAEAV?$basic_istream@DU?$char_traits@D@std@@@std@@AEAV12@AEAV?$BasicVector3D@M@0@@Z
	??5HepGeom@@YAAEAV?$basic_istream@DU?$char_traits@D@std@@@std@@AEAV12@AEAV?$BasicVector3D@N@0@@Z
	??6@YAAEAV?$basic_ostream@DU?$char_traits@D@std@@@std@@AEAV01@AEBUstring@@@Z
	??6CLHEP@@YAAEAV?$basic_ostream@DU?$char_traits@D@std@@@std@@AEAV12@AEBVHep2Vector@0@@Z
	??6CLHEP@@YAAEAV?$basic_ostream@DU?$char_traits@D@std@@@std@@AEAV12@AEBVHep3Vector@0@@Z
	??6CLHEP@@YAAEAV?$basic_ostream@DU?$char_traits@D@std@@@std@@AEAV12@AEBVHepAxisAngle@0@@Z
	??6CLHEP@@YAAEAV?$basic_ostream@DU?$char_traits@D@std@@@std@@AEAV12@AEBVHepEulerAngles@0@@Z
	??6CLHEP@@YAAEAV?$basic_ostream@DU?$char_traits@D@std@@@std@@AEAV12@AEBVHepLorentzVector@0@@Z
	??6CLHEP@@YAAEAV?$basic_ostream@DU?$char_traits@D@std@@@std@@AEAV12@AEBVHepRandom@0@@Z
	??6CLHEP@@YAAEAV?$basic_ostream@DU?$char_traits@D@std@@@std@@AEAV12@AEBVHepRandomEngine@0@@Z
	??6HepGeom@@YAAEAV?$basic_ostream@DU?$char_traits@D@std@@@std@@AEAV12@AEBV?$BasicVector3D@M@0@@Z
	??6HepGeom@@YAAEAV?$basic_ostream@DU?$char_traits@D@std@@@std@@AEAV12@AEBV?$BasicVector3D@N@0@@Z
	??6HepGeom@@YAAEAV?$basic_ostream@DU?$char_traits@D@std@@@std@@AEAV12@AEBV?$Plane3D@M@0@@Z
	??6HepGeom@@YAAEAV?$basic_ostream@DU?$char_traits@D@std@@@std@@AEAV12@AEBV?$Plane3D@N@0@@Z
	??8Transform3D@HepGeom@@QEBA_NAEBV01@@Z
	??A?$hash_map@Ustring@@UItem@@@@QEAAAEAUItem@@AEBUstring@@@Z
	??BDualRand@CLHEP@@UEAAIXZ
	??BDualRand@CLHEP@@UEAAMXZ
	??BDualRand@CLHEP@@UEAANXZ
	??BHep2Vector@CLHEP@@QEBA?AVHep3Vector@1@XZ
	??BHepJamesRandom@CLHEP@@UEAAIXZ
	??BHepJamesRandom@CLHEP@@UEAAMXZ
	??BHepJamesRandom@CLHEP@@UEAANXZ
	??BHepRandomEngine@CLHEP@@UEAAIXZ
	??BHepRandomEngine@CLHEP@@UEAAMXZ
	??BHepRandomEngine@CLHEP@@UEAANXZ
	??BIntegerCong@DualRand@CLHEP@@QEAAIXZ
	??BMTwistEngine@CLHEP@@UEAAIXZ
	??BMTwistEngine@CLHEP@@UEAAMXZ
	??BMTwistEngine@CLHEP@@UEAANXZ
	??BMixMaxRng@CLHEP@@UEAAIXZ
	??BMixMaxRng@CLHEP@@UEAAMXZ
	??BMixMaxRng@CLHEP@@UEAANXZ
	??BRanecuEngine@CLHEP@@UEAAIXZ
	??BRanecuEngine@CLHEP@@UEAAMXZ
	??BRanecuEngine@CLHEP@@UEAANXZ
	??BRanluxEngine@CLHEP@@UEAAIXZ
	??BRanluxEngine@CLHEP@@UEAAMXZ
	??BRanluxEngine@CLHEP@@UEAANXZ
	??BRanshiEngine@CLHEP@@UEAAIXZ
	??BRanshiEngine@CLHEP@@UEAAMXZ
	??BRanshiEngine@CLHEP@@UEAANXZ
	??BTausworthe@DualRand@CLHEP@@QEAAIXZ
	??DCLHEP@@YA?AVHepLorentzRotation@0@AEBVHepRotation@0@AEBV10@@Z
	??DHepBoost@CLHEP@@QEBA?AVHepLorentzRotation@1@AEBV01@@Z
	??DHepBoost@CLHEP@@QEBA?AVHepLorentzRotation@1@AEBV21@@Z
	??DHepBoost@CLHEP@@QEBA?AVHepLorentzRotation@1@AEBVHepRotation@1@@Z
	??DHepBoostX@CLHEP@@QEBA?AV01@AEBV01@@Z
	??DHepBoostX@CLHEP@@QEBA?AVHepLorentzRotation@1@AEBV21@@Z
	??DHepBoostX@CLHEP@@QEBA?AVHepLorentzRotation@1@AEBVHepBoost@1@@Z
	??DHepBoostX@CLHEP@@QEBA?AVHepLorentzRotation@1@AEBVHepRotation@1@@Z
	??DHepBoostY@CLHEP@@QEBA?AV01@AEBV01@@Z
	??DHepBoostY@CLHEP@@QEBA?AVHepLorentzRotation@1@AEBV21@@Z
	??DHepBoostY@CLHEP@@QEBA?AVHepLorentzRotation@1@AEBVHepBoost@1@@Z
	??DHepBoostY@CLHEP@@QEBA?AVHepLorentzRotation@1@AEBVHepRotation@1@@Z
	??DHepBoostZ@CLHEP@@QEBA?AV01@AEBV01@@Z
	??DHepBoostZ@CLHEP@@QEBA?AVHepLorentzRotation@1@AEBV21@@Z
	??DHepBoostZ@CLHEP@@QEBA?AVHepLorentzRotation@1@AEBVHepBoost@1@@Z
	??DHepBoostZ@CLHEP@@QEBA?AVHepLorentzRotation@1@AEBVHepRotation@1@@Z
	??DHepGeom@@YA?AV?$Normal3D@M@0@AEBVTransform3D@0@AEBV10@@Z
	??DHepGeom@@YA?AV?$Normal3D@N@0@AEBVTransform3D@0@AEBV10@@Z
	??DHepGeom@@YA?AV?$Point3D@M@0@AEBVTransform3D@0@AEBV10@@Z
	??DHepGeom@@YA?AV?$Point3D@N@0@AEBVTransform3D@0@AEBV10@@Z
	??DHepGeom@@YA?AV?$Vector3D@M@0@AEBVTransform3D@0@AEBV10@@Z
	??DHepGeom@@YA?AV?$Vector3D@N@0@AEBVTransform3D@0@AEBV10@@Z
	??DTransform3D@HepGeom@@QEBA?AV01@AEBV01@@Z
	??H@YA?AUstring@@DAEBU0@@Z
	??KCLHEP@@YA?AVHep2Vector@0@AEBV10@N@Z
	??KCLHEP@@YA?AVHep3Vector@0@AEBV10@N@Z
	??KCLHEP@@YA?AVHepLorentzVector@0@AEBV10@N@Z
	??MHep2Vector@CLHEP@@QEBA_NAEBV01@@Z
	??MHep3Vector@CLHEP@@QEBA_NAEBV01@@Z
	??MHepLorentzVector@CLHEP@@QEBA_NAEBV01@@Z
	??NHep2Vector@CLHEP@@QEBA_NAEBV01@@Z
	??NHep3Vector@CLHEP@@QEBA_NAEBV01@@Z
	??NHepLorentzVector@CLHEP@@QEBA_NAEBV01@@Z
	??OHep2Vector@CLHEP@@QEBA_NAEBV01@@Z
	??OHep3Vector@CLHEP@@QEBA_NAEBV01@@Z
	??OHepLorentzVector@CLHEP@@QEBA_NAEBV01@@Z
	??PHep2Vector@CLHEP@@QEBA_NAEBV01@@Z
	??PHep3Vector@CLHEP@@QEBA_NAEBV01@@Z
	??PHepLorentzVector@CLHEP@@QEBA_NAEBV01@@Z
	??RHep2Vector@CLHEP@@QEAAAEANH@Z
	??RHep2Vector@CLHEP@@QEBANH@Z
	??RHepLorentzRotation@CLHEP@@QEBANHH@Z
	??RHepLorentzVector@CLHEP@@QEAAAEANH@Z
	??RHepLorentzVector@CLHEP@@QEBANH@Z
	??RHepRandom@CLHEP@@UEAANXZ
	??RHepRotation@CLHEP@@QEBANHH@Z
	??RRandBinomial@CLHEP@@UEAANXZ
	??RRandBreitWigner@CLHEP@@QEAANNN@Z
	??RRandBreitWigner@CLHEP@@QEAANNNN@Z
	??RRandBreitWigner@CLHEP@@UEAANXZ
	??RRandChiSquare@CLHEP@@UEAANXZ
	??RRandExponential@CLHEP@@QEAANN@Z
	??RRandExponential@CLHEP@@UEAANXZ
	??RRandFlat@CLHEP@@QEAANN@Z
	??RRandFlat@CLHEP@@QEAANNN@Z
	??RRandFlat@CLHEP@@UEAANXZ
	??RRandGamma@CLHEP@@UEAANXZ
	??RRandGauss@CLHEP@@UEAANNN@Z
	??RRandGauss@CLHEP@@UEAANXZ
	??RRandGaussQ@CLHEP@@UEAANNN@Z
	??RRandGaussQ@CLHEP@@UEAANXZ
	??RRandGeneral@CLHEP@@UEAANXZ
	??RRandLandau@CLHEP@@UEAANXZ
	??RRandPoisson@CLHEP@@QEAANN@Z
	??RRandPoisson@CLHEP@@UEAANXZ
	??RRandPoissonQ@CLHEP@@QEAANN@Z
	??RRandPoissonQ@CLHEP@@UEAANXZ
	??RRandStudentT@CLHEP@@QEAANN@Z
	??RRandStudentT@CLHEP@@UEAANXZ
	??RTransform3D@HepGeom@@QEBANHH@Z
	??XHep3Vector@CLHEP@@QEAAAEAV01@AEBVHepRotation@1@@Z
	??XHepLorentzVector@CLHEP@@QEAAAEAV01@AEBVHepLorentzRotation@1@@Z
	??_0Hep3Vector@CLHEP@@QEAAAEAV01@N@Z
	??_0HepLorentzVector@CLHEP@@QEAAAEAV01@N@Z
	??_D?$basic_ifstream@DU?$char_traits@D@std@@@std@@QEAAXXZ
	??_D?$basic_istringstream@DU?$char_traits@D@std@@V?$allocator@D@2@@std@@QEAAXXZ
	??_D?$basic_ofstream@DU?$char_traits@D@std@@@std@@QEAAXXZ
	??_D?$basic_ostringstream@DU?$char_traits@D@std@@V?$allocator@D@2@@std@@QEAAXXZ
	?Branch@MixMaxRng@CLHEP@@AEAA?AV12@XZ
	?BranchInplace@MixMaxRng@CLHEP@@AEAAXH@Z
	?MOD_MULSPEC@MixMaxRng@CLHEP@@AEAA_K_K@Z
	?MULWU@MixMaxRng@CLHEP@@AEAA_K_K@Z
	?ZMinput2doubles@CLHEP@@YAXAEAV?$basic_istream@DU?$char_traits@D@std@@@std@@PEBDAEAN2@Z
	?ZMinput3doubles@CLHEP@@YAXAEAV?$basic_istream@DU?$char_traits@D@std@@@std@@PEBDAEAN22@Z
	?ZMinputAxisAngle@CLHEP@@YAXAEAV?$basic_istream@DU?$char_traits@D@std@@@std@@AEAN111@Z
	?_Change_array@?$vector@KV?$allocator@K@std@@@std@@AEAAXQEAK_K1@Z
	?_Change_array@?$vector@NV?$allocator@N@std@@@std@@AEAAXQEAN_K1@Z
	?_Delete_this@?$_Ref_count@VHepRandomEngine@CLHEP@@@std@@EEAAXXZ
	?_Delete_this@?$_Ref_count_resource@PEAVHepRandom@CLHEP@@Udo_nothing_deleter@2@@std@@EEAAXXZ
	?_Delete_this@?$_Ref_count_resource@PEAVHepRandomEngine@CLHEP@@Udo_nothing_deleter@2@@std@@EEAAXXZ
	?_Delete_this@?$_Ref_count_resource@PEAVMixMaxRng@CLHEP@@Udo_nothing_deleter@2@@std@@EEAAXXZ
	?_Destroy@?$_Ref_count@VHepRandomEngine@CLHEP@@@std@@EEAAXXZ
	?_Destroy@?$_Ref_count_resource@PEAVHepRandom@CLHEP@@Udo_nothing_deleter@2@@std@@EEAAXXZ
	?_Destroy@?$_Ref_count_resource@PEAVHepRandomEngine@CLHEP@@Udo_nothing_deleter@2@@std@@EEAAXXZ
	?_Destroy@?$_Ref_count_resource@PEAVMixMaxRng@CLHEP@@Udo_nothing_deleter@2@@std@@EEAAXXZ
	?_Endwrite@?$basic_filebuf@DU?$char_traits@D@std@@@std@@IEAA_NXZ
	?_Get_deleter@?$_Ref_count_resource@PEAVHepRandom@CLHEP@@Udo_nothing_deleter@2@@std@@UEBAPEAXAEBVtype_info@@@Z
	?_Get_deleter@?$_Ref_count_resource@PEAVHepRandomEngine@CLHEP@@Udo_nothing_deleter@2@@std@@UEBAPEAXAEBVtype_info@@@Z
	?_Get_deleter@?$_Ref_count_resource@PEAVMixMaxRng@CLHEP@@Udo_nothing_deleter@2@@std@@UEBAPEAXAEBVtype_info@@@Z
	?_Get_deleter@_Ref_count_base@std@@UEBAPEAXAEBVtype_info@@@Z
	?_Getal@?$vector@NV?$allocator@N@std@@@std@@AEAAAEAV?$allocator@N@2@XZ
	?_Lock@?$basic_filebuf@DU?$char_traits@D@std@@@std@@UEAAXXZ
	?_Maklocwcs@std@@YAPEA_WPEB_W@Z
	?_Reset_back@?$basic_filebuf@DU?$char_traits@D@std@@@std@@AEAAXXZ
	?_Throw_bad_array_new_length@std@@YAXXZ
	?_Throw_bad_cast@std@@YAXXZ
	?_Unlock@?$basic_filebuf@DU?$char_traits@D@std@@@std@@UEAAXXZ
	?_Xlen@?$basic_string@DU?$char_traits@D@std@@V?$allocator@D@2@@std@@CAXXZ
	?_Xlength@?$vector@KV?$allocator@K@std@@@std@@CAXXZ
	?_Xlength@?$vector@NV?$allocator@N@std@@@std@@CAXXZ
	?advance@Ranlux64Engine@CLHEP@@AEAAXH@Z
	?allocate@?$allocator@D@std@@QEAAPEAD_K@Z
	?allocate@?$allocator@K@std@@QEAAPEAK_K@Z
	?allocate@?$allocator@N@std@@QEAAPEAN_K@Z
	?angle@?$BasicVector3D@M@HepGeom@@QEBAMAEBV12@@Z
	?angle@?$BasicVector3D@N@HepGeom@@QEBANAEBV12@@Z
	?apply_bigskip@MixMaxRng@CLHEP@@AEAA_KPEA_K0KKKK@Z
	?assign@?$basic_string@DU?$char_traits@D@std@@V?$allocator@D@2@@std@@QEAAAEAV12@QEBD_K@Z
	?axis@HepRotation@CLHEP@@QEBA?AVHep3Vector@2@XZ
	?axisAngle@HepRotation@CLHEP@@QEBA?AVHepAxisAngle@2@XZ
	?azimAngle@Hep3Vector@CLHEP@@QEBANAEBV12@0@Z
	?beginTag@DualRand@CLHEP@@SA?AV?$basic_string@DU?$char_traits@D@std@@V?$allocator@D@2@@std@@XZ
	?beginTag@HepJamesRandom@CLHEP@@SA?AV?$basic_string@DU?$char_traits@D@std@@V?$allocator@D@2@@std@@XZ
	?beginTag@HepRandomEngine@CLHEP@@SA?AV?$basic_string@DU?$char_traits@D@std@@V?$allocator@D@2@@std@@XZ
	?beginTag@MTwistEngine@CLHEP@@SA?AV?$basic_string@DU?$char_traits@D@std@@V?$allocator@D@2@@std@@XZ
	?beginTag@MixMaxRng@CLHEP@@SA?AV?$basic_string@DU?$char_traits@D@std@@V?$allocator@D@2@@std@@XZ
	?beginTag@NonRandomEngine@CLHEP@@SA?AV?$basic_string@DU?$char_traits@D@std@@V?$allocator@D@2@@std@@XZ
	?beginTag@RanecuEngine@CLHEP@@SA?AV?$basic_string@DU?$char_traits@D@std@@V?$allocator@D@2@@std@@XZ
	?beginTag@Ranlux64Engine@CLHEP@@SA?AV?$basic_string@DU?$char_traits@D@std@@V?$allocator@D@2@@std@@XZ
	?beginTag@RanluxEngine@CLHEP@@SA?AV?$basic_string@DU?$char_traits@D@std@@V?$allocator@D@2@@std@@XZ
	?beginTag@RanshiEngine@CLHEP@@SA?AV?$basic_string@DU?$char_traits@D@std@@V?$allocator@D@2@@std@@XZ
	?beta@Hep3Vector@CLHEP@@QEBANXZ
	?beta@HepLorentzVector@CLHEP@@QEBANXZ
	?boost@HepLorentzVector@CLHEP@@QEAAAEAV12@AEBVHep3Vector@2@N@Z
	?boost@HepLorentzVector@CLHEP@@QEAAAEAV12@NNN@Z
	?boostVector@HepLorentzVector@CLHEP@@QEBA?AVHep3Vector@2@XZ
	?boostX@HepLorentzRotation@CLHEP@@QEAAAEAV12@N@Z
	?boostX@HepLorentzVector@CLHEP@@QEAAAEAV12@N@Z
	?boostY@HepLorentzRotation@CLHEP@@QEAAAEAV12@N@Z
	?boostY@HepLorentzVector@CLHEP@@QEAAAEAV12@N@Z
	?boostZ@HepLorentzRotation@CLHEP@@QEAAAEAV12@N@Z
	?boostZ@HepLorentzVector@CLHEP@@QEAAAEAV12@N@Z
	?checkFile@HepRandomEngine@CLHEP@@KA_NAEAV?$basic_istream@DU?$char_traits@D@std@@@std@@AEBV?$basic_string@DU?$char_traits@D@std@@V?$allocator@D@2@@4@11@Z
	?clear@Evaluator@HepTool@@QEAAXXZ
	?coLinearRapidity@Hep3Vector@CLHEP@@QEBANXZ
	?coLinearRapidity@HepLorentzVector@CLHEP@@QEBANXZ
	?compare@Hep2Vector@CLHEP@@QEBAHAEBV12@@Z
	?compare@Hep3Vector@CLHEP@@QEBAHAEBV12@@Z
	?compare@HepLorentzRotation@CLHEP@@QEBAHAEBV12@@Z
	?compare@HepLorentzVector@CLHEP@@QEBAHAEBV12@@Z
	?compare@HepRotation@CLHEP@@QEBAHAEBV12@@Z
	?cos2Theta@Hep3Vector@CLHEP@@QEBANAEBV12@@Z
	?cosTheta@Hep3Vector@CLHEP@@QEBANAEBV12@@Z
	?crc32ul@CLHEP@@YAKAEBV?$basic_string@DU?$char_traits@D@std@@V?$allocator@D@2@@std@@@Z
	?createInstance@HepRandom@CLHEP@@SAHXZ
	?d2x@DoubConv@CLHEP@@SA?AV?$basic_string@DU?$char_traits@D@std@@V?$allocator@D@2@@std@@N@Z
	?deallocate@?$allocator@D@std@@QEAAXQEAD_K@Z
	?deallocate@?$allocator@K@std@@QEAAXQEAK_K@Z
	?deallocate@?$allocator@N@std@@QEAAXQEAN_K@Z
	?decompose@HepBoost@CLHEP@@QEBAXAEAV12@AEAVHepRotation@2@@Z
	?decompose@HepBoost@CLHEP@@QEBAXAEAVHep3Vector@2@AEAVHepAxisAngle@2@@Z
	?decompose@HepBoost@CLHEP@@QEBAXAEAVHepAxisAngle@2@AEAVHep3Vector@2@@Z
	?decompose@HepBoost@CLHEP@@QEBAXAEAVHepRotation@2@AEAV12@@Z
	?decompose@HepBoostX@CLHEP@@QEBAXAEAVHep3Vector@2@AEAVHepAxisAngle@2@@Z
	?decompose@HepBoostX@CLHEP@@QEBAXAEAVHepAxisAngle@2@AEAVHep3Vector@2@@Z
	?decompose@HepBoostX@CLHEP@@QEBAXAEAVHepBoost@2@AEAVHepRotation@2@@Z
	?decompose@HepBoostX@CLHEP@@QEBAXAEAVHepRotation@2@AEAVHepBoost@2@@Z
	?decompose@HepBoostY@CLHEP@@QEBAXAEAVHep3Vector@2@AEAVHepAxisAngle@2@@Z
	?decompose@HepBoostY@CLHEP@@QEBAXAEAVHepAxisAngle@2@AEAVHep3Vector@2@@Z
	?decompose@HepBoostY@CLHEP@@QEBAXAEAVHepBoost@2@AEAVHepRotation@2@@Z
	?decompose@HepBoostY@CLHEP@@QEBAXAEAVHepRotation@2@AEAVHepBoost@2@@Z
	?decompose@HepBoostZ@CLHEP@@QEBAXAEAVHep3Vector@2@AEAVHepAxisAngle@2@@Z
	?decompose@HepBoostZ@CLHEP@@QEBAXAEAVHepAxisAngle@2@AEAVHep3Vector@2@@Z
	?decompose@HepBoostZ@CLHEP@@QEBAXAEAVHepBoost@2@AEAVHepRotation@2@@Z
	?decompose@HepBoostZ@CLHEP@@QEBAXAEAVHepRotation@2@AEAVHepBoost@2@@Z
	?decompose@HepLorentzRotation@CLHEP@@QEBAXAEAVHep3Vector@2@AEAVHepAxisAngle@2@@Z
	?decompose@HepLorentzRotation@CLHEP@@QEBAXAEAVHepAxisAngle@2@AEAVHep3Vector@2@@Z
	?decompose@HepLorentzRotation@CLHEP@@QEBAXAEAVHepBoost@2@AEAVHepRotation@2@@Z
	?decompose@HepLorentzRotation@CLHEP@@QEBAXAEAVHepRotation@2@AEAVHepBoost@2@@Z
	?decompose@HepRotation@CLHEP@@QEBAXAEAVHep3Vector@2@AEAVHepAxisAngle@2@@Z
	?decompose@HepRotation@CLHEP@@QEBAXAEAVHepAxisAngle@2@AEAVHep3Vector@2@@Z
	?decompose@HepRotationX@CLHEP@@QEBAXAEAVHep3Vector@2@AEAVHepAxisAngle@2@@Z
	?decompose@HepRotationX@CLHEP@@QEBAXAEAVHepAxisAngle@2@AEAVHep3Vector@2@@Z
	?decompose@HepRotationX@CLHEP@@QEBAXAEAVHepBoost@2@AEAVHepRotation@2@@Z
	?decompose@HepRotationX@CLHEP@@QEBAXAEAVHepRotation@2@AEAVHepBoost@2@@Z
	?decompose@HepRotationY@CLHEP@@QEBAXAEAVHep3Vector@2@AEAVHepAxisAngle@2@@Z
	?decompose@HepRotationY@CLHEP@@QEBAXAEAVHepAxisAngle@2@AEAVHep3Vector@2@@Z
	?decompose@HepRotationY@CLHEP@@QEBAXAEAVHepBoost@2@AEAVHepRotation@2@@Z
	?decompose@HepRotationY@CLHEP@@QEBAXAEAVHepRotation@2@AEAVHepBoost@2@@Z
	?decompose@HepRotationZ@CLHEP@@QEBAXAEAVHep3Vector@2@AEAVHepAxisAngle@2@@Z
	?decompose@HepRotationZ@CLHEP@@QEBAXAEAVHepAxisAngle@2@AEAVHep3Vector@2@@Z
	?decompose@HepRotationZ@CLHEP@@QEBAXAEAVHepBoost@2@AEAVHepRotation@2@@Z
	?decompose@HepRotationZ@CLHEP@@QEBAXAEAVHepRotation@2@AEAVHepBoost@2@@Z
	?delta@HepRotation@CLHEP@@QEBANXZ
	?deltaPhi@Hep3Vector@CLHEP@@QEBANAEBV12@@Z
	?deltaR@Hep3Vector@CLHEP@@QEBANAEBV12@@Z
	?deltaR@HepLorentzVector@CLHEP@@QEBANAEBV12@@Z
	?distance2@HepBoost@CLHEP@@QEBANAEBVHepLorentzRotation@2@@Z
	?distance2@HepBoost@CLHEP@@QEBANAEBVHepRotation@2@@Z
	?distance2@HepBoostX@CLHEP@@QEBANAEBVHepBoost@2@@Z
	?distance2@HepBoostX@CLHEP@@QEBANAEBVHepLorentzRotation@2@@Z
	?distance2@HepBoostX@CLHEP@@QEBANAEBVHepRotation@2@@Z
	?distance2@HepBoostY@CLHEP@@QEBANAEBVHepBoost@2@@Z
	?distance2@HepBoostY@CLHEP@@QEBANAEBVHepLorentzRotation@2@@Z
	?distance2@HepBoostY@CLHEP@@QEBANAEBVHepRotation@2@@Z
	?distance2@HepBoostZ@CLHEP@@QEBANAEBVHepBoost@2@@Z
	?distance2@HepBoostZ@CLHEP@@QEBANAEBVHepLorentzRotation@2@@Z
	?distance2@HepBoostZ@CLHEP@@QEBANAEBVHepRotation@2@@Z
	?distance2@HepLorentzRotation@CLHEP@@QEBANAEBV12@@Z
	?distance2@HepLorentzRotation@CLHEP@@QEBANAEBVHepBoost@2@@Z
	?distance2@HepLorentzRotation@CLHEP@@QEBANAEBVHepRotation@2@@Z
	?distance2@HepRotation@CLHEP@@QEBANAEBV12@@Z
	?distance2@HepRotation@CLHEP@@QEBANAEBVHepBoost@2@@Z
	?distance2@HepRotation@CLHEP@@QEBANAEBVHepLorentzRotation@2@@Z
	?distance2@HepRotationX@CLHEP@@QEBANAEBV12@@Z
	?distance2@HepRotationX@CLHEP@@QEBANAEBVHepBoost@2@@Z
	?distance2@HepRotationX@CLHEP@@QEBANAEBVHepLorentzRotation@2@@Z
	?distance2@HepRotationX@CLHEP@@QEBANAEBVHepRotation@2@@Z
	?distance2@HepRotationY@CLHEP@@QEBANAEBV12@@Z
	?distance2@HepRotationY@CLHEP@@QEBANAEBVHepBoost@2@@Z
	?distance2@HepRotationY@CLHEP@@QEBANAEBVHepLorentzRotation@2@@Z
	?distance2@HepRotationY@CLHEP@@QEBANAEBVHepRotation@2@@Z
	?distance2@HepRotationZ@CLHEP@@QEBANAEBV12@@Z
	?distance2@HepRotationZ@CLHEP@@QEBANAEBVHepBoost@2@@Z
	?distance2@HepRotationZ@CLHEP@@QEBANAEBVHepLorentzRotation@2@@Z
	?distance2@HepRotationZ@CLHEP@@QEBANAEBVHepRotation@2@@Z
	?distance@HepAxisAngle@CLHEP@@IEBANAEBV12@@Z
	?distance@HepEulerAngles@CLHEP@@IEBANAEBV12@@Z
	?dto2longs@DoubConv@CLHEP@@SA?AV?$vector@KV?$allocator@K@std@@@std@@N@Z
	?engine@HepRandom@CLHEP@@UEAAAEAVHepRandomEngine@2@XZ
	?engine@RandBinomial@CLHEP@@UEAAAEAVHepRandomEngine@2@XZ
	?engine@RandBreitWigner@CLHEP@@UEAAAEAVHepRandomEngine@2@XZ
	?engine@RandChiSquare@CLHEP@@UEAAAEAVHepRandomEngine@2@XZ
	?engine@RandExponential@CLHEP@@UEAAAEAVHepRandomEngine@2@XZ
	?engine@RandFlat@CLHEP@@UEAAAEAVHepRandomEngine@2@XZ
	?engine@RandGamma@CLHEP@@UEAAAEAVHepRandomEngine@2@XZ
	?engine@RandGauss@CLHEP@@UEAAAEAVHepRandomEngine@2@XZ
	?engine@RandGaussQ@CLHEP@@UEAAAEAVHepRandomEngine@2@XZ
	?engine@RandGeneral@CLHEP@@UEAAAEAVHepRandomEngine@2@XZ
	?engine@RandLandau@CLHEP@@UEAAAEAVHepRandomEngine@2@XZ
	?engine@RandPoisson@CLHEP@@UEAAAEAVHepRandomEngine@2@XZ
	?engine@RandPoissonQ@CLHEP@@UEAAAEAVHepRandomEngine@2@XZ
	?engine@RandStudentT@CLHEP@@UEAAAEAVHepRandomEngine@2@XZ
	?engineName@MixMaxRng@CLHEP@@SA?AV?$basic_string@DU?$char_traits@D@std@@V?$allocator@D@2@@std@@XZ
	?erase@?$hash_map@Ustring@@UItem@@@@QEAAIAEBUstring@@@Z
	?erf@HepStat@CLHEP@@SANN@Z
	?erfQ@HepStat@CLHEP@@SANN@Z
	?error_name@Evaluator@HepTool@@QEBA?AV?$basic_string@DU?$char_traits@D@std@@V?$allocator@D@2@@std@@XZ
	?error_position@Evaluator@HepTool@@QEBAHXZ
	?eta@Hep3Vector@CLHEP@@QEBANAEBV12@@Z
	?eta@Hep3Vector@CLHEP@@QEBANXZ
	?eulerAngles@HepRotation@CLHEP@@QEBA?AVHepEulerAngles@2@XZ
	?eulerAngles@HepRotationX@CLHEP@@QEBA?AVHepEulerAngles@2@XZ
	?eulerAngles@HepRotationY@CLHEP@@QEBA?AVHepEulerAngles@2@XZ
	?eulerAngles@HepRotationZ@CLHEP@@QEBA?AVHepEulerAngles@2@XZ
	?evaluate@Evaluator@HepTool@@QEAANPEBD@Z
	?exponent_bit_32@HepRandomEngine@CLHEP@@KANXZ
	?fill_byte_order@DoubConv@CLHEP@@CAXXZ
	?findBoostToCM@HepLorentzVector@CLHEP@@QEBA?AVHep3Vector@2@AEBV12@@Z
	?findBoostToCM@HepLorentzVector@CLHEP@@QEBA?AVHep3Vector@2@XZ
	?findFunction@Evaluator@HepTool@@QEBA_NPEBDH@Z
	?findVariable@Evaluator@HepTool@@QEBA_NPEBD@Z
	?fire@RandBinomial@CLHEP@@QEAANJN@Z
	?fire@RandBreitWigner@CLHEP@@QEAANNN@Z
	?fire@RandBreitWigner@CLHEP@@QEAANNNN@Z
	?fire@RandBreitWigner@CLHEP@@QEAANXZ
	?fire@RandChiSquare@CLHEP@@QEAANN@Z
	?fire@RandGamma@CLHEP@@QEAANNN@Z
	?fire@RandGauss@CLHEP@@QEAANNN@Z
	?fire@RandPoisson@CLHEP@@QEAAJN@Z
	?fire@RandPoisson@CLHEP@@QEAAJXZ
	?fire@RandPoissonQ@CLHEP@@QEAAJN@Z
	?fire@RandPoissonQ@CLHEP@@QEAAJXZ
	?fire@RandStudentT@CLHEP@@QEAANN@Z
	?fireArray@RandBinomial@CLHEP@@QEAAXHPEAN@Z
	?fireArray@RandBinomial@CLHEP@@QEAAXHPEANJN@Z
	?fireArray@RandBreitWigner@CLHEP@@QEAAXHPEAN@Z
	?fireArray@RandBreitWigner@CLHEP@@QEAAXHPEANNN@Z
	?fireArray@RandBreitWigner@CLHEP@@QEAAXHPEANNNN@Z
	?fireArray@RandChiSquare@CLHEP@@QEAAXHPEAN@Z
	?fireArray@RandChiSquare@CLHEP@@QEAAXHPEANN@Z
	?fireArray@RandExponential@CLHEP@@QEAAXHPEAN@Z
	?fireArray@RandExponential@CLHEP@@QEAAXHPEANN@Z
	?fireArray@RandFlat@CLHEP@@QEAAXHPEAN@Z
	?fireArray@RandFlat@CLHEP@@QEAAXHPEANNN@Z
	?fireArray@RandGamma@CLHEP@@QEAAXHPEAN@Z
	?fireArray@RandGamma@CLHEP@@QEAAXHPEANNN@Z
	?fireArray@RandGauss@CLHEP@@QEAAXHPEAN@Z
	?fireArray@RandGauss@CLHEP@@QEAAXHPEANNN@Z
	?fireArray@RandGaussQ@CLHEP@@QEAAXHPEAN@Z
	?fireArray@RandGaussQ@CLHEP@@QEAAXHPEANNN@Z
	?fireArray@RandGeneral@CLHEP@@QEAAXHPEAN@Z
	?fireArray@RandLandau@CLHEP@@QEAAXHPEAN@Z
	?fireArray@RandPoisson@CLHEP@@QEAAXHPEAJ@Z
	?fireArray@RandPoisson@CLHEP@@QEAAXHPEAJN@Z
	?fireArray@RandPoissonQ@CLHEP@@QEAAXHPEAJ@Z
	?fireArray@RandPoissonQ@CLHEP@@QEAAXHPEAJN@Z
	?fireArray@RandStudentT@CLHEP@@QEAAXHPEAN@Z
	?fireArray@RandStudentT@CLHEP@@QEAAXHPEANN@Z
	?fireM2@RandBreitWigner@CLHEP@@QEAANNN@Z
	?fireM2@RandBreitWigner@CLHEP@@QEAANNNN@Z
	?fireM2@RandBreitWigner@CLHEP@@QEAANXZ
	?flat@DualRand@CLHEP@@UEAANXZ
	?flat@HepJamesRandom@CLHEP@@UEAANXZ
	?flat@HepRandom@CLHEP@@QEAANXZ
	?flat@MTwistEngine@CLHEP@@UEAANXZ
	?flat@MixMaxRng@CLHEP@@UEAANXZ
	?flat@NonRandomEngine@CLHEP@@UEAANXZ
	?flat@RanecuEngine@CLHEP@@UEAANXZ
	?flat@Ranlux64Engine@CLHEP@@UEAANXZ
	?flat@RanluxEngine@CLHEP@@UEAANXZ
	?flat@RanshiEngine@CLHEP@@UEAANXZ
	?flatArray@DualRand@CLHEP@@UEAAXHPEAN@Z
	?flatArray@HepJamesRandom@CLHEP@@UEAAXHPEAN@Z
	?flatArray@HepRandom@CLHEP@@QEAAXHPEAN@Z
	?flatArray@MTwistEngine@CLHEP@@UEAAXHPEAN@Z
	?flatArray@MixMaxRng@CLHEP@@UEAAXHPEAN@Z
	?flatArray@NonRandomEngine@CLHEP@@UEAAXHPEAN@Z
	?flatArray@RanecuEngine@CLHEP@@UEAAXHPEAN@Z
	?flatArray@Ranlux64Engine@CLHEP@@UEAAXHPEAN@Z
	?flatArray@RanluxEngine@CLHEP@@UEAAXHPEAN@Z
	?flatArray@RanshiEngine@CLHEP@@UEAAXHPEAN@Z
	?flatToGaussian@HepStat@CLHEP@@SANN@Z
	?fmodmulM61@MixMaxRng@CLHEP@@AEAA_K_K00@Z
	?further_randomize@RanecuEngine@CLHEP@@AEAAXHHHH@Z
	?gamma@Hep3Vector@CLHEP@@QEBANXZ
	?gamma@HepLorentzVector@CLHEP@@QEBANXZ
	?gammln@CLHEP@@YANN@Z
	?gammln@HepStat@CLHEP@@SANN@Z
	?genBinomial@RandBinomial@CLHEP@@CANPEAVHepRandomEngine@2@JN@Z
	?genChiSquare@RandChiSquare@CLHEP@@CANPEAVHepRandomEngine@2@N@Z
	?genGamma@RandGamma@CLHEP@@CANPEAVHepRandomEngine@2@NN@Z
	?generate@MixMaxRng@CLHEP@@AEAANH@Z
	?get@DualRand@CLHEP@@UEAAAEAV?$basic_istream@DU?$char_traits@D@std@@@std@@AEAV34@@Z
	?get@DualRand@CLHEP@@UEAA_NAEBV?$vector@KV?$allocator@K@std@@@std@@@Z
	?get@HepJamesRandom@CLHEP@@UEAAAEAV?$basic_istream@DU?$char_traits@D@std@@@std@@AEAV34@@Z
	?get@HepJamesRandom@CLHEP@@UEAA_NAEBV?$vector@KV?$allocator@K@std@@@std@@@Z
	?get@HepRandom@CLHEP@@UEAAAEAV?$basic_istream@DU?$char_traits@D@std@@@std@@AEAV34@@Z
	?get@HepRandomEngine@CLHEP@@UEAAAEAV?$basic_istream@DU?$char_traits@D@std@@@std@@AEAV34@@Z
	?get@HepRandomEngine@CLHEP@@UEAA_NAEBV?$vector@KV?$allocator@K@std@@@std@@@Z
	?get@IntegerCong@DualRand@CLHEP@@QEAAXAEAV?$basic_istream@DU?$char_traits@D@std@@@std@@@Z
	?get@IntegerCong@DualRand@CLHEP@@QEAA_NAEAV?$_Vector_const_iterator@V?$_Vector_val@U?$_Simple_types@K@std@@@std@@@std@@@Z
	?get@MTwistEngine@CLHEP@@UEAAAEAV?$basic_istream@DU?$char_traits@D@std@@@std@@AEAV34@@Z
	?get@MTwistEngine@CLHEP@@UEAA_NAEBV?$vector@KV?$allocator@K@std@@@std@@@Z
	?get@MixMaxRng@CLHEP@@UEAAAEAV?$basic_istream@DU?$char_traits@D@std@@@std@@AEAV34@@Z
	?get@MixMaxRng@CLHEP@@UEAA_NAEBV?$vector@KV?$allocator@K@std@@@std@@@Z
	?get@NonRandomEngine@CLHEP@@UEAAAEAV?$basic_istream@DU?$char_traits@D@std@@@std@@AEAV34@@Z
	?get@NonRandomEngine@CLHEP@@UEAA_NAEBV?$vector@KV?$allocator@K@std@@@std@@@Z
	?get@RandBinomial@CLHEP@@UEAAAEAV?$basic_istream@DU?$char_traits@D@std@@@std@@AEAV34@@Z
	?get@RandBit@CLHEP@@UEAAAEAV?$basic_istream@DU?$char_traits@D@std@@@std@@AEAV34@@Z
	?get@RandBreitWigner@CLHEP@@UEAAAEAV?$basic_istream@DU?$char_traits@D@std@@@std@@AEAV34@@Z
	?get@RandChiSquare@CLHEP@@UEAAAEAV?$basic_istream@DU?$char_traits@D@std@@@std@@AEAV34@@Z
	?get@RandExponential@CLHEP@@UEAAAEAV?$basic_istream@DU?$char_traits@D@std@@@std@@AEAV34@@Z
	?get@RandFlat@CLHEP@@UEAAAEAV?$basic_istream@DU?$char_traits@D@std@@@std@@AEAV34@@Z
	?get@RandGamma@CLHEP@@UEAAAEAV?$basic_istream@DU?$char_traits@D@std@@@std@@AEAV34@@Z
	?get@RandGauss@CLHEP@@UEAAAEAV?$basic_istream@DU?$char_traits@D@std@@@std@@AEAV34@@Z
	?get@RandGaussQ@CLHEP@@UEAAAEAV?$basic_istream@DU?$char_traits@D@std@@@std@@AEAV34@@Z
	?get@RandGeneral@CLHEP@@UEAAAEAV?$basic_istream@DU?$char_traits@D@std@@@std@@AEAV34@@Z
	?get@RandLandau@CLHEP@@UEAAAEAV?$basic_istream@DU?$char_traits@D@std@@@std@@AEAV34@@Z
	?get@RandPoisson@CLHEP@@UEAAAEAV?$basic_istream@DU?$char_traits@D@std@@@std@@AEAV34@@Z
	?get@RandPoissonQ@CLHEP@@UEAAAEAV?$basic_istream@DU?$char_traits@D@std@@@std@@AEAV34@@Z
	?get@RandStudentT@CLHEP@@UEAAAEAV?$basic_istream@DU?$char_traits@D@std@@@std@@AEAV34@@Z
	?get@RanecuEngine@CLHEP@@UEAAAEAV?$basic_istream@DU?$char_traits@D@std@@@std@@AEAV34@@Z
	?get@RanecuEngine@CLHEP@@UEAA_NAEBV?$vector@KV?$allocator@K@std@@@std@@@Z
	?get@Ranlux64Engine@CLHEP@@UEAAAEAV?$basic_istream@DU?$char_traits@D@std@@@std@@AEAV34@@Z
	?get@Ranlux64Engine@CLHEP@@UEAA_NAEBV?$vector@KV?$allocator@K@std@@@std@@@Z
	?get@RanluxEngine@CLHEP@@UEAAAEAV?$basic_istream@DU?$char_traits@D@std@@@std@@AEAV34@@Z
	?get@RanluxEngine@CLHEP@@UEAA_NAEBV?$vector@KV?$allocator@K@std@@@std@@@Z
	?get@RanshiEngine@CLHEP@@UEAAAEAV?$basic_istream@DU?$char_traits@D@std@@@std@@AEAV34@@Z
	?get@RanshiEngine@CLHEP@@UEAA_NAEBV?$vector@KV?$allocator@K@std@@@std@@@Z
	?get@Tausworthe@DualRand@CLHEP@@QEAAXAEAV?$basic_istream@DU?$char_traits@D@std@@@std@@@Z
	?get@Tausworthe@DualRand@CLHEP@@QEAA_NAEAV?$_Vector_const_iterator@V?$_Vector_val@U?$_Simple_types@K@std@@@std@@@std@@@Z
	?getAngleAxis@HepRotation@CLHEP@@QEBAXAEANAEAVHep3Vector@2@@Z
	?getDecomposition@Transform3D@HepGeom@@QEBAXAEAVScale3D@2@AEAVRotate3D@2@AEAVTranslate3D@2@@Z
	?getFlag@RandGauss@CLHEP@@SA_NXZ
	?getMetric@HepLorentzVector@CLHEP@@SA?AW4ZMpvMetric_t@2@XZ
	?getState@DualRand@CLHEP@@UEAAAEAV?$basic_istream@DU?$char_traits@D@std@@@std@@AEAV34@@Z
	?getState@DualRand@CLHEP@@UEAA_NAEBV?$vector@KV?$allocator@K@std@@@std@@@Z
	?getState@HepJamesRandom@CLHEP@@UEAAAEAV?$basic_istream@DU?$char_traits@D@std@@@std@@AEAV34@@Z
	?getState@HepJamesRandom@CLHEP@@UEAA_NAEBV?$vector@KV?$allocator@K@std@@@std@@@Z
	?getState@HepRandomEngine@CLHEP@@UEAAAEAV?$basic_istream@DU?$char_traits@D@std@@@std@@AEAV34@@Z
	?getState@HepRandomEngine@CLHEP@@UEAA_NAEBV?$vector@KV?$allocator@K@std@@@std@@@Z
	?getState@MTwistEngine@CLHEP@@UEAAAEAV?$basic_istream@DU?$char_traits@D@std@@@std@@AEAV34@@Z
	?getState@MTwistEngine@CLHEP@@UEAA_NAEBV?$vector@KV?$allocator@K@std@@@std@@@Z
	?getState@MixMaxRng@CLHEP@@UEAAAEAV?$basic_istream@DU?$char_traits@D@std@@@std@@AEAV34@@Z
	?getState@MixMaxRng@CLHEP@@UEAA_NAEBV?$vector@KV?$allocator@K@std@@@std@@@Z
	?getState@NonRandomEngine@CLHEP@@UEAAAEAV?$basic_istream@DU?$char_traits@D@std@@@std@@AEAV34@@Z
	?getState@NonRandomEngine@CLHEP@@UEAA_NAEBV?$vector@KV?$allocator@K@std@@@std@@@Z
	?getState@RanecuEngine@CLHEP@@UEAAAEAV?$basic_istream@DU?$char_traits@D@std@@@std@@AEAV34@@Z
	?getState@RanecuEngine@CLHEP@@UEAA_NAEBV?$vector@KV?$allocator@K@std@@@std@@@Z
	?getState@Ranlux64Engine@CLHEP@@UEAAAEAV?$basic_istream@DU?$char_traits@D@std@@@std@@AEAV34@@Z
	?getState@Ranlux64Engine@CLHEP@@UEAA_NAEBV?$vector@KV?$allocator@K@std@@@std@@@Z
	?getState@RanluxEngine@CLHEP@@UEAAAEAV?$basic_istream@DU?$char_traits@D@std@@@std@@AEAV34@@Z
	?getState@RanluxEngine@CLHEP@@UEAA_NAEBV?$vector@KV?$allocator@K@std@@@std@@@Z
	?getState@RanshiEngine@CLHEP@@UEAAAEAV?$basic_istream@DU?$char_traits@D@std@@@std@@AEAV34@@Z
	?getState@RanshiEngine@CLHEP@@UEAA_NAEBV?$vector@KV?$allocator@K@std@@@std@@@Z
	?getTheEngine@HepRandom@CLHEP@@SAPEAVHepRandomEngine@2@XZ
	?getTheGenerator@HepRandom@CLHEP@@SAPEAV12@XZ
	?getTheSeed@HepRandom@CLHEP@@SAJXZ
	?getTheSeeds@HepRandom@CLHEP@@SAPEBJXZ
	?getTheTableSeeds@HepRandom@CLHEP@@SAXPEAJH@Z
	?getTheta@Hep3Vector@CLHEP@@QEBANXZ
	?getTolerance@Hep4RotationInterface@CLHEP@@SANXZ
	?getTolerance@HepLorentzVector@CLHEP@@SANXZ
	?getVal@RandGauss@CLHEP@@KANXZ
	?get_next@MixMaxRng@CLHEP@@AEAA_KXZ
	?get_next_float_packbits@MixMaxRng@CLHEP@@AEAANXZ
	?hex@std@@YAAEAVios_base@1@AEAV21@@Z
	?howLightlike@HepLorentzVector@CLHEP@@QEBANXZ
	?howNear@Hep2Vector@CLHEP@@QEBANAEBV12@@Z
	?howNear@Hep3Vector@CLHEP@@QEBANAEBV12@@Z
	?howNear@HepAxisAngle@CLHEP@@QEBANAEBV12@@Z
	?howNear@HepBoost@CLHEP@@QEBANAEBVHepLorentzRotation@2@@Z
	?howNear@HepBoost@CLHEP@@QEBANAEBVHepRotation@2@@Z
	?howNear@HepEulerAngles@CLHEP@@QEBANAEBV12@@Z
	?howNear@HepLorentzRotation@CLHEP@@QEBANAEBV12@@Z
	?howNear@HepLorentzRotation@CLHEP@@QEBANAEBVHepBoost@2@@Z
	?howNear@HepLorentzRotation@CLHEP@@QEBANAEBVHepRotation@2@@Z
	?howNear@HepLorentzVector@CLHEP@@QEBANAEBV12@@Z
	?howNear@HepRotation@CLHEP@@QEBANAEBV12@@Z
	?howNear@HepRotation@CLHEP@@QEBANAEBVHepBoost@2@@Z
	?howNear@HepRotation@CLHEP@@QEBANAEBVHepLorentzRotation@2@@Z
	?howNear@HepRotationX@CLHEP@@QEBANAEBV12@@Z
	?howNear@HepRotationX@CLHEP@@QEBANAEBVHepBoost@2@@Z
	?howNear@HepRotationX@CLHEP@@QEBANAEBVHepLorentzRotation@2@@Z
	?howNear@HepRotationX@CLHEP@@QEBANAEBVHepRotation@2@@Z
	?howNear@HepRotationY@CLHEP@@QEBANAEBV12@@Z
	?howNear@HepRotationY@CLHEP@@QEBANAEBVHepBoost@2@@Z
	?howNear@HepRotationY@CLHEP@@QEBANAEBVHepLorentzRotation@2@@Z
	?howNear@HepRotationY@CLHEP@@QEBANAEBVHepRotation@2@@Z
	?howNear@HepRotationZ@CLHEP@@QEBANAEBV12@@Z
	?howNear@HepRotationZ@CLHEP@@QEBANAEBVHepBoost@2@@Z
	?howNear@HepRotationZ@CLHEP@@QEBANAEBVHepLorentzRotation@2@@Z
	?howNear@HepRotationZ@CLHEP@@QEBANAEBVHepRotation@2@@Z
	?howNearCM@HepLorentzVector@CLHEP@@QEBANAEBV12@@Z
	?howOrthogonal@Hep2Vector@CLHEP@@QEBANAEBV12@@Z
	?howOrthogonal@Hep3Vector@CLHEP@@QEBANAEBV12@@Z
	?howParallel@Hep2Vector@CLHEP@@QEBANAEBV12@@Z
	?howParallel@Hep3Vector@CLHEP@@QEBANAEBV12@@Z
	?howParallel@HepLorentzVector@CLHEP@@QEBANAEBV12@@Z
	?imbue@?$basic_filebuf@DU?$char_traits@D@std@@@std@@MEAAXAEBVlocale@2@@Z
	?invariantMass@HepLorentzVector@CLHEP@@QEBANAEBV12@@Z
	?inverse@Transform3D@HepGeom@@QEBA?AV12@XZ
	?inverseErf@HepStat@CLHEP@@SANN@Z
	?isIdentity@HepRotation@CLHEP@@QEBA_NXZ
	?isNear@Hep2Vector@CLHEP@@QEBA_NAEBV12@N@Z
	?isNear@Hep3Vector@CLHEP@@QEBA_NAEBV12@N@Z
	?isNear@HepAxisAngle@CLHEP@@QEBA_NAEBV12@N@Z
	?isNear@HepBoost@CLHEP@@QEBA_NAEBVHepLorentzRotation@2@N@Z
	?isNear@HepBoost@CLHEP@@QEBA_NAEBVHepRotation@2@N@Z
	?isNear@HepBoostX@CLHEP@@QEBA_NAEBVHepLorentzRotation@2@N@Z
	?isNear@HepBoostX@CLHEP@@QEBA_NAEBVHepRotation@2@N@Z
	?isNear@HepBoostY@CLHEP@@QEBA_NAEBVHepLorentzRotation@2@N@Z
	?isNear@HepBoostY@CLHEP@@QEBA_NAEBVHepRotation@2@N@Z
	?isNear@HepBoostZ@CLHEP@@QEBA_NAEBVHepLorentzRotation@2@N@Z
	?isNear@HepBoostZ@CLHEP@@QEBA_NAEBVHepRotation@2@N@Z
	?isNear@HepEulerAngles@CLHEP@@QEBA_NAEBV12@N@Z
	?isNear@HepLorentzRotation@CLHEP@@QEBA_NAEBV12@N@Z
	?isNear@HepLorentzRotation@CLHEP@@QEBA_NAEBVHepBoost@2@N@Z
	?isNear@HepLorentzRotation@CLHEP@@QEBA_NAEBVHepRotation@2@N@Z
	?isNear@HepLorentzVector@CLHEP@@QEBA_NAEBV12@N@Z
	?isNear@HepRotation@CLHEP@@QEBA_NAEBV12@N@Z
	?isNear@HepRotation@CLHEP@@QEBA_NAEBVHepBoost@2@N@Z
	?isNear@HepRotation@CLHEP@@QEBA_NAEBVHepLorentzRotation@2@N@Z
	?isNear@HepRotationX@CLHEP@@QEBA_NAEBV12@N@Z
	?isNear@HepRotationX@CLHEP@@QEBA_NAEBVHepBoost@2@N@Z
	?isNear@HepRotationX@CLHEP@@QEBA_NAEBVHepLorentzRotation@2@N@Z
	?isNear@HepRotationX@CLHEP@@QEBA_NAEBVHepRotation@2@N@Z
	?isNear@HepRotationY@CLHEP@@QEBA_NAEBV12@N@Z
	?isNear@HepRotationY@CLHEP@@QEBA_NAEBVHepBoost@2@N@Z
	?isNear@HepRotationY@CLHEP@@QEBA_NAEBVHepLorentzRotation@2@N@Z
	?isNear@HepRotationY@CLHEP@@QEBA_NAEBVHepRotation@2@N@Z
	?isNear@HepRotationZ@CLHEP@@QEBA_NAEBV12@N@Z
	?isNear@HepRotationZ@CLHEP@@QEBA_NAEBVHepBoost@2@N@Z
	?isNear@HepRotationZ@CLHEP@@QEBA_NAEBVHepLorentzRotation@2@N@Z
	?isNear@HepRotationZ@CLHEP@@QEBA_NAEBVHepRotation@2@N@Z
	?isNear@Transform3D@HepGeom@@QEBA_NAEBV12@N@Z
	?isNearCM@HepLorentzVector@CLHEP@@QEBA_NAEBV12@N@Z
	?isOrthogonal@Hep2Vector@CLHEP@@QEBA_NAEBV12@N@Z
	?isOrthogonal@Hep3Vector@CLHEP@@QEBA_NAEBV12@N@Z
	?isParallel@Hep2Vector@CLHEP@@QEBA_NAEBV12@N@Z
	?isParallel@Hep3Vector@CLHEP@@QEBA_NAEBV12@N@Z
	?isParallel@HepLorentzVector@CLHEP@@QEBA_NAEBV12@N@Z
	?iterate@MixMaxRng@CLHEP@@AEAANXZ
	?iterate_raw_vec@MixMaxRng@CLHEP@@AEAA_KPEA_K_K@Z
	?longs2double@DoubConv@CLHEP@@SANAEBV?$vector@KV?$allocator@K@std@@@std@@@Z
	?m@HepLorentzVector@CLHEP@@QEBANXZ
	?mantissa_bit_12@HepRandomEngine@CLHEP@@KANXZ
	?mantissa_bit_24@HepRandomEngine@CLHEP@@KANXZ
	?mapRandom@RandGeneral@CLHEP@@AEBANN@Z
	?matrixMultiplication@HepBoost@CLHEP@@IEBA?AVHepLorentzRotation@2@AEBUHepRep4x4@2@@Z
	?matrixMultiplication@HepBoost@CLHEP@@IEBA?AVHepLorentzRotation@2@AEBUHepRep4x4Symmetric@2@@Z
	?matrixMultiplication@HepLorentzRotation@CLHEP@@QEBA?AV12@AEBUHepRep4x4@2@@Z
	?minus@HepLorentzVector@CLHEP@@QEBANAEBVHep3Vector@2@@Z
	?modadd@MixMaxRng@CLHEP@@AEAA_K_K0@Z
	?name@DualRand@CLHEP@@UEBA?AV?$basic_string@DU?$char_traits@D@std@@V?$allocator@D@2@@std@@XZ
	?name@HepJamesRandom@CLHEP@@UEBA?AV?$basic_string@DU?$char_traits@D@std@@V?$allocator@D@2@@std@@XZ
	?name@HepRandom@CLHEP@@UEBA?AV?$basic_string@DU?$char_traits@D@std@@V?$allocator@D@2@@std@@XZ
	?name@MTwistEngine@CLHEP@@UEBA?AV?$basic_string@DU?$char_traits@D@std@@V?$allocator@D@2@@std@@XZ
	?name@MixMaxRng@CLHEP@@UEBA?AV?$basic_string@DU?$char_traits@D@std@@V?$allocator@D@2@@std@@XZ
	?name@NonRandomEngine@CLHEP@@UEBA?AV?$basic_string@DU?$char_traits@D@std@@V?$allocator@D@2@@std@@XZ
	?name@RandBinomial@CLHEP@@UEBA?AV?$basic_string@DU?$char_traits@D@std@@V?$allocator@D@2@@std@@XZ
	?name@RandBit@CLHEP@@UEBA?AV?$basic_string@DU?$char_traits@D@std@@V?$allocator@D@2@@std@@XZ
	?name@RandBreitWigner@CLHEP@@UEBA?AV?$basic_string@DU?$char_traits@D@std@@V?$allocator@D@2@@std@@XZ
	?name@RandChiSquare@CLHEP@@UEBA?AV?$basic_string@DU?$char_traits@D@std@@V?$allocator@D@2@@std@@XZ
	?name@RandExponential@CLHEP@@UEBA?AV?$basic_string@DU?$char_traits@D@std@@V?$allocator@D@2@@std@@XZ
	?name@RandFlat@CLHEP@@UEBA?AV?$basic_string@DU?$char_traits@D@std@@V?$allocator@D@2@@std@@XZ
	?name@RandGamma@CLHEP@@UEBA?AV?$basic_string@DU?$char_traits@D@std@@V?$allocator@D@2@@std@@XZ
	?name@RandGauss@CLHEP@@UEBA?AV?$basic_string@DU?$char_traits@D@std@@V?$allocator@D@2@@std@@XZ
	?name@RandGaussQ@CLHEP@@UEBA?AV?$basic_string@DU?$char_traits@D@std@@V?$allocator@D@2@@std@@XZ
	?name@RandGeneral@CLHEP@@UEBA?AV?$basic_string@DU?$char_traits@D@std@@V?$allocator@D@2@@std@@XZ
	?name@RandLandau@CLHEP@@UEBA?AV?$basic_string@DU?$char_traits@D@std@@V?$allocator@D@2@@std@@XZ
	?name@RandPoisson@CLHEP@@UEBA?AV?$basic_string@DU?$char_traits@D@std@@V?$allocator@D@2@@std@@XZ
	?name@RandPoissonQ@CLHEP@@UEBA?AV?$basic_string@DU?$char_traits@D@std@@V?$allocator@D@2@@std@@XZ
	?name@RandStudentT@CLHEP@@UEBA?AV?$basic_string@DU?$char_traits@D@std@@V?$allocator@D@2@@std@@XZ
	?name@RanecuEngine@CLHEP@@UEBA?AV?$basic_string@DU?$char_traits@D@std@@V?$allocator@D@2@@std@@XZ
	?name@Ranlux64Engine@CLHEP@@UEBA?AV?$basic_string@DU?$char_traits@D@std@@V?$allocator@D@2@@std@@XZ
	?name@RanluxEngine@CLHEP@@UEBA?AV?$basic_string@DU?$char_traits@D@std@@V?$allocator@D@2@@std@@XZ
	?name@RanshiEngine@CLHEP@@UEBA?AV?$basic_string@DU?$char_traits@D@std@@V?$allocator@D@2@@std@@XZ
	?nearlyTwoToMinus_54@HepRandomEngine@CLHEP@@KANXZ
	?negativeInfinity@Hep3Vector@CLHEP@@IEBANXZ
	?newEngine@EngineFactory@CLHEP@@SAPEAVHepRandomEngine@2@AEAV?$basic_istream@DU?$char_traits@D@std@@@std@@@Z
	?newEngine@EngineFactory@CLHEP@@SAPEAVHepRandomEngine@2@AEBV?$vector@KV?$allocator@K@std@@@std@@@Z
	?newEngine@HepRandomEngine@CLHEP@@SAPEAV12@AEAV?$basic_istream@DU?$char_traits@D@std@@@std@@@Z
	?newEngine@HepRandomEngine@CLHEP@@SAPEAV12@AEBV?$vector@KV?$allocator@K@std@@@std@@@Z
	?norm2@HepBoost@CLHEP@@QEBANXZ
	?norm2@HepLorentzRotation@CLHEP@@QEBANXZ
	?norm2@HepRotation@CLHEP@@QEBANXZ
	?norm2@HepRotationX@CLHEP@@QEBANXZ
	?norm2@HepRotationY@CLHEP@@QEBANXZ
	?norm2@HepRotationZ@CLHEP@@QEBANXZ
	?normal@RandGauss@CLHEP@@IEAANXZ
	?open@?$basic_filebuf@DU?$char_traits@D@std@@@std@@QEAAPEAV12@PEBDHH@Z
	?overflow@?$basic_filebuf@DU?$char_traits@D@std@@@std@@MEAAHH@Z
	?overflow@?$basic_stringbuf@DU?$char_traits@D@std@@V?$allocator@D@2@@std@@MEAAHH@Z
	?pbackfail@?$basic_filebuf@DU?$char_traits@D@std@@@std@@MEAAHH@Z
	?pbackfail@?$basic_stringbuf@DU?$char_traits@D@std@@V?$allocator@D@2@@std@@MEAAHH@Z
	?phi@HepRotation@CLHEP@@QEBANXZ
	?phi@HepRotationX@CLHEP@@QEBANXZ
	?phi@HepRotationY@CLHEP@@QEBANXZ
	?phi@HepRotationZ@CLHEP@@QEBANXZ
	?phiX@HepRotation@CLHEP@@QEBANXZ
	?phiX@HepRotationX@CLHEP@@QEBANXZ
	?phiX@HepRotationY@CLHEP@@QEBANXZ
	?phiX@HepRotationZ@CLHEP@@QEBANXZ
	?phiY@HepRotation@CLHEP@@QEBANXZ
	?phiY@HepRotationX@CLHEP@@QEBANXZ
	?phiY@HepRotationY@CLHEP@@QEBANXZ
	?phiY@HepRotationZ@CLHEP@@QEBANXZ
	?phiZ@HepRotation@CLHEP@@QEBANXZ
	?phiZ@HepRotationX@CLHEP@@QEBANXZ
	?phiZ@HepRotationY@CLHEP@@QEBANXZ
	?phiZ@HepRotationZ@CLHEP@@QEBANXZ
	?plus@HepLorentzVector@CLHEP@@QEBANAEBVHep3Vector@2@@Z
	?poissonDeviateQuick@RandPoissonQ@CLHEP@@CAJPEAVHepRandomEngine@2@N@Z
	?poissonDeviateQuick@RandPoissonQ@CLHEP@@CAJPEAVHepRandomEngine@2@NNNN@Z
	?poissonDeviateSmall@RandPoissonQ@CLHEP@@CAJPEAVHepRandomEngine@2@N@Z
	?polarAngle@Hep3Vector@CLHEP@@QEBANAEBV12@0@Z
	?polarAngle@Hep3Vector@CLHEP@@QEBANAEBV12@@Z
	?precalc@MixMaxRng@CLHEP@@AEAA_KXZ
	?prepareTable@RandGeneral@CLHEP@@AEAAXPEBN@Z
	?print@HepBoost@CLHEP@@QEBAAEAV?$basic_ostream@DU?$char_traits@D@std@@@std@@AEAV34@@Z
	?print@HepBoostX@CLHEP@@QEBAAEAV?$basic_ostream@DU?$char_traits@D@std@@@std@@AEAV34@@Z
	?print@HepBoostY@CLHEP@@QEBAAEAV?$basic_ostream@DU?$char_traits@D@std@@@std@@AEAV34@@Z
	?print@HepBoostZ@CLHEP@@QEBAAEAV?$basic_ostream@DU?$char_traits@D@std@@@std@@AEAV34@@Z
	?print@HepLorentzRotation@CLHEP@@QEBAAEAV?$basic_ostream@DU?$char_traits@D@std@@@std@@AEAV34@@Z
	?print@HepRotation@CLHEP@@QEBAAEAV?$basic_ostream@DU?$char_traits@D@std@@@std@@AEAV34@@Z
	?print@HepRotationX@CLHEP@@QEBAAEAV?$basic_ostream@DU?$char_traits@D@std@@@std@@AEAV34@@Z
	?print@HepRotationY@CLHEP@@QEBAAEAV?$basic_ostream@DU?$char_traits@D@std@@@std@@AEAV34@@Z
	?print@HepRotationZ@CLHEP@@QEBAAEAV?$basic_ostream@DU?$char_traits@D@std@@@std@@AEAV34@@Z
	?print_error@Evaluator@HepTool@@QEBAXXZ
	?print_state@MixMaxRng@CLHEP@@AEBAXXZ
	?project@Hep3Vector@CLHEP@@QEBA?AV12@AEBV12@@Z
	?pseudoRapidity@?$BasicVector3D@M@HepGeom@@QEBAMXZ
	?pseudoRapidity@?$BasicVector3D@N@HepGeom@@QEBANXZ
	?pseudoRapidity@Hep3Vector@CLHEP@@QEBANXZ
	?psi@HepRotation@CLHEP@@QEBANXZ
	?psi@HepRotationX@CLHEP@@QEBANXZ
	?psi@HepRotationY@CLHEP@@QEBANXZ
	?psi@HepRotationZ@CLHEP@@QEBANXZ
	?put@DualRand@CLHEP@@UEBA?AV?$vector@KV?$allocator@K@std@@@std@@XZ
	?put@DualRand@CLHEP@@UEBAAEAV?$basic_ostream@DU?$char_traits@D@std@@@std@@AEAV34@@Z
	?put@HepJamesRandom@CLHEP@@UEBA?AV?$vector@KV?$allocator@K@std@@@std@@XZ
	?put@HepJamesRandom@CLHEP@@UEBAAEAV?$basic_ostream@DU?$char_traits@D@std@@@std@@AEAV34@@Z
	?put@HepRandom@CLHEP@@UEBAAEAV?$basic_ostream@DU?$char_traits@D@std@@@std@@AEAV34@@Z
	?put@HepRandomEngine@CLHEP@@UEBA?AV?$vector@KV?$allocator@K@std@@@std@@XZ
	?put@HepRandomEngine@CLHEP@@UEBAAEAV?$basic_ostream@DU?$char_traits@D@std@@@std@@AEAV34@@Z
	?put@IntegerCong@DualRand@CLHEP@@QEBAXAEAV?$basic_ostream@DU?$char_traits@D@std@@@std@@@Z
	?put@IntegerCong@DualRand@CLHEP@@QEBAXAEAV?$vector@KV?$allocator@K@std@@@std@@@Z
	?put@MTwistEngine@CLHEP@@UEBA?AV?$vector@KV?$allocator@K@std@@@std@@XZ
	?put@MTwistEngine@CLHEP@@UEBAAEAV?$basic_ostream@DU?$char_traits@D@std@@@std@@AEAV34@@Z
	?put@MixMaxRng@CLHEP@@UEBA?AV?$vector@KV?$allocator@K@std@@@std@@XZ
	?put@MixMaxRng@CLHEP@@UEBAAEAV?$basic_ostream@DU?$char_traits@D@std@@@std@@AEAV34@@Z
	?put@NonRandomEngine@CLHEP@@UEBA?AV?$vector@KV?$allocator@K@std@@@std@@XZ
	?put@NonRandomEngine@CLHEP@@UEBAAEAV?$basic_ostream@DU?$char_traits@D@std@@@std@@AEAV34@@Z
	?put@RandBinomial@CLHEP@@UEBAAEAV?$basic_ostream@DU?$char_traits@D@std@@@std@@AEAV34@@Z
	?put@RandBit@CLHEP@@UEBAAEAV?$basic_ostream@DU?$char_traits@D@std@@@std@@AEAV34@@Z
	?put@RandBreitWigner@CLHEP@@UEBAAEAV?$basic_ostream@DU?$char_traits@D@std@@@std@@AEAV34@@Z
	?put@RandChiSquare@CLHEP@@UEBAAEAV?$basic_ostream@DU?$char_traits@D@std@@@std@@AEAV34@@Z
	?put@RandExponential@CLHEP@@UEBAAEAV?$basic_ostream@DU?$char_traits@D@std@@@std@@AEAV34@@Z
	?put@RandFlat@CLHEP@@UEBAAEAV?$basic_ostream@DU?$char_traits@D@std@@@std@@AEAV34@@Z
	?put@RandGamma@CLHEP@@UEBAAEAV?$basic_ostream@DU?$char_traits@D@std@@@std@@AEAV34@@Z
	?put@RandGauss@CLHEP@@UEBAAEAV?$basic_ostream@DU?$char_traits@D@std@@@std@@AEAV34@@Z
	?put@RandGaussQ@CLHEP@@UEBAAEAV?$basic_ostream@DU?$char_traits@D@std@@@std@@AEAV34@@Z
	?put@RandGeneral@CLHEP@@UEBAAEAV?$basic_ostream@DU?$char_traits@D@std@@@std@@AEAV34@@Z
	?put@RandLandau@CLHEP@@UEBAAEAV?$basic_ostream@DU?$char_traits@D@std@@@std@@AEAV34@@Z
	?put@RandPoisson@CLHEP@@UEBAAEAV?$basic_ostream@DU?$char_traits@D@std@@@std@@AEAV34@@Z
	?put@RandPoissonQ@CLHEP@@UEBAAEAV?$basic_ostream@DU?$char_traits@D@std@@@std@@AEAV34@@Z
	?put@RandStudentT@CLHEP@@UEBAAEAV?$basic_ostream@DU?$char_traits@D@std@@@std@@AEAV34@@Z
	?put@RanecuEngine@CLHEP@@UEBA?AV?$vector@KV?$allocator@K@std@@@std@@XZ
	?put@RanecuEngine@CLHEP@@UEBAAEAV?$basic_ostream@DU?$char_traits@D@std@@@std@@AEAV34@@Z
	?put@Ranlux64Engine@CLHEP@@UEBA?AV?$vector@KV?$allocator@K@std@@@std@@XZ
	?put@Ranlux64Engine@CLHEP@@UEBAAEAV?$basic_ostream@DU?$char_traits@D@std@@@std@@AEAV34@@Z
	?put@RanluxEngine@CLHEP@@UEBA?AV?$vector@KV?$allocator@K@std@@@std@@XZ
	?put@RanluxEngine@CLHEP@@UEBAAEAV?$basic_ostream@DU?$char_traits@D@std@@@std@@AEAV34@@Z
	?put@RanshiEngine@CLHEP@@UEBA?AV?$vector@KV?$allocator@K@std@@@std@@XZ
	?put@RanshiEngine@CLHEP@@UEBAAEAV?$basic_ostream@DU?$char_traits@D@std@@@std@@AEAV34@@Z
	?put@Tausworthe@DualRand@CLHEP@@QEBAXAEAV?$basic_ostream@DU?$char_traits@D@std@@@std@@@Z
	?put@Tausworthe@DualRand@CLHEP@@QEBAXAEAV?$vector@KV?$allocator@K@std@@@std@@@Z
	?rapidity@Hep3Vector@CLHEP@@QEBANAEBV12@@Z
	?rapidity@Hep3Vector@CLHEP@@QEBANXZ
	?rapidity@HepLorentzVector@CLHEP@@QEBANAEBVHep3Vector@2@@Z
	?rapidity@HepLorentzVector@CLHEP@@QEBANXZ
	?rectify@HepBoost@CLHEP@@QEAAXXZ
	?rectify@HepBoostX@CLHEP@@QEAAXXZ
	?rectify@HepBoostY@CLHEP@@QEAAXXZ
	?rectify@HepBoostZ@CLHEP@@QEAAXXZ
	?rectify@HepLorentzRotation@CLHEP@@QEAAXXZ
	?rectify@HepRotation@CLHEP@@QEAAXXZ
	?removeFunction@Evaluator@HepTool@@QEAAXPEBDH@Z
	?removeVariable@Evaluator@HepTool@@QEAAXPEBD@Z
	?rep4x4@HepBoostX@CLHEP@@QEBA?AUHepRep4x4@2@XZ
	?rep4x4@HepBoostY@CLHEP@@QEBA?AUHepRep4x4@2@XZ
	?rep4x4@HepBoostZ@CLHEP@@QEBA?AUHepRep4x4@2@XZ
	?rep4x4Symmetric@HepBoostX@CLHEP@@QEBA?AUHepRep4x4Symmetric@2@XZ
	?rep4x4Symmetric@HepBoostY@CLHEP@@QEBA?AUHepRep4x4Symmetric@2@XZ
	?rep4x4Symmetric@HepBoostZ@CLHEP@@QEBA?AUHepRep4x4Symmetric@2@XZ
	?resize@?$hash_map@Ustring@@UItem@@@@QEAAXI@Z
	?resize@?$vector@NV?$allocator@N@std@@@std@@QEAAX_K@Z
	?rest4Vector@HepLorentzVector@CLHEP@@QEBA?AV12@XZ
	?restore@StaticRandomStates@CLHEP@@SAAEAV?$basic_istream@DU?$char_traits@D@std@@@std@@AEAV34@@Z
	?restoreDistState@RandFlat@CLHEP@@SAAEAV?$basic_istream@DU?$char_traits@D@std@@@std@@AEAV34@@Z
	?restoreDistState@RandGauss@CLHEP@@SAAEAV?$basic_istream@DU?$char_traits@D@std@@@std@@AEAV34@@Z
	?restoreEngineStatus@HepRandom@CLHEP@@SAXQEBD@Z
	?restoreEngineStatus@RandFlat@CLHEP@@SAXQEBD@Z
	?restoreEngineStatus@RandGauss@CLHEP@@SAXQEBD@Z
	?restoreFullState@HepRandom@CLHEP@@SAAEAV?$basic_istream@DU?$char_traits@D@std@@@std@@AEAV34@@Z
	?restoreFullState@RandFlat@CLHEP@@SAAEAV?$basic_istream@DU?$char_traits@D@std@@@std@@AEAV34@@Z
	?restoreFullState@RandGauss@CLHEP@@SAAEAV?$basic_istream@DU?$char_traits@D@std@@@std@@AEAV34@@Z
	?restoreStaticRandomStates@HepRandom@CLHEP@@SAAEAV?$basic_istream@DU?$char_traits@D@std@@@std@@AEAV34@@Z
	?restoreStatus@DualRand@CLHEP@@UEAAXQEBD@Z
	?restoreStatus@HepJamesRandom@CLHEP@@UEAAXQEBD@Z
	?restoreStatus@MTwistEngine@CLHEP@@UEAAXQEBD@Z
	?restoreStatus@MixMaxRng@CLHEP@@UEAAXQEBD@Z
	?restoreStatus@NonRandomEngine@CLHEP@@EEAAXPEBD@Z
	?restoreStatus@RanecuEngine@CLHEP@@UEAAXQEBD@Z
	?restoreStatus@Ranlux64Engine@CLHEP@@UEAAXQEBD@Z
	?restoreStatus@RanluxEngine@CLHEP@@UEAAXQEBD@Z
	?restoreStatus@RanshiEngine@CLHEP@@UEAAXQEBD@Z
	?rng_get_N@MixMaxRng@CLHEP@@CAHXZ
	?rotate@?$BasicVector3D@M@HepGeom@@QEAAAEAV12@MAEBV12@@Z
	?rotate@?$BasicVector3D@N@HepGeom@@QEAAAEAV12@NAEBV12@@Z
	?rotate@Hep2Vector@CLHEP@@QEAAXN@Z
	?rotate@Hep3Vector@CLHEP@@QEAAAEAV12@AEBV12@N@Z
	?rotate@Hep3Vector@CLHEP@@QEAAAEAV12@AEBVHepAxisAngle@2@@Z
	?rotate@Hep3Vector@CLHEP@@QEAAAEAV12@AEBVHepEulerAngles@2@@Z
	?rotate@Hep3Vector@CLHEP@@QEAAAEAV12@NAEBV12@@Z
	?rotate@Hep3Vector@CLHEP@@QEAAAEAV12@NNN@Z
	?rotate@HepLorentzVector@CLHEP@@QEAAAEAV12@AEBVHep3Vector@2@N@Z
	?rotate@HepLorentzVector@CLHEP@@QEAAAEAV12@AEBVHepAxisAngle@2@@Z
	?rotate@HepLorentzVector@CLHEP@@QEAAAEAV12@AEBVHepEulerAngles@2@@Z
	?rotate@HepLorentzVector@CLHEP@@QEAAAEAV12@NAEBVHep3Vector@2@@Z
	?rotate@HepLorentzVector@CLHEP@@QEAAAEAV12@NNN@Z
	?rotate@HepRotation@CLHEP@@QEAAAEAV12@NAEBVHep3Vector@2@@Z
	?rotateAxes@HepRotation@CLHEP@@QEAAAEAV12@AEBVHep3Vector@2@00@Z
	?rotateUz@Hep3Vector@CLHEP@@QEAAAEAV12@AEBV12@@Z
	?rotateUz@HepLorentzVector@CLHEP@@QEAAAEAV12@AEBVHep3Vector@2@@Z
	?rotateX@?$BasicVector3D@M@HepGeom@@QEAAAEAV12@M@Z
	?rotateX@?$BasicVector3D@N@HepGeom@@QEAAAEAV12@N@Z
	?rotateX@Hep3Vector@CLHEP@@QEAAAEAV12@N@Z
	?rotateX@HepLorentzRotation@CLHEP@@QEAAAEAV12@N@Z
	?rotateX@HepLorentzVector@CLHEP@@QEAAAEAV12@N@Z
	?rotateX@HepRotation@CLHEP@@QEAAAEAV12@N@Z
	?rotateY@?$BasicVector3D@M@HepGeom@@QEAAAEAV12@M@Z
	?rotateY@?$BasicVector3D@N@HepGeom@@QEAAAEAV12@N@Z
	?rotateY@Hep3Vector@CLHEP@@QEAAAEAV12@N@Z
	?rotateY@HepLorentzRotation@CLHEP@@QEAAAEAV12@N@Z
	?rotateY@HepLorentzVector@CLHEP@@QEAAAEAV12@N@Z
	?rotateY@HepRotation@CLHEP@@QEAAAEAV12@N@Z
	?rotateZ@?$BasicVector3D@M@HepGeom@@QEAAAEAV12@M@Z
	?rotateZ@?$BasicVector3D@N@HepGeom@@QEAAAEAV12@N@Z
	?rotateZ@Hep3Vector@CLHEP@@QEAAAEAV12@N@Z
	?rotateZ@HepLorentzRotation@CLHEP@@QEAAAEAV12@N@Z
	?rotateZ@HepLorentzVector@CLHEP@@QEAAAEAV12@N@Z
	?rotateZ@HepRotation@CLHEP@@QEAAAEAV12@N@Z
	?rotationOf@CLHEP@@YA?AVHep3Vector@1@AEBV21@0N@Z
	?rotationOf@CLHEP@@YA?AVHep3Vector@1@AEBV21@AEBVHepAxisAngle@1@@Z
	?rotationOf@CLHEP@@YA?AVHep3Vector@1@AEBV21@AEBVHepEulerAngles@1@@Z
	?rotationOf@CLHEP@@YA?AVHep3Vector@1@AEBV21@NNN@Z
	?rotationOf@CLHEP@@YA?AVHepLorentzVector@1@AEBV21@AEBVHep3Vector@1@N@Z
	?rotationOf@CLHEP@@YA?AVHepLorentzVector@1@AEBV21@AEBVHepAxisAngle@1@@Z
	?rotationOf@CLHEP@@YA?AVHepLorentzVector@1@AEBV21@AEBVHepEulerAngles@1@@Z
	?rotationOf@CLHEP@@YA?AVHepLorentzVector@1@AEBV21@NNN@Z
	?rotationXOf@CLHEP@@YA?AVHep3Vector@1@AEBV21@N@Z
	?rotationXOf@CLHEP@@YA?AVHepLorentzVector@1@AEBV21@N@Z
	?rotationYOf@CLHEP@@YA?AVHep3Vector@1@AEBV21@N@Z
	?rotationYOf@CLHEP@@YA?AVHepLorentzVector@1@AEBV21@N@Z
	?rotationZOf@CLHEP@@YA?AVHep3Vector@1@AEBV21@N@Z
	?rotationZOf@CLHEP@@YA?AVHepLorentzVector@1@AEBV21@N@Z
	?save@StaticRandomStates@CLHEP@@SAAEAV?$basic_ostream@DU?$char_traits@D@std@@@std@@AEAV34@@Z
	?saveDistState@RandFlat@CLHEP@@SAAEAV?$basic_ostream@DU?$char_traits@D@std@@@std@@AEAV34@@Z
	?saveDistState@RandGauss@CLHEP@@SAAEAV?$basic_ostream@DU?$char_traits@D@std@@@std@@AEAV34@@Z
	?saveEngineStatus@HepRandom@CLHEP@@SAXQEBD@Z
	?saveEngineStatus@RandFlat@CLHEP@@SAXQEBD@Z
	?saveEngineStatus@RandGauss@CLHEP@@SAXQEBD@Z
	?saveFullState@HepRandom@CLHEP@@SAAEAV?$basic_ostream@DU?$char_traits@D@std@@@std@@AEAV34@@Z
	?saveFullState@RandFlat@CLHEP@@SAAEAV?$basic_ostream@DU?$char_traits@D@std@@@std@@AEAV34@@Z
	?saveFullState@RandGauss@CLHEP@@SAAEAV?$basic_ostream@DU?$char_traits@D@std@@@std@@AEAV34@@Z
	?saveStaticRandomStates@HepRandom@CLHEP@@SAAEAV?$basic_ostream@DU?$char_traits@D@std@@@std@@AEAV34@@Z
	?saveStatus@DualRand@CLHEP@@UEBAXQEBD@Z
	?saveStatus@HepJamesRandom@CLHEP@@UEBAXQEBD@Z
	?saveStatus@MTwistEngine@CLHEP@@UEBAXQEBD@Z
	?saveStatus@MixMaxRng@CLHEP@@UEBAXQEBD@Z
	?saveStatus@NonRandomEngine@CLHEP@@EEBAXPEBD@Z
	?saveStatus@RanecuEngine@CLHEP@@UEBAXQEBD@Z
	?saveStatus@Ranlux64Engine@CLHEP@@UEBAXQEBD@Z
	?saveStatus@RanluxEngine@CLHEP@@UEBAXQEBD@Z
	?saveStatus@RanshiEngine@CLHEP@@UEBAXQEBD@Z
	?seed_spbox@MixMaxRng@CLHEP@@AEAAX_K@Z
	?seed_uniquestream@MixMaxRng@CLHEP@@AEAAXKKKK@Z
	?seed_vielbein@MixMaxRng@CLHEP@@AEAAXI@Z
	?seekoff@?$basic_filebuf@DU?$char_traits@D@std@@@std@@MEAA?AV?$fpos@U_Mbstatet@@@2@_JHH@Z
	?seekoff@?$basic_stringbuf@DU?$char_traits@D@std@@V?$allocator@D@2@@std@@MEAA?AV?$fpos@U_Mbstatet@@@2@_JHH@Z
	?seekpos@?$basic_filebuf@DU?$char_traits@D@std@@@std@@MEAA?AV?$fpos@U_Mbstatet@@@2@V32@H@Z
	?seekpos@?$basic_stringbuf@DU?$char_traits@D@std@@V?$allocator@D@2@@std@@MEAA?AV?$fpos@U_Mbstatet@@@2@V32@H@Z
	?set@HepBoost@CLHEP@@QEAAAEAV12@AEBUHepRep4x4Symmetric@2@@Z
	?set@HepBoost@CLHEP@@QEAAAEAV12@AEBVHep3Vector@2@@Z
	?set@HepBoost@CLHEP@@QEAAAEAV12@NNN@Z
	?set@HepBoost@CLHEP@@QEAAAEAV12@VHep3Vector@2@N@Z
	?set@HepBoostX@CLHEP@@QEAAAEAV12@N@Z
	?set@HepBoostY@CLHEP@@QEAAAEAV12@N@Z
	?set@HepBoostZ@CLHEP@@QEAAAEAV12@N@Z
	?set@HepLorentzRotation@CLHEP@@QEAAAEAV12@AEBVHepBoost@2@AEBVHepRotation@2@@Z
	?set@HepLorentzRotation@CLHEP@@QEAAAEAV12@AEBVHepLorentzVector@2@000@Z
	?set@HepLorentzRotation@CLHEP@@QEAAAEAV12@AEBVHepRotation@2@AEBVHepBoost@2@@Z
	?set@HepLorentzRotation@CLHEP@@QEAAAEAV12@NNN@Z
	?set@HepRotation@CLHEP@@QEAAAEAV12@AEBVHep3Vector@2@00@Z
	?set@HepRotation@CLHEP@@QEAAAEAV12@AEBVHep3Vector@2@N@Z
	?set@HepRotation@CLHEP@@QEAAAEAV12@AEBVHepAxisAngle@2@@Z
	?set@HepRotation@CLHEP@@QEAAAEAV12@AEBVHepEulerAngles@2@@Z
	?set@HepRotation@CLHEP@@QEAAAEAV12@NNN@Z
	?set@HepRotationX@CLHEP@@QEAAAEAV12@N@Z
	?set@HepRotationY@CLHEP@@QEAAAEAV12@N@Z
	?set@HepRotationZ@CLHEP@@QEAAAEAV12@N@Z
	?setArbitrarily@HepRotation@CLHEP@@AEBAXAEBVHep3Vector@2@AEAV32@11@Z
	?setAxis@HepRotation@CLHEP@@QEAAXAEBVHep3Vector@2@@Z
	?setCols@HepRotation@CLHEP@@AEBA_NAEBVHep3Vector@2@00NAEAV32@11@Z
	?setCylEta@Hep3Vector@CLHEP@@QEAAXN@Z
	?setCylTheta@Hep3Vector@CLHEP@@QEAAXN@Z
	?setCylindrical@Hep3Vector@CLHEP@@IEAAXNNN@Z
	?setDelta@HepRotation@CLHEP@@QEAAXN@Z
	?setDelta@HepRotationX@CLHEP@@QEAAXN@Z
	?setDelta@HepRotationY@CLHEP@@QEAAXN@Z
	?setDelta@HepRotationZ@CLHEP@@QEAAXN@Z
	?setEta@?$BasicVector3D@M@HepGeom@@QEAAXM@Z
	?setEta@?$BasicVector3D@N@HepGeom@@QEAAXN@Z
	?setEta@Hep3Vector@CLHEP@@QEAAXN@Z
	?setFlag@RandGauss@CLHEP@@SAX_N@Z
	?setFunction@Evaluator@HepTool@@QEAAXPEBDP6ANN@Z@Z
	?setFunction@Evaluator@HepTool@@QEAAXPEBDP6ANNN@Z@Z
	?setFunction@Evaluator@HepTool@@QEAAXPEBDP6ANNNN@Z@Z
	?setFunction@Evaluator@HepTool@@QEAAXPEBDP6ANNNNN@Z@Z
	?setFunction@Evaluator@HepTool@@QEAAXPEBDP6ANNNNNN@Z@Z
	?setFunction@Evaluator@HepTool@@QEAAXPEBDP6ANXZ@Z
	?setIndex@RanecuEngine@CLHEP@@QEAAXJ@Z
	?setMag@Hep3Vector@CLHEP@@QEAAXN@Z
	?setMetric@HepLorentzVector@CLHEP@@SA?AW4ZMpvMetric_t@2@W432@@Z
	?setNextRandom@NonRandomEngine@CLHEP@@QEAAXN@Z
	?setPhi@HepRotation@CLHEP@@QEAAXN@Z
	?setPsi@HepRotation@CLHEP@@QEAAXN@Z
	?setRandomInterval@NonRandomEngine@CLHEP@@QEAAXN@Z
	?setRandomSequence@NonRandomEngine@CLHEP@@QEAAXPEANH@Z
	?setRhoPhiEta@Hep3Vector@CLHEP@@QEAAXNNN@Z
	?setRhoPhiTheta@Hep3Vector@CLHEP@@QEAAXNNN@Z
	?setRows@HepLorentzRotation@CLHEP@@QEAAAEAV12@AEBVHepLorentzVector@2@000@Z
	?setRows@HepRotation@CLHEP@@QEAAAEAV12@AEBVHep3Vector@2@00@Z
	?setSeed@DualRand@CLHEP@@UEAAXJH@Z
	?setSeed@HepJamesRandom@CLHEP@@UEAAXJH@Z
	?setSeed@MTwistEngine@CLHEP@@UEAAXJH@Z
	?setSeed@MixMaxRng@CLHEP@@UEAAXJH@Z
	?setSeed@NonRandomEngine@CLHEP@@EEAAXJH@Z
	?setSeed@RanecuEngine@CLHEP@@UEAAXJH@Z
	?setSeed@Ranlux64Engine@CLHEP@@UEAAXJH@Z
	?setSeed@RanluxEngine@CLHEP@@UEAAXJH@Z
	?setSeed@RanshiEngine@CLHEP@@UEAAXJH@Z
	?setSeeds@DualRand@CLHEP@@UEAAXPEBJH@Z
	?setSeeds@HepJamesRandom@CLHEP@@UEAAXPEBJH@Z
	?setSeeds@MTwistEngine@CLHEP@@UEAAXPEBJH@Z
	?setSeeds@MixMaxRng@CLHEP@@UEAAXPEBJH@Z
	?setSeeds@NonRandomEngine@CLHEP@@EEAAXPEBJH@Z
	?setSeeds@RanecuEngine@CLHEP@@UEAAXPEBJH@Z
	?setSeeds@Ranlux64Engine@CLHEP@@UEAAXPEBJH@Z
	?setSeeds@RanluxEngine@CLHEP@@UEAAXPEBJH@Z
	?setSeeds@RanshiEngine@CLHEP@@UEAAXPEBJH@Z
	?setSpherical@Hep3Vector@CLHEP@@IEAAXNNN@Z
	?setStdMath@Evaluator@HepTool@@QEAAXXZ
	?setSystemOfUnits@Evaluator@HepTool@@QEAAXNNNNNNN@Z
	?setTheEngine@HepRandom@CLHEP@@SAXPEAVHepRandomEngine@2@@Z
	?setTheSeed@HepRandom@CLHEP@@SAXJH@Z
	?setTheSeeds@HepRandom@CLHEP@@SAXPEBJH@Z
	?setTheta@HepRotation@CLHEP@@QEAAXN@Z
	?setTolerance@Hep2Vector@CLHEP@@SANN@Z
	?setTolerance@Hep3Vector@CLHEP@@SANN@Z
	?setTolerance@Hep4RotationInterface@CLHEP@@SANN@Z
	?setTolerance@HepLorentzVector@CLHEP@@SANN@Z
	?setVal@RandGauss@CLHEP@@KAXN@Z
	?setVariable@Evaluator@HepTool@@QEAAXPEBD0@Z
	?setVariable@Evaluator@HepTool@@QEAAXPEBDN@Z
	?setbuf@?$basic_filebuf@DU?$char_traits@D@std@@@std@@MEAAPEAV?$basic_streambuf@DU?$char_traits@D@std@@@2@PEAD_J@Z
	?setupForDefaultMu@RandPoissonQ@CLHEP@@AEAAXXZ
	?shoot@RandBinomial@CLHEP@@SANJN@Z
	?shoot@RandBinomial@CLHEP@@SANPEAVHepRandomEngine@2@JN@Z
	?shoot@RandBreitWigner@CLHEP@@SANNN@Z
	?shoot@RandBreitWigner@CLHEP@@SANNNN@Z
	?shoot@RandBreitWigner@CLHEP@@SANPEAVHepRandomEngine@2@NN@Z
	?shoot@RandBreitWigner@CLHEP@@SANPEAVHepRandomEngine@2@NNN@Z
	?shoot@RandChiSquare@CLHEP@@SANN@Z
	?shoot@RandChiSquare@CLHEP@@SANPEAVHepRandomEngine@2@N@Z
	?shoot@RandExponential@CLHEP@@SANN@Z
	?shoot@RandExponential@CLHEP@@SANXZ
	?shoot@RandFlat@CLHEP@@SANXZ
	?shoot@RandGamma@CLHEP@@SANNN@Z
	?shoot@RandGamma@CLHEP@@SANPEAVHepRandomEngine@2@NN@Z
	?shoot@RandGauss@CLHEP@@SANPEAVHepRandomEngine@2@@Z
	?shoot@RandGauss@CLHEP@@SANXZ
	?shoot@RandPoisson@CLHEP@@SAJN@Z
	?shoot@RandPoisson@CLHEP@@SAJPEAVHepRandomEngine@2@N@Z
	?shoot@RandPoissonQ@CLHEP@@SAJN@Z
	?shoot@RandPoissonQ@CLHEP@@SAJPEAVHepRandomEngine@2@N@Z
	?shoot@RandStudentT@CLHEP@@SANN@Z
	?shoot@RandStudentT@CLHEP@@SANPEAVHepRandomEngine@2@N@Z
	?shootArray@RandBinomial@CLHEP@@SAXHPEANJN@Z
	?shootArray@RandBinomial@CLHEP@@SAXPEAVHepRandomEngine@2@HPEANJN@Z
	?shootArray@RandBreitWigner@CLHEP@@SAXHPEAN@Z
	?shootArray@RandBreitWigner@CLHEP@@SAXHPEANNN@Z
	?shootArray@RandBreitWigner@CLHEP@@SAXHPEANNNN@Z
	?shootArray@RandBreitWigner@CLHEP@@SAXPEAVHepRandomEngine@2@HPEAN@Z
	?shootArray@RandBreitWigner@CLHEP@@SAXPEAVHepRandomEngine@2@HPEANNN@Z
	?shootArray@RandBreitWigner@CLHEP@@SAXPEAVHepRandomEngine@2@HPEANNNN@Z
	?shootArray@RandChiSquare@CLHEP@@SAXHPEANN@Z
	?shootArray@RandChiSquare@CLHEP@@SAXPEAVHepRandomEngine@2@HPEANN@Z
	?shootArray@RandExponential@CLHEP@@SAXHPEANN@Z
	?shootArray@RandExponential@CLHEP@@SAXPEAVHepRandomEngine@2@HPEANN@Z
	?shootArray@RandFlat@CLHEP@@SAXHPEAN@Z
	?shootArray@RandFlat@CLHEP@@SAXHPEANNN@Z
	?shootArray@RandFlat@CLHEP@@SAXPEAVHepRandomEngine@2@HPEANNN@Z
	?shootArray@RandGamma@CLHEP@@SAXHPEANNN@Z
	?shootArray@RandGamma@CLHEP@@SAXPEAVHepRandomEngine@2@HPEANNN@Z
	?shootArray@RandGauss@CLHEP@@SAXHPEANNN@Z
	?shootArray@RandGauss@CLHEP@@SAXPEAVHepRandomEngine@2@HPEANNN@Z
	?shootArray@RandGaussQ@CLHEP@@SAXHPEANNN@Z
	?shootArray@RandGaussQ@CLHEP@@SAXPEAVHepRandomEngine@2@HPEANNN@Z
	?shootArray@RandGeneral@CLHEP@@QEAAXPEAVHepRandomEngine@2@HPEAN@Z
	?shootArray@RandLandau@CLHEP@@SAXHPEAN@Z
	?shootArray@RandLandau@CLHEP@@SAXPEAVHepRandomEngine@2@HPEAN@Z
	?shootArray@RandPoisson@CLHEP@@SAXHPEAJN@Z
	?shootArray@RandPoisson@CLHEP@@SAXPEAVHepRandomEngine@2@HPEAJN@Z
	?shootArray@RandPoissonQ@CLHEP@@SAXHPEAJN@Z
	?shootArray@RandStudentT@CLHEP@@SAXHPEANN@Z
	?shootArray@RandStudentT@CLHEP@@SAXPEAVHepRandomEngine@2@HPEANN@Z
	?shootM2@RandBreitWigner@CLHEP@@SANNN@Z
	?shootM2@RandBreitWigner@CLHEP@@SANNNN@Z
	?shootM2@RandBreitWigner@CLHEP@@SANPEAVHepRandomEngine@2@NN@Z
	?shootM2@RandBreitWigner@CLHEP@@SANPEAVHepRandomEngine@2@NNN@Z
	?showEngineStatus@HepRandom@CLHEP@@SAXXZ
	?showStatus@DualRand@CLHEP@@UEBAXXZ
	?showStatus@HepJamesRandom@CLHEP@@UEBAXXZ
	?showStatus@MTwistEngine@CLHEP@@UEBAXXZ
	?showStatus@MixMaxRng@CLHEP@@UEBAXXZ
	?showStatus@NonRandomEngine@CLHEP@@EEBAXXZ
	?showStatus@RanecuEngine@CLHEP@@UEBAXXZ
	?showStatus@Ranlux64Engine@CLHEP@@UEBAXXZ
	?showStatus@RanluxEngine@CLHEP@@UEBAXXZ
	?showStatus@RanshiEngine@CLHEP@@UEBAXXZ
	?status@Evaluator@HepTool@@QEBAHXZ
	?sync@?$basic_filebuf@DU?$char_traits@D@std@@@std@@MEAAHXZ
	?theta@HepRotation@CLHEP@@QEBANXZ
	?theta@HepRotationX@CLHEP@@QEBANXZ
	?theta@HepRotationY@CLHEP@@QEBANXZ
	?theta@HepRotationZ@CLHEP@@QEBANXZ
	?thetaX@HepRotation@CLHEP@@QEBANXZ
	?thetaX@HepRotationX@CLHEP@@QEBANXZ
	?thetaX@HepRotationY@CLHEP@@QEBANXZ
	?thetaX@HepRotationZ@CLHEP@@QEBANXZ
	?thetaY@HepRotation@CLHEP@@QEBANXZ
	?thetaY@HepRotationX@CLHEP@@QEBANXZ
	?thetaY@HepRotationY@CLHEP@@QEBANXZ
	?thetaY@HepRotationZ@CLHEP@@QEBANXZ
	?thetaZ@HepRotation@CLHEP@@QEBANXZ
	?thetaZ@HepRotationX@CLHEP@@QEBANXZ
	?thetaZ@HepRotationY@CLHEP@@QEBANXZ
	?thetaZ@HepRotationZ@CLHEP@@QEBANXZ
	?transform@?$Normal3D@M@HepGeom@@QEAAAEAV12@AEBVTransform3D@2@@Z
	?transform@?$Normal3D@N@HepGeom@@QEAAAEAV12@AEBVTransform3D@2@@Z
	?transform@?$Point3D@M@HepGeom@@QEAAAEAV12@AEBVTransform3D@2@@Z
	?transform@?$Point3D@N@HepGeom@@QEAAAEAV12@AEBVTransform3D@2@@Z
	?transform@?$Vector3D@M@HepGeom@@QEAAAEAV12@AEBVTransform3D@2@@Z
	?transform@?$Vector3D@N@HepGeom@@QEAAAEAV12@AEBVTransform3D@2@@Z
	?transform@Hep3Vector@CLHEP@@QEAAAEAV12@AEBVHepRotation@2@@Z
	?transform@HepLorentzVector@CLHEP@@QEAAAEAV12@AEBVHepLorentzRotation@2@@Z
	?transform@HepRotation@CLHEP@@QEAAAEAV12@AEBV12@@Z
	?transform@RandLandau@CLHEP@@KANN@Z
	?transformQuick@RandGaussQ@CLHEP@@KANN@Z
	?transformSmall@CLHEP@@YANN@Z
	?transformSmall@RandGaussQ@CLHEP@@KANN@Z
	?twoToMinus_32@HepRandomEngine@CLHEP@@KANXZ
	?twoToMinus_48@HepRandomEngine@CLHEP@@KANXZ
	?uflow@?$basic_filebuf@DU?$char_traits@D@std@@@std@@MEAAHXZ
	?underflow@?$basic_filebuf@DU?$char_traits@D@std@@@std@@MEAAHXZ
	?underflow@?$basic_stringbuf@DU?$char_traits@D@std@@V?$allocator@D@2@@std@@MEAAHXZ
	?unit@?$BasicVector3D@N@HepGeom@@QEBA?AV12@XZ
	?unit@Hep3Vector@CLHEP@@QEBA?AV12@XZ
	?update@Ranlux64Engine@CLHEP@@AEAAXXZ
	?useFlatDistribution@RandGeneral@CLHEP@@AEAAXXZ
	?vectorMultiplication@HepLorentzRotation@CLHEP@@QEBA?AVHepLorentzVector@2@AEBV32@@Z
	?what@DoubConvException@CLHEP@@UEBAPEBDXZ
	?what@exception@std@@UEBAPEBDXZ
	?xsgetn@?$basic_filebuf@DU?$char_traits@D@std@@@std@@MEAA_JPEAD_J@Z
	?xsputn@?$basic_filebuf@DU?$char_traits@D@std@@@std@@MEAA_JPEBD_J@Z
	__local_stdio_printf_options
	__local_stdio_scanf_options
	fprintf
	fscanf
