EXPORTS 
	??_R0?AV?$_Iosb@H@std@@@8 	 DATA
	??_R0?AV?$basic_filebuf@DU?$char_traits@D@std@@@std@@@8 	 DATA
	??_R0?AV?$basic_ifstream@DU?$char_traits@D@std@@@std@@@8 	 DATA
	??_R0?AV?$basic_ios@DU?$char_traits@D@std@@@std@@@8 	 DATA
	??_R0?AV?$basic_istream@DU?$char_traits@D@std@@@std@@@8 	 DATA
	??_R0?AV?$basic_istringstream@DU?$char_traits@D@std@@V?$allocator@D@2@@std@@@8 	 DATA
	??_R0?AV?$basic_streambuf@DU?$char_traits@D@std@@@std@@@8 	 DATA
	??_R0?AV?$basic_stringbuf@DU?$char_traits@D@std@@V?$allocator@D@2@@std@@@8 	 DATA
	??_R0?AVG4InteractorMessenger@@@8 	 DATA
	??_R0?AVG4UIGAG@@@8 	 DATA
	??_R0?AVG4UIWin32@@@8 	 DATA
	??_R0?AVG4UIcsh@@@8 	 DATA
	??_R0?AVG4UImessenger@@@8 	 DATA
	??_R0?AVG4UIsession@@@8 	 DATA
	??_R0?AVG4UIterminal@@@8 	 DATA
	??_R0?AVG4VBasicShell@@@8 	 DATA
	??_R0?AVG4VInteractiveSession@@@8 	 DATA
	??_R0?AVG4VInteractorManager@@@8 	 DATA
	??_R0?AVG4VUIshell@@@8 	 DATA
	??_R0?AVG4Win32@@@8 	 DATA
	??_R0?AVG4coutDestination@@@8 	 DATA
	??_R0?AVbad_alloc@std@@@8 	 DATA
	??_R0?AVbad_array_new_length@std@@@8 	 DATA
	??_R0?AVbad_cast@std@@@8 	 DATA
	??_R0?AVexception@std@@@8 	 DATA
	??_R0?AVios_base@std@@@8 	 DATA
	?_Psave@?$_Facetptr@V?$codecvt@DDU_Mbstatet@@@std@@@std@@2PEBVfacet@locale@2@EB 	 DATA
	?_Psave@?$_Facetptr@V?$ctype@D@std@@@std@@2PEBVfacet@locale@2@EB 	 DATA
	?_Stinit@?1??_Init@?$basic_filebuf@DU?$char_traits@D@std@@@std@@IEAAXPEAU_iobuf@@W4_Initfl@23@@Z@4U_Mbstatet@@A 	 DATA
	?instance@G4Win32@@0PEAV1@EA 	 DATA
	??$?0AEBH$$Z$$V@?$pair@$$CBHVG4String@@@std@@QEAA@Upiecewise_construct_t@1@V?$tuple@AEBH@1@V?$tuple@$$V@1@@Z
	??$?0AEBVG4String@@$$Z$$V@?$pair@$$CBVG4String@@PEAX@std@@QEAA@Upiecewise_construct_t@1@V?$tuple@AEBVG4String@@@1@V?$tuple@$$V@1@@Z
	??$?0AEBVG4String@@$$Z$$V@?$pair@$$CBVG4String@@V1@@std@@QEAA@Upiecewise_construct_t@1@V?$tuple@AEBVG4String@@@1@V?$tuple@$$V@1@@Z
	??$?0V?$tuple@AEBH@std@@V?$tuple@$$V@1@$0A@$$Z$S@?$pair@$$CBHVG4String@@@std@@QEAA@AEAV?$tuple@AEBH@1@AEAV?$tuple@$$V@1@U?$integer_sequence@_K$0A@@1@U?$integer_sequence@_K$S@1@@Z
	??$?0V?$tuple@AEBVG4String@@@std@@V?$tuple@$$V@1@$0A@$$Z$S@?$pair@$$CBVG4String@@PEAX@std@@QEAA@AEAV?$tuple@AEBVG4String@@@1@AEAV?$tuple@$$V@1@U?$integer_sequence@_K$0A@@1@U?$integer_sequence@_K$S@1@@Z
	??$?0V?$tuple@AEBVG4String@@@std@@V?$tuple@$$V@1@$0A@$$Z$S@?$pair@$$CBVG4String@@V1@@std@@QEAA@AEAV?$tuple@AEBVG4String@@@1@AEAV?$tuple@$$V@1@U?$integer_sequence@_K$0A@@1@U?$integer_sequence@_K$S@1@@Z
	??$?6DU?$char_traits@D@std@@H@std@@YAAEAV?$basic_ostream@DU?$char_traits@D@std@@@0@AEAV10@AEBU?$_Smanip@H@0@@Z
	??$?6DU?$char_traits@D@std@@V?$allocator@D@1@@std@@YAAEAV?$basic_ostream@DU?$char_traits@D@std@@@0@AEAV10@AEBV?$basic_string@DU?$char_traits@D@std@@V?$allocator@D@2@@0@@Z
	??$?6DU?$char_traits@D@std@@_J@std@@YAAEAV?$basic_ostream@DU?$char_traits@D@std@@@0@AEAV10@AEBU?$_Smanip@_J@0@@Z
	??$?6U?$char_traits@D@std@@@std@@YAAEAV?$basic_ostream@DU?$char_traits@D@std@@@0@AEAV10@D@Z
	??$?6U?$char_traits@D@std@@@std@@YAAEAV?$basic_ostream@DU?$char_traits@D@std@@@0@AEAV10@PEBD@Z
	??$?8DU?$char_traits@D@std@@V?$allocator@D@1@@std@@YA_NAEBV?$basic_string@DU?$char_traits@D@std@@V?$allocator@D@2@@0@QEBD@Z
	??$?HDU?$char_traits@D@std@@V?$allocator@D@1@@std@@YA?AV?$basic_string@DU?$char_traits@D@std@@V?$allocator@D@2@@0@$$QEAV10@AEBV10@@Z
	??$?HDU?$char_traits@D@std@@V?$allocator@D@1@@std@@YA?AV?$basic_string@DU?$char_traits@D@std@@V?$allocator@D@2@@0@$$QEAV10@QEBD@Z
	??$?HDU?$char_traits@D@std@@V?$allocator@D@1@@std@@YA?AV?$basic_string@DU?$char_traits@D@std@@V?$allocator@D@2@@0@AEBV10@0@Z
	??$?HDU?$char_traits@D@std@@V?$allocator@D@1@@std@@YA?AV?$basic_string@DU?$char_traits@D@std@@V?$allocator@D@2@@0@AEBV10@QEBD@Z
	??$?MDU?$char_traits@D@std@@V?$allocator@D@1@@std@@YA_NAEBV?$basic_string@DU?$char_traits@D@std@@V?$allocator@D@2@@0@0@Z
	??$_Allocate@$0BA@U_Default_allocate_traits@std@@$0A@@std@@YAPEAX_K@Z
	??$_Allocate_manually_vector_aligned@U_Default_allocate_traits@std@@@std@@YAPEAX_K@Z
	??$_Assign_range@PEAVG4String@@@?$vector@VG4String@@V?$allocator@VG4String@@@std@@@std@@AEAAXPEAVG4String@@0Uforward_iterator_tag@1@@Z
	??$_Construct_in_place@PEADAEBQEAD@std@@YAXAEAPEADAEBQEAD@Z
	??$_Construct_in_place@PEAU?$_Tree_node@U?$pair@$$CBHVG4String@@@std@@PEAX@std@@AEAPEAU12@@std@@YAXAEAPEAU?$_Tree_node@U?$pair@$$CBHVG4String@@@std@@PEAX@0@0@Z
	??$_Construct_in_place@PEAU?$_Tree_node@U?$pair@$$CBHVG4String@@@std@@PEAX@std@@AEBQEAU12@@std@@YAXAEAPEAU?$_Tree_node@U?$pair@$$CBHVG4String@@@std@@PEAX@0@AEBQEAU10@@Z
	??$_Construct_in_place@PEAU?$_Tree_node@U?$pair@$$CBVG4String@@PEAX@std@@PEAX@std@@AEAPEAU12@@std@@YAXAEAPEAU?$_Tree_node@U?$pair@$$CBVG4String@@PEAX@std@@PEAX@0@0@Z
	??$_Construct_in_place@PEAU?$_Tree_node@U?$pair@$$CBVG4String@@PEAX@std@@PEAX@std@@AEBQEAU12@@std@@YAXAEAPEAU?$_Tree_node@U?$pair@$$CBVG4String@@PEAX@std@@PEAX@0@AEBQEAU10@@Z
	??$_Construct_in_place@PEAU?$_Tree_node@U?$pair@$$CBVG4String@@V1@@std@@PEAX@std@@AEAPEAU12@@std@@YAXAEAPEAU?$_Tree_node@U?$pair@$$CBVG4String@@V1@@std@@PEAX@0@0@Z
	??$_Construct_in_place@PEAU?$_Tree_node@U?$pair@$$CBVG4String@@V1@@std@@PEAX@std@@AEBQEAU12@@std@@YAXAEAPEAU?$_Tree_node@U?$pair@$$CBVG4String@@V1@@std@@PEAX@0@AEBQEAU10@@Z
	??$_Copy_memmove@PEAP6AXXZPEAP6AXXZ@std@@YAPEAP6AXXZPEAP6AXXZ00@Z
	??$_Copy_memmove@PEAP6A_NPEAX@ZPEAP6A_N0@Z@std@@YAPEAP6A_NPEAX@ZPEAP6A_N0@Z11@Z
	??$_Copy_memmove@PEAPEAVG4UIcommand@@PEAPEAV1@@std@@YAPEAPEAVG4UIcommand@@PEAPEAV1@00@Z
	??$_Copy_memmove@PEAPEAVG4UIparameter@@PEAPEAV1@@std@@YAPEAPEAVG4UIparameter@@PEAPEAV1@00@Z
	??$_Copy_memmove@PEAPEAXPEAPEAX@std@@YAPEAPEAXPEAPEAX00@Z
	??$_Copy_unchecked@PEAVG4String@@PEAV1@@std@@YAPEAVG4String@@PEAV1@00@Z
	??$_Deallocate@$0BA@$0A@@std@@YAXPEAX_K@Z
	??$_Destroy_in_place@PEAD@std@@YAXAEAPEAD@Z
	??$_Destroy_in_place@PEAU?$_Tree_node@U?$pair@$$CBHVG4String@@@std@@PEAX@std@@@std@@YAXAEAPEAU?$_Tree_node@U?$pair@$$CBHVG4String@@@std@@PEAX@0@@Z
	??$_Destroy_in_place@PEAU?$_Tree_node@U?$pair@$$CBVG4String@@PEAX@std@@PEAX@std@@@std@@YAXAEAPEAU?$_Tree_node@U?$pair@$$CBVG4String@@PEAX@std@@PEAX@0@@Z
	??$_Destroy_in_place@PEAU?$_Tree_node@U?$pair@$$CBVG4String@@V1@@std@@PEAX@std@@@std@@YAXAEAPEAU?$_Tree_node@U?$pair@$$CBVG4String@@V1@@std@@PEAX@0@@Z
	??$_Destroy_range@V?$allocator@P6AXXZ@std@@@std@@YAXPEAP6AXXZQEAP6AXXZAEAV?$allocator@P6AXXZ@0@@Z
	??$_Destroy_range@V?$allocator@P6A_NPEAX@Z@std@@@std@@YAXPEAP6A_NPEAX@ZQEAP6A_N0@ZAEAV?$allocator@P6A_NPEAX@Z@0@@Z
	??$_Destroy_range@V?$allocator@PEAVG4UIcommand@@@std@@@std@@YAXPEAPEAVG4UIcommand@@QEAPEAV1@AEAV?$allocator@PEAVG4UIcommand@@@0@@Z
	??$_Destroy_range@V?$allocator@PEAVG4UIparameter@@@std@@@std@@YAXPEAPEAVG4UIparameter@@QEAPEAV1@AEAV?$allocator@PEAVG4UIparameter@@@0@@Z
	??$_Destroy_range@V?$allocator@PEAX@std@@@std@@YAXPEAPEAXQEAPEAXAEAV?$allocator@PEAX@0@@Z
	??$_Destroy_range@V?$allocator@Uyystype@G4UItokenNum@@@std@@@std@@YAXPEAUyystype@G4UItokenNum@@QEAU12@AEAV?$allocator@Uyystype@G4UItokenNum@@@0@@Z
	??$_Destroy_range@V?$allocator@VG4String@@@std@@@std@@YAXPEAVG4String@@QEAV1@AEAV?$allocator@VG4String@@@0@@Z
	??$_Emplace_reallocate@AEBQ6AXXZ@?$vector@P6AXXZV?$allocator@P6AXXZ@std@@@std@@QEAAPEAP6AXXZQEAP6AXXZAEBQ6AXXZ@Z
	??$_Emplace_reallocate@AEBQ6A_NPEAX@Z@?$vector@P6A_NPEAX@ZV?$allocator@P6A_NPEAX@Z@std@@@std@@QEAAPEAP6A_NPEAX@ZQEAP6A_N0@ZAEBQ6A_N0@Z@Z
	??$_Emplace_reallocate@AEBQEAVG4UIcommand@@@?$vector@PEAVG4UIcommand@@V?$allocator@PEAVG4UIcommand@@@std@@@std@@QEAAPEAPEAVG4UIcommand@@QEAPEAV2@AEBQEAV2@@Z
	??$_Emplace_reallocate@AEBQEAVG4UIparameter@@@?$vector@PEAVG4UIparameter@@V?$allocator@PEAVG4UIparameter@@@std@@@std@@QEAAPEAPEAVG4UIparameter@@QEAPEAV2@AEBQEAV2@@Z
	??$_Emplace_reallocate@AEBQEAX@?$vector@PEAXV?$allocator@PEAX@std@@@std@@QEAAPEAPEAXQEAPEAXAEBQEAX@Z
	??$_Emplace_reallocate@AEBVG4String@@@?$vector@VG4String@@V?$allocator@VG4String@@@std@@@std@@QEAAPEAVG4String@@QEAV2@AEBV2@@Z
	??$_Emplace_reallocate@VG4String@@@?$vector@VG4String@@V?$allocator@VG4String@@@std@@@std@@QEAAPEAVG4String@@QEAV2@$$QEAV2@@Z
	??$_Erase_tree@V?$allocator@U?$_Tree_node@U?$pair@$$CBHVG4String@@@std@@PEAX@std@@@std@@@?$_Tree_val@U?$_Tree_simple_types@U?$pair@$$CBHVG4String@@@std@@@std@@@std@@QEAAXAEAV?$allocator@U?$_Tree_node@U?$pair@$$CBHVG4String@@@std@@PEAX@std@@@1@PEAU?$_Tree_node@U?$pair@$$CBHVG4String@@@std@@PEAX@1@@Z
	??$_Erase_tree@V?$allocator@U?$_Tree_node@U?$pair@$$CBVG4String@@PEAX@std@@PEAX@std@@@std@@@?$_Tree_val@U?$_Tree_simple_types@U?$pair@$$CBVG4String@@PEAX@std@@@std@@@std@@QEAAXAEAV?$allocator@U?$_Tree_node@U?$pair@$$CBVG4String@@PEAX@std@@PEAX@std@@@1@PEAU?$_Tree_node@U?$pair@$$CBVG4String@@PEAX@std@@PEAX@1@@Z
	??$_Erase_tree@V?$allocator@U?$_Tree_node@U?$pair@$$CBVG4String@@V1@@std@@PEAX@std@@@std@@@?$_Tree_val@U?$_Tree_simple_types@U?$pair@$$CBVG4String@@V1@@std@@@std@@@std@@QEAAXAEAV?$allocator@U?$_Tree_node@U?$pair@$$CBVG4String@@V1@@std@@PEAX@std@@@1@PEAU?$_Tree_node@U?$pair@$$CBVG4String@@V1@@std@@PEAX@1@@Z
	??$_Find_lower_bound@VG4String@@@?$_Tree@V?$_Tmap_traits@VG4String@@PEAXU?$less@VG4String@@@std@@V?$allocator@U?$pair@$$CBVG4String@@PEAX@std@@@3@$0A@@std@@@std@@IEBA?AU?$_Tree_find_result@PEAU?$_Tree_node@U?$pair@$$CBVG4String@@PEAX@std@@PEAX@std@@@1@AEBVG4String@@@Z
	??$_Find_lower_bound@VG4String@@@?$_Tree@V?$_Tmap_traits@VG4String@@V1@U?$less@VG4String@@@std@@V?$allocator@U?$pair@$$CBVG4String@@V1@@std@@@3@$0A@@std@@@std@@IEBA?AU?$_Tree_find_result@PEAU?$_Tree_node@U?$pair@$$CBVG4String@@V1@@std@@PEAX@std@@@1@AEBVG4String@@@Z
	??$_Find_unchecked1@PEAP6AXXZP6AXXZ@std@@YAPEAP6AXXZPEAP6AXXZQEAP6AXXZAEBQ6AXXZU?$integral_constant@_N$0A@@0@@Z
	??$_Find_unchecked1@PEAP6A_NPEAX@ZP6A_N0@Z@std@@YAPEAP6A_NPEAX@ZPEAP6A_N0@ZQEAP6A_N0@ZAEBQ6A_N0@ZU?$integral_constant@_N$0A@@0@@Z
	??$_Find_unchecked1@PEAPEAXPEAX@std@@YAPEAPEAXPEAPEAXQEAPEAXAEBQEAXU?$integral_constant@_N$0A@@0@@Z
	??$_Find_unchecked@PEAP6AXXZP6AXXZ@std@@YAPEAP6AXXZQEAP6AXXZ0AEBQ6AXXZ@Z
	??$_Find_unchecked@PEAP6A_NPEAX@ZP6A_N0@Z@std@@YAPEAP6A_NPEAX@ZQEAP6A_N0@Z1AEBQ6A_N0@Z@Z
	??$_Find_unchecked@PEAPEAXPEAX@std@@YAPEAPEAXQEAPEAX0AEBQEAX@Z
	??$_Getvals@_W@?$time_get@DV?$istreambuf_iterator@DU?$char_traits@D@std@@@std@@@std@@IEAAX_WAEBV_Locinfo@1@@Z
	??$_Getvals@_W@?$time_get@_WV?$istreambuf_iterator@_WU?$char_traits@_W@std@@@std@@@std@@IEAAX_WAEBV_Locinfo@1@@Z
	??$_Insert_string@DU?$char_traits@D@std@@_K@std@@YAAEAV?$basic_ostream@DU?$char_traits@D@std@@@0@AEAV10@QEBD_K@Z
	??$_Maklocstr@D@std@@YAPEADPEBDPEADAEBU_Cvtvec@@@Z
	??$_Move_unchecked@PEAP6A_NPEAX@ZPEAP6A_N0@Z@std@@YAPEAP6A_NPEAX@ZPEAP6A_N0@Z11@Z
	??$_Move_unchecked@PEAPEAXPEAPEAX@std@@YAPEAPEAXPEAPEAX00@Z
	??$_Pocca@V?$allocator@D@std@@@std@@YAXAEAV?$allocator@D@0@AEBV10@@Z
	??$_Pocca@V?$allocator@PEAVG4UIcommand@@@std@@@std@@YAXAEAV?$allocator@PEAVG4UIcommand@@@0@AEBV10@@Z
	??$_Pocca@V?$allocator@VG4String@@@std@@@std@@YAXAEAV?$allocator@VG4String@@@0@AEBV10@@Z
	??$_Pocma@V?$allocator@D@std@@@std@@YAXAEAV?$allocator@D@0@0@Z
	??$_Reallocate_grow_by@V<lambda_319d5e083f45f90dcdce5dce53cbb275>@@D@?$basic_string@DU?$char_traits@D@std@@V?$allocator@D@2@@std@@AEAAAEAV01@_KV<lambda_319d5e083f45f90dcdce5dce53cbb275>@@D@Z
	??$_Reallocate_grow_by@V<lambda_65e615be2a453ca0576c979606f46740>@@PEBD_K@?$basic_string@DU?$char_traits@D@std@@V?$allocator@D@2@@std@@AEAAAEAV01@_KV<lambda_65e615be2a453ca0576c979606f46740>@@PEBD_K@Z
	??$_Reallocate_grow_by@V<lambda_f3a66ab6a0570788f31503db83886f49>@@_KPEBD_K@?$basic_string@DU?$char_traits@D@std@@V?$allocator@D@2@@std@@AEAAAEAV01@_KV<lambda_f3a66ab6a0570788f31503db83886f49>@@_KPEBD2@Z
	??$_Refancy@PEAP6AXXZ$0A@@std@@YAPEAP6AXXZPEAP6AXXZ@Z
	??$_Refancy@PEAP6A_NPEAX@Z$0A@@std@@YAPEAP6A_NPEAX@ZPEAP6A_N0@Z@Z
	??$_Refancy@PEAPEAVG4UIcommand@@$0A@@std@@YAPEAPEAVG4UIcommand@@PEAPEAV1@@Z
	??$_Refancy@PEAPEAX$0A@@std@@YAPEAPEAXPEAPEAX@Z
	??$_Resize_reallocate@U_Value_init_tag@std@@@?$vector@Uyystype@G4UItokenNum@@V?$allocator@Uyystype@G4UItokenNum@@@std@@@std@@AEAAX_KAEBU_Value_init_tag@1@@Z
	??$_Traits_compare@U?$char_traits@D@std@@@std@@YAHQEBD_K01@Z
	??$_Traits_find@U?$char_traits@D@std@@@std@@YA_KQEBD_K101@Z
	??$_Uninitialized_copy@PEAUyystype@G4UItokenNum@@V?$allocator@Uyystype@G4UItokenNum@@@std@@@std@@YAPEAUyystype@G4UItokenNum@@QEAU12@0PEAU12@AEAV?$allocator@Uyystype@G4UItokenNum@@@0@@Z
	??$_Uninitialized_copy@PEAVG4String@@V?$allocator@VG4String@@@std@@@std@@YAPEAVG4String@@QEAV1@0PEAV1@AEAV?$allocator@VG4String@@@0@@Z
	??$_Uninitialized_move@PEAP6AXXZV?$allocator@P6AXXZ@std@@@std@@YAPEAP6AXXZQEAP6AXXZ0PEAP6AXXZAEAV?$allocator@P6AXXZ@0@@Z
	??$_Uninitialized_move@PEAP6A_NPEAX@ZV?$allocator@P6A_NPEAX@Z@std@@@std@@YAPEAP6A_NPEAX@ZQEAP6A_N0@Z1PEAP6A_N0@ZAEAV?$allocator@P6A_NPEAX@Z@0@@Z
	??$_Uninitialized_move@PEAPEAVG4UIcommand@@V?$allocator@PEAVG4UIcommand@@@std@@@std@@YAPEAPEAVG4UIcommand@@QEAPEAV1@0PEAPEAV1@AEAV?$allocator@PEAVG4UIcommand@@@0@@Z
	??$_Uninitialized_move@PEAPEAVG4UIparameter@@V?$allocator@PEAVG4UIparameter@@@std@@@std@@YAPEAPEAVG4UIparameter@@QEAPEAV1@0PEAPEAV1@AEAV?$allocator@PEAVG4UIparameter@@@0@@Z
	??$_Uninitialized_move@PEAPEAXV?$allocator@PEAX@std@@@std@@YAPEAPEAXQEAPEAX0PEAPEAXAEAV?$allocator@PEAX@0@@Z
	??$_Uninitialized_move@PEAVG4String@@V?$allocator@VG4String@@@std@@@std@@YAPEAVG4String@@QEAV1@0PEAV1@AEAV?$allocator@VG4String@@@0@@Z
	??$_Uninitialized_value_construct_n@V?$allocator@Uyystype@G4UItokenNum@@@std@@@std@@YAPEAUyystype@G4UItokenNum@@PEAU12@_KAEAV?$allocator@Uyystype@G4UItokenNum@@@0@@Z
	??$endl@DU?$char_traits@D@std@@@std@@YAAEAV?$basic_ostream@DU?$char_traits@D@std@@@0@AEAV10@@Z
	??$exchange@PEAU?$_Tree_node@U?$pair@$$CBHVG4String@@@std@@PEAX@std@@$$T@std@@YAPEAU?$_Tree_node@U?$pair@$$CBHVG4String@@@std@@PEAX@0@AEAPEAU10@$$QEA$$T@Z
	??$exchange@PEAU?$_Tree_node@U?$pair@$$CBHVG4String@@@std@@PEAX@std@@AEAPEAU12@@std@@YAPEAU?$_Tree_node@U?$pair@$$CBHVG4String@@@std@@PEAX@0@AEAPEAU10@0@Z
	??$exchange@PEAU?$_Tree_node@U?$pair@$$CBVG4String@@PEAX@std@@PEAX@std@@$$T@std@@YAPEAU?$_Tree_node@U?$pair@$$CBVG4String@@PEAX@std@@PEAX@0@AEAPEAU10@$$QEA$$T@Z
	??$exchange@PEAU?$_Tree_node@U?$pair@$$CBVG4String@@PEAX@std@@PEAX@std@@AEAPEAU12@@std@@YAPEAU?$_Tree_node@U?$pair@$$CBVG4String@@PEAX@std@@PEAX@0@AEAPEAU10@0@Z
	??$exchange@PEAU?$_Tree_node@U?$pair@$$CBVG4String@@V1@@std@@PEAX@std@@$$T@std@@YAPEAU?$_Tree_node@U?$pair@$$CBVG4String@@V1@@std@@PEAX@0@AEAPEAU10@$$QEA$$T@Z
	??$exchange@PEAU?$_Tree_node@U?$pair@$$CBVG4String@@V1@@std@@PEAX@std@@AEAPEAU12@@std@@YAPEAU?$_Tree_node@U?$pair@$$CBVG4String@@V1@@std@@PEAX@0@AEAPEAU10@0@Z
	??$exchange@PEAV_Facet_base@std@@PEAV12@@std@@YAPEAV_Facet_base@0@AEAPEAV10@$$QEAPEAV10@@Z
	??$find@V?$_Vector_iterator@V?$_Vector_val@U?$_Simple_types@P6AXXZ@std@@@std@@@std@@P6AXXZ@std@@YA?AV?$_Vector_iterator@V?$_Vector_val@U?$_Simple_types@P6AXXZ@std@@@std@@@0@V10@V10@AEBQ6AXXZ@Z
	??$find@V?$_Vector_iterator@V?$_Vector_val@U?$_Simple_types@P6A_NPEAX@Z@std@@@std@@@std@@P6A_NPEAX@Z@std@@YA?AV?$_Vector_iterator@V?$_Vector_val@U?$_Simple_types@P6A_NPEAX@Z@std@@@std@@@0@V10@V10@AEBQ6A_NPEAX@Z@Z
	??$find@V?$_Vector_iterator@V?$_Vector_val@U?$_Simple_types@PEAX@std@@@std@@@std@@PEAX@std@@YA?AV?$_Vector_iterator@V?$_Vector_val@U?$_Simple_types@PEAX@std@@@std@@@0@V10@V10@AEBQEAX@Z
	??$flush@DU?$char_traits@D@std@@@std@@YAAEAV?$basic_ostream@DU?$char_traits@D@std@@@0@AEAV10@@Z
	??$use_facet@V?$codecvt@DDU_Mbstatet@@@std@@@std@@YAAEBV?$codecvt@DDU_Mbstatet@@@0@AEBVlocale@0@@Z
	??$use_facet@V?$ctype@D@std@@@std@@YAAEBV?$ctype@D@0@AEBVlocale@0@@Z
	??$ws@DU?$char_traits@D@std@@@std@@YAAEAV?$basic_istream@DU?$char_traits@D@std@@@0@AEAV10@@Z
	??0?$basic_string@DU?$char_traits@D@std@@V?$allocator@D@2@@std@@QEAA@AEBV01@@Z
	??0?$basic_stringbuf@DU?$char_traits@D@std@@V?$allocator@D@2@@std@@QEAA@AEBV?$basic_string@DU?$char_traits@D@std@@V?$allocator@D@2@@1@H@Z
	??0G4InteractorMessenger@@QEAA@PEAVG4VInteractiveSession@@@Z
	??0G4String@@QEAA@XZ
	??0G4UIArrayString@@QEAA@AEBVG4String@@@Z
	??0G4UIExecutive@@QEAA@HPEAPEADAEBVG4String@@@Z
	??0G4UIGAG@@QEAA@XZ
	??0G4UIWin32@@QEAA@XZ
	??0G4UIcsh@@QEAA@AEBVG4String@@@Z
	??0G4UIterminal@@QEAA@PEAVG4VUIshell@@_N@Z
	??0G4VBasicShell@@QEAA@XZ
	??0G4VInteractiveSession@@QEAA@XZ
	??0G4VInteractorManager@@QEAA@XZ
	??0G4VUIshell@@QEAA@AEBVG4String@@@Z
	??0G4Win32@@AEAA@XZ
	??0TextBuffer@@QEAA@XZ
	??0bad_alloc@std@@QEAA@AEBV01@@Z
	??0bad_array_new_length@std@@QEAA@AEBV01@@Z
	??0bad_array_new_length@std@@QEAA@XZ
	??0bad_cast@std@@QEAA@AEBV01@@Z
	??0bad_cast@std@@QEAA@XZ
	??0exception@std@@QEAA@AEBV01@@Z
	??1?$_Alloc_construct_ptr@V?$allocator@U?$_Tree_node@U?$pair@$$CBHVG4String@@@std@@PEAX@std@@@std@@@std@@QEAA@XZ
	??1?$_Alloc_construct_ptr@V?$allocator@U?$_Tree_node@U?$pair@$$CBVG4String@@PEAX@std@@PEAX@std@@@std@@@std@@QEAA@XZ
	??1?$_Alloc_construct_ptr@V?$allocator@U?$_Tree_node@U?$pair@$$CBVG4String@@V1@@std@@PEAX@std@@@std@@@std@@QEAA@XZ
	??1?$_Tree_temp_node_alloc@V?$allocator@U?$_Tree_node@U?$pair@$$CBVG4String@@PEAX@std@@PEAX@std@@@std@@@std@@QEAA@XZ
	??1?$_Tree_temp_node_alloc@V?$allocator@U?$_Tree_node@U?$pair@$$CBVG4String@@V1@@std@@PEAX@std@@@std@@@std@@QEAA@XZ
	??1?$_Uninitialized_backout_al@V?$allocator@Uyystype@G4UItokenNum@@@std@@@std@@QEAA@XZ
	??1?$_Uninitialized_backout_al@V?$allocator@VG4String@@@std@@@std@@QEAA@XZ
	??1?$basic_filebuf@DU?$char_traits@D@std@@@std@@UEAA@XZ
	??1?$basic_ifstream@DU?$char_traits@D@std@@@std@@UEAA@XZ
	??1?$basic_istringstream@DU?$char_traits@D@std@@V?$allocator@D@2@@std@@UEAA@XZ
	??1?$basic_string@DU?$char_traits@D@std@@V?$allocator@D@2@@std@@QEAA@XZ
	??1?$basic_stringbuf@DU?$char_traits@D@std@@V?$allocator@D@2@@std@@UEAA@XZ
	??1?$map@HVG4String@@U?$less@H@std@@V?$allocator@U?$pair@$$CBHVG4String@@@std@@@3@@std@@QEAA@XZ
	??1?$map@VG4String@@PEAXU?$less@VG4String@@@std@@V?$allocator@U?$pair@$$CBVG4String@@PEAX@std@@@3@@std@@QEAA@XZ
	??1?$map@VG4String@@V1@U?$less@VG4String@@@std@@V?$allocator@U?$pair@$$CBVG4String@@V1@@std@@@3@@std@@QEAA@XZ
	??1?$pair@$$CBHVG4String@@@std@@QEAA@XZ
	??1?$pair@$$CBVG4String@@V1@@std@@QEAA@XZ
	??1?$unique_ptr@V_Facet_base@std@@U?$default_delete@V_Facet_base@std@@@2@@std@@QEAA@XZ
	??1?$vector@PEAVG4UIcommand@@V?$allocator@PEAVG4UIcommand@@@std@@@std@@QEAA@XZ
	??1?$vector@VG4String@@V?$allocator@VG4String@@@std@@@std@@QEAA@XZ
	??1G4InteractorMessenger@@UEAA@XZ
	??1G4String@@QEAA@XZ
	??1G4UIArrayString@@QEAA@XZ
	??1G4UIExecutive@@QEAA@XZ
	??1G4UIGAG@@UEAA@XZ
	??1G4UIWin32@@UEAA@XZ
	??1G4UIcsh@@UEAA@XZ
	??1G4UIterminal@@UEAA@XZ
	??1G4VBasicShell@@UEAA@XZ
	??1G4VInteractiveSession@@UEAA@XZ
	??1G4VInteractorManager@@UEAA@XZ
	??1G4VUIshell@@UEAA@XZ
	??1G4Win32@@UEAA@XZ
	??1TextBuffer@@QEAA@XZ
	??1_Sentry_base@?$basic_istream@DU?$char_traits@D@std@@@std@@QEAA@XZ
	??1_Sentry_base@?$basic_ostream@DU?$char_traits@D@std@@@std@@QEAA@XZ
	??1bad_array_new_length@std@@UEAA@XZ
	??1bad_cast@std@@UEAA@XZ
	??1exception@std@@UEAA@XZ
	??1locale@std@@QEAA@XZ
	??1sentry@?$basic_istream@DU?$char_traits@D@std@@@std@@QEAA@XZ
	??1sentry@?$basic_ostream@DU?$char_traits@D@std@@@std@@QEAA@XZ
	??4?$basic_string@DU?$char_traits@D@std@@V?$allocator@D@2@@std@@QEAAAEAV01@$$QEAV01@@Z
	??4?$vector@PEAVG4UIcommand@@V?$allocator@PEAVG4UIcommand@@@std@@@std@@QEAAAEAV01@AEBV01@@Z
	??A?$map@HVG4String@@U?$less@H@std@@V?$allocator@U?$pair@$$CBHVG4String@@@std@@@3@@std@@QEAAAEAVG4String@@AEBH@Z
	??A?$map@VG4String@@V1@U?$less@VG4String@@@std@@V?$allocator@U?$pair@$$CBVG4String@@V1@@std@@@3@@std@@QEAAAEAVG4String@@AEBV2@@Z
	??BG4String@@QEBAPEBDXZ
	??R?$less@VG4String@@@std@@QEBA_NAEBVG4String@@0@Z
	??RG4String@@QEAA?AV0@_K0@Z
	??_D?$basic_ifstream@DU?$char_traits@D@std@@@std@@QEAAXXZ
	??_D?$basic_istringstream@DU?$char_traits@D@std@@V?$allocator@D@2@@std@@QEAAXXZ
	?AddButton@G4UIWin32@@UEAAXPEBD00@Z
	?AddButton@G4VInteractiveSession@@UEAAXPEBD00@Z
	?AddDispatcher@G4VInteractorManager@@QEAAXP6A_NPEAX@Z@Z
	?AddIcon@G4VInteractiveSession@@UEAAXPEBD000@Z
	?AddInteractor@G4VInteractiveSession@@QEAAXVG4String@@PEAX@Z
	?AddMenu@G4UIWin32@@UEAAXPEBD0@Z
	?AddMenu@G4VInteractiveSession@@UEAAXPEBD0@Z
	?AddSecondaryLoopPostAction@G4VInteractorManager@@QEAAXP6AXXZ@Z
	?AddSecondaryLoopPreAction@G4VInteractorManager@@QEAAXP6AXXZ@Z
	?AddShell@G4VInteractorManager@@QEAAXPEAX@Z
	?AppendString@TextBuffer@@QEAA_NPEAD@Z
	?ApplyShellCommand@G4VBasicShell@@IEAAXAEBVG4String@@AEA_N1@Z
	?CalculateColumnWidth@G4UIArrayString@@AEBAHXZ
	?ChangeDirectory@G4UIGAG@@AEAAXAEBVG4String@@@Z
	?ChangeDirectory@G4VBasicShell@@IEAA_NPEBD@Z
	?ChangeDirectoryCommand@G4VBasicShell@@IEAAXAEBVG4String@@@Z
	?CodeGenJavaParams@G4UIGAG@@AEAAXPEAVG4UIcommandTree@@H@Z
	?CodeGenJavaTree@G4UIGAG@@AEAAXPEAVG4UIcommandTree@@H@Z
	?CodeGenTclParams@G4UIGAG@@AEAAXPEAVG4UIcommandTree@@H@Z
	?CodeGenTclTree@G4UIGAG@@AEAAXPEAVG4UIcommandTree@@H@Z
	?CommandUpdated@G4UIGAG@@AEAAHXZ
	?Complete@G4VBasicShell@@IEAA?AVG4String@@AEBV2@@Z
	?DecrementEndOfPage@TextBuffer@@QEAAXXZ
	?DefaultIcons@G4VInteractiveSession@@UEAAX_N@Z
	?DisableSecondaryLoop@G4VInteractorManager@@QEAAXXZ
	?DispatchEvent@G4VInteractorManager@@QEAAXPEAX@Z
	?DispatchWin32Event@G4Win32@@SA_NPEAX@Z
	?Draw@TextBuffer@@QEAAXPEAUHDC__@@PEAUtagRECT@@@Z
	?EditWindowProc@G4UIWin32@@CA_JPEAUHWND__@@I_K_J@Z
	?EnableSecondaryLoop@G4VInteractorManager@@QEAAXXZ
	?ExecuteCommand@G4UIGAG@@AEAAXAEBVG4String@@@Z
	?ExecuteCommand@G4UIterminal@@EEAAXAEBVG4String@@@Z
	?ExecuteCommand@G4VBasicShell@@MEAAXAEBVG4String@@@Z
	?ExitHelp@G4UIWin32@@EEBAXXZ
	?ExitHelp@G4UIterminal@@EEBAXXZ
	?FindCommand@G4VBasicShell@@IEBAPEAVG4UIcommand@@PEBD@Z
	?FindDirPath@G4UIGAG@@AEAAPEAVG4UIcommandTree@@AEBVG4String@@@Z
	?FindDirectory@G4VBasicShell@@IEBAPEAVG4UIcommandTree@@PEBD@Z
	?FindMatchingPath@G4VBasicShell@@IEAA?AVG4String@@PEAVG4UIcommandTree@@AEBV2@@Z
	?FlushAndWaitExecution@G4Win32@@UEAAXXZ
	?GetAbsCommandDirPath@G4VUIshell@@IEBA?AVG4String@@AEBV2@@Z
	?GetArguments@G4VInteractorManager@@QEAAPEAPEADPEAH@Z
	?GetCommand@G4UIGAG@@QEAA?AVG4String@@XZ
	?GetCommand@G4UIWin32@@QEAA?AVG4String@@H@Z
	?GetCommand@G4UIterminal@@AEAA?AVG4String@@PEBD@Z
	?GetCommandLineString@G4UIcsh@@UEAA?AVG4String@@PEBD@Z
	?GetCommandPathTail@G4VUIshell@@IEBA?AVG4String@@AEBV2@@Z
	?GetCommandTree@G4VUIshell@@IEBAPEAVG4UIcommandTree@@AEBVG4String@@@Z
	?GetCreatedInteractor@G4VInteractorManager@@QEAAPEAXXZ
	?GetCreationString@G4VInteractorManager@@QEAAPEADXZ
	?GetCurrentWorkingDirectory@G4VBasicShell@@IEBA?AVG4String@@XZ
	?GetElement@G4UIArrayString@@AEBAPEAVG4String@@HH@Z
	?GetEvent@G4Win32@@UEAAPEAXXZ
	?GetExitSecondaryLoopCode@G4VInteractorManager@@QEAAHXZ
	?GetFullPath@G4UIGAG@@AEAA?AVG4String@@AEBV2@@Z
	?GetHelpChoice@G4UIWin32@@EEAA_NAEAH@Z
	?GetHelpChoice@G4UIterminal@@EEAA_NAEAH@Z
	?GetInteractor@G4VInteractiveSession@@QEAAPEAXVG4String@@@Z
	?GetMainInteractor@G4VInteractorManager@@QEAAPEAXXZ
	?GetNField@G4UIArrayString@@AEBAHH@Z
	?GetNRow@G4UIArrayString@@AEBAHH@Z
	?GetNewTreeStructure@G4UIGAG@@AEAAXPEAVG4UIcommandTree@@H@Z
	?GetNewTreeValues@G4UIGAG@@AEAAXPEAVG4UIcommandTree@@H@Z
	?GetParentInteractor@G4VInteractorManager@@QEAAPEAXXZ
	?GetPreviousCommand@G4UImanager@@QEBA?AVG4String@@H@Z
	?GetTree@G4UIcommandTree@@QEAAPEAV1@PEBD@Z
	?IncrementEndOfPage@TextBuffer@@QEAAXXZ
	?Inited@G4Win32@@UEAA_NXZ
	?JumpDownEndOfPage@TextBuffer@@QEAAXXZ
	?JumpUpEndOfPage@TextBuffer@@QEAAXXZ
	?ListCommand@G4VUIshell@@UEBAXAEBVG4String@@0@Z
	?ListDirectory@G4UIGAG@@AEAAXAEBVG4String@@@Z
	?ListDirectory@G4VBasicShell@@IEBAXAEBVG4String@@@Z
	?MainWindowProc@G4UIWin32@@CA_JPEAUHWND__@@I_K_J@Z
	?MakePrompt@G4VUIshell@@MEAAXPEBD@Z
	?ModifyPath@G4VBasicShell@@AEBA?AVG4String@@AEBV2@@Z
	?ModifyPrefix@G4UIGAG@@AEAA?AVG4String@@V2@@Z
	?ModifyToFullPathCommand@G4VBasicShell@@IEBA?AVG4String@@PEBD@Z
	?NotifyCommandUpdate@G4UIGAG@@AEAAXXZ
	?NotifyParameterUpdate@G4UIGAG@@AEAAXPEAVG4UIcommand@@@Z
	?NotifyStateChange@G4UIGAG@@AEAAXXZ
	?PauseSessionStart@G4UIGAG@@UEAAXAEBVG4String@@@Z
	?PauseSessionStart@G4UIWin32@@UEAAXAEBVG4String@@@Z
	?PauseSessionStart@G4UIterminal@@UEAAXAEBVG4String@@@Z
	?Prompt@G4UIGAG@@QEAAXAEBVG4String@@@Z
	?Prompt@G4UIWin32@@QEAAXAEBVG4String@@@Z
	?ReceiveG4cerr@G4UIGAG@@UEAAHAEBVG4String@@@Z
	?ReceiveG4cerr@G4UIWin32@@UEAAHAEBVG4String@@@Z
	?ReceiveG4cerr@G4UIterminal@@UEAAHAEBVG4String@@@Z
	?ReceiveG4cout@G4UIGAG@@UEAAHAEBVG4String@@@Z
	?ReceiveG4cout@G4UIWin32@@UEAAHAEBVG4String@@@Z
	?ReceiveG4cout@G4UIterminal@@UEAAHAEBVG4String@@@Z
	?RemoveDispatcher@G4VInteractorManager@@QEAAXP6A_NPEAX@Z@Z
	?RemoveShell@G4VInteractorManager@@QEAAXPEAX@Z
	?RequireExitSecondaryLoop@G4VInteractorManager@@QEAAXH@Z
	?ResetTerminal@G4VUIshell@@UEAAXXZ
	?SecondaryLoop@G4UIWin32@@AEAAXAEBVG4String@@@Z
	?SecondaryLoop@G4VInteractorManager@@UEAAXXZ
	?SecondaryLoopPostActions@G4VInteractorManager@@QEAAXXZ
	?SecondaryLoopPreActions@G4VInteractorManager@@QEAAXXZ
	?SelectSessionByArg@G4UIExecutive@@AEAAXAEBVG4String@@@Z
	?SelectSessionByBestGuess@G4UIExecutive@@AEAAXXZ
	?SelectSessionByEnv@G4UIExecutive@@AEAAXXZ
	?SelectSessionByFile@G4UIExecutive@@AEAAXAEBVG4String@@@Z
	?SendAParamProperty@G4UIGAG@@AEAAXPEAVG4UIcommand@@@Z
	?SendATclParamProperty@G4UIGAG@@AEAAXPEAVG4UIcommand@@@Z
	?SendCommandProperties@G4UIGAG@@AEAAXPEAVG4UIcommandTree@@@Z
	?SendDisableList@G4UIGAG@@AEAAXPEAVG4UIcommandTree@@H@Z
	?SendParameterProperties@G4UIGAG@@AEAAXPEAVG4UIcommandTree@@@Z
	?SessionStart@G4UIExecutive@@QEAAXXZ
	?SessionStart@G4UIGAG@@UEAAPEAVG4UIsession@@XZ
	?SessionStart@G4UIWin32@@UEAAPEAVG4UIsession@@XZ
	?SessionStart@G4UIterminal@@UEAAPEAVG4UIsession@@XZ
	?SessionTerminate@G4UIGAG@@QEAAXXZ
	?SessionTerminate@G4UIWin32@@QEAAXXZ
	?SetArguments@G4VInteractorManager@@QEAAXHPEAPEAD@Z
	?SetCreatedInteractor@G4VInteractorManager@@QEAAXPEAX@Z
	?SetCreationString@G4VInteractorManager@@QEAAXPEAD@Z
	?SetEndOfPage@TextBuffer@@QEAAXH@Z
	?SetGuidance@G4UIcommand@@QEAAXPEBD@Z
	?SetLsColor@G4UIExecutive@@QEAAXW4TermColorIndex@@0@Z
	?SetLsColor@G4VUIshell@@UEAAXW4TermColorIndex@@0@Z
	?SetMainInteractor@G4VInteractorManager@@QEAAXPEAX@Z
	?SetNewValue@G4InteractorMessenger@@UEAAXPEAVG4UIcommand@@VG4String@@@Z
	?SetParameter@G4UIcommand@@QEAAXQEAVG4UIparameter@@@Z
	?SetParentInteractor@G4VInteractorManager@@QEAAXPEAX@Z
	?SetPrompt@G4UIExecutive@@QEAAXAEBVG4String@@@Z
	?SetPrompt@G4UIterminal@@QEAAXAEBVG4String@@@Z
	?Show@G4UIArrayString@@QEAAXH@Z
	?ShowCurrent@G4UIGAG@@AEAAXAEBVG4String@@@Z
	?ShowCurrent@G4VBasicShell@@IEBAXAEBVG4String@@@Z
	?ShowCurrentDirectory@G4VUIshell@@UEBAXXZ
	?TerminalHelp@G4UIGAG@@AEAAXAEBVG4String@@@Z
	?TerminalHelp@G4VBasicShell@@IEAAXAEBVG4String@@@Z
	?TextAppendString@G4UIWin32@@QEAAXPEAD@Z
	?TextWindowProc@G4UIWin32@@CA_JPEAUHWND__@@I_K_J@Z
	?UpdateParamVal@G4UIGAG@@AEAAXXZ
	?UpdateState@G4UIGAG@@AEAAXXZ
	?_Become_small@?$basic_string@DU?$char_traits@D@std@@V?$allocator@D@2@@std@@AEAAXXZ
	?_Change_array@?$vector@VG4String@@V?$allocator@VG4String@@@std@@@std@@AEAAXQEAVG4String@@_K1@Z
	?_Destroy@?$vector@Uyystype@G4UItokenNum@@V?$allocator@Uyystype@G4UItokenNum@@@std@@@std@@AEAAXPEAUyystype@G4UItokenNum@@0@Z
	?_Destroy@?$vector@VG4String@@V?$allocator@VG4String@@@std@@@std@@AEAAXPEAVG4String@@0@Z
	?_Endwrite@?$basic_filebuf@DU?$char_traits@D@std@@@std@@IEAA_NXZ
	?_Getal@?$vector@Uyystype@G4UItokenNum@@V?$allocator@Uyystype@G4UItokenNum@@@std@@@std@@AEAAAEAV?$allocator@Uyystype@G4UItokenNum@@@2@XZ
	?_Insert_node@?$_Tree_val@U?$_Tree_simple_types@U?$pair@$$CBHVG4String@@@std@@@std@@@std@@QEAAPEAU?$_Tree_node@U?$pair@$$CBHVG4String@@@std@@PEAX@2@U?$_Tree_id@PEAU?$_Tree_node@U?$pair@$$CBHVG4String@@@std@@PEAX@std@@@2@QEAU32@@Z
	?_Insert_node@?$_Tree_val@U?$_Tree_simple_types@U?$pair@$$CBVG4String@@PEAX@std@@@std@@@std@@QEAAPEAU?$_Tree_node@U?$pair@$$CBVG4String@@PEAX@std@@PEAX@2@U?$_Tree_id@PEAU?$_Tree_node@U?$pair@$$CBVG4String@@PEAX@std@@PEAX@std@@@2@QEAU32@@Z
	?_Insert_node@?$_Tree_val@U?$_Tree_simple_types@U?$pair@$$CBVG4String@@V1@@std@@@std@@@std@@QEAAPEAU?$_Tree_node@U?$pair@$$CBVG4String@@V1@@std@@PEAX@2@U?$_Tree_id@PEAU?$_Tree_node@U?$pair@$$CBVG4String@@V1@@std@@PEAX@std@@@2@QEAU32@@Z
	?_Lock@?$basic_filebuf@DU?$char_traits@D@std@@@std@@UEAAXXZ
	?_Maklocwcs@std@@YAPEA_WPEB_W@Z
	?_Reset_back@?$basic_filebuf@DU?$char_traits@D@std@@@std@@AEAAXXZ
	?_Throw_bad_array_new_length@std@@YAXXZ
	?_Throw_bad_cast@std@@YAXXZ
	?_Throw_tree_length_error@std@@YAXXZ
	?_Ufill@?$vector@Uyystype@G4UItokenNum@@V?$allocator@Uyystype@G4UItokenNum@@@std@@@std@@AEAAPEAUyystype@G4UItokenNum@@PEAU34@_KU_Value_init_tag@2@@Z
	?_Unlock@?$basic_filebuf@DU?$char_traits@D@std@@@std@@UEAAXXZ
	?_Xlen@?$basic_string@DU?$char_traits@D@std@@V?$allocator@D@2@@std@@CAXXZ
	?_Xlength@?$vector@P6AXXZV?$allocator@P6AXXZ@std@@@std@@CAXXZ
	?_Xlength@?$vector@P6A_NPEAX@ZV?$allocator@P6A_NPEAX@Z@std@@@std@@CAXXZ
	?_Xlength@?$vector@PEAVG4UIcommand@@V?$allocator@PEAVG4UIcommand@@@std@@@std@@CAXXZ
	?_Xlength@?$vector@PEAVG4UIparameter@@V?$allocator@PEAVG4UIparameter@@@std@@@std@@CAXXZ
	?_Xlength@?$vector@PEAXV?$allocator@PEAX@std@@@std@@CAXXZ
	?_Xlength@?$vector@Uyystype@G4UItokenNum@@V?$allocator@Uyystype@G4UItokenNum@@@std@@@std@@CAXXZ
	?_Xlength@?$vector@VG4String@@V?$allocator@VG4String@@@std@@@std@@CAXXZ
	?_Xran@?$_String_val@U?$_Simple_types@D@std@@@std@@SAXXZ
	?allocate@?$allocator@D@std@@QEAAPEAD_K@Z
	?allocate@?$allocator@PEAVG4UIcommand@@@std@@QEAAPEAPEAVG4UIcommand@@_K@Z
	?allocate@?$allocator@VG4String@@@std@@QEAAPEAVG4String@@_K@Z
	?append@?$basic_string@DU?$char_traits@D@std@@V?$allocator@D@2@@std@@QEAAAEAV12@QEBD_K@Z
	?assign@?$basic_string@DU?$char_traits@D@std@@V?$allocator@D@2@@std@@QEAAAEAV12@QEBD_K@Z
	?close@?$basic_filebuf@DU?$char_traits@D@std@@@std@@QEAAPEAV12@XZ
	?deallocate@?$allocator@D@std@@QEAAXQEAD_K@Z
	?deallocate@?$allocator@P6AXXZ@std@@QEAAXQEAP6AXXZ_K@Z
	?deallocate@?$allocator@P6A_NPEAX@Z@std@@QEAAXQEAP6A_NPEAX@Z_K@Z
	?deallocate@?$allocator@PEAVG4UIcommand@@@std@@QEAAXQEAPEAVG4UIcommand@@_K@Z
	?deallocate@?$allocator@PEAVG4UIparameter@@@std@@QEAAXQEAPEAVG4UIparameter@@_K@Z
	?deallocate@?$allocator@PEAX@std@@QEAAXQEAPEAX_K@Z
	?deallocate@?$allocator@Uyystype@G4UItokenNum@@@std@@QEAAXQEAUyystype@G4UItokenNum@@_K@Z
	?deallocate@?$allocator@VG4String@@@std@@QEAAXQEAVG4String@@_K@Z
	?getInstance@G4Win32@@SAPEAV1@XZ
	?imbue@?$basic_filebuf@DU?$char_traits@D@std@@@std@@MEAAXAEBVlocale@2@@Z
	?overflow@?$basic_filebuf@DU?$char_traits@D@std@@@std@@MEAAHH@Z
	?overflow@?$basic_stringbuf@DU?$char_traits@D@std@@V?$allocator@D@2@@std@@MEAAHH@Z
	?pbackfail@?$basic_filebuf@DU?$char_traits@D@std@@@std@@MEAAHH@Z
	?pbackfail@?$basic_stringbuf@DU?$char_traits@D@std@@V?$allocator@D@2@@std@@MEAAHH@Z
	?reserve@?$basic_string@DU?$char_traits@D@std@@V?$allocator@D@2@@std@@QEAAX_K@Z
	?seekoff@?$basic_filebuf@DU?$char_traits@D@std@@@std@@MEAA?AV?$fpos@U_Mbstatet@@@2@_JHH@Z
	?seekoff@?$basic_stringbuf@DU?$char_traits@D@std@@V?$allocator@D@2@@std@@MEAA?AV?$fpos@U_Mbstatet@@@2@_JHH@Z
	?seekpos@?$basic_filebuf@DU?$char_traits@D@std@@@std@@MEAA?AV?$fpos@U_Mbstatet@@@2@V32@H@Z
	?seekpos@?$basic_stringbuf@DU?$char_traits@D@std@@V?$allocator@D@2@@std@@MEAA?AV?$fpos@U_Mbstatet@@@2@V32@H@Z
	?setbuf@?$basic_filebuf@DU?$char_traits@D@std@@@std@@MEAAPEAV?$basic_streambuf@DU?$char_traits@D@std@@@2@PEAD_J@Z
	?strip@G4String@@QEAA?AV1@HD@Z
	?sync@?$basic_filebuf@DU?$char_traits@D@std@@@std@@MEAAHXZ
	?uflow@?$basic_filebuf@DU?$char_traits@D@std@@@std@@MEAAHXZ
	?underflow@?$basic_filebuf@DU?$char_traits@D@std@@@std@@MEAAHXZ
	?underflow@?$basic_stringbuf@DU?$char_traits@D@std@@V?$allocator@D@2@@std@@MEAAHXZ
	?what@exception@std@@UEBAPEBDXZ
	?xsgetn@?$basic_filebuf@DU?$char_traits@D@std@@@std@@MEAA_JPEAD_J@Z
	?xsputn@?$basic_filebuf@DU?$char_traits@D@std@@@std@@MEAA_JPEBD_J@Z
